
subreg.ld:     file format elf32-bigmips

Disassembly of section .init:

00400fc0 <__istart-0xc>:
	...

00400fcc <__istart>:
  400fcc:	00000000 	nop
  400fd0:	03e00008 	jr	$ra
	...
Disassembly of section .text:

00400fe0 <__start>:
  400fe0:	8fa40000 	lw	$a0,0($sp)
  400fe4:	27a50004 	addiu	$a1,$sp,4
  400fe8:	3c1c0042 	lui	$gp,0x42
  400fec:	24a60004 	addiu	$a2,$a1,4
  400ff0:	00041080 	sll	$v0,$a0,0x2
  400ff4:	279c5be0 	addiu	$gp,$gp,23520
  400ff8:	00c23021 	addu	$a2,$a2,$v0
  400ffc:	3c010042 	lui	$at,0x42
  401000:	27bdffe8 	addiu	$sp,$sp,-24
  401004:	ac26dc00 	sw	$a2,-9216($at)
  401008:	af85af64 	sw	$a1,-20636($gp)
  40100c:	afa00014 	sw	$zero,20($sp)
  401010:	0000f025 	move	$s8,$zero
  401014:	0c1003f3 	jal	400fcc <__istart>
  401018:	af84af68 	sw	$a0,-20632($gp)
  40101c:	0c101578 	jal	4055e0 <__readenv_sigfpe>
  401020:	00000000 	nop
  401024:	3c060042 	lui	$a2,0x42
  401028:	8f84af68 	lw	$a0,-20632($gp)
  40102c:	8f85af64 	lw	$a1,-20636($gp)
  401030:	8cc6dc00 	lw	$a2,-9216($a2)
  401034:	0c100418 	jal	401060 <main>
  401038:	00000000 	nop
  40103c:	0c10155c 	jal	405570 <exit>
  401040:	00402025 	move	$a0,$v0
  401044:	0000000d 	break

00401048 <_mcount>:
  401048:	27bdfff8 	addiu	$sp,$sp,-8
  40104c:	27bd0010 	addiu	$sp,$sp,16
  401050:	03e00008 	jr	$ra
  401054:	0020f825 	move	$ra,$at
	...

00401060 <main>:
  401060:	27bdff68 	addiu	$sp,$sp,-152
  401064:	afbf0094 	sw	$ra,148($sp)
  401068:	afbc0090 	sw	$gp,144($sp)
  40106c:	afb1008c 	sw	$s1,140($sp)
  401070:	afb00088 	sw	$s0,136($sp)
  401074:	3c050042 	lui	$a1,0x42
  401078:	24a5a0c4 	addiu	$a1,$a1,-24380
  40107c:	88a20000 	lwl	$v0,0($a1)
  401080:	98a20003 	lwr	$v0,3($a1)
  401084:	88a30004 	lwl	$v1,4($a1)
  401088:	98a30007 	lwr	$v1,7($a1)
  40108c:	88a40008 	lwl	$a0,8($a1)
  401090:	98a4000b 	lwr	$a0,11($a1)
  401094:	aba20018 	swl	$v0,24($sp)
  401098:	bba2001b 	swr	$v0,27($sp)
  40109c:	aba3001c 	swl	$v1,28($sp)
  4010a0:	bba3001f 	swr	$v1,31($sp)
  4010a4:	aba40020 	swl	$a0,32($sp)
  4010a8:	bba40023 	swr	$a0,35($sp)
  4010ac:	88a2000c 	lwl	$v0,12($a1)
  4010b0:	98a2000f 	lwr	$v0,15($a1)
  4010b4:	88a30010 	lwl	$v1,16($a1)
  4010b8:	98a30013 	lwr	$v1,19($a1)
  4010bc:	88a40014 	lwl	$a0,20($a1)
  4010c0:	98a40017 	lwr	$a0,23($a1)
  4010c4:	aba20024 	swl	$v0,36($sp)
  4010c8:	bba20027 	swr	$v0,39($sp)
  4010cc:	aba30028 	swl	$v1,40($sp)
  4010d0:	bba3002b 	swr	$v1,43($sp)
  4010d4:	aba4002c 	swl	$a0,44($sp)
  4010d8:	bba4002f 	swr	$a0,47($sp)
  4010dc:	88a20018 	lwl	$v0,24($a1)
  4010e0:	98a2001b 	lwr	$v0,27($a1)
  4010e4:	80a3001c 	lb	$v1,28($a1)
  4010e8:	80a4001d 	lb	$a0,29($a1)
  4010ec:	aba20030 	swl	$v0,48($sp)
  4010f0:	bba20033 	swr	$v0,51($sp)
  4010f4:	a3a30034 	sb	$v1,52($sp)
  4010f8:	a3a40035 	sb	$a0,53($sp)
  4010fc:	80a2001e 	lb	$v0,30($a1)
  401100:	00000000 	nop
  401104:	a3a20036 	sb	$v0,54($sp)
  401108:	27a40037 	addiu	$a0,$sp,55
  40110c:	00002821 	move	$a1,$zero
  401110:	0c1019bc 	jal	4066f0 <memset>
  401114:	24060013 	li	$a2,19
  401118:	3c050042 	lui	$a1,0x42
  40111c:	24a5a0e4 	addiu	$a1,$a1,-24348
  401120:	8ca20000 	lw	$v0,0($a1)
  401124:	8ca30004 	lw	$v1,4($a1)
  401128:	84a40008 	lh	$a0,8($a1)
  40112c:	afa20050 	sw	$v0,80($sp)
  401130:	afa30054 	sw	$v1,84($sp)
  401134:	a7a40058 	sh	$a0,88($sp)
  401138:	3c040042 	lui	$a0,0x42
  40113c:	2484a0f0 	addiu	$a0,$a0,-24336
  401140:	27b10050 	addiu	$s1,$sp,80
  401144:	0c10157c 	jal	4055f0 <printf>
  401148:	02202821 	move	$a1,$s1
  40114c:	27b00018 	addiu	$s0,$sp,24
  401150:	0c101ad0 	jal	406b40 <strlen>
  401154:	02002021 	move	$a0,$s0
  401158:	02202021 	move	$a0,$s1
  40115c:	02002821 	move	$a1,$s0
  401160:	0c1019e0 	jal	406780 <memcpy>
  401164:	24460001 	addiu	$a2,$v0,1
  401168:	3c040042 	lui	$a0,0x42
  40116c:	2484a10c 	addiu	$a0,$a0,-24308
  401170:	0c10157c 	jal	4055f0 <printf>
  401174:	02202821 	move	$a1,$s1
  401178:	00001021 	move	$v0,$zero
  40117c:	8fbf0094 	lw	$ra,148($sp)
  401180:	8fb1008c 	lw	$s1,140($sp)
  401184:	8fb00088 	lw	$s0,136($sp)
  401188:	03e00008 	jr	$ra
  40118c:	27bd0098 	addiu	$sp,$sp,152

00401190 <_LoadDouble>:
  401190:	d8820000 	0xd8820000
  401194:	03e00008 	jr	$ra
  401198:	00000000 	nop

0040119c <_StoreDouble>:
  40119c:	03e00008 	jr	$ra
  4011a0:	f8860000 	0xf8860000

004011a4 <_Sync>:
  4011a4:	03e00008 	jr	$ra
  4011a8:	0000000f 	0xf

004011ac <_Prefetch>:
  4011ac:	cc800000 	lwc3	$0,0($a0)
  4011b0:	03e00008 	jr	$ra
  4011b4:	00000000 	nop

004011b8 <_PrefetchX>:
  4011b8:	cc810000 	lwc3	$1,0($a0)
  4011bc:	03e00008 	jr	$ra
  4011c0:	00000000 	nop

004011c4 <_FetchAndInc>:
  4011c4:	c0820000 	lwc0	$2,0($a0)
  4011c8:	20450001 	addi	$a1,$v0,1
  4011cc:	e0850000 	swc0	$5,0($a0)
  4011d0:	10a0fffc 	beqz	$a1,4011c4 <_FetchAndInc>
  4011d4:	00000000 	nop
  4011d8:	03e00008 	jr	$ra
  4011dc:	00000000 	nop

004011e0 <_ArrayLockAcquire>:
  4011e0:	c0a20000 	lwc0	$2,0($a1)
  4011e4:	20470001 	addi	$a3,$v0,1
  4011e8:	14e60002 	bne	$a3,$a2,4011f4 <_ArrayLockNoWrap>
  4011ec:	00000000 	nop
  4011f0:	00003821 	move	$a3,$zero

004011f4 <_ArrayLockNoWrap>:
  4011f4:	e0a70000 	swc0	$7,0($a1)
  4011f8:	10e0fff9 	beqz	$a3,4011e0 <_ArrayLockAcquire>
  4011fc:	00000000 	nop
  401200:	000239c0 	sll	$a3,$v0,0x7
  401204:	00873821 	addu	$a3,$a0,$a3

00401208 <_ArrayLockWait>:
  401208:	8ce30000 	lw	$v1,0($a3)
  40120c:	1060fffe 	beqz	$v1,401208 <_ArrayLockWait>
  401210:	00000000 	nop
  401214:	ace00000 	sw	$zero,0($a3)

00401218 <_ArrayLockExit>:
  401218:	03e00008 	jr	$ra
  40121c:	00000000 	nop

00401220 <_ArrayUnlockEntry>:
  401220:	20a20001 	addi	$v0,$a1,1
  401224:	14460002 	bne	$v0,$a2,401230 <_ArrayUnlockNoWrap>
  401228:	00000000 	nop
  40122c:	00001021 	move	$v0,$zero

00401230 <_ArrayUnlockNoWrap>:
  401230:	000211c0 	sll	$v0,$v0,0x7
  401234:	00821021 	addu	$v0,$a0,$v0
  401238:	20030001 	addi	$v1,$zero,1
  40123c:	ac430000 	sw	$v1,0($v0)

00401240 <_ArrayUnlockExit>:
  401240:	03e00008 	jr	$ra
  401244:	00000000 	nop

00401248 <_LockEnter>:
  401248:	c0850000 	lwc0	$5,0($a0)
  40124c:	14a0fffe 	bnez	$a1,401248 <_LockEnter>
  401250:	00000000 	nop
  401254:	24060001 	li	$a2,1
  401258:	e0860000 	swc0	$6,0($a0)
  40125c:	10c0fffa 	beqz	$a2,401248 <_LockEnter>
  401260:	00000000 	nop

00401264 <__Lock_End>:
  401264:	03e00008 	jr	$ra
  401268:	00000000 	nop

0040126c <_Unlock>:
  40126c:	0000000f 	0xf
  401270:	ac800000 	sw	$zero,0($a0)

00401274 <__Unlock_End>:
  401274:	03e00008 	jr	$ra
  401278:	00000000 	nop

0040127c <_Barrier>:
  40127c:	0000000f 	0xf
  401280:	20c70001 	addi	$a3,$a2,1
  401284:	8c880080 	lw	$t0,128($a0)

00401288 <loop>:
  401288:	c0820000 	lwc0	$2,0($a0)
  40128c:	24420001 	addiu	$v0,$v0,1
  401290:	00053040 	sll	$a2,$a1,0x1
  401294:	14460002 	bne	$v0,$a2,4012a0 <loop+0x18>
  401298:	00000000 	nop
  40129c:	00001021 	move	$v0,$zero
  4012a0:	00404821 	move	$t1,$v0
  4012a4:	e0820000 	swc0	$2,0($a0)
  4012a8:	1040000e 	beqz	$v0,4012e4 <backoff>
  4012ac:	00000000 	nop
  4012b0:	11200008 	beqz	$t1,4012d4 <release>
  4012b4:	00000000 	nop
  4012b8:	11250006 	beq	$t1,$a1,4012d4 <release>
  4012bc:	00000000 	nop

004012c0 <wait>:
  4012c0:	8c890080 	lw	$t1,128($a0)
  4012c4:	1109fffe 	beq	$t0,$t1,4012c0 <wait>
  4012c8:	00000000 	nop

004012cc <__Barrier_End_1>:
  4012cc:	03e00008 	jr	$ra
  4012d0:	00000000 	nop

004012d4 <release>:
  4012d4:	25080001 	addiu	$t0,$t0,1
  4012d8:	ac880080 	sw	$t0,128($a0)

004012dc <__Barrier_End_2>:
  4012dc:	03e00008 	jr	$ra
  4012e0:	00000000 	nop

004012e4 <backoff>:
  4012e4:	00e04821 	move	$t1,$a3

004012e8 <backloop>:
  4012e8:	2129ffff 	addi	$t1,$t1,-1
  4012ec:	1520fffe 	bnez	$t1,4012e8 <backloop>
  4012f0:	00000000 	nop
  4012f4:	081004a2 	j	401288 <loop>
  4012f8:	20e70001 	addi	$a3,$a3,1

004012fc <_CheckPlatform>:
  4012fc:	2402040c 	li	$v0,1036
  401300:	0000000c 	syscall
  401304:	03e00008 	jr	$ra
  401308:	00000000 	nop

0040130c <_Exit>:
  40130c:	240203e9 	li	$v0,1001
  401310:	0000000c 	syscall
  401314:	03e00008 	jr	$ra
  401318:	00000000 	nop

0040131c <_FetchAndStore>:
  40131c:	24070000 	li	$a3,0
  401320:	00803021 	move	$a2,$a0
  401324:	ccc10000 	lwc3	$1,0($a2)

00401328 <_FASTry>:
  401328:	00a04820 	add	$t1,$a1,$zero
  40132c:	c0c80000 	lwc0	$8,0($a2)
  401330:	e0c90000 	swc0	$9,0($a2)
  401334:	00000000 	nop
  401338:	15200005 	bnez	$t1,401350 <_FASEnd>
  40133c:	24020405 	li	$v0,1029
  401340:	00e02021 	move	$a0,$a3
  401344:	0000000c 	syscall
  401348:	20e70001 	addi	$a3,$a3,1
  40134c:	1000fff6 	b	401328 <_FASTry>

00401350 <_FASEnd>:
  401350:	01001020 	add	$v0,$t0,$zero
  401354:	03e00008 	jr	$ra
  401358:	00000000 	nop

0040135c <_CompareAndSwap>:
  40135c:	24070000 	li	$a3,0
  401360:	00805021 	move	$t2,$a0
  401364:	cd410000 	lwc3	$1,0($t2)

00401368 <_CASTry>:
  401368:	00c04820 	add	$t1,$a2,$zero
  40136c:	c1480000 	lwc0	$8,0($t2)
  401370:	00000000 	nop
  401374:	1505000c 	bne	$t0,$a1,4013a8 <_CASFail>
  401378:	00000000 	nop
  40137c:	e1490000 	swc0	$9,0($t2)
  401380:	00000000 	nop
  401384:	15200005 	bnez	$t1,40139c <_CASEnd>
  401388:	24020405 	li	$v0,1029
  40138c:	00e02021 	move	$a0,$a3
  401390:	0000000c 	syscall
  401394:	20e70001 	addi	$a3,$a3,1
  401398:	1000fff3 	b	401368 <_CASTry>

0040139c <_CASEnd>:
  40139c:	24020001 	li	$v0,1
  4013a0:	03e00008 	jr	$ra
  4013a4:	00000000 	nop

004013a8 <_CASFail>:
  4013a8:	00001020 	add	$v0,$zero,$zero
  4013ac:	03e00008 	jr	$ra
  4013b0:	00000000 	nop

004013b4 <_CountDown>:
  4013b4:	10800004 	beqz	$a0,4013c8 <_CD_done>
  4013b8:	00000000 	nop

004013bc <_CD>:
  4013bc:	2484ffff 	addiu	$a0,$a0,-1
  4013c0:	1c80fffe 	bgtz	$a0,4013bc <_CD>
  4013c4:	00000000 	nop

004013c8 <_CD_done>:
  4013c8:	03e00008 	jr	$ra
  4013cc:	00000000 	nop

004013d0 <_DummyNops>:
	...
  4053d0:	03e00008 	jr	$ra

004053d4 <LibcStart>:
  4053d4:	03e00008 	jr	$ra
	...

004053e0 <_Page_Flush_D>:
  4053e0:	00042820 	add	$a1,$zero,$a0
  4053e4:	24040011 	li	$a0,17
  4053e8:	2402049d 	li	$v0,1181
  4053ec:	0000000c 	syscall
  4053f0:	03e00008 	jr	$ra
  4053f4:	00000000 	nop

004053f8 <_Page_Flush_S>:
  4053f8:	00042820 	add	$a1,$zero,$a0
  4053fc:	24040012 	li	$a0,18
  405400:	2402049d 	li	$v0,1181
  405404:	0000000c 	syscall
  405408:	03e00008 	jr	$ra
  40540c:	00000000 	nop

00405410 <_Hit_WB_Inval_D>:
  405410:	00042820 	add	$a1,$zero,$a0
  405414:	2404000b 	li	$a0,11
  405418:	2402049d 	li	$v0,1181
  40541c:	0000000c 	syscall
  405420:	03e00008 	jr	$ra
  405424:	00000000 	nop

00405428 <_Hit_WB_Inval_S>:
  405428:	00042820 	add	$a1,$zero,$a0
  40542c:	2404000c 	li	$a0,12
  405430:	2402049d 	li	$v0,1181
  405434:	0000000c 	syscall
  405438:	03e00008 	jr	$ra
  40543c:	00000000 	nop

00405440 <_Index_WB_Inval_D>:
  405440:	00053020 	add	$a2,$zero,$a1
  405444:	00042820 	add	$a1,$zero,$a0
  405448:	2404000d 	li	$a0,13
  40544c:	2402049d 	li	$v0,1181
  405450:	0000000c 	syscall
  405454:	03e00008 	jr	$ra
  405458:	00000000 	nop

0040545c <_Index_WB_Inval_S>:
  40545c:	00053020 	add	$a2,$zero,$a1
  405460:	00042820 	add	$a1,$zero,$a0
  405464:	2404000e 	li	$a0,14
  405468:	2402049d 	li	$v0,1181
  40546c:	0000000c 	syscall
  405470:	03e00008 	jr	$ra
  405474:	00000000 	nop

00405478 <_PlaceRange>:
  405478:	00063820 	add	$a3,$zero,$a2
  40547c:	00053020 	add	$a2,$zero,$a1
  405480:	00042820 	add	$a1,$zero,$a0
  405484:	24040004 	li	$a0,4
  405488:	2402049d 	li	$v0,1181
  40548c:	0000000c 	syscall
  405490:	03e00008 	jr	$ra
  405494:	00000000 	nop

00405498 <_Create>:
  405498:	00053020 	add	$a2,$zero,$a1
  40549c:	00042820 	add	$a1,$zero,$a0
  4054a0:	24040006 	li	$a0,6
  4054a4:	2402049d 	li	$v0,1181
  4054a8:	0000000c 	syscall
  4054ac:	03e00008 	jr	$ra
  4054b0:	00000000 	nop

004054b4 <_Wait_for_end>:
  4054b4:	00042820 	add	$a1,$zero,$a0
  4054b8:	24040007 	li	$a0,7
  4054bc:	2402049d 	li	$v0,1181
  4054c0:	0000000c 	syscall
  4054c4:	03e00008 	jr	$ra
  4054c8:	00000000 	nop

004054cc <_Syscall>:
  4054cc:	2402049d 	li	$v0,1181
  4054d0:	0000000c 	syscall
  4054d4:	03e00008 	jr	$ra
  4054d8:	00801020 	add	$v0,$a0,$zero

004054dc <_IOMap>:
  4054dc:	00042820 	add	$a1,$zero,$a0
  4054e0:	24040008 	li	$a0,8
  4054e4:	2402049d 	li	$v0,1181
  4054e8:	0000000c 	syscall
  4054ec:	03e00008 	jr	$ra
  4054f0:	00000000 	nop

004054f4 <_IOMapGeneral>:
  4054f4:	00054020 	add	$t0,$zero,$a1
  4054f8:	00042820 	add	$a1,$zero,$a0
  4054fc:	24040009 	li	$a0,9
  405500:	2402049d 	li	$v0,1181
  405504:	0000000c 	syscall
  405508:	03e00008 	jr	$ra
  40550c:	00000000 	nop

00405510 <_MemoryMap>:
  405510:	8fa20010 	lw	$v0,16($sp)
  405514:	00024820 	add	$t1,$zero,$v0
  405518:	00074020 	add	$t0,$zero,$a3
  40551c:	00063820 	add	$a3,$zero,$a2
  405520:	00053020 	add	$a2,$zero,$a1
  405524:	00042820 	add	$a1,$zero,$a0
  405528:	24040013 	li	$a0,19
  40552c:	2402049d 	li	$v0,1181
  405530:	0000000c 	syscall
  405534:	03e00008 	jr	$ra
  405538:	00000000 	nop

0040553c <_GetPhysAddr>:
  40553c:	00042820 	add	$a1,$zero,$a0
  405540:	2404000a 	li	$a0,10
  405544:	2402049d 	li	$v0,1181
  405548:	0000000c 	syscall
  40554c:	00801020 	add	$v0,$a0,$zero
  405550:	03e00008 	jr	$ra
  405554:	00a01820 	add	$v1,$a1,$zero

00405558 <_GetNodeNum>:
  405558:	24040014 	li	$a0,20
  40555c:	2402049d 	li	$v0,1181
  405560:	0000000c 	syscall
  405564:	03e00008 	jr	$ra
  405568:	00801020 	add	$v0,$a0,$zero
  40556c:	00000000 	nop

00405570 <exit>:
  405570:	27bdffe8 	addiu	$sp,$sp,-24
  405574:	afbf0014 	sw	$ra,20($sp)
  405578:	0c101b75 	jal	406dd4 <__eachexithandle>
  40557c:	afa40018 	sw	$a0,24($sp)
  405580:	0c1015dc 	jal	405770 <_prctl>
  405584:	2404000e 	li	$a0,14
  405588:	28410002 	slti	$at,$v0,2
  40558c:	10200009 	beqz	$at,4055b4 <exit+0x44>
  405590:	00000000 	nop
  405594:	0c101b2d 	jal	406cb4 <_exithandle>
  405598:	00000000 	nop
  40559c:	3c0e0000 	lui	$t6,0x0
  4055a0:	25ce0000 	addiu	$t6,$t6,0
  4055a4:	11c00003 	beqz	$t6,4055b4 <exit+0x44>
  4055a8:	00000000 	nop
  4055ac:	0c1015e8 	jal	4057a0 <_rld_new_interface>
  4055b0:	00002025 	move	$a0,$zero
  4055b4:	0c1015f0 	jal	4057c0 <_cleanup>
  4055b8:	00000000 	nop
  4055bc:	8fa40018 	lw	$a0,24($sp)
  4055c0:	0c1015d0 	jal	405740 <__exit>
  4055c4:	00000000 	nop
  4055c8:	8fbf0014 	lw	$ra,20($sp)
  4055cc:	27bd0018 	addiu	$sp,$sp,24
  4055d0:	03e00008 	jr	$ra
	...

004055e0 <__readenv_sigfpe>:
  4055e0:	03e00008 	jr	$ra
	...

004055f0 <printf>:
  4055f0:	27bdffd8 	addiu	$sp,$sp,-40
  4055f4:	8f8e88b4 	lw	$t6,-30540($gp)
  4055f8:	afbf0014 	sw	$ra,20($sp)
  4055fc:	afa40028 	sw	$a0,40($sp)
  405600:	afa5002c 	sw	$a1,44($sp)
  405604:	afa60030 	sw	$a2,48($sp)
  405608:	11c00006 	beqz	$t6,405624 <printf+0x34>
  40560c:	afa70034 	sw	$a3,52($sp)
  405610:	3c040042 	lui	$a0,0x42
  405614:	0c102c2c 	jal	40b0b0 <_flockfile>
  405618:	2484ddb4 	addiu	$a0,$a0,-8780
  40561c:	10000002 	b	405628 <printf+0x38>
  405620:	24030001 	li	$v1,1
  405624:	00001825 	move	$v1,$zero
  405628:	3c070042 	lui	$a3,0x42
  40562c:	24e7dda4 	addiu	$a3,$a3,-8796
  405630:	90e2001c 	lbu	$v0,28($a3)
  405634:	27a5002c 	addiu	$a1,$sp,44
  405638:	304f0002 	andi	$t7,$v0,0x2
  40563c:	15e0000d 	bnez	$t7,405674 <printf+0x84>
  405640:	30580080 	andi	$t8,$v0,0x80
  405644:	13000003 	beqz	$t8,405654 <printf+0x64>
  405648:	34590002 	ori	$t9,$v0,0x2
  40564c:	10000009 	b	405674 <printf+0x84>
  405650:	a0f9001c 	sb	$t9,28($a3)
  405654:	10600003 	beqz	$v1,405664 <printf+0x74>
  405658:	3c040042 	lui	$a0,0x42
  40565c:	0c102c55 	jal	40b154 <_funlockfile>
  405660:	2484ddb4 	addiu	$a0,$a0,-8780
  405664:	0c102025 	jal	408094 <_setoserror>
  405668:	24040009 	li	$a0,9
  40566c:	10000017 	b	4056cc <printf+0xdc>
  405670:	2402ffff 	li	$v0,-1
  405674:	8fa40028 	lw	$a0,40($sp)
  405678:	3c060042 	lui	$a2,0x42
  40567c:	24c6ddb4 	addiu	$a2,$a2,-8780
  405680:	0c1031e7 	jal	40c79c <_doprnt>
  405684:	afa3001c 	sw	$v1,28($sp)
  405688:	3c070042 	lui	$a3,0x42
  40568c:	24e7dda4 	addiu	$a3,$a3,-8796
  405690:	90e8001c 	lbu	$t0,28($a3)
  405694:	8fa3001c 	lw	$v1,28($sp)
  405698:	31090020 	andi	$t1,$t0,0x20
  40569c:	11200003 	beqz	$t1,4056ac <printf+0xbc>
  4056a0:	00402825 	move	$a1,$v0
  4056a4:	10000001 	b	4056ac <printf+0xbc>
  4056a8:	2405ffff 	li	$a1,-1
  4056ac:	10600006 	beqz	$v1,4056c8 <printf+0xd8>
  4056b0:	3c040042 	lui	$a0,0x42
  4056b4:	2484ddb4 	addiu	$a0,$a0,-8780
  4056b8:	0c102c55 	jal	40b154 <_funlockfile>
  4056bc:	afa50018 	sw	$a1,24($sp)
  4056c0:	8fa50018 	lw	$a1,24($sp)
  4056c4:	00000000 	nop
  4056c8:	00a01025 	move	$v0,$a1
  4056cc:	8fbf0014 	lw	$ra,20($sp)
  4056d0:	27bd0028 	addiu	$sp,$sp,40
  4056d4:	03e00008 	jr	$ra
	...

004056e0 <_execv>:
  4056e0:	27bdffe8 	addiu	$sp,$sp,-24
  4056e4:	afbf0014 	sw	$ra,20($sp)
  4056e8:	8f868020 	lw	$a2,-32736($gp)
  4056ec:	0c1015c4 	jal	405710 <_execve>
  4056f0:	00000000 	nop
  4056f4:	8fbf0014 	lw	$ra,20($sp)
  4056f8:	27bd0018 	addiu	$sp,$sp,24
  4056fc:	03e00008 	jr	$ra
	...

00405710 <_execve>:
  405710:	24020423 	li	$v0,1059
  405714:	0000000c 	syscall
  405718:	14e00003 	bnez	$a3,405728 <_execve+0x18>
  40571c:	00000000 	nop
  405720:	03e00008 	jr	$ra
  405724:	00000000 	nop
  405728:	3c190040 	lui	$t9,0x40
  40572c:	27396b60 	addiu	$t9,$t9,27488
  405730:	03200008 	jr	$t9
	...

00405740 <__exit>:
  405740:	240203e9 	li	$v0,1001
  405744:	0000000c 	syscall
  405748:	14e00003 	bnez	$a3,405758 <__exit+0x18>
  40574c:	00000000 	nop
  405750:	03e00008 	jr	$ra
  405754:	00000000 	nop
  405758:	3c190040 	lui	$t9,0x40
  40575c:	27396b60 	addiu	$t9,$t9,27488
  405760:	03200008 	jr	$t9
	...

00405770 <_prctl>:
  405770:	2402046a 	li	$v0,1130
  405774:	0000000c 	syscall
  405778:	14e00003 	bnez	$a3,405788 <_prctl+0x18>
  40577c:	00000000 	nop
  405780:	03e00008 	jr	$ra
  405784:	00000000 	nop
  405788:	3c190040 	lui	$t9,0x40
  40578c:	27396b60 	addiu	$t9,$t9,27488
  405790:	03200008 	jr	$t9
	...

004057a0 <_rld_new_interface>:
  4057a0:	27bdfff8 	addiu	$sp,$sp,-8
  4057a4:	afa40008 	sw	$a0,8($sp)
  4057a8:	afa5000c 	sw	$a1,12($sp)
  4057ac:	afa60010 	sw	$a2,16($sp)
  4057b0:	afa70014 	sw	$a3,20($sp)
  4057b4:	03e00008 	jr	$ra
  4057b8:	27bd0008 	addiu	$sp,$sp,8
  4057bc:	00000000 	nop

004057c0 <_cleanup>:
  4057c0:	27bdffe8 	addiu	$sp,$sp,-24
  4057c4:	afbf0014 	sw	$ra,20($sp)
  4057c8:	0c1018b0 	jal	4062c0 <fflush>
  4057cc:	00002025 	move	$a0,$zero
  4057d0:	8fbf0014 	lw	$ra,20($sp)
  4057d4:	27bd0018 	addiu	$sp,$sp,24
  4057d8:	03e00008 	jr	$ra
  4057dc:	00000000 	nop

004057e0 <_flushlbf>:
  4057e0:	27bdffc8 	addiu	$sp,$sp,-56
  4057e4:	8f8e88b4 	lw	$t6,-30540($gp)
  4057e8:	afbf0034 	sw	$ra,52($sp)
  4057ec:	afb60030 	sw	$s6,48($sp)
  4057f0:	afb5002c 	sw	$s5,44($sp)
  4057f4:	afb40028 	sw	$s4,40($sp)
  4057f8:	afb30024 	sw	$s3,36($sp)
  4057fc:	afb20020 	sw	$s2,32($sp)
  405800:	afb1001c 	sw	$s1,28($sp)
  405804:	11c00008 	beqz	$t6,405828 <_flushlbf+0x48>
  405808:	afb00018 	sw	$s0,24($sp)
  40580c:	8f84aed0 	lw	$a0,-20784($gp)
  405810:	0c102034 	jal	4080d0 <_uspsema>
  405814:	00000000 	nop
  405818:	24140001 	li	$s4,1
  40581c:	00541826 	xor	$v1,$v0,$s4
  405820:	10000003 	b	405830 <_flushlbf+0x50>
  405824:	2c630001 	sltiu	$v1,$v1,1
  405828:	00001825 	move	$v1,$zero
  40582c:	24140001 	li	$s4,1
  405830:	8f848828 	lw	$a0,-30680($gp)
  405834:	27958810 	addiu	$s5,$gp,-30704
  405838:	279681c4 	addiu	$s6,$gp,-32316
  40583c:	24130042 	li	$s3,66
  405840:	8f8f8804 	lw	$t7,-30716($gp)
  405844:	00809025 	move	$s2,$a0
  405848:	01f61023 	subu	$v0,$t7,$s6
  40584c:	0002c103 	sra	$t8,$v0,0x4
  405850:	2b010065 	slti	$at,$t8,101
  405854:	14200003 	bnez	$at,405864 <_flushlbf+0x84>
  405858:	af988820 	sw	$t8,-30688($gp)
  40585c:	24190064 	li	$t9,100
  405860:	af998820 	sw	$t9,-30688($gp)
  405864:	8eb10010 	lw	$s1,16($s5)
  405868:	8eb00000 	lw	$s0,0($s5)
  40586c:	2631ffff 	addiu	$s1,$s1,-1
  405870:	0620001f 	bltz	$s1,4058f0 <_flushlbf+0x110>
  405874:	00000000 	nop
  405878:	9208000c 	lbu	$t0,12($s0)
  40587c:	00000000 	nop
  405880:	31090042 	andi	$t1,$t0,0x42
  405884:	16690017 	bne	$s3,$t1,4058e4 <_flushlbf+0x104>
  405888:	00000000 	nop
  40588c:	10600004 	beqz	$v1,4058a0 <_flushlbf+0xc0>
  405890:	00000000 	nop
  405894:	8f84aed0 	lw	$a0,-20784($gp)
  405898:	0c10203c 	jal	4080f0 <_usvsema>
  40589c:	00000000 	nop
  4058a0:	0c1018b0 	jal	4062c0 <fflush>
  4058a4:	02002025 	move	$a0,$s0
  4058a8:	8f8a88b4 	lw	$t2,-30540($gp)
  4058ac:	8f84aed0 	lw	$a0,-20784($gp)
  4058b0:	11400006 	beqz	$t2,4058cc <_flushlbf+0xec>
  4058b4:	00001825 	move	$v1,$zero
  4058b8:	0c102034 	jal	4080d0 <_uspsema>
  4058bc:	00000000 	nop
  4058c0:	00541826 	xor	$v1,$v0,$s4
  4058c4:	10000001 	b	4058cc <_flushlbf+0xec>
  4058c8:	2c630001 	sltiu	$v1,$v1,1
  4058cc:	8f848828 	lw	$a0,-30680($gp)
  4058d0:	00000000 	nop
  4058d4:	12440004 	beq	$s2,$a0,4058e8 <_flushlbf+0x108>
  4058d8:	2631ffff 	addiu	$s1,$s1,-1
  4058dc:	1000ffd8 	b	405840 <_flushlbf+0x60>
  4058e0:	27958810 	addiu	$s5,$gp,-30704
  4058e4:	2631ffff 	addiu	$s1,$s1,-1
  4058e8:	0621ffe3 	bgez	$s1,405878 <_flushlbf+0x98>
  4058ec:	26100010 	addiu	$s0,$s0,16
  4058f0:	8eb50014 	lw	$s5,20($s5)
  4058f4:	00000000 	nop
  4058f8:	16a0ffda 	bnez	$s5,405864 <_flushlbf+0x84>
  4058fc:	00000000 	nop
  405900:	10600005 	beqz	$v1,405918 <_flushlbf+0x138>
  405904:	8fbf0034 	lw	$ra,52($sp)
  405908:	8f84aed0 	lw	$a0,-20784($gp)
  40590c:	0c10203c 	jal	4080f0 <_usvsema>
  405910:	00000000 	nop
  405914:	8fbf0034 	lw	$ra,52($sp)
  405918:	8fb00018 	lw	$s0,24($sp)
  40591c:	8fb1001c 	lw	$s1,28($sp)
  405920:	8fb20020 	lw	$s2,32($sp)
  405924:	8fb30024 	lw	$s3,36($sp)
  405928:	8fb40028 	lw	$s4,40($sp)
  40592c:	8fb5002c 	lw	$s5,44($sp)
  405930:	8fb60030 	lw	$s6,48($sp)
  405934:	03e00008 	jr	$ra
  405938:	27bd0038 	addiu	$sp,$sp,56

0040593c <_findiop>:
  40593c:	8f988804 	lw	$t8,-30716($gp)
  405940:	279981c4 	addiu	$t9,$gp,-32316
  405944:	8f8e8828 	lw	$t6,-30680($gp)
  405948:	03191023 	subu	$v0,$t8,$t9
  40594c:	00024103 	sra	$t0,$v0,0x4
  405950:	27bdffd8 	addiu	$sp,$sp,-40
  405954:	29010065 	slti	$at,$t0,101
  405958:	25cf0001 	addiu	$t7,$t6,1
  40595c:	afbf0014 	sw	$ra,20($sp)
  405960:	af8f8828 	sw	$t7,-30680($gp)
  405964:	27848810 	addiu	$a0,$gp,-30704
  405968:	14200003 	bnez	$at,405978 <_findiop+0x3c>
  40596c:	af888820 	sw	$t0,-30688($gp)
  405970:	24090064 	li	$t1,100
  405974:	af898820 	sw	$t1,-30688($gp)
  405978:	8c820010 	lw	$v0,16($a0)
  40597c:	8c830000 	lw	$v1,0($a0)
  405980:	2442ffff 	addiu	$v0,$v0,-1
  405984:	0440000c 	bltz	$v0,4059b8 <_findiop+0x7c>
  405988:	24870014 	addiu	$a3,$a0,20
  40598c:	906a000c 	lbu	$t2,12($v1)
  405990:	2442ffff 	addiu	$v0,$v0,-1
  405994:	15400006 	bnez	$t2,4059b0 <_findiop+0x74>
  405998:	00000000 	nop
  40599c:	ac600000 	sw	$zero,0($v1)
  4059a0:	ac600004 	sw	$zero,4($v1)
  4059a4:	ac600008 	sw	$zero,8($v1)
  4059a8:	10000021 	b	405a30 <_findiop+0xf4>
  4059ac:	00601025 	move	$v0,$v1
  4059b0:	0441fff6 	bgez	$v0,40598c <_findiop+0x50>
  4059b4:	24630010 	addiu	$v1,$v1,16
  4059b8:	8c840014 	lw	$a0,20($a0)
  4059bc:	00000000 	nop
  4059c0:	1480ffed 	bnez	$a0,405978 <_findiop+0x3c>
  4059c4:	00000000 	nop
  4059c8:	240400c8 	li	$a0,200
  4059cc:	0c101bd2 	jal	406f48 <_malloc>
  4059d0:	afa70020 	sw	$a3,32($sp)
  4059d4:	8fa70020 	lw	$a3,32($sp)
  4059d8:	14400003 	bnez	$v0,4059e8 <_findiop+0xac>
  4059dc:	00402025 	move	$a0,$v0
  4059e0:	10000013 	b	405a30 <_findiop+0xf4>
  4059e4:	00001025 	move	$v0,$zero
  4059e8:	00002825 	move	$a1,$zero
  4059ec:	240600c8 	li	$a2,200
  4059f0:	afa4001c 	sw	$a0,28($sp)
  4059f4:	0c1019bc 	jal	4066f0 <memset>
  4059f8:	afa70020 	sw	$a3,32($sp)
  4059fc:	8fa4001c 	lw	$a0,28($sp)
  405a00:	8fa70020 	lw	$a3,32($sp)
  405a04:	240b0008 	li	$t3,8
  405a08:	24820018 	addiu	$v0,$a0,24
  405a0c:	248c0098 	addiu	$t4,$a0,152
  405a10:	248d00b8 	addiu	$t5,$a0,184
  405a14:	248e00c0 	addiu	$t6,$a0,192
  405a18:	ac820000 	sw	$v0,0($a0)
  405a1c:	ac8b0010 	sw	$t3,16($a0)
  405a20:	ac8c0004 	sw	$t4,4($a0)
  405a24:	ac8d0008 	sw	$t5,8($a0)
  405a28:	ac8e000c 	sw	$t6,12($a0)
  405a2c:	ace40000 	sw	$a0,0($a3)
  405a30:	8fbf0014 	lw	$ra,20($sp)
  405a34:	27bd0028 	addiu	$sp,$sp,40
  405a38:	03e00008 	jr	$ra
  405a3c:	00000000 	nop

00405a40 <_setbufend>:
  405a40:	8f8e88b4 	lw	$t6,-30540($gp)
  405a44:	27bdffe8 	addiu	$sp,$sp,-24
  405a48:	afbf0014 	sw	$ra,20($sp)
  405a4c:	afa5001c 	sw	$a1,28($sp)
  405a50:	11c00008 	beqz	$t6,405a74 <_setbufend+0x34>
  405a54:	00803025 	move	$a2,$a0
  405a58:	8f84aed0 	lw	$a0,-20784($gp)
  405a5c:	0c102034 	jal	4080d0 <_uspsema>
  405a60:	afa60018 	sw	$a2,24($sp)
  405a64:	8fa60018 	lw	$a2,24($sp)
  405a68:	38470001 	xori	$a3,$v0,0x1
  405a6c:	10000002 	b	405a78 <_setbufend+0x38>
  405a70:	2ce70001 	sltiu	$a3,$a3,1
  405a74:	00003825 	move	$a3,$zero
  405a78:	27828810 	addiu	$v0,$gp,-30704
  405a7c:	8c430000 	lw	$v1,0($v0)
  405a80:	00000000 	nop
  405a84:	00c3082b 	sltu	$at,$a2,$v1
  405a88:	1420001b 	bnez	$at,405af8 <_setbufend+0xb8>
  405a8c:	00000000 	nop
  405a90:	8c4f0010 	lw	$t7,16($v0)
  405a94:	00000000 	nop
  405a98:	000fc100 	sll	$t8,$t7,0x4
  405a9c:	0078c821 	addu	$t9,$v1,$t8
  405aa0:	00d9082b 	sltu	$at,$a2,$t9
  405aa4:	10200014 	beqz	$at,405af8 <_setbufend+0xb8>
  405aa8:	00c32023 	subu	$a0,$a2,$v1
  405aac:	8c490004 	lw	$t1,4($v0)
  405ab0:	00044103 	sra	$t0,$a0,0x4
  405ab4:	00085080 	sll	$t2,$t0,0x2
  405ab8:	012a2821 	addu	$a1,$t1,$t2
  405abc:	8cac0000 	lw	$t4,0($a1)
  405ac0:	8fab001c 	lw	$t3,28($sp)
  405ac4:	01002025 	move	$a0,$t0
  405ac8:	116c0002 	beq	$t3,$t4,405ad4 <_setbufend+0x94>
  405acc:	00000000 	nop
  405ad0:	acab0000 	sw	$t3,0($a1)
  405ad4:	8c4d0008 	lw	$t5,8($v0)
  405ad8:	00000000 	nop
  405adc:	01a41821 	addu	$v1,$t5,$a0
  405ae0:	906e0000 	lbu	$t6,0($v1)
  405ae4:	00000000 	nop
  405ae8:	11c00007 	beqz	$t6,405b08 <_setbufend+0xc8>
  405aec:	00000000 	nop
  405af0:	10000005 	b	405b08 <_setbufend+0xc8>
  405af4:	a0600000 	sb	$zero,0($v1)
  405af8:	8c420014 	lw	$v0,20($v0)
  405afc:	00000000 	nop
  405b00:	1440ffde 	bnez	$v0,405a7c <_setbufend+0x3c>
  405b04:	00000000 	nop
  405b08:	10e00005 	beqz	$a3,405b20 <_setbufend+0xe0>
  405b0c:	8fbf0014 	lw	$ra,20($sp)
  405b10:	8f84aed0 	lw	$a0,-20784($gp)
  405b14:	0c10203c 	jal	4080f0 <_usvsema>
  405b18:	00000000 	nop
  405b1c:	8fbf0014 	lw	$ra,20($sp)
  405b20:	27bd0018 	addiu	$sp,$sp,24
  405b24:	03e00008 	jr	$ra
  405b28:	00000000 	nop

00405b2c <_realbufend>:
  405b2c:	8f8e88b4 	lw	$t6,-30540($gp)
  405b30:	27bdffe0 	addiu	$sp,$sp,-32
  405b34:	afbf0014 	sw	$ra,20($sp)
  405b38:	11c00008 	beqz	$t6,405b5c <_realbufend+0x30>
  405b3c:	00802825 	move	$a1,$a0
  405b40:	8f84aed0 	lw	$a0,-20784($gp)
  405b44:	0c102034 	jal	4080d0 <_uspsema>
  405b48:	afa50020 	sw	$a1,32($sp)
  405b4c:	8fa50020 	lw	$a1,32($sp)
  405b50:	38440001 	xori	$a0,$v0,0x1
  405b54:	10000002 	b	405b60 <_realbufend+0x34>
  405b58:	2c840001 	sltiu	$a0,$a0,1
  405b5c:	00002025 	move	$a0,$zero
  405b60:	27828810 	addiu	$v0,$gp,-30704
  405b64:	8c430000 	lw	$v1,0($v0)
  405b68:	00000000 	nop
  405b6c:	00a3082b 	sltu	$at,$a1,$v1
  405b70:	14200016 	bnez	$at,405bcc <_realbufend+0xa0>
  405b74:	00000000 	nop
  405b78:	8c4f0010 	lw	$t7,16($v0)
  405b7c:	00000000 	nop
  405b80:	000fc100 	sll	$t8,$t7,0x4
  405b84:	0078c821 	addu	$t9,$v1,$t8
  405b88:	00b9082b 	sltu	$at,$a1,$t9
  405b8c:	1020000f 	beqz	$at,405bcc <_realbufend+0xa0>
  405b90:	00a34823 	subu	$t1,$a1,$v1
  405b94:	8c480004 	lw	$t0,4($v0)
  405b98:	00095103 	sra	$t2,$t1,0x4
  405b9c:	000a5880 	sll	$t3,$t2,0x2
  405ba0:	010b6021 	addu	$t4,$t0,$t3
  405ba4:	8d860000 	lw	$a2,0($t4)
  405ba8:	10800006 	beqz	$a0,405bc4 <_realbufend+0x98>
  405bac:	00000000 	nop
  405bb0:	8f84aed0 	lw	$a0,-20784($gp)
  405bb4:	0c10203c 	jal	4080f0 <_usvsema>
  405bb8:	afa60018 	sw	$a2,24($sp)
  405bbc:	8fa60018 	lw	$a2,24($sp)
  405bc0:	00000000 	nop
  405bc4:	1000000b 	b	405bf4 <_realbufend+0xc8>
  405bc8:	00c01025 	move	$v0,$a2
  405bcc:	8c420014 	lw	$v0,20($v0)
  405bd0:	00000000 	nop
  405bd4:	1440ffe3 	bnez	$v0,405b64 <_realbufend+0x38>
  405bd8:	00000000 	nop
  405bdc:	10800005 	beqz	$a0,405bf4 <_realbufend+0xc8>
  405be0:	00001025 	move	$v0,$zero
  405be4:	8f84aed0 	lw	$a0,-20784($gp)
  405be8:	0c10203c 	jal	4080f0 <_usvsema>
  405bec:	00000000 	nop
  405bf0:	00001025 	move	$v0,$zero
  405bf4:	8fbf0014 	lw	$ra,20($sp)
  405bf8:	27bd0020 	addiu	$sp,$sp,32
  405bfc:	03e00008 	jr	$ra
  405c00:	00000000 	nop

00405c04 <_incbufend>:
  405c04:	8f8e88b4 	lw	$t6,-30540($gp)
  405c08:	27bdffe8 	addiu	$sp,$sp,-24
  405c0c:	afa5001c 	sw	$a1,28($sp)
  405c10:	00802825 	move	$a1,$a0
  405c14:	afbf0014 	sw	$ra,20($sp)
  405c18:	11c00008 	beqz	$t6,405c3c <_incbufend+0x38>
  405c1c:	afa40018 	sw	$a0,24($sp)
  405c20:	8f84aed0 	lw	$a0,-20784($gp)
  405c24:	0c102034 	jal	4080d0 <_uspsema>
  405c28:	afa50018 	sw	$a1,24($sp)
  405c2c:	8fa50018 	lw	$a1,24($sp)
  405c30:	38480001 	xori	$t0,$v0,0x1
  405c34:	10000002 	b	405c40 <_incbufend+0x3c>
  405c38:	2d080001 	sltiu	$t0,$t0,1
  405c3c:	00004025 	move	$t0,$zero
  405c40:	27828810 	addiu	$v0,$gp,-30704
  405c44:	8c430000 	lw	$v1,0($v0)
  405c48:	00000000 	nop
  405c4c:	00a3082b 	sltu	$at,$a1,$v1
  405c50:	14200018 	bnez	$at,405cb4 <_incbufend+0xb0>
  405c54:	00000000 	nop
  405c58:	8c4f0010 	lw	$t7,16($v0)
  405c5c:	00000000 	nop
  405c60:	000fc100 	sll	$t8,$t7,0x4
  405c64:	0078c821 	addu	$t9,$v1,$t8
  405c68:	00b9082b 	sltu	$at,$a1,$t9
  405c6c:	10200011 	beqz	$at,405cb4 <_incbufend+0xb0>
  405c70:	00a32023 	subu	$a0,$a1,$v1
  405c74:	8c4a0004 	lw	$t2,4($v0)
  405c78:	00044903 	sra	$t1,$a0,0x4
  405c7c:	00095880 	sll	$t3,$t1,0x2
  405c80:	014b3021 	addu	$a2,$t2,$t3
  405c84:	8ccc0000 	lw	$t4,0($a2)
  405c88:	00000000 	nop
  405c8c:	258d0001 	addiu	$t5,$t4,1
  405c90:	accd0000 	sw	$t5,0($a2)
  405c94:	8c4e0008 	lw	$t6,8($v0)
  405c98:	00000000 	nop
  405c9c:	01c93821 	addu	$a3,$t6,$t1
  405ca0:	90ef0000 	lbu	$t7,0($a3)
  405ca4:	00000000 	nop
  405ca8:	25f80001 	addiu	$t8,$t7,1
  405cac:	10000005 	b	405cc4 <_incbufend+0xc0>
  405cb0:	a0f80000 	sb	$t8,0($a3)
  405cb4:	8c420014 	lw	$v0,20($v0)
  405cb8:	00000000 	nop
  405cbc:	1440ffe1 	bnez	$v0,405c44 <_incbufend+0x40>
  405cc0:	00000000 	nop
  405cc4:	11000005 	beqz	$t0,405cdc <_incbufend+0xd8>
  405cc8:	8fbf0014 	lw	$ra,20($sp)
  405ccc:	8f84aed0 	lw	$a0,-20784($gp)
  405cd0:	0c10203c 	jal	4080f0 <_usvsema>
  405cd4:	00000000 	nop
  405cd8:	8fbf0014 	lw	$ra,20($sp)
  405cdc:	27bd0018 	addiu	$sp,$sp,24
  405ce0:	03e00008 	jr	$ra
  405ce4:	00000000 	nop

00405ce8 <_resetbufend>:
  405ce8:	8f8e88b4 	lw	$t6,-30540($gp)
  405cec:	27bdffe8 	addiu	$sp,$sp,-24
  405cf0:	afbf0014 	sw	$ra,20($sp)
  405cf4:	11c00008 	beqz	$t6,405d18 <_resetbufend+0x30>
  405cf8:	00802825 	move	$a1,$a0
  405cfc:	8f84aed0 	lw	$a0,-20784($gp)
  405d00:	0c102034 	jal	4080d0 <_uspsema>
  405d04:	afa50018 	sw	$a1,24($sp)
  405d08:	8fa50018 	lw	$a1,24($sp)
  405d0c:	38470001 	xori	$a3,$v0,0x1
  405d10:	10000002 	b	405d1c <_resetbufend+0x34>
  405d14:	2ce70001 	sltiu	$a3,$a3,1
  405d18:	00003825 	move	$a3,$zero
  405d1c:	27828810 	addiu	$v0,$gp,-30704
  405d20:	8c430000 	lw	$v1,0($v0)
  405d24:	00000000 	nop
  405d28:	00a3082b 	sltu	$at,$a1,$v1
  405d2c:	14200018 	bnez	$at,405d90 <_resetbufend+0xa8>
  405d30:	00000000 	nop
  405d34:	8c4f0010 	lw	$t7,16($v0)
  405d38:	00000000 	nop
  405d3c:	000fc100 	sll	$t8,$t7,0x4
  405d40:	0078c821 	addu	$t9,$v1,$t8
  405d44:	00b9082b 	sltu	$at,$a1,$t9
  405d48:	10200011 	beqz	$at,405d90 <_resetbufend+0xa8>
  405d4c:	00a32023 	subu	$a0,$a1,$v1
  405d50:	8c490004 	lw	$t1,4($v0)
  405d54:	8c4c0008 	lw	$t4,8($v0)
  405d58:	00044103 	sra	$t0,$a0,0x4
  405d5c:	00085080 	sll	$t2,$t0,0x2
  405d60:	012a3021 	addu	$a2,$t1,$t2
  405d64:	01886821 	addu	$t5,$t4,$t0
  405d68:	91ae0000 	lbu	$t6,0($t5)
  405d6c:	8ccb0000 	lw	$t3,0($a2)
  405d70:	00000000 	nop
  405d74:	016e7823 	subu	$t7,$t3,$t6
  405d78:	accf0000 	sw	$t7,0($a2)
  405d7c:	8c580008 	lw	$t8,8($v0)
  405d80:	00000000 	nop
  405d84:	0308c821 	addu	$t9,$t8,$t0
  405d88:	10000005 	b	405da0 <_resetbufend+0xb8>
  405d8c:	a3200000 	sb	$zero,0($t9)
  405d90:	8c420014 	lw	$v0,20($v0)
  405d94:	00000000 	nop
  405d98:	1440ffe1 	bnez	$v0,405d20 <_resetbufend+0x38>
  405d9c:	00000000 	nop
  405da0:	10e00005 	beqz	$a3,405db8 <_resetbufend+0xd0>
  405da4:	8fbf0014 	lw	$ra,20($sp)
  405da8:	8f84aed0 	lw	$a0,-20784($gp)
  405dac:	0c10203c 	jal	4080f0 <_usvsema>
  405db0:	00000000 	nop
  405db4:	8fbf0014 	lw	$ra,20($sp)
  405db8:	27bd0018 	addiu	$sp,$sp,24
  405dbc:	03e00008 	jr	$ra
  405dc0:	00000000 	nop

00405dc4 <_realbufendadj>:
  405dc4:	8f8e88b4 	lw	$t6,-30540($gp)
  405dc8:	27bdffd8 	addiu	$sp,$sp,-40
  405dcc:	afbf0014 	sw	$ra,20($sp)
  405dd0:	11c00008 	beqz	$t6,405df4 <_realbufendadj+0x30>
  405dd4:	00802825 	move	$a1,$a0
  405dd8:	8f84aed0 	lw	$a0,-20784($gp)
  405ddc:	0c102034 	jal	4080d0 <_uspsema>
  405de0:	afa50028 	sw	$a1,40($sp)
  405de4:	8fa50028 	lw	$a1,40($sp)
  405de8:	38440001 	xori	$a0,$v0,0x1
  405dec:	10000002 	b	405df8 <_realbufendadj+0x34>
  405df0:	2c840001 	sltiu	$a0,$a0,1
  405df4:	00002025 	move	$a0,$zero
  405df8:	00003025 	move	$a2,$zero
  405dfc:	27828810 	addiu	$v0,$gp,-30704
  405e00:	8c430000 	lw	$v1,0($v0)
  405e04:	00000000 	nop
  405e08:	00a3082b 	sltu	$at,$a1,$v1
  405e0c:	1420000f 	bnez	$at,405e4c <_realbufendadj+0x88>
  405e10:	00000000 	nop
  405e14:	8c4f0010 	lw	$t7,16($v0)
  405e18:	00000000 	nop
  405e1c:	000fc100 	sll	$t8,$t7,0x4
  405e20:	0078c821 	addu	$t9,$v1,$t8
  405e24:	00b9082b 	sltu	$at,$a1,$t9
  405e28:	10200008 	beqz	$at,405e4c <_realbufendadj+0x88>
  405e2c:	00000000 	nop
  405e30:	8c480008 	lw	$t0,8($v0)
  405e34:	00a34823 	subu	$t1,$a1,$v1
  405e38:	00095103 	sra	$t2,$t1,0x4
  405e3c:	010a5821 	addu	$t3,$t0,$t2
  405e40:	91660000 	lbu	$a2,0($t3)
  405e44:	10000005 	b	405e5c <_realbufendadj+0x98>
  405e48:	00000000 	nop
  405e4c:	8c420014 	lw	$v0,20($v0)
  405e50:	00000000 	nop
  405e54:	1440ffea 	bnez	$v0,405e00 <_realbufendadj+0x3c>
  405e58:	00000000 	nop
  405e5c:	10800007 	beqz	$a0,405e7c <_realbufendadj+0xb8>
  405e60:	8fbf0014 	lw	$ra,20($sp)
  405e64:	8f84aed0 	lw	$a0,-20784($gp)
  405e68:	0c10203c 	jal	4080f0 <_usvsema>
  405e6c:	afa60018 	sw	$a2,24($sp)
  405e70:	8fa60018 	lw	$a2,24($sp)
  405e74:	00000000 	nop
  405e78:	8fbf0014 	lw	$ra,20($sp)
  405e7c:	27bd0028 	addiu	$sp,$sp,40
  405e80:	03e00008 	jr	$ra
  405e84:	00c01025 	move	$v0,$a2

00405e88 <_realbufdirty>:
  405e88:	8f8e88b4 	lw	$t6,-30540($gp)
  405e8c:	27bdffd8 	addiu	$sp,$sp,-40
  405e90:	afbf0014 	sw	$ra,20($sp)
  405e94:	11c00008 	beqz	$t6,405eb8 <_realbufdirty+0x30>
  405e98:	00802825 	move	$a1,$a0
  405e9c:	8f84aed0 	lw	$a0,-20784($gp)
  405ea0:	0c102034 	jal	4080d0 <_uspsema>
  405ea4:	afa50028 	sw	$a1,40($sp)
  405ea8:	8fa50028 	lw	$a1,40($sp)
  405eac:	38440001 	xori	$a0,$v0,0x1
  405eb0:	10000002 	b	405ebc <_realbufdirty+0x34>
  405eb4:	2c840001 	sltiu	$a0,$a0,1
  405eb8:	00002025 	move	$a0,$zero
  405ebc:	00003025 	move	$a2,$zero
  405ec0:	27828810 	addiu	$v0,$gp,-30704
  405ec4:	8c430000 	lw	$v1,0($v0)
  405ec8:	00000000 	nop
  405ecc:	00a3082b 	sltu	$at,$a1,$v1
  405ed0:	1420000f 	bnez	$at,405f10 <_realbufdirty+0x88>
  405ed4:	00000000 	nop
  405ed8:	8c4f0010 	lw	$t7,16($v0)
  405edc:	00000000 	nop
  405ee0:	000fc100 	sll	$t8,$t7,0x4
  405ee4:	0078c821 	addu	$t9,$v1,$t8
  405ee8:	00b9082b 	sltu	$at,$a1,$t9
  405eec:	10200008 	beqz	$at,405f10 <_realbufdirty+0x88>
  405ef0:	00000000 	nop
  405ef4:	8c48000c 	lw	$t0,12($v0)
  405ef8:	00a34823 	subu	$t1,$a1,$v1
  405efc:	00095103 	sra	$t2,$t1,0x4
  405f00:	010a5821 	addu	$t3,$t0,$t2
  405f04:	91660000 	lbu	$a2,0($t3)
  405f08:	10000005 	b	405f20 <_realbufdirty+0x98>
  405f0c:	00000000 	nop
  405f10:	8c420014 	lw	$v0,20($v0)
  405f14:	00000000 	nop
  405f18:	1440ffea 	bnez	$v0,405ec4 <_realbufdirty+0x3c>
  405f1c:	00000000 	nop
  405f20:	10800007 	beqz	$a0,405f40 <_realbufdirty+0xb8>
  405f24:	8fbf0014 	lw	$ra,20($sp)
  405f28:	8f84aed0 	lw	$a0,-20784($gp)
  405f2c:	0c10203c 	jal	4080f0 <_usvsema>
  405f30:	afa6001c 	sw	$a2,28($sp)
  405f34:	8fa6001c 	lw	$a2,28($sp)
  405f38:	00000000 	nop
  405f3c:	8fbf0014 	lw	$ra,20($sp)
  405f40:	27bd0028 	addiu	$sp,$sp,40
  405f44:	03e00008 	jr	$ra
  405f48:	00c01025 	move	$v0,$a2

00405f4c <_setbufdirty>:
  405f4c:	8f8e88b4 	lw	$t6,-30540($gp)
  405f50:	27bdffe8 	addiu	$sp,$sp,-24
  405f54:	afbf0014 	sw	$ra,20($sp)
  405f58:	11c00008 	beqz	$t6,405f7c <_setbufdirty+0x30>
  405f5c:	00802825 	move	$a1,$a0
  405f60:	8f84aed0 	lw	$a0,-20784($gp)
  405f64:	0c102034 	jal	4080d0 <_uspsema>
  405f68:	afa50018 	sw	$a1,24($sp)
  405f6c:	8fa50018 	lw	$a1,24($sp)
  405f70:	38440001 	xori	$a0,$v0,0x1
  405f74:	10000002 	b	405f80 <_setbufdirty+0x34>
  405f78:	2c840001 	sltiu	$a0,$a0,1
  405f7c:	00002025 	move	$a0,$zero
  405f80:	27828810 	addiu	$v0,$gp,-30704
  405f84:	8c430000 	lw	$v1,0($v0)
  405f88:	00000000 	nop
  405f8c:	00a3082b 	sltu	$at,$a1,$v1
  405f90:	1420000f 	bnez	$at,405fd0 <_setbufdirty+0x84>
  405f94:	00000000 	nop
  405f98:	8c4f0010 	lw	$t7,16($v0)
  405f9c:	00000000 	nop
  405fa0:	000fc100 	sll	$t8,$t7,0x4
  405fa4:	0078c821 	addu	$t9,$v1,$t8
  405fa8:	00b9082b 	sltu	$at,$a1,$t9
  405fac:	10200008 	beqz	$at,405fd0 <_setbufdirty+0x84>
  405fb0:	00000000 	nop
  405fb4:	8c49000c 	lw	$t1,12($v0)
  405fb8:	00a35023 	subu	$t2,$a1,$v1
  405fbc:	000a5903 	sra	$t3,$t2,0x4
  405fc0:	24080001 	li	$t0,1
  405fc4:	012b6021 	addu	$t4,$t1,$t3
  405fc8:	10000005 	b	405fe0 <_setbufdirty+0x94>
  405fcc:	a1880000 	sb	$t0,0($t4)
  405fd0:	8c420014 	lw	$v0,20($v0)
  405fd4:	00000000 	nop
  405fd8:	1440ffea 	bnez	$v0,405f84 <_setbufdirty+0x38>
  405fdc:	00000000 	nop
  405fe0:	10800005 	beqz	$a0,405ff8 <_setbufdirty+0xac>
  405fe4:	8fbf0014 	lw	$ra,20($sp)
  405fe8:	8f84aed0 	lw	$a0,-20784($gp)
  405fec:	0c10203c 	jal	4080f0 <_usvsema>
  405ff0:	00000000 	nop
  405ff4:	8fbf0014 	lw	$ra,20($sp)
  405ff8:	27bd0018 	addiu	$sp,$sp,24
  405ffc:	03e00008 	jr	$ra
  406000:	00000000 	nop

00406004 <_setbufclean>:
  406004:	8f8e88b4 	lw	$t6,-30540($gp)
  406008:	27bdffe8 	addiu	$sp,$sp,-24
  40600c:	afbf0014 	sw	$ra,20($sp)
  406010:	11c00008 	beqz	$t6,406034 <_setbufclean+0x30>
  406014:	00802825 	move	$a1,$a0
  406018:	8f84aed0 	lw	$a0,-20784($gp)
  40601c:	0c102034 	jal	4080d0 <_uspsema>
  406020:	afa50018 	sw	$a1,24($sp)
  406024:	8fa50018 	lw	$a1,24($sp)
  406028:	38440001 	xori	$a0,$v0,0x1
  40602c:	10000002 	b	406038 <_setbufclean+0x34>
  406030:	2c840001 	sltiu	$a0,$a0,1
  406034:	00002025 	move	$a0,$zero
  406038:	27828810 	addiu	$v0,$gp,-30704
  40603c:	8c430000 	lw	$v1,0($v0)
  406040:	00000000 	nop
  406044:	00a3082b 	sltu	$at,$a1,$v1
  406048:	1420000e 	bnez	$at,406084 <_setbufclean+0x80>
  40604c:	00000000 	nop
  406050:	8c4f0010 	lw	$t7,16($v0)
  406054:	00000000 	nop
  406058:	000fc100 	sll	$t8,$t7,0x4
  40605c:	0078c821 	addu	$t9,$v1,$t8
  406060:	00b9082b 	sltu	$at,$a1,$t9
  406064:	10200007 	beqz	$at,406084 <_setbufclean+0x80>
  406068:	00000000 	nop
  40606c:	8c48000c 	lw	$t0,12($v0)
  406070:	00a34823 	subu	$t1,$a1,$v1
  406074:	00095103 	sra	$t2,$t1,0x4
  406078:	010a5821 	addu	$t3,$t0,$t2
  40607c:	10000005 	b	406094 <_setbufclean+0x90>
  406080:	a1600000 	sb	$zero,0($t3)
  406084:	8c420014 	lw	$v0,20($v0)
  406088:	00000000 	nop
  40608c:	1440ffeb 	bnez	$v0,40603c <_setbufclean+0x38>
  406090:	00000000 	nop
  406094:	10800005 	beqz	$a0,4060ac <_setbufclean+0xa8>
  406098:	8fbf0014 	lw	$ra,20($sp)
  40609c:	8f84aed0 	lw	$a0,-20784($gp)
  4060a0:	0c10203c 	jal	4080f0 <_usvsema>
  4060a4:	00000000 	nop
  4060a8:	8fbf0014 	lw	$ra,20($sp)
  4060ac:	27bd0018 	addiu	$sp,$sp,24
  4060b0:	03e00008 	jr	$ra
  4060b4:	00000000 	nop

004060b8 <_bufsync>:
  4060b8:	8c8e0004 	lw	$t6,4($a0)
  4060bc:	00000000 	nop
  4060c0:	00ae1023 	subu	$v0,$a1,$t6
  4060c4:	04410004 	bgez	$v0,4060d8 <_bufsync+0x20>
  4060c8:	00000000 	nop
  4060cc:	ac850004 	sw	$a1,4($a0)
  4060d0:	03e00008 	jr	$ra
  4060d4:	ac800000 	sw	$zero,0($a0)
  4060d8:	8c8f0000 	lw	$t7,0($a0)
  4060dc:	00000000 	nop
  4060e0:	004f082a 	slt	$at,$v0,$t7
  4060e4:	10200002 	beqz	$at,4060f0 <_bufsync+0x38>
  4060e8:	00000000 	nop
  4060ec:	ac820000 	sw	$v0,0($a0)
  4060f0:	03e00008 	jr	$ra
  4060f4:	00000000 	nop

004060f8 <_xflsbuf>:
  4060f8:	27bdffd8 	addiu	$sp,$sp,-40
  4060fc:	afbf0024 	sw	$ra,36($sp)
  406100:	afb30020 	sw	$s3,32($sp)
  406104:	afb2001c 	sw	$s2,28($sp)
  406108:	afb10018 	sw	$s1,24($sp)
  40610c:	afb00014 	sw	$s0,20($sp)
  406110:	8c920008 	lw	$s2,8($a0)
  406114:	9082000d 	lbu	$v0,13($a0)
  406118:	8c8e0004 	lw	$t6,4($a0)
  40611c:	28410064 	slti	$at,$v0,100
  406120:	00809825 	move	$s3,$a0
  406124:	ac920004 	sw	$s2,4($a0)
  406128:	10200007 	beqz	$at,406148 <_xflsbuf+0x50>
  40612c:	01d28823 	subu	$s1,$t6,$s2
  406130:	00027880 	sll	$t7,$v0,0x2
  406134:	3c050042 	lui	$a1,0x42
  406138:	00af2821 	addu	$a1,$a1,$t7
  40613c:	8ca5dc10 	lw	$a1,-9200($a1)
  406140:	10000005 	b	406158 <_xflsbuf+0x60>
  406144:	9278000c 	lbu	$t8,12($s3)
  406148:	0c1016cb 	jal	405b2c <_realbufend>
  40614c:	02602025 	move	$a0,$s3
  406150:	00402825 	move	$a1,$v0
  406154:	9278000c 	lbu	$t8,12($s3)
  406158:	00b24023 	subu	$t0,$a1,$s2
  40615c:	33190044 	andi	$t9,$t8,0x44
  406160:	13200003 	beqz	$t9,406170 <_xflsbuf+0x78>
  406164:	00000000 	nop
  406168:	10000002 	b	406174 <_xflsbuf+0x7c>
  40616c:	ae600000 	sw	$zero,0($s3)
  406170:	ae680000 	sw	$t0,0($s3)
  406174:	8e620000 	lw	$v0,0($s3)
  406178:	00000000 	nop
  40617c:	04410003 	bgez	$v0,40618c <_xflsbuf+0x94>
  406180:	00401825 	move	$v1,$v0
  406184:	10000001 	b	40618c <_xflsbuf+0x94>
  406188:	00001825 	move	$v1,$zero
  40618c:	8e690004 	lw	$t1,4($s3)
  406190:	00000000 	nop
  406194:	00a95023 	subu	$t2,$a1,$t1
  406198:	0143082a 	slt	$at,$t2,$v1
  40619c:	10200003 	beqz	$at,4061ac <_xflsbuf+0xb4>
  4061a0:	00000000 	nop
  4061a4:	0c10182e 	jal	4060b8 <_bufsync>
  4061a8:	02602025 	move	$a0,$s3
  4061ac:	9262000d 	lbu	$v0,13($s3)
  4061b0:	3c050042 	lui	$a1,0x42
  4061b4:	28410064 	slti	$at,$v0,100
  4061b8:	10200005 	beqz	$at,4061d0 <_xflsbuf+0xd8>
  4061bc:	24a5e530 	addiu	$a1,$a1,-6864
  4061c0:	00a25821 	addu	$t3,$a1,$v0
  4061c4:	91630000 	lbu	$v1,0($t3)
  4061c8:	10000006 	b	4061e4 <_xflsbuf+0xec>
  4061cc:	00000000 	nop
  4061d0:	0c101771 	jal	405dc4 <_realbufendadj>
  4061d4:	02602025 	move	$a0,$s3
  4061d8:	3c050042 	lui	$a1,0x42
  4061dc:	24a5e530 	addiu	$a1,$a1,-6864
  4061e0:	00401825 	move	$v1,$v0
  4061e4:	10600017 	beqz	$v1,406244 <_xflsbuf+0x14c>
  4061e8:	00000000 	nop
  4061ec:	9262000d 	lbu	$v0,13($s3)
  4061f0:	00000000 	nop
  4061f4:	28410064 	slti	$at,$v0,100
  4061f8:	10200010 	beqz	$at,40623c <_xflsbuf+0x144>
  4061fc:	00a26021 	addu	$t4,$a1,$v0
  406200:	91840000 	lbu	$a0,0($t4)
  406204:	00026880 	sll	$t5,$v0,0x2
  406208:	1080000e 	beqz	$a0,406244 <_xflsbuf+0x14c>
  40620c:	3c0e0042 	lui	$t6,0x42
  406210:	25cedc10 	addiu	$t6,$t6,-9200
  406214:	01ae1821 	addu	$v1,$t5,$t6
  406218:	8c6f0000 	lw	$t7,0($v1)
  40621c:	00000000 	nop
  406220:	01e4c023 	subu	$t8,$t7,$a0
  406224:	ac780000 	sw	$t8,0($v1)
  406228:	9279000d 	lbu	$t9,13($s3)
  40622c:	00000000 	nop
  406230:	00b94021 	addu	$t0,$a1,$t9
  406234:	10000003 	b	406244 <_xflsbuf+0x14c>
  406238:	a1000000 	sb	$zero,0($t0)
  40623c:	0c10173a 	jal	405ce8 <_resetbufend>
  406240:	02602025 	move	$a0,$s3
  406244:	16200003 	bnez	$s1,406254 <_xflsbuf+0x15c>
  406248:	02402825 	move	$a1,$s2
  40624c:	10000015 	b	4062a4 <_xflsbuf+0x1ac>
  406250:	00001025 	move	$v0,$zero
  406254:	9264000d 	lbu	$a0,13($s3)
  406258:	0c101af8 	jal	406be0 <_write>
  40625c:	02203025 	move	$a2,$s1
  406260:	1051000f 	beq	$v0,$s1,4062a0 <_xflsbuf+0x1a8>
  406264:	00408025 	move	$s0,$v0
  406268:	1c400006 	bgtz	$v0,406284 <_xflsbuf+0x18c>
  40626c:	02308823 	subu	$s1,$s1,$s0
  406270:	9269000c 	lbu	$t1,12($s3)
  406274:	2402ffff 	li	$v0,-1
  406278:	352a0020 	ori	$t2,$t1,0x20
  40627c:	10000009 	b	4062a4 <_xflsbuf+0x1ac>
  406280:	a26a000c 	sb	$t2,12($s3)
  406284:	02509021 	addu	$s2,$s2,$s0
  406288:	9264000d 	lbu	$a0,13($s3)
  40628c:	02402825 	move	$a1,$s2
  406290:	0c101af8 	jal	406be0 <_write>
  406294:	02203025 	move	$a2,$s1
  406298:	1451fff3 	bne	$v0,$s1,406268 <_xflsbuf+0x170>
  40629c:	00408025 	move	$s0,$v0
  4062a0:	00001025 	move	$v0,$zero
  4062a4:	8fbf0024 	lw	$ra,36($sp)
  4062a8:	8fb00014 	lw	$s0,20($sp)
  4062ac:	8fb10018 	lw	$s1,24($sp)
  4062b0:	8fb2001c 	lw	$s2,28($sp)
  4062b4:	8fb30020 	lw	$s3,32($sp)
  4062b8:	03e00008 	jr	$ra
  4062bc:	27bd0028 	addiu	$sp,$sp,40

004062c0 <fflush>:
  4062c0:	27bdffd0 	addiu	$sp,$sp,-48
  4062c4:	afb30020 	sw	$s3,32($sp)
  4062c8:	afb10018 	sw	$s1,24($sp)
  4062cc:	00808825 	move	$s1,$a0
  4062d0:	afbf002c 	sw	$ra,44($sp)
  4062d4:	afb50028 	sw	$s5,40($sp)
  4062d8:	afb40024 	sw	$s4,36($sp)
  4062dc:	afb2001c 	sw	$s2,28($sp)
  4062e0:	afb00014 	sw	$s0,20($sp)
  4062e4:	14800047 	bnez	$a0,406404 <fflush+0x144>
  4062e8:	00009825 	move	$s3,$zero
  4062ec:	8f8e88b4 	lw	$t6,-30540($gp)
  4062f0:	00001825 	move	$v1,$zero
  4062f4:	11c00008 	beqz	$t6,406318 <fflush+0x58>
  4062f8:	24140001 	li	$s4,1
  4062fc:	8f84aed0 	lw	$a0,-20784($gp)
  406300:	0c102034 	jal	4080d0 <_uspsema>
  406304:	00000000 	nop
  406308:	24140001 	li	$s4,1
  40630c:	00541826 	xor	$v1,$v0,$s4
  406310:	10000001 	b	406318 <fflush+0x58>
  406314:	2c630001 	sltiu	$v1,$v1,1
  406318:	8f848828 	lw	$a0,-30680($gp)
  40631c:	27958810 	addiu	$s5,$gp,-30704
  406320:	8f8f8804 	lw	$t7,-30716($gp)
  406324:	279881c4 	addiu	$t8,$gp,-32316
  406328:	01f81023 	subu	$v0,$t7,$t8
  40632c:	0002c903 	sra	$t9,$v0,0x4
  406330:	2b210065 	slti	$at,$t9,101
  406334:	00809025 	move	$s2,$a0
  406338:	14200003 	bnez	$at,406348 <fflush+0x88>
  40633c:	af998820 	sw	$t9,-30688($gp)
  406340:	24080064 	li	$t0,100
  406344:	af888820 	sw	$t0,-30688($gp)
  406348:	8eb00010 	lw	$s0,16($s5)
  40634c:	8eb10000 	lw	$s1,0($s5)
  406350:	2610ffff 	addiu	$s0,$s0,-1
  406354:	06000020 	bltz	$s0,4063d8 <fflush+0x118>
  406358:	00000000 	nop
  40635c:	9229000c 	lbu	$t1,12($s1)
  406360:	00000000 	nop
  406364:	312a0002 	andi	$t2,$t1,0x2
  406368:	11400018 	beqz	$t2,4063cc <fflush+0x10c>
  40636c:	00000000 	nop
  406370:	10600004 	beqz	$v1,406384 <fflush+0xc4>
  406374:	00000000 	nop
  406378:	8f84aed0 	lw	$a0,-20784($gp)
  40637c:	0c10203c 	jal	4080f0 <_usvsema>
  406380:	00000000 	nop
  406384:	0c1018b0 	jal	4062c0 <fflush>
  406388:	02202025 	move	$a0,$s1
  40638c:	8f8b88b4 	lw	$t3,-30540($gp)
  406390:	02629825 	or	$s3,$s3,$v0
  406394:	11600007 	beqz	$t3,4063b4 <fflush+0xf4>
  406398:	00001825 	move	$v1,$zero
  40639c:	8f84aed0 	lw	$a0,-20784($gp)
  4063a0:	0c102034 	jal	4080d0 <_uspsema>
  4063a4:	00000000 	nop
  4063a8:	00541826 	xor	$v1,$v0,$s4
  4063ac:	10000001 	b	4063b4 <fflush+0xf4>
  4063b0:	2c630001 	sltiu	$v1,$v1,1
  4063b4:	8f848828 	lw	$a0,-30680($gp)
  4063b8:	00000000 	nop
  4063bc:	12440004 	beq	$s2,$a0,4063d0 <fflush+0x110>
  4063c0:	2610ffff 	addiu	$s0,$s0,-1
  4063c4:	1000ffd6 	b	406320 <fflush+0x60>
  4063c8:	27958810 	addiu	$s5,$gp,-30704
  4063cc:	2610ffff 	addiu	$s0,$s0,-1
  4063d0:	0601ffe2 	bgez	$s0,40635c <fflush+0x9c>
  4063d4:	26310010 	addiu	$s1,$s1,16
  4063d8:	8eb50014 	lw	$s5,20($s5)
  4063dc:	00000000 	nop
  4063e0:	16a0ffd9 	bnez	$s5,406348 <fflush+0x88>
  4063e4:	00000000 	nop
  4063e8:	10600004 	beqz	$v1,4063fc <fflush+0x13c>
  4063ec:	00000000 	nop
  4063f0:	8f84aed0 	lw	$a0,-20784($gp)
  4063f4:	0c10203c 	jal	4080f0 <_usvsema>
  4063f8:	00000000 	nop
  4063fc:	10000061 	b	406584 <fflush+0x2c4>
  406400:	02601025 	move	$v0,$s3
  406404:	8f8c88b4 	lw	$t4,-30540($gp)
  406408:	00008025 	move	$s0,$zero
  40640c:	11800005 	beqz	$t4,406424 <fflush+0x164>
  406410:	00000000 	nop
  406414:	0c102c2c 	jal	40b0b0 <_flockfile>
  406418:	02202025 	move	$a0,$s1
  40641c:	10000001 	b	406424 <fflush+0x164>
  406420:	24100001 	li	$s0,1
  406424:	9223000c 	lbu	$v1,12($s1)
  406428:	00000000 	nop
  40642c:	306d0002 	andi	$t5,$v1,0x2
  406430:	15a0003d 	bnez	$t5,406528 <fflush+0x268>
  406434:	00000000 	nop
  406438:	8e220000 	lw	$v0,0($s1)
  40643c:	00000000 	nop
  406440:	18400004 	blez	$v0,406454 <fflush+0x194>
  406444:	00022823 	negu	$a1,$v0
  406448:	9224000d 	lbu	$a0,13($s1)
  40644c:	0c101aec 	jal	406bb0 <_lseek>
  406450:	24060001 	li	$a2,1
  406454:	9222000d 	lbu	$v0,13($s1)
  406458:	8e2e0008 	lw	$t6,8($s1)
  40645c:	28410064 	slti	$at,$v0,100
  406460:	ae200000 	sw	$zero,0($s1)
  406464:	10200007 	beqz	$at,406484 <fflush+0x1c4>
  406468:	ae2e0004 	sw	$t6,4($s1)
  40646c:	3c050042 	lui	$a1,0x42
  406470:	24a5e530 	addiu	$a1,$a1,-6864
  406474:	00a27821 	addu	$t7,$a1,$v0
  406478:	91e30000 	lbu	$v1,0($t7)
  40647c:	10000006 	b	406498 <fflush+0x1d8>
  406480:	00000000 	nop
  406484:	0c101771 	jal	405dc4 <_realbufendadj>
  406488:	02202025 	move	$a0,$s1
  40648c:	3c050042 	lui	$a1,0x42
  406490:	24a5e530 	addiu	$a1,$a1,-6864
  406494:	00401825 	move	$v1,$v0
  406498:	10600017 	beqz	$v1,4064f8 <fflush+0x238>
  40649c:	00000000 	nop
  4064a0:	9222000d 	lbu	$v0,13($s1)
  4064a4:	00000000 	nop
  4064a8:	28410064 	slti	$at,$v0,100
  4064ac:	10200010 	beqz	$at,4064f0 <fflush+0x230>
  4064b0:	00a2c021 	addu	$t8,$a1,$v0
  4064b4:	93040000 	lbu	$a0,0($t8)
  4064b8:	0002c880 	sll	$t9,$v0,0x2
  4064bc:	1080000e 	beqz	$a0,4064f8 <fflush+0x238>
  4064c0:	3c080042 	lui	$t0,0x42
  4064c4:	2508dc10 	addiu	$t0,$t0,-9200
  4064c8:	03281821 	addu	$v1,$t9,$t0
  4064cc:	8c690000 	lw	$t1,0($v1)
  4064d0:	00000000 	nop
  4064d4:	01245023 	subu	$t2,$t1,$a0
  4064d8:	ac6a0000 	sw	$t2,0($v1)
  4064dc:	922b000d 	lbu	$t3,13($s1)
  4064e0:	00000000 	nop
  4064e4:	00ab6021 	addu	$t4,$a1,$t3
  4064e8:	10000003 	b	4064f8 <fflush+0x238>
  4064ec:	a1800000 	sb	$zero,0($t4)
  4064f0:	0c10173a 	jal	405ce8 <_resetbufend>
  4064f4:	02202025 	move	$a0,$s1
  4064f8:	9223000c 	lbu	$v1,12($s1)
  4064fc:	00000000 	nop
  406500:	306d0080 	andi	$t5,$v1,0x80
  406504:	11a00002 	beqz	$t5,406510 <fflush+0x250>
  406508:	306efffe 	andi	$t6,$v1,0xfffe
  40650c:	a22e000c 	sb	$t6,12($s1)
  406510:	12000003 	beqz	$s0,406520 <fflush+0x260>
  406514:	00000000 	nop
  406518:	0c102c55 	jal	40b154 <_funlockfile>
  40651c:	02202025 	move	$a0,$s1
  406520:	10000018 	b	406584 <fflush+0x2c4>
  406524:	00001025 	move	$v0,$zero
  406528:	8e220008 	lw	$v0,8($s1)
  40652c:	00000000 	nop
  406530:	1040000b 	beqz	$v0,406560 <fflush+0x2a0>
  406534:	30780080 	andi	$t8,$v1,0x80
  406538:	8e2f0004 	lw	$t7,4($s1)
  40653c:	00000000 	nop
  406540:	004f082b 	sltu	$at,$v0,$t7
  406544:	10200006 	beqz	$at,406560 <fflush+0x2a0>
  406548:	30780080 	andi	$t8,$v1,0x80
  40654c:	0c10183e 	jal	4060f8 <_xflsbuf>
  406550:	02202025 	move	$a0,$s1
  406554:	9223000c 	lbu	$v1,12($s1)
  406558:	00409825 	move	$s3,$v0
  40655c:	30780080 	andi	$t8,$v1,0x80
  406560:	13000003 	beqz	$t8,406570 <fflush+0x2b0>
  406564:	3079fffd 	andi	$t9,$v1,0xfffd
  406568:	a239000c 	sb	$t9,12($s1)
  40656c:	ae200000 	sw	$zero,0($s1)
  406570:	12000004 	beqz	$s0,406584 <fflush+0x2c4>
  406574:	02601025 	move	$v0,$s3
  406578:	0c102c55 	jal	40b154 <_funlockfile>
  40657c:	02202025 	move	$a0,$s1
  406580:	02601025 	move	$v0,$s3
  406584:	8fbf002c 	lw	$ra,44($sp)
  406588:	8fb00014 	lw	$s0,20($sp)
  40658c:	8fb10018 	lw	$s1,24($sp)
  406590:	8fb2001c 	lw	$s2,28($sp)
  406594:	8fb30020 	lw	$s3,32($sp)
  406598:	8fb40024 	lw	$s4,36($sp)
  40659c:	8fb50028 	lw	$s5,40($sp)
  4065a0:	03e00008 	jr	$ra
  4065a4:	27bd0030 	addiu	$sp,$sp,48

004065a8 <fclose>:
  4065a8:	27bdffd0 	addiu	$sp,$sp,-48
  4065ac:	afb00018 	sw	$s0,24($sp)
  4065b0:	00808025 	move	$s0,$a0
  4065b4:	afbf001c 	sw	$ra,28($sp)
  4065b8:	10800005 	beqz	$a0,4065d0 <fclose+0x28>
  4065bc:	afa0002c 	sw	$zero,44($sp)
  4065c0:	908e000c 	lbu	$t6,12($a0)
  4065c4:	8f8f88b4 	lw	$t7,-30540($gp)
  4065c8:	15c00003 	bnez	$t6,4065d8 <fclose+0x30>
  4065cc:	00000000 	nop
  4065d0:	10000040 	b	4066d4 <fclose+0x12c>
  4065d4:	2402ffff 	li	$v0,-1
  4065d8:	11e00006 	beqz	$t7,4065f4 <fclose+0x4c>
  4065dc:	00000000 	nop
  4065e0:	0c102c2c 	jal	40b0b0 <_flockfile>
  4065e4:	02002025 	move	$a0,$s0
  4065e8:	24180001 	li	$t8,1
  4065ec:	10000002 	b	4065f8 <fclose+0x50>
  4065f0:	afb80028 	sw	$t8,40($sp)
  4065f4:	afa00028 	sw	$zero,40($sp)
  4065f8:	8f9988b4 	lw	$t9,-30540($gp)
  4065fc:	8f84aed0 	lw	$a0,-20784($gp)
  406600:	13200009 	beqz	$t9,406628 <fclose+0x80>
  406604:	00000000 	nop
  406608:	0c102034 	jal	4080d0 <_uspsema>
  40660c:	00000000 	nop
  406610:	38480001 	xori	$t0,$v0,0x1
  406614:	2d080001 	sltiu	$t0,$t0,1
  406618:	afa80024 	sw	$t0,36($sp)
  40661c:	9203000c 	lbu	$v1,12($s0)
  406620:	10000005 	b	406638 <fclose+0x90>
  406624:	30690083 	andi	$t1,$v1,0x83
  406628:	afa00024 	sw	$zero,36($sp)
  40662c:	9203000c 	lbu	$v1,12($s0)
  406630:	00000000 	nop
  406634:	30690083 	andi	$t1,$v1,0x83
  406638:	11200006 	beqz	$t1,406654 <fclose+0xac>
  40663c:	306a0004 	andi	$t2,$v1,0x4
  406640:	15400004 	bnez	$t2,406654 <fclose+0xac>
  406644:	00000000 	nop
  406648:	0c1018b0 	jal	4062c0 <fflush>
  40664c:	02002025 	move	$a0,$s0
  406650:	afa2002c 	sw	$v0,44($sp)
  406654:	9204000d 	lbu	$a0,13($s0)
  406658:	0c101ae0 	jal	406b80 <_close>
  40665c:	00000000 	nop
  406660:	04410002 	bgez	$v0,40666c <fclose+0xc4>
  406664:	240bffff 	li	$t3,-1
  406668:	afab002c 	sw	$t3,44($sp)
  40666c:	920c000c 	lbu	$t4,12($s0)
  406670:	00000000 	nop
  406674:	318d0008 	andi	$t5,$t4,0x8
  406678:	11a00004 	beqz	$t5,40668c <fclose+0xe4>
  40667c:	00000000 	nop
  406680:	8e040008 	lw	$a0,8($s0)
  406684:	0c101fc7 	jal	407f1c <_free>
  406688:	00000000 	nop
  40668c:	ae000008 	sw	$zero,8($s0)
  406690:	ae000004 	sw	$zero,4($s0)
  406694:	ae000000 	sw	$zero,0($s0)
  406698:	a200000c 	sb	$zero,12($s0)
  40669c:	8fae0028 	lw	$t6,40($sp)
  4066a0:	00000000 	nop
  4066a4:	11c00004 	beqz	$t6,4066b8 <fclose+0x110>
  4066a8:	8faf0024 	lw	$t7,36($sp)
  4066ac:	0c102c55 	jal	40b154 <_funlockfile>
  4066b0:	02002025 	move	$a0,$s0
  4066b4:	8faf0024 	lw	$t7,36($sp)
  4066b8:	8f84aed0 	lw	$a0,-20784($gp)
  4066bc:	11e00004 	beqz	$t7,4066d0 <fclose+0x128>
  4066c0:	8fa2002c 	lw	$v0,44($sp)
  4066c4:	0c10203c 	jal	4080f0 <_usvsema>
  4066c8:	00000000 	nop
  4066cc:	8fa2002c 	lw	$v0,44($sp)
  4066d0:	00000000 	nop
  4066d4:	8fbf001c 	lw	$ra,28($sp)
  4066d8:	8fb00018 	lw	$s0,24($sp)
  4066dc:	03e00008 	jr	$ra
  4066e0:	27bd0030 	addiu	$sp,$sp,48
	...

004066f0 <memset>:
  4066f0:	28c10008 	slti	$at,$a2,8
  4066f4:	1420001a 	bnez	$at,406760 <memset+0x70>
  4066f8:	00801025 	move	$v0,$a0
  4066fc:	10a00005 	beqz	$a1,406714 <memset+0x24>
  406700:	00041823 	negu	$v1,$a0
  406704:	00054200 	sll	$t0,$a1,0x8
  406708:	00a82825 	or	$a1,$a1,$t0
  40670c:	00054400 	sll	$t0,$a1,0x10
  406710:	00a82825 	or	$a1,$a1,$t0
  406714:	30630003 	andi	$v1,$v1,0x3
  406718:	10600003 	beqz	$v1,406728 <memset+0x38>
  40671c:	00c33023 	subu	$a2,$a2,$v1
  406720:	a8850000 	swl	$a1,0($a0)
  406724:	00832021 	addu	$a0,$a0,$v1
  406728:	30c80007 	andi	$t0,$a2,0x7
  40672c:	10c80007 	beq	$a2,$t0,40674c <memset+0x5c>
  406730:	00c83823 	subu	$a3,$a2,$t0
  406734:	00e43821 	addu	$a3,$a3,$a0
  406738:	24840008 	addiu	$a0,$a0,8
  40673c:	ac85fff8 	sw	$a1,-8($a0)
  406740:	1487fffd 	bne	$a0,$a3,406738 <memset+0x48>
  406744:	ac85fffc 	sw	$a1,-4($a0)
  406748:	01003025 	move	$a2,$t0
  40674c:	30c80004 	andi	$t0,$a2,0x4
  406750:	11000003 	beqz	$t0,406760 <memset+0x70>
  406754:	00c83023 	subu	$a2,$a2,$t0
  406758:	ac850000 	sw	$a1,0($a0)
  40675c:	24840004 	addiu	$a0,$a0,4
  406760:	18c00004 	blez	$a2,406774 <memset+0x84>
  406764:	00c43821 	addu	$a3,$a2,$a0
  406768:	24840001 	addiu	$a0,$a0,1
  40676c:	1487fffe 	bne	$a0,$a3,406768 <memset+0x78>
  406770:	a085ffff 	sb	$a1,-1($a0)
  406774:	03e00008 	jr	$ra
	...

00406780 <memcpy>:
  406780:	10c0001a 	beqz	$a2,4067ec <memcpy+0x6c>
  406784:	00803825 	move	$a3,$a0
  406788:	10a40018 	beq	$a1,$a0,4067ec <memcpy+0x6c>
  40678c:	0085082a 	slt	$at,$a0,$a1
  406790:	14200008 	bnez	$at,4067b4 <memcpy+0x34>
  406794:	28c10010 	slti	$at,$a2,16
  406798:	00a61020 	add	$v0,$a1,$a2
  40679c:	0082082a 	slt	$at,$a0,$v0
  4067a0:	10200004 	beqz	$at,4067b4 <memcpy+0x34>
  4067a4:	28c10010 	slti	$at,$a2,16
  4067a8:	1000005b 	b	406918 <memcpy+0x198>
  4067ac:	28c10010 	slti	$at,$a2,16
  4067b0:	28c10010 	slti	$at,$a2,16
  4067b4:	14200005 	bnez	$at,4067cc <memcpy+0x4c>
  4067b8:	00000000 	nop
  4067bc:	30a20003 	andi	$v0,$a1,0x3
  4067c0:	30830003 	andi	$v1,$a0,0x3
  4067c4:	1043000b 	beq	$v0,$v1,4067f4 <memcpy+0x74>
  4067c8:	00000000 	nop
  4067cc:	10c00007 	beqz	$a2,4067ec <memcpy+0x6c>
  4067d0:	00000000 	nop
  4067d4:	00a61821 	addu	$v1,$a1,$a2
  4067d8:	80a20000 	lb	$v0,0($a1)
  4067dc:	24a50001 	addiu	$a1,$a1,1
  4067e0:	24840001 	addiu	$a0,$a0,1
  4067e4:	14a3fffc 	bne	$a1,$v1,4067d8 <memcpy+0x58>
  4067e8:	a082ffff 	sb	$v0,-1($a0)
  4067ec:	03e00008 	jr	$ra
  4067f0:	00e01025 	move	$v0,$a3
  4067f4:	10400018 	beqz	$v0,406858 <memcpy+0xd8>
  4067f8:	24010001 	li	$at,1
  4067fc:	1041000f 	beq	$v0,$at,40683c <memcpy+0xbc>
  406800:	24010002 	li	$at,2
  406804:	10410007 	beq	$v0,$at,406824 <memcpy+0xa4>
  406808:	00000000 	nop
  40680c:	80a20000 	lb	$v0,0($a1)
  406810:	24a50001 	addiu	$a1,$a1,1
  406814:	24840001 	addiu	$a0,$a0,1
  406818:	24c6ffff 	addiu	$a2,$a2,-1
  40681c:	1000000e 	b	406858 <memcpy+0xd8>
  406820:	a082ffff 	sb	$v0,-1($a0)
  406824:	84a20000 	lh	$v0,0($a1)
  406828:	24a50002 	addiu	$a1,$a1,2
  40682c:	24840002 	addiu	$a0,$a0,2
  406830:	24c6fffe 	addiu	$a2,$a2,-2
  406834:	10000008 	b	406858 <memcpy+0xd8>
  406838:	a482fffe 	sh	$v0,-2($a0)
  40683c:	80a20000 	lb	$v0,0($a1)
  406840:	84a30001 	lh	$v1,1($a1)
  406844:	24a50003 	addiu	$a1,$a1,3
  406848:	24840003 	addiu	$a0,$a0,3
  40684c:	24c6fffd 	addiu	$a2,$a2,-3
  406850:	a082fffd 	sb	$v0,-3($a0)
  406854:	a483fffe 	sh	$v1,-2($a0)
  406858:	28c10020 	slti	$at,$a2,32
  40685c:	14200016 	bnez	$at,4068b8 <memcpy+0x138>
  406860:	28c10010 	slti	$at,$a2,16
  406864:	8ca20000 	lw	$v0,0($a1)
  406868:	8ca30004 	lw	$v1,4($a1)
  40686c:	8ca80008 	lw	$t0,8($a1)
  406870:	8ca9000c 	lw	$t1,12($a1)
  406874:	8caa0010 	lw	$t2,16($a1)
  406878:	8cab0014 	lw	$t3,20($a1)
  40687c:	8cac0018 	lw	$t4,24($a1)
  406880:	8cad001c 	lw	$t5,28($a1)
  406884:	24a50020 	addiu	$a1,$a1,32
  406888:	24840020 	addiu	$a0,$a0,32
  40688c:	24c6ffe0 	addiu	$a2,$a2,-32
  406890:	ac82ffe0 	sw	$v0,-32($a0)
  406894:	ac83ffe4 	sw	$v1,-28($a0)
  406898:	ac88ffe8 	sw	$t0,-24($a0)
  40689c:	ac89ffec 	sw	$t1,-20($a0)
  4068a0:	ac8afff0 	sw	$t2,-16($a0)
  4068a4:	ac8bfff4 	sw	$t3,-12($a0)
  4068a8:	ac8cfff8 	sw	$t4,-8($a0)
  4068ac:	1000ffea 	b	406858 <memcpy+0xd8>
  4068b0:	ac8dfffc 	sw	$t5,-4($a0)
  4068b4:	28c10010 	slti	$at,$a2,16
  4068b8:	1420000e 	bnez	$at,4068f4 <memcpy+0x174>
  4068bc:	28c10004 	slti	$at,$a2,4
  4068c0:	8ca20000 	lw	$v0,0($a1)
  4068c4:	8ca30004 	lw	$v1,4($a1)
  4068c8:	8ca80008 	lw	$t0,8($a1)
  4068cc:	8ca9000c 	lw	$t1,12($a1)
  4068d0:	24a50010 	addiu	$a1,$a1,16
  4068d4:	24840010 	addiu	$a0,$a0,16
  4068d8:	24c6fff0 	addiu	$a2,$a2,-16
  4068dc:	ac82fff0 	sw	$v0,-16($a0)
  4068e0:	ac83fff4 	sw	$v1,-12($a0)
  4068e4:	ac88fff8 	sw	$t0,-8($a0)
  4068e8:	1000fff2 	b	4068b4 <memcpy+0x134>
  4068ec:	ac89fffc 	sw	$t1,-4($a0)
  4068f0:	28c10004 	slti	$at,$a2,4
  4068f4:	1420ffb5 	bnez	$at,4067cc <memcpy+0x4c>
  4068f8:	00000000 	nop
  4068fc:	8ca20000 	lw	$v0,0($a1)
  406900:	24a50004 	addiu	$a1,$a1,4
  406904:	24840004 	addiu	$a0,$a0,4
  406908:	24c6fffc 	addiu	$a2,$a2,-4
  40690c:	1000fff8 	b	4068f0 <memcpy+0x170>
  406910:	ac82fffc 	sw	$v0,-4($a0)
  406914:	28c10010 	slti	$at,$a2,16
  406918:	00a62820 	add	$a1,$a1,$a2
  40691c:	14200005 	bnez	$at,406934 <memcpy+0x1b4>
  406920:	00862020 	add	$a0,$a0,$a2
  406924:	30a20003 	andi	$v0,$a1,0x3
  406928:	30830003 	andi	$v1,$a0,0x3
  40692c:	1043000d 	beq	$v0,$v1,406964 <memcpy+0x1e4>
  406930:	00000000 	nop
  406934:	10c0ffad 	beqz	$a2,4067ec <memcpy+0x6c>
  406938:	00000000 	nop
  40693c:	24a5ffff 	addiu	$a1,$a1,-1
  406940:	2484ffff 	addiu	$a0,$a0,-1
  406944:	00a61823 	subu	$v1,$a1,$a2
  406948:	80a20000 	lb	$v0,0($a1)
  40694c:	24a5ffff 	addiu	$a1,$a1,-1
  406950:	2484ffff 	addiu	$a0,$a0,-1
  406954:	14a3fffc 	bne	$a1,$v1,406948 <memcpy+0x1c8>
  406958:	a0820001 	sb	$v0,1($a0)
  40695c:	03e00008 	jr	$ra
  406960:	00e01025 	move	$v0,$a3
  406964:	10400018 	beqz	$v0,4069c8 <memcpy+0x248>
  406968:	24010003 	li	$at,3
  40696c:	1041000f 	beq	$v0,$at,4069ac <memcpy+0x22c>
  406970:	24010002 	li	$at,2
  406974:	10410007 	beq	$v0,$at,406994 <memcpy+0x214>
  406978:	00000000 	nop
  40697c:	80a2ffff 	lb	$v0,-1($a1)
  406980:	24a5ffff 	addiu	$a1,$a1,-1
  406984:	2484ffff 	addiu	$a0,$a0,-1
  406988:	24c6ffff 	addiu	$a2,$a2,-1
  40698c:	1000000e 	b	4069c8 <memcpy+0x248>
  406990:	a0820000 	sb	$v0,0($a0)
  406994:	84a2fffe 	lh	$v0,-2($a1)
  406998:	24a5fffe 	addiu	$a1,$a1,-2
  40699c:	2484fffe 	addiu	$a0,$a0,-2
  4069a0:	24c6fffe 	addiu	$a2,$a2,-2
  4069a4:	10000008 	b	4069c8 <memcpy+0x248>
  4069a8:	a4820000 	sh	$v0,0($a0)
  4069ac:	80a2ffff 	lb	$v0,-1($a1)
  4069b0:	84a3fffd 	lh	$v1,-3($a1)
  4069b4:	24a5fffd 	addiu	$a1,$a1,-3
  4069b8:	2484fffd 	addiu	$a0,$a0,-3
  4069bc:	24c6fffd 	addiu	$a2,$a2,-3
  4069c0:	a0820002 	sb	$v0,2($a0)
  4069c4:	a4830000 	sh	$v1,0($a0)
  4069c8:	28c10020 	slti	$at,$a2,32
  4069cc:	14200016 	bnez	$at,406a28 <memcpy+0x2a8>
  4069d0:	28c10010 	slti	$at,$a2,16
  4069d4:	8ca2fffc 	lw	$v0,-4($a1)
  4069d8:	8ca3fff8 	lw	$v1,-8($a1)
  4069dc:	8ca8fff4 	lw	$t0,-12($a1)
  4069e0:	8ca9fff0 	lw	$t1,-16($a1)
  4069e4:	8caaffec 	lw	$t2,-20($a1)
  4069e8:	8cabffe8 	lw	$t3,-24($a1)
  4069ec:	8cacffe4 	lw	$t4,-28($a1)
  4069f0:	8cadffe0 	lw	$t5,-32($a1)
  4069f4:	24a5ffe0 	addiu	$a1,$a1,-32
  4069f8:	2484ffe0 	addiu	$a0,$a0,-32
  4069fc:	24c6ffe0 	addiu	$a2,$a2,-32
  406a00:	ac82001c 	sw	$v0,28($a0)
  406a04:	ac830018 	sw	$v1,24($a0)
  406a08:	ac880014 	sw	$t0,20($a0)
  406a0c:	ac890010 	sw	$t1,16($a0)
  406a10:	ac8a000c 	sw	$t2,12($a0)
  406a14:	ac8b0008 	sw	$t3,8($a0)
  406a18:	ac8c0004 	sw	$t4,4($a0)
  406a1c:	1000ffea 	b	4069c8 <memcpy+0x248>
  406a20:	ac8d0000 	sw	$t5,0($a0)
  406a24:	28c10010 	slti	$at,$a2,16
  406a28:	1420000e 	bnez	$at,406a64 <memcpy+0x2e4>
  406a2c:	28c10004 	slti	$at,$a2,4
  406a30:	8ca2fffc 	lw	$v0,-4($a1)
  406a34:	8ca3fff8 	lw	$v1,-8($a1)
  406a38:	8ca8fff4 	lw	$t0,-12($a1)
  406a3c:	8ca9fff0 	lw	$t1,-16($a1)
  406a40:	24a5fff0 	addiu	$a1,$a1,-16
  406a44:	2484fff0 	addiu	$a0,$a0,-16
  406a48:	24c6fff0 	addiu	$a2,$a2,-16
  406a4c:	ac82000c 	sw	$v0,12($a0)
  406a50:	ac830008 	sw	$v1,8($a0)
  406a54:	ac880004 	sw	$t0,4($a0)
  406a58:	1000fff2 	b	406a24 <memcpy+0x2a4>
  406a5c:	ac890000 	sw	$t1,0($a0)
  406a60:	28c10004 	slti	$at,$a2,4
  406a64:	1420ffb3 	bnez	$at,406934 <memcpy+0x1b4>
  406a68:	00000000 	nop
  406a6c:	8ca2fffc 	lw	$v0,-4($a1)
  406a70:	24a5fffc 	addiu	$a1,$a1,-4
  406a74:	2484fffc 	addiu	$a0,$a0,-4
  406a78:	24c6fffc 	addiu	$a2,$a2,-4
  406a7c:	1000fff8 	b	406a60 <memcpy+0x2e0>
  406a80:	ac820000 	sw	$v0,0($a0)
	...

00406a90 <strcpy>:
  406a90:	00801025 	move	$v0,$a0
  406a94:	80a80000 	lb	$t0,0($a1)
  406a98:	348d0003 	ori	$t5,$a0,0x3
  406a9c:	11000024 	beqz	$t0,406b30 <strcpy+0xa0>
  406aa0:	01a47022 	sub	$t6,$t5,$a0
  406aa4:	80a90001 	lb	$t1,1($a1)
  406aa8:	00ae7820 	add	$t7,$a1,$t6
  406aac:	1120001f 	beqz	$t1,406b2c <strcpy+0x9c>
  406ab0:	00000000 	nop
  406ab4:	80aa0002 	lb	$t2,2($a1)
  406ab8:	00000000 	nop
  406abc:	1140001a 	beqz	$t2,406b28 <strcpy+0x98>
  406ac0:	88ac0000 	lwl	$t4,0($a1)
  406ac4:	80ab0003 	lb	$t3,3($a1)
  406ac8:	98ac0003 	lwr	$t4,3($a1)
  406acc:	11600014 	beqz	$t3,406b20 <strcpy+0x90>
  406ad0:	a88c0000 	swl	$t4,0($a0)
  406ad4:	21a4fffd 	addi	$a0,$t5,-3
  406ad8:	81e80001 	lb	$t0,1($t7)
  406adc:	21ef0004 	addi	$t7,$t7,4
  406ae0:	11000013 	beqz	$t0,406b30 <strcpy+0xa0>
  406ae4:	20840004 	addi	$a0,$a0,4
  406ae8:	81e9fffe 	lb	$t1,-2($t7)
  406aec:	00000000 	nop
  406af0:	1120000e 	beqz	$t1,406b2c <strcpy+0x9c>
  406af4:	00000000 	nop
  406af8:	81eaffff 	lb	$t2,-1($t7)
  406afc:	00000000 	nop
  406b00:	11400009 	beqz	$t2,406b28 <strcpy+0x98>
  406b04:	89ecfffd 	lwl	$t4,-3($t7)
  406b08:	81eb0000 	lb	$t3,0($t7)
  406b0c:	99ec0000 	lwr	$t4,0($t7)
  406b10:	1560fff1 	bnez	$t3,406ad8 <strcpy+0x48>
  406b14:	ac8c0000 	sw	$t4,0($a0)
  406b18:	03e00008 	jr	$ra
  406b1c:	00000000 	nop
  406b20:	03e00008 	jr	$ra
  406b24:	b88c0003 	swr	$t4,3($a0)
  406b28:	a08a0002 	sb	$t2,2($a0)
  406b2c:	a0890001 	sb	$t1,1($a0)
  406b30:	03e00008 	jr	$ra
  406b34:	a0880000 	sb	$t0,0($a0)
	...

00406b40 <strlen>:
  406b40:	2482ffff 	addiu	$v0,$a0,-1
  406b44:	90430001 	lbu	$v1,1($v0)
  406b48:	20420001 	addi	$v0,$v0,1
  406b4c:	1460fffd 	bnez	$v1,406b44 <strlen+0x4>
  406b50:	00000000 	nop
  406b54:	03e00008 	jr	$ra
  406b58:	00441023 	subu	$v0,$v0,$a0
  406b5c:	00000000 	nop

00406b60 <_cerror>:
  406b60:	3c080042 	lui	$t0,0x42
  406b64:	8d08e420 	lw	$t0,-7136($t0)
  406b68:	2789af6c 	addiu	$t1,$gp,-20628
  406b6c:	11090002 	beq	$t0,$t1,406b78 <_cerror+0x18>
  406b70:	af82af6c 	sw	$v0,-20628($gp)
  406b74:	ad020000 	sw	$v0,0($t0)
  406b78:	03e00008 	jr	$ra
  406b7c:	2402ffff 	li	$v0,-1

00406b80 <_close>:
  406b80:	240203ee 	li	$v0,1006
  406b84:	0000000c 	syscall
  406b88:	14e00004 	bnez	$a3,406b9c <_close+0x1c>
  406b8c:	00000000 	nop
  406b90:	00001025 	move	$v0,$zero
  406b94:	03e00008 	jr	$ra
  406b98:	00000000 	nop
  406b9c:	3c190040 	lui	$t9,0x40
  406ba0:	27396b60 	addiu	$t9,$t9,27488
  406ba4:	03200008 	jr	$t9
	...

00406bb0 <_lseek>:
  406bb0:	240203fb 	li	$v0,1019
  406bb4:	0000000c 	syscall
  406bb8:	14e00003 	bnez	$a3,406bc8 <_lseek+0x18>
  406bbc:	00000000 	nop
  406bc0:	03e00008 	jr	$ra
  406bc4:	00000000 	nop
  406bc8:	3c190040 	lui	$t9,0x40
  406bcc:	27396b60 	addiu	$t9,$t9,27488
  406bd0:	03200008 	jr	$t9
	...

00406be0 <_write>:
  406be0:	240203ec 	li	$v0,1004
  406be4:	0000000c 	syscall
  406be8:	14e00003 	bnez	$a3,406bf8 <_write+0x18>
  406bec:	00000000 	nop
  406bf0:	03e00008 	jr	$ra
  406bf4:	00000000 	nop
  406bf8:	3c190040 	lui	$t9,0x40
  406bfc:	27396b60 	addiu	$t9,$t9,27488
  406c00:	03200008 	jr	$t9
	...

00406c10 <atexit>:
  406c10:	8f8e88bc 	lw	$t6,-30532($gp)
  406c14:	27bdffe8 	addiu	$sp,$sp,-24
  406c18:	afbf0014 	sw	$ra,20($sp)
  406c1c:	11c00008 	beqz	$t6,406c40 <atexit+0x30>
  406c20:	00802825 	move	$a1,$a0
  406c24:	8f84aed4 	lw	$a0,-20780($gp)
  406c28:	0c102034 	jal	4080d0 <_uspsema>
  406c2c:	afa50018 	sw	$a1,24($sp)
  406c30:	8fa50018 	lw	$a1,24($sp)
  406c34:	38430001 	xori	$v1,$v0,0x1
  406c38:	10000002 	b	406c44 <atexit+0x34>
  406c3c:	2c630001 	sltiu	$v1,$v1,1
  406c40:	00001825 	move	$v1,$zero
  406c44:	10a00006 	beqz	$a1,406c60 <atexit+0x50>
  406c48:	00000000 	nop
  406c4c:	8f828830 	lw	$v0,-30672($gp)
  406c50:	00000000 	nop
  406c54:	28410025 	slti	$at,$v0,37
  406c58:	14200008 	bnez	$at,406c7c <atexit+0x6c>
  406c5c:	00027880 	sll	$t7,$v0,0x2
  406c60:	10600004 	beqz	$v1,406c74 <atexit+0x64>
  406c64:	00000000 	nop
  406c68:	8f84aed4 	lw	$a0,-20780($gp)
  406c6c:	0c10203c 	jal	4080f0 <_usvsema>
  406c70:	00000000 	nop
  406c74:	1000000b 	b	406ca4 <atexit+0x94>
  406c78:	2402ffff 	li	$v0,-1
  406c7c:	3c010042 	lui	$at,0x42
  406c80:	002f0821 	addu	$at,$at,$t7
  406c84:	24420001 	addiu	$v0,$v0,1
  406c88:	ac250b50 	sw	$a1,2896($at)
  406c8c:	10600004 	beqz	$v1,406ca0 <atexit+0x90>
  406c90:	af828830 	sw	$v0,-30672($gp)
  406c94:	8f84aed4 	lw	$a0,-20780($gp)
  406c98:	0c10203c 	jal	4080f0 <_usvsema>
  406c9c:	00000000 	nop
  406ca0:	00001025 	move	$v0,$zero
  406ca4:	8fbf0014 	lw	$ra,20($sp)
  406ca8:	27bd0018 	addiu	$sp,$sp,24
  406cac:	03e00008 	jr	$ra
  406cb0:	00000000 	nop

00406cb4 <_exithandle>:
  406cb4:	8f848830 	lw	$a0,-30672($gp)
  406cb8:	27bdffe0 	addiu	$sp,$sp,-32
  406cbc:	afbf001c 	sw	$ra,28($sp)
  406cc0:	1880000f 	blez	$a0,406d00 <_exithandle+0x4c>
  406cc4:	afb00018 	sw	$s0,24($sp)
  406cc8:	3c100042 	lui	$s0,0x42
  406ccc:	26100b50 	addiu	$s0,$s0,2896
  406cd0:	2482ffff 	addiu	$v0,$a0,-1
  406cd4:	00027080 	sll	$t6,$v0,0x2
  406cd8:	020e7821 	addu	$t7,$s0,$t6
  406cdc:	af828830 	sw	$v0,-30672($gp)
  406ce0:	8df90000 	lw	$t9,0($t7)
  406ce4:	00000000 	nop
  406ce8:	0320f809 	jalr	$t9
  406cec:	00000000 	nop
  406cf0:	8f848830 	lw	$a0,-30672($gp)
  406cf4:	00000000 	nop
  406cf8:	1c80fff6 	bgtz	$a0,406cd4 <_exithandle+0x20>
  406cfc:	2482ffff 	addiu	$v0,$a0,-1
  406d00:	8fbf001c 	lw	$ra,28($sp)
  406d04:	8fb00018 	lw	$s0,24($sp)
  406d08:	03e00008 	jr	$ra
  406d0c:	27bd0020 	addiu	$sp,$sp,32

00406d10 <__call_exitfns>:
  406d10:	27bdffe8 	addiu	$sp,$sp,-24
  406d14:	afbf0014 	sw	$ra,20($sp)
  406d18:	0c101b2d 	jal	406cb4 <_exithandle>
  406d1c:	00000000 	nop
  406d20:	8fbf0014 	lw	$ra,20($sp)
  406d24:	27bd0018 	addiu	$sp,$sp,24
  406d28:	03e00008 	jr	$ra
  406d2c:	00000000 	nop

00406d30 <__ateachexit>:
  406d30:	8f8e88bc 	lw	$t6,-30532($gp)
  406d34:	27bdffe8 	addiu	$sp,$sp,-24
  406d38:	afbf0014 	sw	$ra,20($sp)
  406d3c:	11c00008 	beqz	$t6,406d60 <__ateachexit+0x30>
  406d40:	00802825 	move	$a1,$a0
  406d44:	8f84aed4 	lw	$a0,-20780($gp)
  406d48:	0c102034 	jal	4080d0 <_uspsema>
  406d4c:	afa50018 	sw	$a1,24($sp)
  406d50:	8fa50018 	lw	$a1,24($sp)
  406d54:	38430001 	xori	$v1,$v0,0x1
  406d58:	10000002 	b	406d64 <__ateachexit+0x34>
  406d5c:	2c630001 	sltiu	$v1,$v1,1
  406d60:	00001825 	move	$v1,$zero
  406d64:	10a00006 	beqz	$a1,406d80 <__ateachexit+0x50>
  406d68:	00000000 	nop
  406d6c:	8f828834 	lw	$v0,-30668($gp)
  406d70:	00000000 	nop
  406d74:	28410025 	slti	$at,$v0,37
  406d78:	14200008 	bnez	$at,406d9c <__ateachexit+0x6c>
  406d7c:	00027880 	sll	$t7,$v0,0x2
  406d80:	10600004 	beqz	$v1,406d94 <__ateachexit+0x64>
  406d84:	00000000 	nop
  406d88:	8f84aed4 	lw	$a0,-20780($gp)
  406d8c:	0c10203c 	jal	4080f0 <_usvsema>
  406d90:	00000000 	nop
  406d94:	1000000b 	b	406dc4 <__ateachexit+0x94>
  406d98:	2402ffff 	li	$v0,-1
  406d9c:	3c010042 	lui	$at,0x42
  406da0:	002f0821 	addu	$at,$at,$t7
  406da4:	24420001 	addiu	$v0,$v0,1
  406da8:	ac250be8 	sw	$a1,3048($at)
  406dac:	10600004 	beqz	$v1,406dc0 <__ateachexit+0x90>
  406db0:	af828834 	sw	$v0,-30668($gp)
  406db4:	8f84aed4 	lw	$a0,-20780($gp)
  406db8:	0c10203c 	jal	4080f0 <_usvsema>
  406dbc:	00000000 	nop
  406dc0:	00001025 	move	$v0,$zero
  406dc4:	8fbf0014 	lw	$ra,20($sp)
  406dc8:	27bd0018 	addiu	$sp,$sp,24
  406dcc:	03e00008 	jr	$ra
  406dd0:	00000000 	nop

00406dd4 <__eachexithandle>:
  406dd4:	8f828834 	lw	$v0,-30668($gp)
  406dd8:	27bdffe0 	addiu	$sp,$sp,-32
  406ddc:	2442ffff 	addiu	$v0,$v0,-1
  406de0:	afbf001c 	sw	$ra,28($sp)
  406de4:	afb10018 	sw	$s1,24($sp)
  406de8:	0440000f 	bltz	$v0,406e28 <__eachexithandle+0x54>
  406dec:	afb00014 	sw	$s0,20($sp)
  406df0:	3c0f0042 	lui	$t7,0x42
  406df4:	25ef0be8 	addiu	$t7,$t7,3048
  406df8:	00027080 	sll	$t6,$v0,0x2
  406dfc:	3c110042 	lui	$s1,0x42
  406e00:	26310be8 	addiu	$s1,$s1,3048
  406e04:	01cf8021 	addu	$s0,$t6,$t7
  406e08:	8e190000 	lw	$t9,0($s0)
  406e0c:	00000000 	nop
  406e10:	0320f809 	jalr	$t9
  406e14:	00000000 	nop
  406e18:	2610fffc 	addiu	$s0,$s0,-4
  406e1c:	0211082b 	sltu	$at,$s0,$s1
  406e20:	1020fff9 	beqz	$at,406e08 <__eachexithandle+0x34>
  406e24:	00000000 	nop
  406e28:	8fbf001c 	lw	$ra,28($sp)
  406e2c:	8fb00014 	lw	$s0,20($sp)
  406e30:	8fb10018 	lw	$s1,24($sp)
  406e34:	03e00008 	jr	$ra
  406e38:	27bd0020 	addiu	$sp,$sp,32
  406e3c:	00000000 	nop
  406e40:	27bdffc0 	addiu	$sp,$sp,-64
  406e44:	afbf0014 	sw	$ra,20($sp)
  406e48:	14800002 	bnez	$a0,406e54 <__eachexithandle+0x80>
  406e4c:	00802825 	move	$a1,$a0
  406e50:	24050008 	li	$a1,8
  406e54:	000570c2 	srl	$t6,$a1,0x3
  406e58:	000e7880 	sll	$t7,$t6,0x2
  406e5c:	3c190042 	lui	$t9,0x42
  406e60:	27390d00 	addiu	$t9,$t9,3328
  406e64:	25f8fffc 	addiu	$t8,$t7,-4
  406e68:	03194021 	addu	$t0,$t8,$t9
  406e6c:	8d030000 	lw	$v1,0($t0)
  406e70:	24090008 	li	$t1,8
  406e74:	10600002 	beqz	$v1,406e80 <__eachexithandle+0xac>
  406e78:	30660003 	andi	$a2,$v1,0x3
  406e7c:	10c00027 	beqz	$a2,406f1c <__eachexithandle+0x148>
  406e80:	00c93804 	sllv	$a3,$t1,$a2
  406e84:	24aa0008 	addiu	$t2,$a1,8
  406e88:	01470019 	multu	$t2,$a3
  406e8c:	afa7002c 	sw	$a3,44($sp)
  406e90:	afa7001c 	sw	$a3,28($sp)
  406e94:	afa50040 	sw	$a1,64($sp)
  406e98:	afa60034 	sw	$a2,52($sp)
  406e9c:	afa80020 	sw	$t0,32($sp)
  406ea0:	00002012 	mflo	$a0
  406ea4:	0c101bec 	jal	406fb0 <_malloc+0x68>
  406ea8:	00000000 	nop
  406eac:	8fa80020 	lw	$t0,32($sp)
  406eb0:	8fa3002c 	lw	$v1,44($sp)
  406eb4:	8fa50040 	lw	$a1,64($sp)
  406eb8:	8fa60034 	lw	$a2,52($sp)
  406ebc:	8fa7001c 	lw	$a3,28($sp)
  406ec0:	14400003 	bnez	$v0,406ed0 <__eachexithandle+0xfc>
  406ec4:	ad020000 	sw	$v0,0($t0)
  406ec8:	1000001b 	b	406f38 <__eachexithandle+0x164>
  406ecc:	00001025 	move	$v0,$zero
  406ed0:	8d020000 	lw	$v0,0($t0)
  406ed4:	18e00009 	blez	$a3,406efc <__eachexithandle+0x128>
  406ed8:	24c60001 	addiu	$a2,$a2,1
  406edc:	00402025 	move	$a0,$v0
  406ee0:	ac450000 	sw	$a1,0($v0)
  406ee4:	00451021 	addu	$v0,$v0,$a1
  406ee8:	2463ffff 	addiu	$v1,$v1,-1
  406eec:	24420008 	addiu	$v0,$v0,8
  406ef0:	1c60fffa 	bgtz	$v1,406edc <__eachexithandle+0x108>
  406ef4:	ac820008 	sw	$v0,8($a0)
  406ef8:	afa4003c 	sw	$a0,60($sp)
  406efc:	8fa4003c 	lw	$a0,60($sp)
  406f00:	28c10004 	slti	$at,$a2,4
  406f04:	14200002 	bnez	$at,406f10 <__eachexithandle+0x13c>
  406f08:	00000000 	nop
  406f0c:	24060003 	li	$a2,3
  406f10:	ac860008 	sw	$a2,8($a0)
  406f14:	8d030000 	lw	$v1,0($t0)
  406f18:	00000000 	nop
  406f1c:	8c6b0008 	lw	$t3,8($v1)
  406f20:	24620008 	addiu	$v0,$v1,8
  406f24:	ad0b0000 	sw	$t3,0($t0)
  406f28:	8c6c0000 	lw	$t4,0($v1)
  406f2c:	00000000 	nop
  406f30:	358d0001 	ori	$t5,$t4,0x1
  406f34:	ac6d0000 	sw	$t5,0($v1)
  406f38:	8fbf0014 	lw	$ra,20($sp)
  406f3c:	27bd0040 	addiu	$sp,$sp,64
  406f40:	03e00008 	jr	$ra
  406f44:	00000000 	nop

00406f48 <_malloc>:
  406f48:	8f8e88c4 	lw	$t6,-30524($gp)
  406f4c:	27bdffe0 	addiu	$sp,$sp,-32
  406f50:	afbf0014 	sw	$ra,20($sp)
  406f54:	11c00005 	beqz	$t6,406f6c <_malloc+0x24>
  406f58:	afa40020 	sw	$a0,32($sp)
  406f5c:	8f99aee4 	lw	$t9,-20764($gp)
  406f60:	8f84aec8 	lw	$a0,-20792($gp)
  406f64:	0320f809 	jalr	$t9
  406f68:	00000000 	nop
  406f6c:	8fa40020 	lw	$a0,32($sp)
  406f70:	0c101bec 	jal	406fb0 <_malloc+0x68>
  406f74:	00000000 	nop
  406f78:	8f8f88c4 	lw	$t7,-30524($gp)
  406f7c:	00401825 	move	$v1,$v0
  406f80:	11e00008 	beqz	$t7,406fa4 <_malloc+0x5c>
  406f84:	8fbf0014 	lw	$ra,20($sp)
  406f88:	8f99aee8 	lw	$t9,-20760($gp)
  406f8c:	8f84aec8 	lw	$a0,-20792($gp)
  406f90:	0320f809 	jalr	$t9
  406f94:	afa2001c 	sw	$v0,28($sp)
  406f98:	8fa3001c 	lw	$v1,28($sp)
  406f9c:	00000000 	nop
  406fa0:	8fbf0014 	lw	$ra,20($sp)
  406fa4:	27bd0020 	addiu	$sp,$sp,32
  406fa8:	03e00008 	jr	$ra
  406fac:	00601025 	move	$v0,$v1
  406fb0:	27bdffd8 	addiu	$sp,$sp,-40
  406fb4:	30820007 	andi	$v0,$a0,0x7
  406fb8:	afbf0014 	sw	$ra,20($sp)
  406fbc:	10400003 	beqz	$v0,406fcc <_malloc+0x84>
  406fc0:	00803025 	move	$a2,$a0
  406fc4:	00823023 	subu	$a2,$a0,$v0
  406fc8:	24c60008 	addiu	$a2,$a2,8
  406fcc:	8f84aeac 	lw	$a0,-20820($gp)
  406fd0:	00000000 	nop
  406fd4:	10800025 	beqz	$a0,40706c <_malloc+0x124>
  406fd8:	2485fff8 	addiu	$a1,$a0,-8
  406fdc:	8c83fff8 	lw	$v1,-8($a0)
  406fe0:	2401fffc 	li	$at,-4
  406fe4:	00617024 	and	$t6,$v1,$at
  406fe8:	15c6000c 	bne	$t6,$a2,40701c <_malloc+0xd4>
  406fec:	01c01825 	move	$v1,$t6
  406ff0:	8f87aeb0 	lw	$a3,-20816($gp)
  406ff4:	3c010042 	lui	$at,0x42
  406ff8:	24e7001f 	addiu	$a3,$a3,31
  406ffc:	30ef001f 	andi	$t7,$a3,0x1f
  407000:	000fc080 	sll	$t8,$t7,0x2
  407004:	00380821 	addu	$at,$at,$t8
  407008:	ac200c80 	sw	$zero,3200($at)
  40700c:	af8faeb0 	sw	$t7,-20816($gp)
  407010:	24a20008 	addiu	$v0,$a1,8
  407014:	10000087 	b	407234 <_malloc+0x2ec>
  407018:	af80aeac 	sw	$zero,-20820($gp)
  40701c:	2cc10028 	sltiu	$at,$a2,40
  407020:	14200012 	bnez	$at,40706c <_malloc+0x124>
  407024:	00c3082b 	sltu	$at,$a2,$v1
  407028:	10200010 	beqz	$at,40706c <_malloc+0x124>
  40702c:	00000000 	nop
  407030:	8f87aeb0 	lw	$a3,-20816($gp)
  407034:	3c010042 	lui	$at,0x42
  407038:	24e7001f 	addiu	$a3,$a3,31
  40703c:	30f9001f 	andi	$t9,$a3,0x1f
  407040:	00194080 	sll	$t0,$t9,0x2
  407044:	00280821 	addu	$at,$at,$t0
  407048:	ac200c80 	sw	$zero,3200($at)
  40704c:	8ca90000 	lw	$t1,0($a1)
  407050:	00000000 	nop
  407054:	312a0002 	andi	$t2,$t1,0x2
  407058:	afaa0018 	sw	$t2,24($sp)
  40705c:	aca30000 	sw	$v1,0($a1)
  407060:	af99aeb0 	sw	$t9,-20816($gp)
  407064:	10000057 	b	4071c4 <_malloc+0x27c>
  407068:	af80aeac 	sw	$zero,-20820($gp)
  40706c:	afa00018 	sw	$zero,24($sp)
  407070:	00002025 	move	$a0,$zero
  407074:	0c101ffc 	jal	407ff0 <__free+0x78>
  407078:	afa60028 	sw	$a2,40($sp)
  40707c:	8fa60028 	lw	$a2,40($sp)
  407080:	8f87aea0 	lw	$a3,-20832($gp)
  407084:	2cc10028 	sltiu	$at,$a2,40
  407088:	10200005 	beqz	$at,4070a0 <_malloc+0x158>
  40708c:	00002825 	move	$a1,$zero
  407090:	0c101b90 	jal	406e40 <__eachexithandle+0x6c>
  407094:	00c02025 	move	$a0,$a2
  407098:	10000067 	b	407238 <_malloc+0x2f0>
  40709c:	8fbf0014 	lw	$ra,20($sp)
  4070a0:	10e0002d 	beqz	$a3,407158 <_malloc+0x210>
  4070a4:	00001825 	move	$v1,$zero
  4070a8:	00e02025 	move	$a0,$a3
  4070ac:	8c820000 	lw	$v0,0($a0)
  4070b0:	00000000 	nop
  4070b4:	0046082b 	sltu	$at,$v0,$a2
  4070b8:	1420000d 	bnez	$at,4070f0 <_malloc+0x1a8>
  4070bc:	00000000 	nop
  4070c0:	10600003 	beqz	$v1,4070d0 <_malloc+0x188>
  4070c4:	0062082b 	sltu	$at,$v1,$v0
  4070c8:	14200003 	bnez	$at,4070d8 <_malloc+0x190>
  4070cc:	00000000 	nop
  4070d0:	00802825 	move	$a1,$a0
  4070d4:	00401825 	move	$v1,$v0
  4070d8:	8c820010 	lw	$v0,16($a0)
  4070dc:	00000000 	nop
  4070e0:	10400009 	beqz	$v0,407108 <_malloc+0x1c0>
  4070e4:	00000000 	nop
  4070e8:	1000fff0 	b	4070ac <_malloc+0x164>
  4070ec:	00402025 	move	$a0,$v0
  4070f0:	8c820018 	lw	$v0,24($a0)
  4070f4:	00000000 	nop
  4070f8:	10400003 	beqz	$v0,407108 <_malloc+0x1c0>
  4070fc:	00000000 	nop
  407100:	1000ffea 	b	4070ac <_malloc+0x164>
  407104:	00402025 	move	$a0,$v0
  407108:	10a00009 	beqz	$a1,407130 <_malloc+0x1e8>
  40710c:	00000000 	nop
  407110:	00a02025 	move	$a0,$a1
  407114:	afa5001c 	sw	$a1,28($sp)
  407118:	0c101eca 	jal	407b28 <_realloc+0x8e4>
  40711c:	afa60028 	sw	$a2,40($sp)
  407120:	8fa5001c 	lw	$a1,28($sp)
  407124:	8fa60028 	lw	$a2,40($sp)
  407128:	1000000b 	b	407158 <_malloc+0x210>
  40712c:	00000000 	nop
  407130:	10870009 	beq	$a0,$a3,407158 <_malloc+0x210>
  407134:	00000000 	nop
  407138:	afa40020 	sw	$a0,32($sp)
  40713c:	afa5001c 	sw	$a1,28($sp)
  407140:	0c101f46 	jal	407d18 <_realloc+0xad4>
  407144:	afa60028 	sw	$a2,40($sp)
  407148:	8fa40020 	lw	$a0,32($sp)
  40714c:	8fa5001c 	lw	$a1,28($sp)
  407150:	8fa60028 	lw	$a2,40($sp)
  407154:	af84aea0 	sw	$a0,-20832($gp)
  407158:	14a00013 	bnez	$a1,4071a8 <_malloc+0x260>
  40715c:	00000000 	nop
  407160:	8f82aea4 	lw	$v0,-20828($gp)
  407164:	00c02025 	move	$a0,$a2
  407168:	10400008 	beqz	$v0,40718c <_malloc+0x244>
  40716c:	00000000 	nop
  407170:	8c4b0000 	lw	$t3,0($v0)
  407174:	00000000 	nop
  407178:	0166082b 	sltu	$at,$t3,$a2
  40717c:	14200003 	bnez	$at,40718c <_malloc+0x244>
  407180:	00000000 	nop
  407184:	10000008 	b	4071a8 <_malloc+0x260>
  407188:	00402825 	move	$a1,$v0
  40718c:	0c101e55 	jal	407954 <_realloc+0x710>
  407190:	afa60028 	sw	$a2,40($sp)
  407194:	8fa60028 	lw	$a2,40($sp)
  407198:	14400003 	bnez	$v0,4071a8 <_malloc+0x260>
  40719c:	00402825 	move	$a1,$v0
  4071a0:	10000024 	b	407234 <_malloc+0x2ec>
  4071a4:	00001025 	move	$v0,$zero
  4071a8:	8cac0000 	lw	$t4,0($a1)
  4071ac:	2401fffd 	li	$at,-3
  4071b0:	00ac1021 	addu	$v0,$a1,$t4
  4071b4:	8c4d0008 	lw	$t5,8($v0)
  4071b8:	00000000 	nop
  4071bc:	01a17024 	and	$t6,$t5,$at
  4071c0:	ac4e0008 	sw	$t6,8($v0)
  4071c4:	8ca40000 	lw	$a0,0($a1)
  4071c8:	8f98aea8 	lw	$t8,-20824($gp)
  4071cc:	00861823 	subu	$v1,$a0,$a2
  4071d0:	28610030 	slti	$at,$v1,48
  4071d4:	1420000e 	bnez	$at,407210 <_malloc+0x2c8>
  4071d8:	00a4c821 	addu	$t9,$a1,$a0
  4071dc:	2463fff8 	addiu	$v1,$v1,-8
  4071e0:	aca60000 	sw	$a2,0($a1)
  4071e4:	346f0001 	ori	$t7,$v1,0x1
  4071e8:	00a61021 	addu	$v0,$a1,$a2
  4071ec:	ac4f0008 	sw	$t7,8($v0)
  4071f0:	afa5001c 	sw	$a1,28($sp)
  4071f4:	0c101db6 	jal	4076d8 <_realloc+0x494>
  4071f8:	24440010 	addiu	$a0,$v0,16
  4071fc:	8fa5001c 	lw	$a1,28($sp)
  407200:	00000000 	nop
  407204:	8ca40000 	lw	$a0,0($a1)
  407208:	10000006 	b	407224 <_malloc+0x2dc>
  40720c:	8faa0018 	lw	$t2,24($sp)
  407210:	27280010 	addiu	$t0,$t9,16
  407214:	17080003 	bne	$t8,$t0,407224 <_malloc+0x2dc>
  407218:	8faa0018 	lw	$t2,24($sp)
  40721c:	af80aea4 	sw	$zero,-20828($gp)
  407220:	8faa0018 	lw	$t2,24($sp)
  407224:	34890001 	ori	$t1,$a0,0x1
  407228:	012a5825 	or	$t3,$t1,$t2
  40722c:	acab0000 	sw	$t3,0($a1)
  407230:	24a20008 	addiu	$v0,$a1,8
  407234:	8fbf0014 	lw	$ra,20($sp)
  407238:	27bd0028 	addiu	$sp,$sp,40
  40723c:	03e00008 	jr	$ra
  407240:	00000000 	nop

00407244 <_realloc>:
  407244:	27bdffc0 	addiu	$sp,$sp,-64
  407248:	afb10018 	sw	$s1,24($sp)
  40724c:	00a08825 	move	$s1,$a1
  407250:	afbf001c 	sw	$ra,28($sp)
  407254:	afb00014 	sw	$s0,20($sp)
  407258:	14800005 	bnez	$a0,407270 <_realloc+0x2c>
  40725c:	afa40040 	sw	$a0,64($sp)
  407260:	0c101bd2 	jal	406f48 <_malloc>
  407264:	00a02025 	move	$a0,$a1
  407268:	10000117 	b	4076c8 <_realloc+0x484>
  40726c:	8fbf001c 	lw	$ra,28($sp)
  407270:	8f8f88c4 	lw	$t7,-30524($gp)
  407274:	8f99aee4 	lw	$t9,-20764($gp)
  407278:	11e00005 	beqz	$t7,407290 <_realloc+0x4c>
  40727c:	8fa40040 	lw	$a0,64($sp)
  407280:	8f84aec8 	lw	$a0,-20792($gp)
  407284:	0320f809 	jalr	$t9
  407288:	00000000 	nop
  40728c:	8fa40040 	lw	$a0,64($sp)
  407290:	0c101ffc 	jal	407ff0 <__free+0x78>
  407294:	00000000 	nop
  407298:	8fb80040 	lw	$t8,64($sp)
  40729c:	32220007 	andi	$v0,$s1,0x7
  4072a0:	10400003 	beqz	$v0,4072b0 <_realloc+0x6c>
  4072a4:	2705fff8 	addiu	$a1,$t8,-8
  4072a8:	02228823 	subu	$s1,$s1,$v0
  4072ac:	26310008 	addiu	$s1,$s1,8
  4072b0:	8f08fff8 	lw	$t0,-8($t8)
  4072b4:	00a08025 	move	$s0,$a1
  4072b8:	31090001 	andi	$t1,$t0,0x1
  4072bc:	1520000a 	bnez	$t1,4072e8 <_realloc+0xa4>
  4072c0:	afa80034 	sw	$t0,52($sp)
  4072c4:	8f8a88c4 	lw	$t2,-30524($gp)
  4072c8:	8f99aee8 	lw	$t9,-20760($gp)
  4072cc:	11400004 	beqz	$t2,4072e0 <_realloc+0x9c>
  4072d0:	00000000 	nop
  4072d4:	8f84aec8 	lw	$a0,-20792($gp)
  4072d8:	0320f809 	jalr	$t9
  4072dc:	00000000 	nop
  4072e0:	100000f8 	b	4076c4 <_realloc+0x480>
  4072e4:	00001025 	move	$v0,$zero
  4072e8:	8cab0000 	lw	$t3,0($a1)
  4072ec:	2401fffc 	li	$at,-4
  4072f0:	01611824 	and	$v1,$t3,$at
  4072f4:	1623000e 	bne	$s1,$v1,407330 <_realloc+0xec>
  4072f8:	aca30000 	sw	$v1,0($a1)
  4072fc:	8fad0034 	lw	$t5,52($sp)
  407300:	00000000 	nop
  407304:	acad0000 	sw	$t5,0($a1)
  407308:	8f8e88c4 	lw	$t6,-30524($gp)
  40730c:	8f99aee8 	lw	$t9,-20760($gp)
  407310:	11c00005 	beqz	$t6,407328 <_realloc+0xe4>
  407314:	8fa20040 	lw	$v0,64($sp)
  407318:	8f84aec8 	lw	$a0,-20792($gp)
  40731c:	0320f809 	jalr	$t9
  407320:	00000000 	nop
  407324:	8fa20040 	lw	$v0,64($sp)
  407328:	100000e7 	b	4076c8 <_realloc+0x484>
  40732c:	8fbf001c 	lw	$ra,28($sp)
  407330:	2e210028 	sltiu	$at,$s1,40
  407334:	14200003 	bnez	$at,407344 <_realloc+0x100>
  407338:	2c610028 	sltiu	$at,$v1,40
  40733c:	10200007 	beqz	$at,40735c <_realloc+0x118>
  407340:	0071082b 	sltu	$at,$v1,$s1
  407344:	8fa20034 	lw	$v0,52($sp)
  407348:	8e030000 	lw	$v1,0($s0)
  40734c:	304f0003 	andi	$t7,$v0,0x3
  407350:	10000061 	b	4074d8 <_realloc+0x294>
  407354:	afaf0024 	sw	$t7,36($sp)
  407358:	0071082b 	sltu	$at,$v1,$s1
  40735c:	10200033 	beqz	$at,40742c <_realloc+0x1e8>
  407360:	00a33821 	addu	$a3,$a1,$v1
  407364:	8ce20008 	lw	$v0,8($a3)
  407368:	24e70008 	addiu	$a3,$a3,8
  40736c:	30580001 	andi	$t8,$v0,0x1
  407370:	1700001a 	bnez	$t8,4073dc <_realloc+0x198>
  407374:	2c410028 	sltiu	$at,$v0,40
  407378:	14200018 	bnez	$at,4073dc <_realloc+0x198>
  40737c:	00624021 	addu	$t0,$v1,$v0
  407380:	25090008 	addiu	$t1,$t0,8
  407384:	aca90000 	sw	$t1,0($a1)
  407388:	8f8aaea4 	lw	$t2,-20828($gp)
  40738c:	00e02025 	move	$a0,$a3
  407390:	10ea0008 	beq	$a3,$t2,4073b4 <_realloc+0x170>
  407394:	00000000 	nop
  407398:	afa50028 	sw	$a1,40($sp)
  40739c:	0c101eca 	jal	407b28 <_realloc+0x8e4>
  4073a0:	afa70038 	sw	$a3,56($sp)
  4073a4:	8fa50028 	lw	$a1,40($sp)
  4073a8:	8fa70038 	lw	$a3,56($sp)
  4073ac:	10000003 	b	4073bc <_realloc+0x178>
  4073b0:	8ceb0000 	lw	$t3,0($a3)
  4073b4:	af80aea4 	sw	$zero,-20828($gp)
  4073b8:	8ceb0000 	lw	$t3,0($a3)
  4073bc:	2401fffd 	li	$at,-3
  4073c0:	00eb1021 	addu	$v0,$a3,$t3
  4073c4:	8c4c0008 	lw	$t4,8($v0)
  4073c8:	00000000 	nop
  4073cc:	01816824 	and	$t5,$t4,$at
  4073d0:	ac4d0008 	sw	$t5,8($v0)
  4073d4:	8ca30000 	lw	$v1,0($a1)
  4073d8:	00000000 	nop
  4073dc:	0071082b 	sltu	$at,$v1,$s1
  4073e0:	10200012 	beqz	$at,40742c <_realloc+0x1e8>
  4073e4:	00a3c821 	addu	$t9,$a1,$v1
  4073e8:	8f8eaea8 	lw	$t6,-20824($gp)
  4073ec:	272f0010 	addiu	$t7,$t9,16
  4073f0:	15cf000e 	bne	$t6,$t7,40742c <_realloc+0x1e8>
  4073f4:	00002025 	move	$a0,$zero
  4073f8:	0c104128 	jal	4104a0 <_sbrk>
  4073fc:	afa50028 	sw	$a1,40($sp)
  407400:	8f98aea8 	lw	$t8,-20824($gp)
  407404:	8fa50028 	lw	$a1,40($sp)
  407408:	14580008 	bne	$v0,$t8,40742c <_realloc+0x1e8>
  40740c:	02202025 	move	$a0,$s1
  407410:	0c101e55 	jal	407954 <_realloc+0x710>
  407414:	af85aea4 	sw	$a1,-20828($gp)
  407418:	14400003 	bnez	$v0,407428 <_realloc+0x1e4>
  40741c:	00408025 	move	$s0,$v0
  407420:	8f90aea4 	lw	$s0,-20828($gp)
  407424:	00000000 	nop
  407428:	af80aea4 	sw	$zero,-20828($gp)
  40742c:	8e030000 	lw	$v1,0($s0)
  407430:	8fb80034 	lw	$t8,52($sp)
  407434:	0071082b 	sltu	$at,$v1,$s1
  407438:	14200026 	bnez	$at,4074d4 <_realloc+0x290>
  40743c:	33080003 	andi	$t0,$t8,0x3
  407440:	8fa80034 	lw	$t0,52($sp)
  407444:	00000000 	nop
  407448:	31090003 	andi	$t1,$t0,0x3
  40744c:	afa90024 	sw	$t1,36($sp)
  407450:	00712823 	subu	$a1,$v1,$s1
  407454:	28a10030 	slti	$at,$a1,48
  407458:	1420000b 	bnez	$at,407488 <_realloc+0x244>
  40745c:	02036021 	addu	$t4,$s0,$v1
  407460:	24a5fff8 	addiu	$a1,$a1,-8
  407464:	ae110000 	sw	$s1,0($s0)
  407468:	34aa0001 	ori	$t2,$a1,0x1
  40746c:	02111021 	addu	$v0,$s0,$s1
  407470:	ac4a0008 	sw	$t2,8($v0)
  407474:	0c101db6 	jal	4076d8 <_realloc+0x494>
  407478:	24440010 	addiu	$a0,$v0,16
  40747c:	8e030000 	lw	$v1,0($s0)
  407480:	10000007 	b	4074a0 <_realloc+0x25c>
  407484:	8fb90024 	lw	$t9,36($sp)
  407488:	8f8baea8 	lw	$t3,-20824($gp)
  40748c:	258d0010 	addiu	$t5,$t4,16
  407490:	156d0003 	bne	$t3,$t5,4074a0 <_realloc+0x25c>
  407494:	8fb90024 	lw	$t9,36($sp)
  407498:	af80aea4 	sw	$zero,-20828($gp)
  40749c:	8fb90024 	lw	$t9,36($sp)
  4074a0:	00000000 	nop
  4074a4:	00797025 	or	$t6,$v1,$t9
  4074a8:	ae0e0000 	sw	$t6,0($s0)
  4074ac:	8f8f88c4 	lw	$t7,-30524($gp)
  4074b0:	8f99aee8 	lw	$t9,-20760($gp)
  4074b4:	11e00005 	beqz	$t7,4074cc <_realloc+0x288>
  4074b8:	8fa20040 	lw	$v0,64($sp)
  4074bc:	8f84aec8 	lw	$a0,-20792($gp)
  4074c0:	0320f809 	jalr	$t9
  4074c4:	00000000 	nop
  4074c8:	8fa20040 	lw	$v0,64($sp)
  4074cc:	1000007e 	b	4076c8 <_realloc+0x484>
  4074d0:	8fbf001c 	lw	$ra,28($sp)
  4074d4:	afa80024 	sw	$t0,36($sp)
  4074d8:	8fa20024 	lw	$v0,36($sp)
  4074dc:	02202025 	move	$a0,$s1
  4074e0:	00624825 	or	$t1,$v1,$v0
  4074e4:	0c101bec 	jal	406fb0 <_malloc+0x68>
  4074e8:	ae090000 	sw	$t1,0($s0)
  4074ec:	1040001c 	beqz	$v0,407560 <_realloc+0x31c>
  4074f0:	00403825 	move	$a3,$v0
  4074f4:	8faa0034 	lw	$t2,52($sp)
  4074f8:	2401fffc 	li	$at,-4
  4074fc:	01416024 	and	$t4,$t2,$at
  407500:	022c082b 	sltu	$at,$s1,$t4
  407504:	10200002 	beqz	$at,407510 <_realloc+0x2cc>
  407508:	afac0034 	sw	$t4,52($sp)
  40750c:	afb10034 	sw	$s1,52($sp)
  407510:	8fa50040 	lw	$a1,64($sp)
  407514:	8fa60034 	lw	$a2,52($sp)
  407518:	00e02025 	move	$a0,$a3
  40751c:	0c1019e0 	jal	406780 <memcpy>
  407520:	afa70030 	sw	$a3,48($sp)
  407524:	8fa40040 	lw	$a0,64($sp)
  407528:	0c101fde 	jal	407f78 <__free>
  40752c:	00000000 	nop
  407530:	8f8b88c4 	lw	$t3,-30524($gp)
  407534:	8fa70030 	lw	$a3,48($sp)
  407538:	11600007 	beqz	$t3,407558 <_realloc+0x314>
  40753c:	00000000 	nop
  407540:	8f99aee8 	lw	$t9,-20760($gp)
  407544:	8f84aec8 	lw	$a0,-20792($gp)
  407548:	0320f809 	jalr	$t9
  40754c:	afa70030 	sw	$a3,48($sp)
  407550:	8fa70030 	lw	$a3,48($sp)
  407554:	00000000 	nop
  407558:	1000005a 	b	4076c4 <_realloc+0x480>
  40755c:	00e01025 	move	$v0,$a3
  407560:	8e0d0000 	lw	$t5,0($s0)
  407564:	2401fffc 	li	$at,-4
  407568:	01a17024 	and	$t6,$t5,$at
  40756c:	2dc10028 	sltiu	$at,$t6,40
  407570:	ae0e0000 	sw	$t6,0($s0)
  407574:	10200017 	beqz	$at,4075d4 <_realloc+0x390>
  407578:	01c01825 	move	$v1,$t6
  40757c:	022e082b 	sltu	$at,$s1,$t6
  407580:	10200010 	beqz	$at,4075c4 <_realloc+0x380>
  407584:	2e210028 	sltiu	$at,$s1,40
  407588:	8faf0024 	lw	$t7,36($sp)
  40758c:	00000000 	nop
  407590:	01cfc025 	or	$t8,$t6,$t7
  407594:	ae180000 	sw	$t8,0($s0)
  407598:	8f8888c4 	lw	$t0,-30524($gp)
  40759c:	8f99aee8 	lw	$t9,-20760($gp)
  4075a0:	11000005 	beqz	$t0,4075b8 <_realloc+0x374>
  4075a4:	8fa20040 	lw	$v0,64($sp)
  4075a8:	8f84aec8 	lw	$a0,-20792($gp)
  4075ac:	0320f809 	jalr	$t9
  4075b0:	00000000 	nop
  4075b4:	8fa20040 	lw	$v0,64($sp)
  4075b8:	10000043 	b	4076c8 <_realloc+0x484>
  4075bc:	8fbf001c 	lw	$ra,28($sp)
  4075c0:	2e210028 	sltiu	$at,$s1,40
  4075c4:	10200034 	beqz	$at,407698 <_realloc+0x454>
  4075c8:	8fab0024 	lw	$t3,36($sp)
  4075cc:	1000ffc2 	b	4074d8 <_realloc+0x294>
  4075d0:	24110028 	li	$s1,40
  4075d4:	2e210028 	sltiu	$at,$s1,40
  4075d8:	10200004 	beqz	$at,4075ec <_realloc+0x3a8>
  4075dc:	8fa90034 	lw	$t1,52($sp)
  4075e0:	1000ff9b 	b	407450 <_realloc+0x20c>
  4075e4:	24110028 	li	$s1,40
  4075e8:	8fa90034 	lw	$t1,52($sp)
  4075ec:	00000000 	nop
  4075f0:	312a0002 	andi	$t2,$t1,0x2
  4075f4:	11400028 	beqz	$t2,407698 <_realloc+0x454>
  4075f8:	8fab0024 	lw	$t3,36($sp)
  4075fc:	8e02fff8 	lw	$v0,-8($s0)
  407600:	00000000 	nop
  407604:	8c4c0000 	lw	$t4,0($v0)
  407608:	00000000 	nop
  40760c:	01835821 	addu	$t3,$t4,$v1
  407610:	256d0008 	addiu	$t5,$t3,8
  407614:	01b1082b 	sltu	$at,$t5,$s1
  407618:	1420001f 	bnez	$at,407698 <_realloc+0x454>
  40761c:	8fab0024 	lw	$t3,36($sp)
  407620:	8c4e0000 	lw	$t6,0($v0)
  407624:	00402025 	move	$a0,$v0
  407628:	2dc10028 	sltiu	$at,$t6,40
  40762c:	1420001a 	bnez	$at,407698 <_realloc+0x454>
  407630:	8fab0024 	lw	$t3,36($sp)
  407634:	0c101eca 	jal	407b28 <_realloc+0x8e4>
  407638:	afa20038 	sw	$v0,56($sp)
  40763c:	8fa70038 	lw	$a3,56($sp)
  407640:	8e180000 	lw	$t8,0($s0)
  407644:	8cef0000 	lw	$t7,0($a3)
  407648:	24e40008 	addiu	$a0,$a3,8
  40764c:	01f84021 	addu	$t0,$t7,$t8
  407650:	25190008 	addiu	$t9,$t0,8
  407654:	acf90000 	sw	$t9,0($a3)
  407658:	8e060000 	lw	$a2,0($s0)
  40765c:	8fa50040 	lw	$a1,64($sp)
  407660:	0c1019e0 	jal	406780 <memcpy>
  407664:	afa40020 	sw	$a0,32($sp)
  407668:	8fa90034 	lw	$t1,52($sp)
  40766c:	8fa40020 	lw	$a0,32($sp)
  407670:	2401fffd 	li	$at,-3
  407674:	8fb00038 	lw	$s0,56($sp)
  407678:	01215024 	and	$t2,$t1,$at
  40767c:	afaa0034 	sw	$t2,52($sp)
  407680:	afa40040 	sw	$a0,64($sp)
  407684:	314c0003 	andi	$t4,$t2,0x3
  407688:	8e030000 	lw	$v1,0($s0)
  40768c:	1000ff70 	b	407450 <_realloc+0x20c>
  407690:	afac0024 	sw	$t4,36($sp)
  407694:	8fab0024 	lw	$t3,36($sp)
  407698:	00000000 	nop
  40769c:	006b6825 	or	$t5,$v1,$t3
  4076a0:	ae0d0000 	sw	$t5,0($s0)
  4076a4:	8f8e88c4 	lw	$t6,-30524($gp)
  4076a8:	8f99aee8 	lw	$t9,-20760($gp)
  4076ac:	11c00005 	beqz	$t6,4076c4 <_realloc+0x480>
  4076b0:	00001025 	move	$v0,$zero
  4076b4:	8f84aec8 	lw	$a0,-20792($gp)
  4076b8:	0320f809 	jalr	$t9
  4076bc:	00000000 	nop
  4076c0:	00001025 	move	$v0,$zero
  4076c4:	8fbf001c 	lw	$ra,28($sp)
  4076c8:	8fb00014 	lw	$s0,20($sp)
  4076cc:	8fb10018 	lw	$s1,24($sp)
  4076d0:	03e00008 	jr	$ra
  4076d4:	27bd0040 	addiu	$sp,$sp,64
  4076d8:	27bdffc8 	addiu	$sp,$sp,-56
  4076dc:	afbf0014 	sw	$ra,20($sp)
  4076e0:	8c87fff8 	lw	$a3,-8($a0)
  4076e4:	2483fff8 	addiu	$v1,$a0,-8
  4076e8:	30ee0001 	andi	$t6,$a3,0x1
  4076ec:	11c00095 	beqz	$t6,407944 <_realloc+0x700>
  4076f0:	00602825 	move	$a1,$v1
  4076f4:	8c6f0000 	lw	$t7,0($v1)
  4076f8:	2401fffc 	li	$at,-4
  4076fc:	01e1c024 	and	$t8,$t7,$at
  407700:	2f010028 	sltiu	$at,$t8,40
  407704:	ac780000 	sw	$t8,0($v1)
  407708:	1020000c 	beqz	$at,40773c <_realloc+0x4f8>
  40770c:	03003025 	move	$a2,$t8
  407710:	001838c2 	srl	$a3,$t8,0x3
  407714:	24e7ffff 	addiu	$a3,$a3,-1
  407718:	3c080042 	lui	$t0,0x42
  40771c:	25080d00 	addiu	$t0,$t0,3328
  407720:	0007c880 	sll	$t9,$a3,0x2
  407724:	03281021 	addu	$v0,$t9,$t0
  407728:	8c490000 	lw	$t1,0($v0)
  40772c:	00000000 	nop
  407730:	ac690008 	sw	$t1,8($v1)
  407734:	10000083 	b	407944 <_realloc+0x700>
  407738:	ac430000 	sw	$v1,0($v0)
  40773c:	00662021 	addu	$a0,$v1,$a2
  407740:	8c820008 	lw	$v0,8($a0)
  407744:	24840008 	addiu	$a0,$a0,8
  407748:	304a0001 	andi	$t2,$v0,0x1
  40774c:	15400016 	bnez	$t2,4077a8 <_realloc+0x564>
  407750:	2c410028 	sltiu	$at,$v0,40
  407754:	14200015 	bnez	$at,4077ac <_realloc+0x568>
  407758:	30ee0002 	andi	$t6,$a3,0x2
  40775c:	8f8baea4 	lw	$t3,-20828($gp)
  407760:	00000000 	nop
  407764:	108b000e 	beq	$a0,$t3,4077a0 <_realloc+0x55c>
  407768:	00c26021 	addu	$t4,$a2,$v0
  40776c:	afa30018 	sw	$v1,24($sp)
  407770:	afa4002c 	sw	$a0,44($sp)
  407774:	afa50034 	sw	$a1,52($sp)
  407778:	0c101eca 	jal	407b28 <_realloc+0x8e4>
  40777c:	afa70028 	sw	$a3,40($sp)
  407780:	8fa30018 	lw	$v1,24($sp)
  407784:	8fa4002c 	lw	$a0,44($sp)
  407788:	8fa50034 	lw	$a1,52($sp)
  40778c:	8fa70028 	lw	$a3,40($sp)
  407790:	8c660000 	lw	$a2,0($v1)
  407794:	8c820000 	lw	$v0,0($a0)
  407798:	00000000 	nop
  40779c:	00c26021 	addu	$t4,$a2,$v0
  4077a0:	258d0008 	addiu	$t5,$t4,8
  4077a4:	ac6d0000 	sw	$t5,0($v1)
  4077a8:	30ee0002 	andi	$t6,$a3,0x2
  4077ac:	11c00013 	beqz	$t6,4077fc <_realloc+0x5b8>
  4077b0:	00000000 	nop
  4077b4:	8c64fff8 	lw	$a0,-8($v1)
  4077b8:	00000000 	nop
  4077bc:	8c8f0000 	lw	$t7,0($a0)
  4077c0:	00000000 	nop
  4077c4:	2de10028 	sltiu	$at,$t7,40
  4077c8:	1420000c 	bnez	$at,4077fc <_realloc+0x5b8>
  4077cc:	00000000 	nop
  4077d0:	afa30018 	sw	$v1,24($sp)
  4077d4:	0c101eca 	jal	407b28 <_realloc+0x8e4>
  4077d8:	afa4002c 	sw	$a0,44($sp)
  4077dc:	8fa30018 	lw	$v1,24($sp)
  4077e0:	8fa5002c 	lw	$a1,44($sp)
  4077e4:	8c790000 	lw	$t9,0($v1)
  4077e8:	8cb80000 	lw	$t8,0($a1)
  4077ec:	00000000 	nop
  4077f0:	03194021 	addu	$t0,$t8,$t9
  4077f4:	25090008 	addiu	$t1,$t0,8
  4077f8:	aca90000 	sw	$t1,0($a1)
  4077fc:	8caa0000 	lw	$t2,0($a1)
  407800:	aca00020 	sw	$zero,32($a1)
  407804:	aca00018 	sw	$zero,24($a1)
  407808:	aca00010 	sw	$zero,16($a1)
  40780c:	aca00008 	sw	$zero,8($a1)
  407810:	00aa5821 	addu	$t3,$a1,$t2
  407814:	ad650000 	sw	$a1,0($t3)
  407818:	8ca60000 	lw	$a2,0($a1)
  40781c:	8f8caea8 	lw	$t4,-20824($gp)
  407820:	00a61021 	addu	$v0,$a1,$a2
  407824:	244d0010 	addiu	$t5,$v0,16
  407828:	158d0003 	bne	$t4,$t5,407838 <_realloc+0x5f4>
  40782c:	00000000 	nop
  407830:	10000040 	b	407934 <_realloc+0x6f0>
  407834:	af85aea4 	sw	$a1,-20828($gp)
  407838:	8f87aea0 	lw	$a3,-20832($gp)
  40783c:	00c01825 	move	$v1,$a2
  407840:	10e0003b 	beqz	$a3,407930 <_realloc+0x6ec>
  407844:	00e02025 	move	$a0,$a3
  407848:	8c820000 	lw	$v0,0($a0)
  40784c:	00000000 	nop
  407850:	0062082b 	sltu	$at,$v1,$v0
  407854:	1020000b 	beqz	$at,407884 <_realloc+0x640>
  407858:	0043082b 	sltu	$at,$v0,$v1
  40785c:	8c820010 	lw	$v0,16($a0)
  407860:	00000000 	nop
  407864:	10400003 	beqz	$v0,407874 <_realloc+0x630>
  407868:	00000000 	nop
  40786c:	1000fff6 	b	407848 <_realloc+0x604>
  407870:	00402025 	move	$a0,$v0
  407874:	ac850010 	sw	$a1,16($a0)
  407878:	1000002a 	b	407924 <_realloc+0x6e0>
  40787c:	aca40008 	sw	$a0,8($a1)
  407880:	0043082b 	sltu	$at,$v0,$v1
  407884:	1020000a 	beqz	$at,4078b0 <_realloc+0x66c>
  407888:	00000000 	nop
  40788c:	8c820018 	lw	$v0,24($a0)
  407890:	00000000 	nop
  407894:	10400003 	beqz	$v0,4078a4 <_realloc+0x660>
  407898:	00000000 	nop
  40789c:	1000ffea 	b	407848 <_realloc+0x604>
  4078a0:	00402025 	move	$a0,$v0
  4078a4:	ac850018 	sw	$a1,24($a0)
  4078a8:	1000001e 	b	407924 <_realloc+0x6e0>
  4078ac:	aca40008 	sw	$a0,8($a1)
  4078b0:	8c820008 	lw	$v0,8($a0)
  4078b4:	240fffff 	li	$t7,-1
  4078b8:	1040000a 	beqz	$v0,4078e4 <_realloc+0x6a0>
  4078bc:	00000000 	nop
  4078c0:	8c4e0010 	lw	$t6,16($v0)
  4078c4:	00000000 	nop
  4078c8:	148e0003 	bne	$a0,$t6,4078d8 <_realloc+0x694>
  4078cc:	00000000 	nop
  4078d0:	10000002 	b	4078dc <_realloc+0x698>
  4078d4:	ac450010 	sw	$a1,16($v0)
  4078d8:	ac450018 	sw	$a1,24($v0)
  4078dc:	10000002 	b	4078e8 <_realloc+0x6a4>
  4078e0:	aca20008 	sw	$v0,8($a1)
  4078e4:	af85aea0 	sw	$a1,-20832($gp)
  4078e8:	8c820010 	lw	$v0,16($a0)
  4078ec:	00000000 	nop
  4078f0:	10400002 	beqz	$v0,4078fc <_realloc+0x6b8>
  4078f4:	00000000 	nop
  4078f8:	ac450008 	sw	$a1,8($v0)
  4078fc:	aca20010 	sw	$v0,16($a1)
  407900:	8c820018 	lw	$v0,24($a0)
  407904:	00000000 	nop
  407908:	10400002 	beqz	$v0,407914 <_realloc+0x6d0>
  40790c:	00000000 	nop
  407910:	ac450008 	sw	$a1,8($v0)
  407914:	aca20018 	sw	$v0,24($a1)
  407918:	aca40020 	sw	$a0,32($a1)
  40791c:	ac850008 	sw	$a1,8($a0)
  407920:	ac8f0010 	sw	$t7,16($a0)
  407924:	8cb80000 	lw	$t8,0($a1)
  407928:	10000002 	b	407934 <_realloc+0x6f0>
  40792c:	00b81021 	addu	$v0,$a1,$t8
  407930:	af85aea0 	sw	$a1,-20832($gp)
  407934:	8c590008 	lw	$t9,8($v0)
  407938:	00000000 	nop
  40793c:	37280002 	ori	$t0,$t9,0x2
  407940:	ac480008 	sw	$t0,8($v0)
  407944:	8fbf0014 	lw	$ra,20($sp)
  407948:	27bd0038 	addiu	$sp,$sp,56
  40794c:	03e00008 	jr	$ra
  407950:	00000000 	nop
  407954:	8f86aea4 	lw	$a2,-20828($gp)
  407958:	27bdffd8 	addiu	$sp,$sp,-40
  40795c:	afbf0014 	sw	$ra,20($sp)
  407960:	24850010 	addiu	$a1,$a0,16
  407964:	afa50020 	sw	$a1,32($sp)
  407968:	00002025 	move	$a0,$zero
  40796c:	0c104128 	jal	4104a0 <_sbrk>
  407970:	afa60024 	sw	$a2,36($sp)
  407974:	8fa50020 	lw	$a1,32($sp)
  407978:	8fa80024 	lw	$t0,36($sp)
  40797c:	30430007 	andi	$v1,$v0,0x7
  407980:	10600004 	beqz	$v1,407994 <_realloc+0x750>
  407984:	00403825 	move	$a3,$v0
  407988:	240e0008 	li	$t6,8
  40798c:	10000002 	b	407998 <_realloc+0x754>
  407990:	01c33023 	subu	$a2,$t6,$v1
  407994:	00003025 	move	$a2,$zero
  407998:	8f84aea8 	lw	$a0,-20824($gp)
  40799c:	8f83aeb4 	lw	$v1,-20812($gp)
  4079a0:	14440006 	bne	$v0,$a0,4079bc <_realloc+0x778>
  4079a4:	00000000 	nop
  4079a8:	11000004 	beqz	$t0,4079bc <_realloc+0x778>
  4079ac:	24a5fff8 	addiu	$a1,$a1,-8
  4079b0:	8d0f0000 	lw	$t7,0($t0)
  4079b4:	00000000 	nop
  4079b8:	00af2823 	subu	$a1,$a1,$t7
  4079bc:	1460000c 	bnez	$v1,4079f0 <_realloc+0x7ac>
  4079c0:	00000000 	nop
  4079c4:	afa50020 	sw	$a1,32($sp)
  4079c8:	afa6001c 	sw	$a2,28($sp)
  4079cc:	afa70018 	sw	$a3,24($sp)
  4079d0:	0c104160 	jal	410580 <_getpagesize>
  4079d4:	afa80024 	sw	$t0,36($sp)
  4079d8:	8fa50020 	lw	$a1,32($sp)
  4079dc:	8fa6001c 	lw	$a2,28($sp)
  4079e0:	8fa70018 	lw	$a3,24($sp)
  4079e4:	8fa80024 	lw	$t0,36($sp)
  4079e8:	8f84aea8 	lw	$a0,-20824($gp)
  4079ec:	2443ffff 	addiu	$v1,$v0,-1
  4079f0:	8f82aeb8 	lw	$v0,-20808($gp)
  4079f4:	24010008 	li	$at,8
  4079f8:	24420001 	addiu	$v0,$v0,1
  4079fc:	14410003 	bne	$v0,$at,407a0c <_realloc+0x7c8>
  407a00:	af82aeb8 	sw	$v0,-20808($gp)
  407a04:	0003c040 	sll	$t8,$v1,0x1
  407a08:	27030001 	addiu	$v1,$t8,1
  407a0c:	00a3c821 	addu	$t9,$a1,$v1
  407a10:	2729ffff 	addiu	$t1,$t9,-1
  407a14:	00605027 	nor	$t2,$v1,$zero
  407a18:	012a2824 	and	$a1,$t1,$t2
  407a1c:	14800009 	bnez	$a0,407a44 <_realloc+0x800>
  407a20:	af83aeb4 	sw	$v1,-20812($gp)
  407a24:	00e65821 	addu	$t3,$a3,$a2
  407a28:	01631024 	and	$v0,$t3,$v1
  407a2c:	10400005 	beqz	$v0,407a44 <_realloc+0x800>
  407a30:	af83aeb4 	sw	$v1,-20812($gp)
  407a34:	00a36021 	addu	$t4,$a1,$v1
  407a38:	01822823 	subu	$a1,$t4,$v0
  407a3c:	24a50001 	addiu	$a1,$a1,1
  407a40:	af83aeb4 	sw	$v1,-20812($gp)
  407a44:	00a61021 	addu	$v0,$a1,$a2
  407a48:	3c018000 	lui	$at,0x8000
  407a4c:	0041082b 	sltu	$at,$v0,$at
  407a50:	14200003 	bnez	$at,407a60 <_realloc+0x81c>
  407a54:	00402025 	move	$a0,$v0
  407a58:	1000002f 	b	407b18 <_realloc+0x8d4>
  407a5c:	00001025 	move	$v0,$zero
  407a60:	afa50020 	sw	$a1,32($sp)
  407a64:	afa6001c 	sw	$a2,28($sp)
  407a68:	0c104128 	jal	4104a0 <_sbrk>
  407a6c:	afa80024 	sw	$t0,36($sp)
  407a70:	8fa50020 	lw	$a1,32($sp)
  407a74:	8fa6001c 	lw	$a2,28($sp)
  407a78:	8fa80024 	lw	$t0,36($sp)
  407a7c:	2401ffff 	li	$at,-1
  407a80:	14410003 	bne	$v0,$at,407a90 <_realloc+0x84c>
  407a84:	00000000 	nop
  407a88:	10000023 	b	407b18 <_realloc+0x8d4>
  407a8c:	00001025 	move	$v0,$zero
  407a90:	8f84aea8 	lw	$a0,-20824($gp)
  407a94:	00463821 	addu	$a3,$v0,$a2
  407a98:	1444000a 	bne	$v0,$a0,407ac4 <_realloc+0x880>
  407a9c:	00000000 	nop
  407aa0:	11000006 	beqz	$t0,407abc <_realloc+0x878>
  407aa4:	2487fff8 	addiu	$a3,$a0,-8
  407aa8:	8d0d0000 	lw	$t5,0($t0)
  407aac:	01003825 	move	$a3,$t0
  407ab0:	00ad2821 	addu	$a1,$a1,$t5
  407ab4:	10000003 	b	407ac4 <_realloc+0x880>
  407ab8:	24a50010 	addiu	$a1,$a1,16
  407abc:	10000001 	b	407ac4 <_realloc+0x880>
  407ac0:	24a50008 	addiu	$a1,$a1,8
  407ac4:	24a2fff0 	addiu	$v0,$a1,-16
  407ac8:	8f86aea4 	lw	$a2,-20828($gp)
  407acc:	ace20000 	sw	$v0,0($a3)
  407ad0:	00e21821 	addu	$v1,$a3,$v0
  407ad4:	8c6e0008 	lw	$t6,8($v1)
  407ad8:	00e52021 	addu	$a0,$a3,$a1
  407adc:	35cf0001 	ori	$t7,$t6,0x1
  407ae0:	ac6f0008 	sw	$t7,8($v1)
  407ae4:	10c0000b 	beqz	$a2,407b14 <_realloc+0x8d0>
  407ae8:	af84aea8 	sw	$a0,-20824($gp)
  407aec:	10c7000a 	beq	$a2,$a3,407b18 <_realloc+0x8d4>
  407af0:	00e01025 	move	$v0,$a3
  407af4:	8cd80000 	lw	$t8,0($a2)
  407af8:	24c40008 	addiu	$a0,$a2,8
  407afc:	37190001 	ori	$t9,$t8,0x1
  407b00:	acd90000 	sw	$t9,0($a2)
  407b04:	0c101db6 	jal	4076d8 <_realloc+0x494>
  407b08:	afa70018 	sw	$a3,24($sp)
  407b0c:	8fa70018 	lw	$a3,24($sp)
  407b10:	00000000 	nop
  407b14:	00e01025 	move	$v0,$a3
  407b18:	8fbf0014 	lw	$ra,20($sp)
  407b1c:	27bd0028 	addiu	$sp,$sp,40
  407b20:	03e00008 	jr	$ra
  407b24:	00000000 	nop
  407b28:	27bdffe8 	addiu	$sp,$sp,-24
  407b2c:	afbf0014 	sw	$ra,20($sp)
  407b30:	8c8e0010 	lw	$t6,16($a0)
  407b34:	2401ffff 	li	$at,-1
  407b38:	15c10009 	bne	$t6,$at,407b60 <_realloc+0x91c>
  407b3c:	00803025 	move	$a2,$a0
  407b40:	8c850008 	lw	$a1,8($a0)
  407b44:	8c840020 	lw	$a0,32($a0)
  407b48:	00000000 	nop
  407b4c:	10800002 	beqz	$a0,407b58 <_realloc+0x914>
  407b50:	00000000 	nop
  407b54:	ac850008 	sw	$a1,8($a0)
  407b58:	1000006b 	b	407d08 <_realloc+0xac4>
  407b5c:	aca40020 	sw	$a0,32($a1)
  407b60:	8ccf0008 	lw	$t7,8($a2)
  407b64:	00c02025 	move	$a0,$a2
  407b68:	11e00005 	beqz	$t7,407b80 <_realloc+0x93c>
  407b6c:	00000000 	nop
  407b70:	0c101f46 	jal	407d18 <_realloc+0xad4>
  407b74:	afa60018 	sw	$a2,24($sp)
  407b78:	8fa60018 	lw	$a2,24($sp)
  407b7c:	00000000 	nop
  407b80:	8cc50020 	lw	$a1,32($a2)
  407b84:	00000000 	nop
  407b88:	10a00010 	beqz	$a1,407bcc <_realloc+0x988>
  407b8c:	00000000 	nop
  407b90:	aca00008 	sw	$zero,8($a1)
  407b94:	8cc40010 	lw	$a0,16($a2)
  407b98:	00000000 	nop
  407b9c:	10800002 	beqz	$a0,407ba8 <_realloc+0x964>
  407ba0:	00000000 	nop
  407ba4:	ac850008 	sw	$a1,8($a0)
  407ba8:	aca40010 	sw	$a0,16($a1)
  407bac:	8cc40018 	lw	$a0,24($a2)
  407bb0:	00000000 	nop
  407bb4:	10800002 	beqz	$a0,407bc0 <_realloc+0x97c>
  407bb8:	00000000 	nop
  407bbc:	ac850008 	sw	$a1,8($a0)
  407bc0:	aca40018 	sw	$a0,24($a1)
  407bc4:	10000050 	b	407d08 <_realloc+0xac4>
  407bc8:	af85aea0 	sw	$a1,-20832($gp)
  407bcc:	8cc50010 	lw	$a1,16($a2)
  407bd0:	00000000 	nop
  407bd4:	10a00046 	beqz	$a1,407cf0 <_realloc+0xaac>
  407bd8:	00000000 	nop
  407bdc:	aca00008 	sw	$zero,8($a1)
  407be0:	8cc20018 	lw	$v0,24($a2)
  407be4:	00000000 	nop
  407be8:	10400046 	beqz	$v0,407d04 <_realloc+0xac0>
  407bec:	00000000 	nop
  407bf0:	8ca40018 	lw	$a0,24($a1)
  407bf4:	00000000 	nop
  407bf8:	1080003a 	beqz	$a0,407ce4 <_realloc+0xaa0>
  407bfc:	00000000 	nop
  407c00:	8c830018 	lw	$v1,24($a0)
  407c04:	00000000 	nop
  407c08:	10600019 	beqz	$v1,407c70 <_realloc+0xa2c>
  407c0c:	00000000 	nop
  407c10:	8c620010 	lw	$v0,16($v1)
  407c14:	00000000 	nop
  407c18:	10400002 	beqz	$v0,407c24 <_realloc+0x9e0>
  407c1c:	ac820018 	sw	$v0,24($a0)
  407c20:	ac440008 	sw	$a0,8($v0)
  407c24:	8ca20008 	lw	$v0,8($a1)
  407c28:	00000000 	nop
  407c2c:	1040000c 	beqz	$v0,407c60 <_realloc+0xa1c>
  407c30:	ac620008 	sw	$v0,8($v1)
  407c34:	8cb90008 	lw	$t9,8($a1)
  407c38:	00000000 	nop
  407c3c:	8f280010 	lw	$t0,16($t9)
  407c40:	00000000 	nop
  407c44:	14a80003 	bne	$a1,$t0,407c54 <_realloc+0xa10>
  407c48:	00000000 	nop
  407c4c:	10000004 	b	407c60 <_realloc+0xa1c>
  407c50:	ac430010 	sw	$v1,16($v0)
  407c54:	8c6a0008 	lw	$t2,8($v1)
  407c58:	00000000 	nop
  407c5c:	ad430018 	sw	$v1,24($t2)
  407c60:	aca30008 	sw	$v1,8($a1)
  407c64:	ac650010 	sw	$a1,16($v1)
  407c68:	10000018 	b	407ccc <_realloc+0xa88>
  407c6c:	00602825 	move	$a1,$v1
  407c70:	8c820010 	lw	$v0,16($a0)
  407c74:	00000000 	nop
  407c78:	10400002 	beqz	$v0,407c84 <_realloc+0xa40>
  407c7c:	aca20018 	sw	$v0,24($a1)
  407c80:	ac450008 	sw	$a1,8($v0)
  407c84:	8ca20008 	lw	$v0,8($a1)
  407c88:	00000000 	nop
  407c8c:	1040000c 	beqz	$v0,407cc0 <_realloc+0xa7c>
  407c90:	ac820008 	sw	$v0,8($a0)
  407c94:	8cac0008 	lw	$t4,8($a1)
  407c98:	00000000 	nop
  407c9c:	8d8d0010 	lw	$t5,16($t4)
  407ca0:	00000000 	nop
  407ca4:	14ad0003 	bne	$a1,$t5,407cb4 <_realloc+0xa70>
  407ca8:	00000000 	nop
  407cac:	10000004 	b	407cc0 <_realloc+0xa7c>
  407cb0:	ac440010 	sw	$a0,16($v0)
  407cb4:	8c8f0008 	lw	$t7,8($a0)
  407cb8:	00000000 	nop
  407cbc:	ade40018 	sw	$a0,24($t7)
  407cc0:	ac850010 	sw	$a1,16($a0)
  407cc4:	aca40008 	sw	$a0,8($a1)
  407cc8:	00802825 	move	$a1,$a0
  407ccc:	8ca40018 	lw	$a0,24($a1)
  407cd0:	00000000 	nop
  407cd4:	1480ffca 	bnez	$a0,407c00 <_realloc+0x9bc>
  407cd8:	00000000 	nop
  407cdc:	8cc20018 	lw	$v0,24($a2)
  407ce0:	00000000 	nop
  407ce4:	aca20018 	sw	$v0,24($a1)
  407ce8:	10000006 	b	407d04 <_realloc+0xac0>
  407cec:	ac450008 	sw	$a1,8($v0)
  407cf0:	8cc50018 	lw	$a1,24($a2)
  407cf4:	00000000 	nop
  407cf8:	10a00002 	beqz	$a1,407d04 <_realloc+0xac0>
  407cfc:	00000000 	nop
  407d00:	aca00008 	sw	$zero,8($a1)
  407d04:	af85aea0 	sw	$a1,-20832($gp)
  407d08:	8fbf0014 	lw	$ra,20($sp)
  407d0c:	27bd0018 	addiu	$sp,$sp,24
  407d10:	03e00008 	jr	$ra
  407d14:	00000000 	nop
  407d18:	8c820008 	lw	$v0,8($a0)
  407d1c:	00000000 	nop
  407d20:	1040007c 	beqz	$v0,407f14 <_realloc+0xcd0>
  407d24:	00000000 	nop
  407d28:	8c450010 	lw	$a1,16($v0)
  407d2c:	8c430008 	lw	$v1,8($v0)
  407d30:	1485003c 	bne	$a0,$a1,407e24 <_realloc+0xbe0>
  407d34:	00000000 	nop
  407d38:	10600023 	beqz	$v1,407dc8 <_realloc+0xb84>
  407d3c:	00000000 	nop
  407d40:	8c6e0010 	lw	$t6,16($v1)
  407d44:	00000000 	nop
  407d48:	144e001f 	bne	$v0,$t6,407dc8 <_realloc+0xb84>
  407d4c:	00000000 	nop
  407d50:	8c460018 	lw	$a2,24($v0)
  407d54:	00000000 	nop
  407d58:	10c00002 	beqz	$a2,407d64 <_realloc+0xb20>
  407d5c:	ac660010 	sw	$a2,16($v1)
  407d60:	acc30008 	sw	$v1,8($a2)
  407d64:	8c860018 	lw	$a2,24($a0)
  407d68:	00000000 	nop
  407d6c:	10c00002 	beqz	$a2,407d78 <_realloc+0xb34>
  407d70:	ac460010 	sw	$a2,16($v0)
  407d74:	acc20008 	sw	$v0,8($a2)
  407d78:	8c660008 	lw	$a2,8($v1)
  407d7c:	00000000 	nop
  407d80:	10c0000c 	beqz	$a2,407db4 <_realloc+0xb70>
  407d84:	ac860008 	sw	$a2,8($a0)
  407d88:	8c790008 	lw	$t9,8($v1)
  407d8c:	00000000 	nop
  407d90:	8f280010 	lw	$t0,16($t9)
  407d94:	00000000 	nop
  407d98:	14680003 	bne	$v1,$t0,407da8 <_realloc+0xb64>
  407d9c:	00000000 	nop
  407da0:	10000004 	b	407db4 <_realloc+0xb70>
  407da4:	acc40010 	sw	$a0,16($a2)
  407da8:	8c8a0008 	lw	$t2,8($a0)
  407dac:	00000000 	nop
  407db0:	ad440018 	sw	$a0,24($t2)
  407db4:	ac820018 	sw	$v0,24($a0)
  407db8:	ac430018 	sw	$v1,24($v0)
  407dbc:	ac440008 	sw	$a0,8($v0)
  407dc0:	10000050 	b	407f04 <_realloc+0xcc0>
  407dc4:	ac620008 	sw	$v0,8($v1)
  407dc8:	8c860018 	lw	$a2,24($a0)
  407dcc:	00000000 	nop
  407dd0:	10c00002 	beqz	$a2,407ddc <_realloc+0xb98>
  407dd4:	ac460010 	sw	$a2,16($v0)
  407dd8:	acc20008 	sw	$v0,8($a2)
  407ddc:	8c460008 	lw	$a2,8($v0)
  407de0:	00000000 	nop
  407de4:	10c0000c 	beqz	$a2,407e18 <_realloc+0xbd4>
  407de8:	ac860008 	sw	$a2,8($a0)
  407dec:	8c4c0008 	lw	$t4,8($v0)
  407df0:	00000000 	nop
  407df4:	8d8d0010 	lw	$t5,16($t4)
  407df8:	00000000 	nop
  407dfc:	144d0003 	bne	$v0,$t5,407e0c <_realloc+0xbc8>
  407e00:	00000000 	nop
  407e04:	10000004 	b	407e18 <_realloc+0xbd4>
  407e08:	acc40010 	sw	$a0,16($a2)
  407e0c:	8c8f0008 	lw	$t7,8($a0)
  407e10:	00000000 	nop
  407e14:	ade40018 	sw	$a0,24($t7)
  407e18:	ac820018 	sw	$v0,24($a0)
  407e1c:	10000039 	b	407f04 <_realloc+0xcc0>
  407e20:	ac440008 	sw	$a0,8($v0)
  407e24:	10600021 	beqz	$v1,407eac <_realloc+0xc68>
  407e28:	00000000 	nop
  407e2c:	8c780018 	lw	$t8,24($v1)
  407e30:	00000000 	nop
  407e34:	1458001d 	bne	$v0,$t8,407eac <_realloc+0xc68>
  407e38:	00000000 	nop
  407e3c:	10a00002 	beqz	$a1,407e48 <_realloc+0xc04>
  407e40:	ac650018 	sw	$a1,24($v1)
  407e44:	aca30008 	sw	$v1,8($a1)
  407e48:	8c860010 	lw	$a2,16($a0)
  407e4c:	00000000 	nop
  407e50:	10c00002 	beqz	$a2,407e5c <_realloc+0xc18>
  407e54:	ac460018 	sw	$a2,24($v0)
  407e58:	acc20008 	sw	$v0,8($a2)
  407e5c:	8c660008 	lw	$a2,8($v1)
  407e60:	00000000 	nop
  407e64:	10c0000c 	beqz	$a2,407e98 <_realloc+0xc54>
  407e68:	ac860008 	sw	$a2,8($a0)
  407e6c:	8c690008 	lw	$t1,8($v1)
  407e70:	00000000 	nop
  407e74:	8d2a0010 	lw	$t2,16($t1)
  407e78:	00000000 	nop
  407e7c:	146a0003 	bne	$v1,$t2,407e8c <_realloc+0xc48>
  407e80:	00000000 	nop
  407e84:	10000004 	b	407e98 <_realloc+0xc54>
  407e88:	acc40010 	sw	$a0,16($a2)
  407e8c:	8c8c0008 	lw	$t4,8($a0)
  407e90:	00000000 	nop
  407e94:	ad840018 	sw	$a0,24($t4)
  407e98:	ac820010 	sw	$v0,16($a0)
  407e9c:	ac430010 	sw	$v1,16($v0)
  407ea0:	ac440008 	sw	$a0,8($v0)
  407ea4:	10000017 	b	407f04 <_realloc+0xcc0>
  407ea8:	ac620008 	sw	$v0,8($v1)
  407eac:	8c860010 	lw	$a2,16($a0)
  407eb0:	00000000 	nop
  407eb4:	10c00002 	beqz	$a2,407ec0 <_realloc+0xc7c>
  407eb8:	ac460018 	sw	$a2,24($v0)
  407ebc:	acc20008 	sw	$v0,8($a2)
  407ec0:	8c460008 	lw	$a2,8($v0)
  407ec4:	00000000 	nop
  407ec8:	10c0000c 	beqz	$a2,407efc <_realloc+0xcb8>
  407ecc:	ac860008 	sw	$a2,8($a0)
  407ed0:	8c4e0008 	lw	$t6,8($v0)
  407ed4:	00000000 	nop
  407ed8:	8dcf0010 	lw	$t7,16($t6)
  407edc:	00000000 	nop
  407ee0:	144f0003 	bne	$v0,$t7,407ef0 <_realloc+0xcac>
  407ee4:	00000000 	nop
  407ee8:	10000004 	b	407efc <_realloc+0xcb8>
  407eec:	acc40010 	sw	$a0,16($a2)
  407ef0:	8c990008 	lw	$t9,8($a0)
  407ef4:	00000000 	nop
  407ef8:	af240018 	sw	$a0,24($t9)
  407efc:	ac820010 	sw	$v0,16($a0)
  407f00:	ac440008 	sw	$a0,8($v0)
  407f04:	8c820008 	lw	$v0,8($a0)
  407f08:	00000000 	nop
  407f0c:	1440ff86 	bnez	$v0,407d28 <_realloc+0xae4>
  407f10:	00000000 	nop
  407f14:	03e00008 	jr	$ra
  407f18:	00000000 	nop

00407f1c <_free>:
  407f1c:	8f8e88c4 	lw	$t6,-30524($gp)
  407f20:	27bdffe8 	addiu	$sp,$sp,-24
  407f24:	afbf0014 	sw	$ra,20($sp)
  407f28:	11c00005 	beqz	$t6,407f40 <_free+0x24>
  407f2c:	afa40018 	sw	$a0,24($sp)
  407f30:	8f99aee4 	lw	$t9,-20764($gp)
  407f34:	8f84aec8 	lw	$a0,-20792($gp)
  407f38:	0320f809 	jalr	$t9
  407f3c:	00000000 	nop
  407f40:	8fa40018 	lw	$a0,24($sp)
  407f44:	0c101fde 	jal	407f78 <__free>
  407f48:	00000000 	nop
  407f4c:	8f8f88c4 	lw	$t7,-30524($gp)
  407f50:	8f99aee8 	lw	$t9,-20760($gp)
  407f54:	11e00005 	beqz	$t7,407f6c <_free+0x50>
  407f58:	8fbf0014 	lw	$ra,20($sp)
  407f5c:	8f84aec8 	lw	$a0,-20792($gp)
  407f60:	0320f809 	jalr	$t9
  407f64:	00000000 	nop
  407f68:	8fbf0014 	lw	$ra,20($sp)
  407f6c:	27bd0018 	addiu	$sp,$sp,24
  407f70:	03e00008 	jr	$ra
  407f74:	00000000 	nop

00407f78 <__free>:
  407f78:	27bdffe0 	addiu	$sp,$sp,-32
  407f7c:	afbf0014 	sw	$ra,20($sp)
  407f80:	10800017 	beqz	$a0,407fe0 <__free+0x68>
  407f84:	00802825 	move	$a1,$a0
  407f88:	8f8eaeb0 	lw	$t6,-20816($gp)
  407f8c:	3c180042 	lui	$t8,0x42
  407f90:	27180c80 	addiu	$t8,$t8,3200
  407f94:	000e7880 	sll	$t7,$t6,0x2
  407f98:	01f81021 	addu	$v0,$t7,$t8
  407f9c:	8c440000 	lw	$a0,0($v0)
  407fa0:	00000000 	nop
  407fa4:	10800007 	beqz	$a0,407fc4 <__free+0x4c>
  407fa8:	00000000 	nop
  407fac:	afa2001c 	sw	$v0,28($sp)
  407fb0:	0c101db6 	jal	4076d8 <_realloc+0x494>
  407fb4:	afa50020 	sw	$a1,32($sp)
  407fb8:	8fa2001c 	lw	$v0,28($sp)
  407fbc:	8fa50020 	lw	$a1,32($sp)
  407fc0:	00000000 	nop
  407fc4:	af85aeac 	sw	$a1,-20820($gp)
  407fc8:	ac450000 	sw	$a1,0($v0)
  407fcc:	8f99aeb0 	lw	$t9,-20816($gp)
  407fd0:	00000000 	nop
  407fd4:	27280001 	addiu	$t0,$t9,1
  407fd8:	3109001f 	andi	$t1,$t0,0x1f
  407fdc:	af89aeb0 	sw	$t1,-20816($gp)
  407fe0:	8fbf0014 	lw	$ra,20($sp)
  407fe4:	27bd0020 	addiu	$sp,$sp,32
  407fe8:	03e00008 	jr	$ra
  407fec:	00000000 	nop
  407ff0:	27bdffd8 	addiu	$sp,$sp,-40
  407ff4:	8f8eaeb0 	lw	$t6,-20816($gp)
  407ff8:	afb2001c 	sw	$s2,28($sp)
  407ffc:	3c120042 	lui	$s2,0x42
  408000:	afb30020 	sw	$s3,32($sp)
  408004:	26520c80 	addiu	$s2,$s2,3200
  408008:	afb10018 	sw	$s1,24($sp)
  40800c:	afb00014 	sw	$s0,20($sp)
  408010:	3c130042 	lui	$s3,0x42
  408014:	000e7880 	sll	$t7,$t6,0x2
  408018:	00808825 	move	$s1,$a0
  40801c:	afbf0024 	sw	$ra,36($sp)
  408020:	024f8021 	addu	$s0,$s2,$t7
  408024:	26730d00 	addiu	$s3,$s3,3328
  408028:	16120002 	bne	$s0,$s2,408034 <__free+0xbc>
  40802c:	00000000 	nop
  408030:	02608025 	move	$s0,$s3
  408034:	8e04fffc 	lw	$a0,-4($s0)
  408038:	2610fffc 	addiu	$s0,$s0,-4
  40803c:	10800008 	beqz	$a0,408060 <__free+0xe8>
  408040:	8fbf0024 	lw	$ra,36($sp)
  408044:	12240003 	beq	$s1,$a0,408054 <__free+0xdc>
  408048:	00000000 	nop
  40804c:	0c101db6 	jal	4076d8 <_realloc+0x494>
  408050:	00000000 	nop
  408054:	1000fff4 	b	408028 <__free+0xb0>
  408058:	ae000000 	sw	$zero,0($s0)
  40805c:	8fbf0024 	lw	$ra,36($sp)
  408060:	8fb00014 	lw	$s0,20($sp)
  408064:	8fb10018 	lw	$s1,24($sp)
  408068:	8fb2001c 	lw	$s2,28($sp)
  40806c:	8fb30020 	lw	$s3,32($sp)
  408070:	af80aeb0 	sw	$zero,-20816($gp)
  408074:	af80aeac 	sw	$zero,-20820($gp)
  408078:	03e00008 	jr	$ra
  40807c:	27bd0028 	addiu	$sp,$sp,40

00408080 <_oserror>:
  408080:	8f8e8840 	lw	$t6,-30656($gp)
  408084:	00000000 	nop
  408088:	8dc20000 	lw	$v0,0($t6)
  40808c:	03e00008 	jr	$ra
  408090:	00000000 	nop

00408094 <_setoserror>:
  408094:	8f8e8840 	lw	$t6,-30656($gp)
  408098:	af84af6c 	sw	$a0,-20628($gp)
  40809c:	00801025 	move	$v0,$a0
  4080a0:	03e00008 	jr	$ra
  4080a4:	adc40000 	sw	$a0,0($t6)

004080a8 <_goserror>:
  4080a8:	8f82af6c 	lw	$v0,-20628($gp)
  4080ac:	03e00008 	jr	$ra
  4080b0:	00000000 	nop

004080b4 <__oserror>:
  4080b4:	8f828840 	lw	$v0,-30656($gp)
  4080b8:	03e00008 	jr	$ra
  4080bc:	00000000 	nop

004080c0 <__initperthread_errno>:
  4080c0:	3c0e0020 	lui	$t6,0x20
  4080c4:	35ce0e84 	ori	$t6,$t6,0xe84
  4080c8:	03e00008 	jr	$ra
  4080cc:	af8e8840 	sw	$t6,-30656($gp)

004080d0 <_uspsema>:
  4080d0:	3c190041 	lui	$t9,0x41
  4080d4:	27398ca0 	addiu	$t9,$t9,-29536
  4080d8:	03200008 	jr	$t9
  4080dc:	03e02825 	move	$a1,$ra

004080e0 <_uscpsema>:
  4080e0:	3c190041 	lui	$t9,0x41
  4080e4:	2739911c 	addiu	$t9,$t9,-28388
  4080e8:	03200008 	jr	$t9
  4080ec:	03e02825 	move	$a1,$ra

004080f0 <_usvsema>:
  4080f0:	3c190041 	lui	$t9,0x41
  4080f4:	2739935c 	addiu	$t9,$t9,-27812
  4080f8:	03200008 	jr	$t9
  4080fc:	03e02825 	move	$a1,$ra

00408100 <__dswsetlock>:
  408100:	3c190041 	lui	$t9,0x41
  408104:	27398640 	addiu	$t9,$t9,-31168
  408108:	03200008 	jr	$t9
  40810c:	03e02825 	move	$a1,$ra

00408110 <__dhsetlock>:
  408110:	3c190041 	lui	$t9,0x41
  408114:	2739c0e4 	addiu	$t9,$t9,-16156
  408118:	03200008 	jr	$t9
  40811c:	03e02825 	move	$a1,$ra

00408120 <__dhunsetlock>:
  408120:	3c190041 	lui	$t9,0x41
  408124:	2739c1e8 	addiu	$t9,$t9,-15896
  408128:	03200008 	jr	$t9
  40812c:	03e02825 	move	$a1,$ra

00408130 <__dhwsetlock>:
  408130:	3c190041 	lui	$t9,0x41
  408134:	2739beb8 	addiu	$t9,$t9,-16712
  408138:	03200008 	jr	$t9
  40813c:	03e03025 	move	$a2,$ra

00408140 <_sinitlock>:
  408140:	948e0010 	lhu	$t6,16($a0)
  408144:	00801025 	move	$v0,$a0
  408148:	ac800004 	sw	$zero,4($a0)
  40814c:	ac80000c 	sw	$zero,12($a0)
  408150:	ac800008 	sw	$zero,8($a0)
  408154:	00001825 	move	$v1,$zero
  408158:	05c00007 	bltz	$t6,408178 <_sinitlock+0x38>
  40815c:	2485001c 	addiu	$a1,$a0,28
  408160:	aca00000 	sw	$zero,0($a1)
  408164:	944f0010 	lhu	$t7,16($v0)
  408168:	24630001 	addiu	$v1,$v1,1
  40816c:	01e3082a 	slt	$at,$t7,$v1
  408170:	1020fffb 	beqz	$at,408160 <_sinitlock+0x20>
  408174:	24a50004 	addiu	$a1,$a1,4
  408178:	94820012 	lhu	$v0,18($a0)
  40817c:	00000000 	nop
  408180:	10400014 	beqz	$v0,4081d4 <_sinitlock+0x94>
  408184:	30580001 	andi	$t8,$v0,0x1
  408188:	1300000c 	beqz	$t8,4081bc <_sinitlock+0x7c>
  40818c:	00401825 	move	$v1,$v0
  408190:	8c990014 	lw	$t9,20($a0)
  408194:	00000000 	nop
  408198:	af200000 	sw	$zero,0($t9)
  40819c:	8c880014 	lw	$t0,20($a0)
  4081a0:	00000000 	nop
  4081a4:	ad000004 	sw	$zero,4($t0)
  4081a8:	8c890014 	lw	$t1,20($a0)
  4081ac:	00000000 	nop
  4081b0:	ad200008 	sw	$zero,8($t1)
  4081b4:	94830012 	lhu	$v1,18($a0)
  4081b8:	00000000 	nop
  4081bc:	306a0002 	andi	$t2,$v1,0x2
  4081c0:	11400004 	beqz	$t2,4081d4 <_sinitlock+0x94>
  4081c4:	00000000 	nop
  4081c8:	8c8c0018 	lw	$t4,24($a0)
  4081cc:	240bffff 	li	$t3,-1
  4081d0:	ad8b0000 	sw	$t3,0($t4)
  4081d4:	03e00008 	jr	$ra
  4081d8:	00001025 	move	$v0,$zero

004081dc <_snewlock>:
  4081dc:	27bdffe0 	addiu	$sp,$sp,-32
  4081e0:	afb00014 	sw	$s0,20($sp)
  4081e4:	00808025 	move	$s0,$a0
  4081e8:	afbf001c 	sw	$ra,28($sp)
  4081ec:	afb10018 	sw	$s1,24($sp)
  4081f0:	8c840424 	lw	$a0,1060($a0)
  4081f4:	02002825 	move	$a1,$s0
  4081f8:	00047080 	sll	$t6,$a0,0x2
  4081fc:	0c103110 	jal	40c440 <_usmalloc>
  408200:	25c40020 	addiu	$a0,$t6,32
  408204:	14400005 	bnez	$v0,40821c <_snewlock+0x40>
  408208:	00408825 	move	$s1,$v0
  40820c:	0c102025 	jal	408094 <_setoserror>
  408210:	2404000c 	li	$a0,12
  408214:	10000035 	b	4082ec <_snewlock+0x110>
  408218:	00001025 	move	$v0,$zero
  40821c:	ac40000c 	sw	$zero,12($v0)
  408220:	ac400008 	sw	$zero,8($v0)
  408224:	8e0f0424 	lw	$t7,1060($s0)
  408228:	24010005 	li	$at,5
  40822c:	a44f0010 	sh	$t7,16($v0)
  408230:	8f98af34 	lw	$t8,-20684($gp)
  408234:	24190004 	li	$t9,4
  408238:	17010003 	bne	$t8,$at,408248 <_snewlock+0x6c>
  40823c:	24040004 	li	$a0,4
  408240:	10000002 	b	40824c <_snewlock+0x70>
  408244:	a4590012 	sh	$t9,18($v0)
  408248:	a4400012 	sh	$zero,18($v0)
  40824c:	ac400014 	sw	$zero,20($v0)
  408250:	ac400018 	sw	$zero,24($v0)
  408254:	ac500000 	sw	$s0,0($v0)
  408258:	8e08044c 	lw	$t0,1100($s0)
  40825c:	00000000 	nop
  408260:	1100001f 	beqz	$t0,4082e0 <_snewlock+0x104>
  408264:	00000000 	nop
  408268:	0c103110 	jal	40c440 <_usmalloc>
  40826c:	02002825 	move	$a1,$s0
  408270:	14400008 	bnez	$v0,408294 <_snewlock+0xb8>
  408274:	ae220018 	sw	$v0,24($s1)
  408278:	02202025 	move	$a0,$s1
  40827c:	0c103119 	jal	40c464 <_usfree>
  408280:	02002825 	move	$a1,$s0
  408284:	0c102025 	jal	408094 <_setoserror>
  408288:	2404000c 	li	$a0,12
  40828c:	10000017 	b	4082ec <_snewlock+0x110>
  408290:	00001025 	move	$v0,$zero
  408294:	2404000c 	li	$a0,12
  408298:	0c103110 	jal	40c440 <_usmalloc>
  40829c:	02002825 	move	$a1,$s0
  4082a0:	1440000b 	bnez	$v0,4082d0 <_snewlock+0xf4>
  4082a4:	ae220014 	sw	$v0,20($s1)
  4082a8:	8e240018 	lw	$a0,24($s1)
  4082ac:	0c103119 	jal	40c464 <_usfree>
  4082b0:	02002825 	move	$a1,$s0
  4082b4:	02202025 	move	$a0,$s1
  4082b8:	0c103119 	jal	40c464 <_usfree>
  4082bc:	02002825 	move	$a1,$s0
  4082c0:	0c102025 	jal	408094 <_setoserror>
  4082c4:	2404000c 	li	$a0,12
  4082c8:	10000008 	b	4082ec <_snewlock+0x110>
  4082cc:	00001025 	move	$v0,$zero
  4082d0:	96290012 	lhu	$t1,18($s1)
  4082d4:	00000000 	nop
  4082d8:	352a0003 	ori	$t2,$t1,0x3
  4082dc:	a62a0012 	sh	$t2,18($s1)
  4082e0:	0c102050 	jal	408140 <_sinitlock>
  4082e4:	02202025 	move	$a0,$s1
  4082e8:	02201025 	move	$v0,$s1
  4082ec:	8fbf001c 	lw	$ra,28($sp)
  4082f0:	8fb00014 	lw	$s0,20($sp)
  4082f4:	8fb10018 	lw	$s1,24($sp)
  4082f8:	03e00008 	jr	$ra
  4082fc:	27bd0020 	addiu	$sp,$sp,32

00408300 <_sfreelock>:
  408300:	27bdffe8 	addiu	$sp,$sp,-24
  408304:	afbf0014 	sw	$ra,20($sp)
  408308:	afa5001c 	sw	$a1,28($sp)
  40830c:	94830012 	lhu	$v1,18($a0)
  408310:	00803025 	move	$a2,$a0
  408314:	10600014 	beqz	$v1,408368 <_sfreelock+0x68>
  408318:	306e0001 	andi	$t6,$v1,0x1
  40831c:	11c00009 	beqz	$t6,408344 <_sfreelock+0x44>
  408320:	00601025 	move	$v0,$v1
  408324:	8c840014 	lw	$a0,20($a0)
  408328:	8cc50000 	lw	$a1,0($a2)
  40832c:	0c103119 	jal	40c464 <_usfree>
  408330:	afa60018 	sw	$a2,24($sp)
  408334:	8fa60018 	lw	$a2,24($sp)
  408338:	00000000 	nop
  40833c:	94c20012 	lhu	$v0,18($a2)
  408340:	00000000 	nop
  408344:	304f0002 	andi	$t7,$v0,0x2
  408348:	11e00007 	beqz	$t7,408368 <_sfreelock+0x68>
  40834c:	00000000 	nop
  408350:	8cc40018 	lw	$a0,24($a2)
  408354:	8cc50000 	lw	$a1,0($a2)
  408358:	0c103119 	jal	40c464 <_usfree>
  40835c:	afa60018 	sw	$a2,24($sp)
  408360:	8fa60018 	lw	$a2,24($sp)
  408364:	00000000 	nop
  408368:	8cc50000 	lw	$a1,0($a2)
  40836c:	0c103119 	jal	40c464 <_usfree>
  408370:	00c02025 	move	$a0,$a2
  408374:	8fbf0014 	lw	$ra,20($sp)
  408378:	27bd0018 	addiu	$sp,$sp,24
  40837c:	03e00008 	jr	$ra
  408380:	00000000 	nop

00408384 <_swsetlock>:
  408384:	8f99aee4 	lw	$t9,-20764($gp)
  408388:	27bdffe8 	addiu	$sp,$sp,-24
  40838c:	afbf0014 	sw	$ra,20($sp)
  408390:	0320f809 	jalr	$t9
  408394:	afa5001c 	sw	$a1,28($sp)
  408398:	8fbf0014 	lw	$ra,20($sp)
  40839c:	27bd0018 	addiu	$sp,$sp,24
  4083a0:	03e00008 	jr	$ra
  4083a4:	00000000 	nop

004083a8 <_stestlock>:
  4083a8:	8c82000c 	lw	$v0,12($a0)
  4083ac:	24030001 	li	$v1,1
  4083b0:	304effff 	andi	$t6,$v0,0xffff
  4083b4:	00027c02 	srl	$t7,$v0,0x10
  4083b8:	15cf0003 	bne	$t6,$t7,4083c8 <_stestlock+0x20>
  4083bc:	00000000 	nop
  4083c0:	03e00008 	jr	$ra
  4083c4:	00001025 	move	$v0,$zero
  4083c8:	03e00008 	jr	$ra
  4083cc:	00601025 	move	$v0,$v1

004083d0 <_sctllock>:
  4083d0:	27bdffe0 	addiu	$sp,$sp,-32
  4083d4:	afa60028 	sw	$a2,40($sp)
  4083d8:	24010003 	li	$at,3
  4083dc:	afbf0014 	sw	$ra,20($sp)
  4083e0:	afa50024 	sw	$a1,36($sp)
  4083e4:	afa7002c 	sw	$a3,44($sp)
  4083e8:	10a1000a 	beq	$a1,$at,408414 <_sctllock+0x44>
  4083ec:	00003025 	move	$a2,$zero
  4083f0:	24010004 	li	$at,4
  4083f4:	10a10021 	beq	$a1,$at,40847c <_sctllock+0xac>
  4083f8:	24010007 	li	$at,7
  4083fc:	10a1002d 	beq	$a1,$at,4084b4 <_sctllock+0xe4>
  408400:	24010008 	li	$at,8
  408404:	10a1003b 	beq	$a1,$at,4084f4 <_sctllock+0x124>
  408408:	00000000 	nop
  40840c:	10000041 	b	408514 <_sctllock+0x144>
  408410:	00000000 	nop
  408414:	948f0012 	lhu	$t7,18($a0)
  408418:	27a3002b 	addiu	$v1,$sp,43
  40841c:	31f80001 	andi	$t8,$t7,0x1
  408420:	13000012 	beqz	$t8,40846c <_sctllock+0x9c>
  408424:	2401fffc 	li	$at,-4
  408428:	8c880014 	lw	$t0,20($a0)
  40842c:	0061c824 	and	$t9,$v1,$at
  408430:	27230004 	addiu	$v1,$t9,4
  408434:	8c62fffc 	lw	$v0,-4($v1)
  408438:	8d090000 	lw	$t1,0($t0)
  40843c:	00000000 	nop
  408440:	ac490000 	sw	$t1,0($v0)
  408444:	8c8a0014 	lw	$t2,20($a0)
  408448:	00000000 	nop
  40844c:	8d4b0004 	lw	$t3,4($t2)
  408450:	00000000 	nop
  408454:	ac4b0004 	sw	$t3,4($v0)
  408458:	8c8c0014 	lw	$t4,20($a0)
  40845c:	00000000 	nop
  408460:	8d8d0008 	lw	$t5,8($t4)
  408464:	1000002e 	b	408520 <_sctllock+0x150>
  408468:	ac4d0008 	sw	$t5,8($v0)
  40846c:	0c102025 	jal	408094 <_setoserror>
  408470:	24040016 	li	$a0,22
  408474:	1000002a 	b	408520 <_sctllock+0x150>
  408478:	2406ffff 	li	$a2,-1
  40847c:	948e0012 	lhu	$t6,18($a0)
  408480:	00000000 	nop
  408484:	31cf0001 	andi	$t7,$t6,0x1
  408488:	11e00026 	beqz	$t7,408524 <_sctllock+0x154>
  40848c:	8fbf0014 	lw	$ra,20($sp)
  408490:	8c980014 	lw	$t8,20($a0)
  408494:	00000000 	nop
  408498:	af000000 	sw	$zero,0($t8)
  40849c:	8c990014 	lw	$t9,20($a0)
  4084a0:	00000000 	nop
  4084a4:	af200004 	sw	$zero,4($t9)
  4084a8:	8c880014 	lw	$t0,20($a0)
  4084ac:	1000001c 	b	408520 <_sctllock+0x150>
  4084b0:	ad000008 	sw	$zero,8($t0)
  4084b4:	94890012 	lhu	$t1,18($a0)
  4084b8:	27a3002b 	addiu	$v1,$sp,43
  4084bc:	312a0002 	andi	$t2,$t1,0x2
  4084c0:	11400008 	beqz	$t2,4084e4 <_sctllock+0x114>
  4084c4:	2401fffc 	li	$at,-4
  4084c8:	8c8c0018 	lw	$t4,24($a0)
  4084cc:	00615824 	and	$t3,$v1,$at
  4084d0:	25630004 	addiu	$v1,$t3,4
  4084d4:	8c62fffc 	lw	$v0,-4($v1)
  4084d8:	8d8d0000 	lw	$t5,0($t4)
  4084dc:	10000010 	b	408520 <_sctllock+0x150>
  4084e0:	ac4d0000 	sw	$t5,0($v0)
  4084e4:	0c102025 	jal	408094 <_setoserror>
  4084e8:	24040016 	li	$a0,22
  4084ec:	1000000c 	b	408520 <_sctllock+0x150>
  4084f0:	2406ffff 	li	$a2,-1
  4084f4:	948e0012 	lhu	$t6,18($a0)
  4084f8:	2418ffff 	li	$t8,-1
  4084fc:	31cf0002 	andi	$t7,$t6,0x2
  408500:	11e00008 	beqz	$t7,408524 <_sctllock+0x154>
  408504:	8fbf0014 	lw	$ra,20($sp)
  408508:	8c990018 	lw	$t9,24($a0)
  40850c:	10000004 	b	408520 <_sctllock+0x150>
  408510:	af380000 	sw	$t8,0($t9)
  408514:	0c102025 	jal	408094 <_setoserror>
  408518:	24040016 	li	$a0,22
  40851c:	2406ffff 	li	$a2,-1
  408520:	8fbf0014 	lw	$ra,20($sp)
  408524:	27bd0020 	addiu	$sp,$sp,32
  408528:	03e00008 	jr	$ra
  40852c:	00c01025 	move	$v0,$a2

00408530 <_sdumplock>:
  408530:	27bdffd0 	addiu	$sp,$sp,-48
  408534:	afbf0024 	sw	$ra,36($sp)
  408538:	afb10020 	sw	$s1,32($sp)
  40853c:	afb0001c 	sw	$s0,28($sp)
  408540:	afa60038 	sw	$a2,56($sp)
  408544:	8c820000 	lw	$v0,0($a0)
  408548:	8f99aee4 	lw	$t9,-20764($gp)
  40854c:	00808025 	move	$s0,$a0
  408550:	8c440448 	lw	$a0,1096($v0)
  408554:	00a08825 	move	$s1,$a1
  408558:	0320f809 	jalr	$t9
  40855c:	afa20028 	sw	$v0,40($sp)
  408560:	8e0e0004 	lw	$t6,4($s0)
  408564:	3c050042 	lui	$a1,0x42
  408568:	8fa60038 	lw	$a2,56($sp)
  40856c:	24a5a150 	addiu	$a1,$a1,-24240
  408570:	02202025 	move	$a0,$s1
  408574:	02003825 	move	$a3,$s0
  408578:	0c103cb8 	jal	40f2e0 <fprintf>
  40857c:	afae0010 	sw	$t6,16($sp)
  408580:	8f99af00 	lw	$t9,-20736($gp)
  408584:	02002025 	move	$a0,$s0
  408588:	0320f809 	jalr	$t9
  40858c:	00000000 	nop
  408590:	10400007 	beqz	$v0,4085b0 <_sdumplock+0x80>
  408594:	02202025 	move	$a0,$s1
  408598:	3c050042 	lui	$a1,0x42
  40859c:	24a5a178 	addiu	$a1,$a1,-24200
  4085a0:	0c103cb8 	jal	40f2e0 <fprintf>
  4085a4:	02202025 	move	$a0,$s1
  4085a8:	10000005 	b	4085c0 <_sdumplock+0x90>
  4085ac:	96030012 	lhu	$v1,18($s0)
  4085b0:	3c050042 	lui	$a1,0x42
  4085b4:	0c103cb8 	jal	40f2e0 <fprintf>
  4085b8:	24a5a188 	addiu	$a1,$a1,-24184
  4085bc:	96030012 	lhu	$v1,18($s0)
  4085c0:	02202025 	move	$a0,$s1
  4085c4:	306f0001 	andi	$t7,$v1,0x1
  4085c8:	11e0000a 	beqz	$t7,4085f4 <_sdumplock+0xc4>
  4085cc:	3c050042 	lui	$a1,0x42
  4085d0:	8e020014 	lw	$v0,20($s0)
  4085d4:	24a5a198 	addiu	$a1,$a1,-24168
  4085d8:	8c580008 	lw	$t8,8($v0)
  4085dc:	8c460004 	lw	$a2,4($v0)
  4085e0:	8c470000 	lw	$a3,0($v0)
  4085e4:	0c103cb8 	jal	40f2e0 <fprintf>
  4085e8:	afb80010 	sw	$t8,16($sp)
  4085ec:	96030012 	lhu	$v1,18($s0)
  4085f0:	00000000 	nop
  4085f4:	30680002 	andi	$t0,$v1,0x2
  4085f8:	11000006 	beqz	$t0,408614 <_sdumplock+0xe4>
  4085fc:	02202025 	move	$a0,$s1
  408600:	8e090018 	lw	$t1,24($s0)
  408604:	3c050042 	lui	$a1,0x42
  408608:	8d260000 	lw	$a2,0($t1)
  40860c:	0c103cb8 	jal	40f2e0 <fprintf>
  408610:	24a5a1c4 	addiu	$a1,$a1,-24124
  408614:	8faa0028 	lw	$t2,40($sp)
  408618:	8f99aee8 	lw	$t9,-20760($gp)
  40861c:	8d440448 	lw	$a0,1096($t2)
  408620:	0320f809 	jalr	$t9
  408624:	00000000 	nop
  408628:	8fbf0024 	lw	$ra,36($sp)
  40862c:	8fb0001c 	lw	$s0,28($sp)
  408630:	8fb10020 	lw	$s1,32($sp)
  408634:	27bd0030 	addiu	$sp,$sp,48
  408638:	03e00008 	jr	$ra
  40863c:	00001025 	move	$v0,$zero

00408640 <_dssetlock>:
  408640:	27bdffa0 	addiu	$sp,$sp,-96
  408644:	afbf003c 	sw	$ra,60($sp)
  408648:	afb60038 	sw	$s6,56($sp)
  40864c:	afb50034 	sw	$s5,52($sp)
  408650:	afb40030 	sw	$s4,48($sp)
  408654:	afb3002c 	sw	$s3,44($sp)
  408658:	afb20028 	sw	$s2,40($sp)
  40865c:	afb10024 	sw	$s1,36($sp)
  408660:	afb00020 	sw	$s0,32($sp)
  408664:	948e0012 	lhu	$t6,18($a0)
  408668:	94940010 	lhu	$s4,16($a0)
  40866c:	8c950000 	lw	$s5,0($a0)
  408670:	afa00040 	sw	$zero,64($sp)
  408674:	a7ae004a 	sh	$t6,74($sp)
  408678:	3c0f0020 	lui	$t7,0x20
  40867c:	8df60e00 	lw	$s6,3584($t7)
  408680:	8c980004 	lw	$t8,4($a0)
  408684:	00a08025 	move	$s0,$a1
  408688:	16d8000b 	bne	$s6,$t8,4086b8 <_dssetlock+0x78>
  40868c:	00809025 	move	$s2,$a0
  408690:	8eb9044c 	lw	$t9,1100($s5)
  408694:	24010002 	li	$at,2
  408698:	17210007 	bne	$t9,$at,4086b8 <_dssetlock+0x78>
  40869c:	00002025 	move	$a0,$zero
  4086a0:	3c050042 	lui	$a1,0x42
  4086a4:	24a5a1e4 	addiu	$a1,$a1,-24092
  4086a8:	02403025 	move	$a2,$s2
  4086ac:	02c03825 	move	$a3,$s6
  4086b0:	0c1050fc 	jal	4143f0 <_uprint>
  4086b4:	afb00010 	sw	$s0,16($sp)
  4086b8:	2653000c 	addiu	$s3,$s2,12
  4086bc:	8e45000c 	lw	$a1,12($s2)
  4086c0:	8f99af0c 	lw	$t9,-20724($gp)
  4086c4:	00058c02 	srl	$s1,$a1,0x10
  4086c8:	16910004 	bne	$s4,$s1,4086dc <_dssetlock+0x9c>
  4086cc:	30b0ffff 	andi	$s0,$a1,0xffff
  4086d0:	30b0ffff 	andi	$s0,$a1,0xffff
  4086d4:	10000004 	b	4086e8 <_dssetlock+0xa8>
  4086d8:	02003025 	move	$a2,$s0
  4086dc:	26280001 	addiu	$t0,$s1,1
  4086e0:	00084c00 	sll	$t1,$t0,0x10
  4086e4:	01303025 	or	$a2,$t1,$s0
  4086e8:	02602025 	move	$a0,$s3
  4086ec:	0320f809 	jalr	$t9
  4086f0:	02a03825 	move	$a3,$s5
  4086f4:	1040fff1 	beqz	$v0,4086bc <_dssetlock+0x7c>
  4086f8:	00000000 	nop
  4086fc:	1611000a 	bne	$s0,$s1,408728 <_dssetlock+0xe8>
  408700:	00116880 	sll	$t5,$s1,0x2
  408704:	ae560004 	sw	$s6,4($s2)
  408708:	97aa004a 	lhu	$t2,74($sp)
  40870c:	00000000 	nop
  408710:	314b0002 	andi	$t3,$t2,0x2
  408714:	11600029 	beqz	$t3,4087bc <_dssetlock+0x17c>
  408718:	97aa004a 	lhu	$t2,74($sp)
  40871c:	8e4c0018 	lw	$t4,24($s2)
  408720:	10000025 	b	4087b8 <_dssetlock+0x178>
  408724:	ad960000 	sw	$s6,0($t4)
  408728:	00117080 	sll	$t6,$s1,0x2
  40872c:	024ea021 	addu	$s4,$s2,$t6
  408730:	2694001c 	addiu	$s4,$s4,28
  408734:	024d9821 	addu	$s3,$s2,$t5
  408738:	8e70001c 	lw	$s0,28($s3)
  40873c:	8f99af0c 	lw	$t9,-20724($gp)
  408740:	02802025 	move	$a0,$s4
  408744:	02c03025 	move	$a2,$s6
  408748:	02a03825 	move	$a3,$s5
  40874c:	0320f809 	jalr	$t9
  408750:	02002825 	move	$a1,$s0
  408754:	1040fff8 	beqz	$v0,408738 <_dssetlock+0xf8>
  408758:	00000000 	nop
  40875c:	24010001 	li	$at,1
  408760:	1601000a 	bne	$s0,$at,40878c <_dssetlock+0x14c>
  408764:	24090001 	li	$t1,1
  408768:	ae560004 	sw	$s6,4($s2)
  40876c:	97af004a 	lhu	$t7,74($sp)
  408770:	00000000 	nop
  408774:	31f80002 	andi	$t8,$t7,0x2
  408778:	13000010 	beqz	$t8,4087bc <_dssetlock+0x17c>
  40877c:	97aa004a 	lhu	$t2,74($sp)
  408780:	8e480018 	lw	$t0,24($s2)
  408784:	1000000c 	b	4087b8 <_dssetlock+0x178>
  408788:	ad160000 	sw	$s6,0($t0)
  40878c:	3c070042 	lui	$a3,0x42
  408790:	afa90040 	sw	$t1,64($sp)
  408794:	24e7a220 	addiu	$a3,$a3,-24032
  408798:	02a02025 	move	$a0,$s5
  40879c:	00002825 	move	$a1,$zero
  4087a0:	0c102aa2 	jal	40aa88 <_usblock>
  4087a4:	02c03025 	move	$a2,$s6
  4087a8:	04410004 	bgez	$v0,4087bc <_dssetlock+0x17c>
  4087ac:	97aa004a 	lhu	$t2,74($sp)
  4087b0:	1000001d 	b	408828 <_dssetlock+0x1e8>
  4087b4:	2402ffff 	li	$v0,-1
  4087b8:	97aa004a 	lhu	$t2,74($sp)
  4087bc:	00000000 	nop
  4087c0:	314b0001 	andi	$t3,$t2,0x1
  4087c4:	11600018 	beqz	$t3,408828 <_dssetlock+0x1e8>
  4087c8:	24020001 	li	$v0,1
  4087cc:	8e420014 	lw	$v0,20($s2)
  4087d0:	00000000 	nop
  4087d4:	8c4c0004 	lw	$t4,4($v0)
  4087d8:	00000000 	nop
  4087dc:	258d0001 	addiu	$t5,$t4,1
  4087e0:	ac4d0004 	sw	$t5,4($v0)
  4087e4:	8e420014 	lw	$v0,20($s2)
  4087e8:	00000000 	nop
  4087ec:	8c4e0008 	lw	$t6,8($v0)
  4087f0:	00000000 	nop
  4087f4:	25d90001 	addiu	$t9,$t6,1
  4087f8:	ac590008 	sw	$t9,8($v0)
  4087fc:	8faf0040 	lw	$t7,64($sp)
  408800:	00000000 	nop
  408804:	11e00008 	beqz	$t7,408828 <_dssetlock+0x1e8>
  408808:	24020001 	li	$v0,1
  40880c:	8e420014 	lw	$v0,20($s2)
  408810:	00000000 	nop
  408814:	8c580000 	lw	$t8,0($v0)
  408818:	00000000 	nop
  40881c:	27080001 	addiu	$t0,$t8,1
  408820:	ac480000 	sw	$t0,0($v0)
  408824:	24020001 	li	$v0,1
  408828:	8fbf003c 	lw	$ra,60($sp)
  40882c:	8fb00020 	lw	$s0,32($sp)
  408830:	8fb10024 	lw	$s1,36($sp)
  408834:	8fb20028 	lw	$s2,40($sp)
  408838:	8fb3002c 	lw	$s3,44($sp)
  40883c:	8fb40030 	lw	$s4,48($sp)
  408840:	8fb50034 	lw	$s5,52($sp)
  408844:	8fb60038 	lw	$s6,56($sp)
  408848:	03e00008 	jr	$ra
  40884c:	27bd0060 	addiu	$sp,$sp,96

00408850 <_dsunsetlock>:
  408850:	27bdffb8 	addiu	$sp,$sp,-72
  408854:	afbf0044 	sw	$ra,68($sp)
  408858:	afbe0040 	sw	$s8,64($sp)
  40885c:	afb7003c 	sw	$s7,60($sp)
  408860:	afb60038 	sw	$s6,56($sp)
  408864:	afb50034 	sw	$s5,52($sp)
  408868:	afb40030 	sw	$s4,48($sp)
  40886c:	afb3002c 	sw	$s3,44($sp)
  408870:	afb20028 	sw	$s2,40($sp)
  408874:	afb10024 	sw	$s1,36($sp)
  408878:	afb00020 	sw	$s0,32($sp)
  40887c:	3c0e0020 	lui	$t6,0x20
  408880:	8dc70e00 	lw	$a3,3584($t6)
  408884:	8c820004 	lw	$v0,4($a0)
  408888:	94970010 	lhu	$s7,16($a0)
  40888c:	8c950000 	lw	$s5,0($a0)
  408890:	94900012 	lhu	$s0,18($a0)
  408894:	00808825 	move	$s1,$a0
  408898:	10e20017 	beq	$a3,$v0,4088f8 <_dsunsetlock+0xa8>
  40889c:	00a09025 	move	$s2,$a1
  4088a0:	1440000c 	bnez	$v0,4088d4 <_dsunsetlock+0x84>
  4088a4:	00000000 	nop
  4088a8:	8eaf044c 	lw	$t7,1100($s5)
  4088ac:	24010002 	li	$at,2
  4088b0:	15e10006 	bne	$t7,$at,4088cc <_dsunsetlock+0x7c>
  4088b4:	00002025 	move	$a0,$zero
  4088b8:	3c050042 	lui	$a1,0x42
  4088bc:	24a5a22c 	addiu	$a1,$a1,-24020
  4088c0:	02203025 	move	$a2,$s1
  4088c4:	0c1050fc 	jal	4143f0 <_uprint>
  4088c8:	afb20010 	sw	$s2,16($sp)
  4088cc:	1000004c 	b	408a00 <_dsunsetlock+0x1b0>
  4088d0:	00001025 	move	$v0,$zero
  4088d4:	8eb8044c 	lw	$t8,1100($s5)
  4088d8:	24010002 	li	$at,2
  4088dc:	17010006 	bne	$t8,$at,4088f8 <_dsunsetlock+0xa8>
  4088e0:	00002025 	move	$a0,$zero
  4088e4:	3c050042 	lui	$a1,0x42
  4088e8:	24a5a274 	addiu	$a1,$a1,-23948
  4088ec:	02203025 	move	$a2,$s1
  4088f0:	0c1050fc 	jal	4143f0 <_uprint>
  4088f4:	afb20010 	sw	$s2,16($sp)
  4088f8:	321e0002 	andi	$s8,$s0,0x2
  4088fc:	13c00004 	beqz	$s8,408910 <_dsunsetlock+0xc0>
  408900:	2636000c 	addiu	$s6,$s1,12
  408904:	8e280018 	lw	$t0,24($s1)
  408908:	2419ffff 	li	$t9,-1
  40890c:	ad190000 	sw	$t9,0($t0)
  408910:	ae200004 	sw	$zero,4($s1)
  408914:	3c14ffff 	lui	$s4,0xffff
  408918:	8e29000c 	lw	$t1,12($s1)
  40891c:	00000000 	nop
  408920:	312affff 	andi	$t2,$t1,0xffff
  408924:	000a5880 	sll	$t3,$t2,0x2
  408928:	022b6021 	addu	$t4,$s1,$t3
  40892c:	ad80001c 	sw	$zero,28($t4)
  408930:	8e25000c 	lw	$a1,12($s1)
  408934:	8f99af0c 	lw	$t9,-20724($gp)
  408938:	30a2ffff 	andi	$v0,$a1,0xffff
  40893c:	16e20003 	bne	$s7,$v0,40894c <_dsunsetlock+0xfc>
  408940:	02c02025 	move	$a0,$s6
  408944:	10000004 	b	408958 <_dsunsetlock+0x108>
  408948:	00b48024 	and	$s0,$a1,$s4
  40894c:	244d0001 	addiu	$t5,$v0,1
  408950:	00b47024 	and	$t6,$a1,$s4
  408954:	01ae8025 	or	$s0,$t5,$t6
  408958:	02003025 	move	$a2,$s0
  40895c:	0320f809 	jalr	$t9
  408960:	02a03825 	move	$a3,$s5
  408964:	1040fff2 	beqz	$v0,408930 <_dsunsetlock+0xe0>
  408968:	00000000 	nop
  40896c:	3202ffff 	andi	$v0,$s0,0xffff
  408970:	00107c02 	srl	$t7,$s0,0x10
  408974:	104f0021 	beq	$v0,$t7,4089fc <_dsunsetlock+0x1ac>
  408978:	0002c080 	sll	$t8,$v0,0x2
  40897c:	00024080 	sll	$t0,$v0,0x2
  408980:	02289821 	addu	$s3,$s1,$t0
  408984:	2673001c 	addiu	$s3,$s3,28
  408988:	02389021 	addu	$s2,$s1,$t8
  40898c:	8e50001c 	lw	$s0,28($s2)
  408990:	8f99af0c 	lw	$t9,-20724($gp)
  408994:	02602025 	move	$a0,$s3
  408998:	24060001 	li	$a2,1
  40899c:	02a03825 	move	$a3,$s5
  4089a0:	0320f809 	jalr	$t9
  4089a4:	02002825 	move	$a1,$s0
  4089a8:	1040fff8 	beqz	$v0,40898c <_dsunsetlock+0x13c>
  4089ac:	00000000 	nop
  4089b0:	2e010002 	sltiu	$at,$s0,2
  4089b4:	14200011 	bnez	$at,4089fc <_dsunsetlock+0x1ac>
  4089b8:	02a02025 	move	$a0,$s5
  4089bc:	13c00004 	beqz	$s8,4089d0 <_dsunsetlock+0x180>
  4089c0:	00002825 	move	$a1,$zero
  4089c4:	8e290018 	lw	$t1,24($s1)
  4089c8:	00000000 	nop
  4089cc:	ad300000 	sw	$s0,0($t1)
  4089d0:	3c070042 	lui	$a3,0x42
  4089d4:	ae300004 	sw	$s0,4($s1)
  4089d8:	24e7a2c8 	addiu	$a3,$a3,-23864
  4089dc:	0c102af6 	jal	40abd8 <_usunblock>
  4089e0:	02003025 	move	$a2,$s0
  4089e4:	04410003 	bgez	$v0,4089f4 <_dsunsetlock+0x1a4>
  4089e8:	24010001 	li	$at,1
  4089ec:	10000004 	b	408a00 <_dsunsetlock+0x1b0>
  4089f0:	2402ffff 	li	$v0,-1
  4089f4:	1041ffc8 	beq	$v0,$at,408918 <_dsunsetlock+0xc8>
  4089f8:	00000000 	nop
  4089fc:	00001025 	move	$v0,$zero
  408a00:	8fbf0044 	lw	$ra,68($sp)
  408a04:	8fb00020 	lw	$s0,32($sp)
  408a08:	8fb10024 	lw	$s1,36($sp)
  408a0c:	8fb20028 	lw	$s2,40($sp)
  408a10:	8fb3002c 	lw	$s3,44($sp)
  408a14:	8fb40030 	lw	$s4,48($sp)
  408a18:	8fb50034 	lw	$s5,52($sp)
  408a1c:	8fb60038 	lw	$s6,56($sp)
  408a20:	8fb7003c 	lw	$s7,60($sp)
  408a24:	8fbe0040 	lw	$s8,64($sp)
  408a28:	03e00008 	jr	$ra
  408a2c:	27bd0048 	addiu	$sp,$sp,72

00408a30 <_dscsetlock>:
  408a30:	27bdffd8 	addiu	$sp,$sp,-40
  408a34:	afb00014 	sw	$s0,20($sp)
  408a38:	00a08025 	move	$s0,$a1
  408a3c:	afb30020 	sw	$s3,32($sp)
  408a40:	afb10018 	sw	$s1,24($sp)
  408a44:	00808825 	move	$s1,$a0
  408a48:	afbf0024 	sw	$ra,36($sp)
  408a4c:	afb2001c 	sw	$s2,28($sp)
  408a50:	00009825 	move	$s3,$zero
  408a54:	00001825 	move	$v1,$zero
  408a58:	00a01025 	move	$v0,$a1
  408a5c:	1200000a 	beqz	$s0,408a88 <_dscsetlock+0x58>
  408a60:	2610ffff 	addiu	$s0,$s0,-1
  408a64:	24120001 	li	$s2,1
  408a68:	0c1022c4 	jal	408b10 <_dscsetlock+0xe0>
  408a6c:	02202025 	move	$a0,$s1
  408a70:	10520005 	beq	$v0,$s2,408a88 <_dscsetlock+0x58>
  408a74:	00401825 	move	$v1,$v0
  408a78:	02001025 	move	$v0,$s0
  408a7c:	02409825 	move	$s3,$s2
  408a80:	1600fff9 	bnez	$s0,408a68 <_dscsetlock+0x38>
  408a84:	2610ffff 	addiu	$s0,$s0,-1
  408a88:	962e0012 	lhu	$t6,18($s1)
  408a8c:	24120001 	li	$s2,1
  408a90:	31cf0001 	andi	$t7,$t6,0x1
  408a94:	11e00017 	beqz	$t7,408af4 <_dscsetlock+0xc4>
  408a98:	8fbf0024 	lw	$ra,36($sp)
  408a9c:	8e220014 	lw	$v0,20($s1)
  408aa0:	00000000 	nop
  408aa4:	8c580004 	lw	$t8,4($v0)
  408aa8:	00000000 	nop
  408aac:	27190001 	addiu	$t9,$t8,1
  408ab0:	14720007 	bne	$v1,$s2,408ad0 <_dscsetlock+0xa0>
  408ab4:	ac590004 	sw	$t9,4($v0)
  408ab8:	8e220014 	lw	$v0,20($s1)
  408abc:	00000000 	nop
  408ac0:	8c480008 	lw	$t0,8($v0)
  408ac4:	00000000 	nop
  408ac8:	25090001 	addiu	$t1,$t0,1
  408acc:	ac490008 	sw	$t1,8($v0)
  408ad0:	12600008 	beqz	$s3,408af4 <_dscsetlock+0xc4>
  408ad4:	8fbf0024 	lw	$ra,36($sp)
  408ad8:	8e220014 	lw	$v0,20($s1)
  408adc:	00000000 	nop
  408ae0:	8c4a0000 	lw	$t2,0($v0)
  408ae4:	00000000 	nop
  408ae8:	254b0001 	addiu	$t3,$t2,1
  408aec:	ac4b0000 	sw	$t3,0($v0)
  408af0:	8fbf0024 	lw	$ra,36($sp)
  408af4:	8fb00014 	lw	$s0,20($sp)
  408af8:	8fb10018 	lw	$s1,24($sp)
  408afc:	8fb2001c 	lw	$s2,28($sp)
  408b00:	8fb30020 	lw	$s3,32($sp)
  408b04:	27bd0028 	addiu	$sp,$sp,40
  408b08:	03e00008 	jr	$ra
  408b0c:	00601025 	move	$v0,$v1
  408b10:	27bdffb8 	addiu	$sp,$sp,-72
  408b14:	afbf002c 	sw	$ra,44($sp)
  408b18:	afb40028 	sw	$s4,40($sp)
  408b1c:	afb30024 	sw	$s3,36($sp)
  408b20:	afb20020 	sw	$s2,32($sp)
  408b24:	afb1001c 	sw	$s1,28($sp)
  408b28:	afb00018 	sw	$s0,24($sp)
  408b2c:	948e0012 	lhu	$t6,18($a0)
  408b30:	94930010 	lhu	$s3,16($a0)
  408b34:	8c940000 	lw	$s4,0($a0)
  408b38:	3c0f0020 	lui	$t7,0x20
  408b3c:	a7ae0036 	sh	$t6,54($sp)
  408b40:	8df80e00 	lw	$t8,3584($t7)
  408b44:	00809025 	move	$s2,$a0
  408b48:	afb80030 	sw	$t8,48($sp)
  408b4c:	8e45000c 	lw	$a1,12($s2)
  408b50:	00000000 	nop
  408b54:	30b0ffff 	andi	$s0,$a1,0xffff
  408b58:	00058c02 	srl	$s1,$a1,0x10
  408b5c:	12110003 	beq	$s0,$s1,408b6c <_dscsetlock+0x13c>
  408b60:	26390001 	addiu	$t9,$s1,1
  408b64:	10000021 	b	408bec <_dscsetlock+0x1bc>
  408b68:	00001025 	move	$v0,$zero
  408b6c:	16710003 	bne	$s3,$s1,408b7c <_dscsetlock+0x14c>
  408b70:	2644000c 	addiu	$a0,$s2,12
  408b74:	10000003 	b	408b84 <_dscsetlock+0x154>
  408b78:	02003025 	move	$a2,$s0
  408b7c:	00194400 	sll	$t0,$t9,0x10
  408b80:	01103025 	or	$a2,$t0,$s0
  408b84:	8f99af0c 	lw	$t9,-20724($gp)
  408b88:	02803825 	move	$a3,$s4
  408b8c:	0320f809 	jalr	$t9
  408b90:	00000000 	nop
  408b94:	1040ffed 	beqz	$v0,408b4c <_dscsetlock+0x11c>
  408b98:	00000000 	nop
  408b9c:	1611000c 	bne	$s0,$s1,408bd0 <_dscsetlock+0x1a0>
  408ba0:	3c040042 	lui	$a0,0x42
  408ba4:	8fa90030 	lw	$t1,48($sp)
  408ba8:	00000000 	nop
  408bac:	ae490004 	sw	$t1,4($s2)
  408bb0:	97aa0036 	lhu	$t2,54($sp)
  408bb4:	8fac0030 	lw	$t4,48($sp)
  408bb8:	314b0002 	andi	$t3,$t2,0x2
  408bbc:	1160000b 	beqz	$t3,408bec <_dscsetlock+0x1bc>
  408bc0:	24020001 	li	$v0,1
  408bc4:	8e4d0018 	lw	$t5,24($s2)
  408bc8:	10000007 	b	408be8 <_dscsetlock+0x1b8>
  408bcc:	adac0000 	sw	$t4,0($t5)
  408bd0:	3c050042 	lui	$a1,0x42
  408bd4:	24a5a2d4 	addiu	$a1,$a1,-23852
  408bd8:	0c103cb8 	jal	40f2e0 <fprintf>
  408bdc:	2484ddc4 	addiu	$a0,$a0,-8764
  408be0:	0c104194 	jal	410650 <abort>
  408be4:	00000000 	nop
  408be8:	24020001 	li	$v0,1
  408bec:	8fbf002c 	lw	$ra,44($sp)
  408bf0:	8fb00018 	lw	$s0,24($sp)
  408bf4:	8fb1001c 	lw	$s1,28($sp)
  408bf8:	8fb20020 	lw	$s2,32($sp)
  408bfc:	8fb30024 	lw	$s3,36($sp)
  408c00:	8fb40028 	lw	$s4,40($sp)
  408c04:	03e00008 	jr	$ra
  408c08:	27bd0048 	addiu	$sp,$sp,72

00408c0c <_ussoftlocks_init>:
  408c0c:	3c0e0041 	lui	$t6,0x41
  408c10:	3c0f0041 	lui	$t7,0x41
  408c14:	3c180041 	lui	$t8,0x41
  408c18:	3c190041 	lui	$t9,0x41
  408c1c:	3c080041 	lui	$t0,0x41
  408c20:	3c090041 	lui	$t1,0x41
  408c24:	3c0a0041 	lui	$t2,0x41
  408c28:	3c0b0041 	lui	$t3,0x41
  408c2c:	3c0c0041 	lui	$t4,0x41
  408c30:	3c0d0041 	lui	$t5,0x41
  408c34:	3c020041 	lui	$v0,0x41
  408c38:	25ce83a8 	addiu	$t6,$t6,-31832
  408c3c:	25ef83d0 	addiu	$t7,$t7,-31792
  408c40:	27188530 	addiu	$t8,$t8,-31440
  408c44:	273981dc 	addiu	$t9,$t9,-32292
  408c48:	25088140 	addiu	$t0,$t0,-32448
  408c4c:	25298300 	addiu	$t1,$t1,-32000
  408c50:	254a20d0 	addiu	$t2,$t2,8400
  408c54:	256b21fc 	addiu	$t3,$t3,8700
  408c58:	258c2188 	addiu	$t4,$t4,8584
  408c5c:	25ad8100 	addiu	$t5,$t5,-32512
  408c60:	244222e0 	addiu	$v0,$v0,8928
  408c64:	afa40000 	sw	$a0,0($sp)
  408c68:	afa50004 	sw	$a1,4($sp)
  408c6c:	af8eaf00 	sw	$t6,-20736($gp)
  408c70:	af8faf04 	sw	$t7,-20732($gp)
  408c74:	af98af08 	sw	$t8,-20728($gp)
  408c78:	af99aeec 	sw	$t9,-20756($gp)
  408c7c:	af88aef0 	sw	$t0,-20752($gp)
  408c80:	af89aef4 	sw	$t1,-20748($gp)
  408c84:	af8aaee4 	sw	$t2,-20764($gp)
  408c88:	af8baee8 	sw	$t3,-20760($gp)
  408c8c:	af8caefc 	sw	$t4,-20740($gp)
  408c90:	af8daef8 	sw	$t5,-20744($gp)
  408c94:	af82af0c 	sw	$v0,-20724($gp)
  408c98:	03e00008 	jr	$ra
  408c9c:	af82af10 	sw	$v0,-20720($gp)

00408ca0 <_Psema>:
  408ca0:	27bdffc0 	addiu	$sp,$sp,-64
  408ca4:	afbf0024 	sw	$ra,36($sp)
  408ca8:	afb00020 	sw	$s0,32($sp)
  408cac:	afa50044 	sw	$a1,68($sp)
  408cb0:	94830016 	lhu	$v1,22($a0)
  408cb4:	8f99aee4 	lw	$t9,-20764($gp)
  408cb8:	00808025 	move	$s0,$a0
  408cbc:	8c840024 	lw	$a0,36($a0)
  408cc0:	0320f809 	jalr	$t9
  408cc4:	a7a3003e 	sh	$v1,62($sp)
  408cc8:	860e000c 	lh	$t6,12($s0)
  408ccc:	97a3003e 	lhu	$v1,62($sp)
  408cd0:	25cfffff 	addiu	$t7,$t6,-1
  408cd4:	a60f000c 	sh	$t7,12($s0)
  408cd8:	8604000c 	lh	$a0,12($s0)
  408cdc:	3c0e0020 	lui	$t6,0x20
  408ce0:	048100c0 	bgez	$a0,408fe4 <_Psema+0x344>
  408ce4:	24090001 	li	$t1,1
  408ce8:	8e180000 	lw	$t8,0($s0)
  408cec:	96050014 	lhu	$a1,20($s0)
  408cf0:	30690010 	andi	$t1,$v1,0x10
  408cf4:	00604025 	move	$t0,$v1
  408cf8:	1120002b 	beqz	$t1,408da8 <_Psema+0x108>
  408cfc:	afb80034 	sw	$t8,52($sp)
  408d00:	3c0a0020 	lui	$t2,0x20
  408d04:	8d4b0e00 	lw	$t3,3584($t2)
  408d08:	8e0c0004 	lw	$t4,4($s0)
  408d0c:	248d0001 	addiu	$t5,$a0,1
  408d10:	156c0025 	bne	$t3,$t4,408da8 <_Psema+0x108>
  408d14:	306f0002 	andi	$t7,$v1,0x2
  408d18:	8619000e 	lh	$t9,14($s0)
  408d1c:	a60d000c 	sh	$t5,12($s0)
  408d20:	272e0001 	addiu	$t6,$t9,1
  408d24:	11e0001a 	beqz	$t7,408d90 <_Psema+0xf0>
  408d28:	a60e000e 	sh	$t6,14($s0)
  408d2c:	8fb80034 	lw	$t8,52($sp)
  408d30:	8f99aee4 	lw	$t9,-20764($gp)
  408d34:	8f040440 	lw	$a0,1088($t8)
  408d38:	0320f809 	jalr	$t9
  408d3c:	00000000 	nop
  408d40:	3c030020 	lui	$v1,0x20
  408d44:	8c690e00 	lw	$t1,3584($v1)
  408d48:	8e0a0020 	lw	$t2,32($s0)
  408d4c:	8fa50044 	lw	$a1,68($sp)
  408d50:	ad490000 	sw	$t1,0($t2)
  408d54:	8e0b0020 	lw	$t3,32($s0)
  408d58:	00000000 	nop
  408d5c:	ad650004 	sw	$a1,4($t3)
  408d60:	8e0d0020 	lw	$t5,32($s0)
  408d64:	8c6c0e00 	lw	$t4,3584($v1)
  408d68:	00000000 	nop
  408d6c:	adac0008 	sw	$t4,8($t5)
  408d70:	8e0e0020 	lw	$t6,32($s0)
  408d74:	00000000 	nop
  408d78:	adc5000c 	sw	$a1,12($t6)
  408d7c:	8faf0034 	lw	$t7,52($sp)
  408d80:	8f99aee8 	lw	$t9,-20760($gp)
  408d84:	8de40440 	lw	$a0,1088($t7)
  408d88:	0320f809 	jalr	$t9
  408d8c:	00000000 	nop
  408d90:	8f99aee8 	lw	$t9,-20760($gp)
  408d94:	8e040024 	lw	$a0,36($s0)
  408d98:	0320f809 	jalr	$t9
  408d9c:	00000000 	nop
  408da0:	100000da 	b	40910c <_Psema+0x46c>
  408da4:	24020001 	li	$v0,1
  408da8:	96030010 	lhu	$v1,16($s0)
  408dac:	3c0d0020 	lui	$t5,0x20
  408db0:	24780001 	addiu	$t8,$v1,1
  408db4:	14a30002 	bne	$a1,$v1,408dc0 <_Psema+0x120>
  408db8:	a6180010 	sh	$t8,16($s0)
  408dbc:	a6000010 	sh	$zero,16($s0)
  408dc0:	96090012 	lhu	$t1,18($s0)
  408dc4:	960a0010 	lhu	$t2,16($s0)
  408dc8:	00037880 	sll	$t7,$v1,0x2
  408dcc:	152a0012 	bne	$t1,$t2,408e18 <_Psema+0x178>
  408dd0:	020fc021 	addu	$t8,$s0,$t7
  408dd4:	8f99aee8 	lw	$t9,-20760($gp)
  408dd8:	8e040024 	lw	$a0,36($s0)
  408ddc:	0320f809 	jalr	$t9
  408de0:	00000000 	nop
  408de4:	8f8b8ab0 	lw	$t3,-30032($gp)
  408de8:	00002025 	move	$a0,$zero
  408dec:	11600006 	beqz	$t3,408e08 <_Psema+0x168>
  408df0:	3c050042 	lui	$a1,0x42
  408df4:	3c0c0020 	lui	$t4,0x20
  408df8:	8d870e00 	lw	$a3,3584($t4)
  408dfc:	24a5a300 	addiu	$a1,$a1,-23808
  408e00:	0c1050fc 	jal	4143f0 <_uprint>
  408e04:	02003025 	move	$a2,$s0
  408e08:	0c102025 	jal	408094 <_setoserror>
  408e0c:	24040022 	li	$a0,34
  408e10:	100000be 	b	40910c <_Psema+0x46c>
  408e14:	2402ffff 	li	$v0,-1
  408e18:	8dae0e00 	lw	$t6,3584($t5)
  408e1c:	31090007 	andi	$t1,$t0,0x7
  408e20:	af0e0028 	sw	$t6,40($t8)
  408e24:	11200046 	beqz	$t1,408f40 <_Psema+0x2a0>
  408e28:	afa9002c 	sw	$t1,44($sp)
  408e2c:	8fb90034 	lw	$t9,52($sp)
  408e30:	00000000 	nop
  408e34:	8f240440 	lw	$a0,1088($t9)
  408e38:	8f99aee4 	lw	$t9,-20764($gp)
  408e3c:	afa80028 	sw	$t0,40($sp)
  408e40:	0320f809 	jalr	$t9
  408e44:	00000000 	nop
  408e48:	8fa80028 	lw	$t0,40($sp)
  408e4c:	3c0a0020 	lui	$t2,0x20
  408e50:	310b0001 	andi	$t3,$t0,0x1
  408e54:	11600016 	beqz	$t3,408eb0 <_Psema+0x210>
  408e58:	31090002 	andi	$t1,$t0,0x2
  408e5c:	8e02001c 	lw	$v0,28($s0)
  408e60:	00000000 	nop
  408e64:	8c4c0004 	lw	$t4,4($v0)
  408e68:	00000000 	nop
  408e6c:	258d0001 	addiu	$t5,$t4,1
  408e70:	ac4d0004 	sw	$t5,4($v0)
  408e74:	8e02001c 	lw	$v0,28($s0)
  408e78:	00000000 	nop
  408e7c:	8c4f0010 	lw	$t7,16($v0)
  408e80:	00000000 	nop
  408e84:	25ee0001 	addiu	$t6,$t7,1
  408e88:	ac4e0010 	sw	$t6,16($v0)
  408e8c:	8e02001c 	lw	$v0,28($s0)
  408e90:	00000000 	nop
  408e94:	8c430010 	lw	$v1,16($v0)
  408e98:	8c580014 	lw	$t8,20($v0)
  408e9c:	00000000 	nop
  408ea0:	0303082a 	slt	$at,$t8,$v1
  408ea4:	10200002 	beqz	$at,408eb0 <_Psema+0x210>
  408ea8:	00000000 	nop
  408eac:	ac430014 	sw	$v1,20($v0)
  408eb0:	1120000a 	beqz	$t1,408edc <_Psema+0x23c>
  408eb4:	8faf0034 	lw	$t7,52($sp)
  408eb8:	8d590e00 	lw	$t9,3584($t2)
  408ebc:	8e0b0020 	lw	$t3,32($s0)
  408ec0:	00000000 	nop
  408ec4:	ad790008 	sw	$t9,8($t3)
  408ec8:	8e0d0020 	lw	$t5,32($s0)
  408ecc:	8fac0044 	lw	$t4,68($sp)
  408ed0:	00000000 	nop
  408ed4:	adac000c 	sw	$t4,12($t5)
  408ed8:	8faf0034 	lw	$t7,52($sp)
  408edc:	8f99aee8 	lw	$t9,-20760($gp)
  408ee0:	8de40440 	lw	$a0,1088($t7)
  408ee4:	0320f809 	jalr	$t9
  408ee8:	afa80028 	sw	$t0,40($sp)
  408eec:	8fae0034 	lw	$t6,52($sp)
  408ef0:	8fa80028 	lw	$t0,40($sp)
  408ef4:	8dd80428 	lw	$t8,1064($t6)
  408ef8:	310a0004 	andi	$t2,$t0,0x4
  408efc:	33090004 	andi	$t1,$t8,0x4
  408f00:	1120000f 	beqz	$t1,408f40 <_Psema+0x2a0>
  408f04:	00000000 	nop
  408f08:	1140000d 	beqz	$t2,408f40 <_Psema+0x2a0>
  408f0c:	02002025 	move	$a0,$s0
  408f10:	8fac0044 	lw	$t4,68($sp)
  408f14:	3c0b0020 	lui	$t3,0x20
  408f18:	8d660e00 	lw	$a2,3584($t3)
  408f1c:	afac0010 	sw	$t4,16($sp)
  408f20:	860d000c 	lh	$t5,12($s0)
  408f24:	afa80028 	sw	$t0,40($sp)
  408f28:	24050002 	li	$a1,2
  408f2c:	00003825 	move	$a3,$zero
  408f30:	0c1027b7 	jal	409edc <_usdumpsema+0x174>
  408f34:	afad0014 	sw	$t5,20($sp)
  408f38:	8fa80028 	lw	$t0,40($sp)
  408f3c:	00000000 	nop
  408f40:	8f99aee8 	lw	$t9,-20760($gp)
  408f44:	8e040024 	lw	$a0,36($s0)
  408f48:	0320f809 	jalr	$t9
  408f4c:	afa80028 	sw	$t0,40($sp)
  408f50:	3c0f0020 	lui	$t7,0x20
  408f54:	8de60e00 	lw	$a2,3584($t7)
  408f58:	8fa40034 	lw	$a0,52($sp)
  408f5c:	02002825 	move	$a1,$s0
  408f60:	0c102aa2 	jal	40aa88 <_usblock>
  408f64:	27878850 	addiu	$a3,$gp,-30640
  408f68:	8fa80028 	lw	$t0,40($sp)
  408f6c:	04410003 	bgez	$v0,408f7c <_Psema+0x2dc>
  408f70:	310e0008 	andi	$t6,$t0,0x8
  408f74:	10000065 	b	40910c <_Psema+0x46c>
  408f78:	2402ffff 	li	$v0,-1
  408f7c:	11c00004 	beqz	$t6,408f90 <_Psema+0x2f0>
  408f80:	8fb8002c 	lw	$t8,44($sp)
  408f84:	10000061 	b	40910c <_Psema+0x46c>
  408f88:	00001025 	move	$v0,$zero
  408f8c:	8fb8002c 	lw	$t8,44($sp)
  408f90:	8fa90034 	lw	$t1,52($sp)
  408f94:	13000011 	beqz	$t8,408fdc <_Psema+0x33c>
  408f98:	00000000 	nop
  408f9c:	8d2a0428 	lw	$t2,1064($t1)
  408fa0:	310c0004 	andi	$t4,$t0,0x4
  408fa4:	314b0004 	andi	$t3,$t2,0x4
  408fa8:	1160000c 	beqz	$t3,408fdc <_Psema+0x33c>
  408fac:	00000000 	nop
  408fb0:	1180000a 	beqz	$t4,408fdc <_Psema+0x33c>
  408fb4:	02002025 	move	$a0,$s0
  408fb8:	8fb90044 	lw	$t9,68($sp)
  408fbc:	3c0d0020 	lui	$t5,0x20
  408fc0:	8da60e00 	lw	$a2,3584($t5)
  408fc4:	afb90010 	sw	$t9,16($sp)
  408fc8:	860f000c 	lh	$t7,12($s0)
  408fcc:	24050003 	li	$a1,3
  408fd0:	00003825 	move	$a3,$zero
  408fd4:	0c1027b7 	jal	409edc <_usdumpsema+0x174>
  408fd8:	afaf0014 	sw	$t7,20($sp)
  408fdc:	1000004b 	b	40910c <_Psema+0x46c>
  408fe0:	24020001 	li	$v0,1
  408fe4:	8dd80e00 	lw	$t8,3584($t6)
  408fe8:	306a0007 	andi	$t2,$v1,0x7
  408fec:	a609000e 	sh	$t1,14($s0)
  408ff0:	11400041 	beqz	$t2,4090f8 <_Psema+0x458>
  408ff4:	ae180004 	sw	$t8,4($s0)
  408ff8:	8e020000 	lw	$v0,0($s0)
  408ffc:	8f99aee4 	lw	$t9,-20764($gp)
  409000:	8c440440 	lw	$a0,1088($v0)
  409004:	afa30028 	sw	$v1,40($sp)
  409008:	0320f809 	jalr	$t9
  40900c:	afa20030 	sw	$v0,48($sp)
  409010:	8fa80028 	lw	$t0,40($sp)
  409014:	3c090020 	lui	$t1,0x20
  409018:	310b0001 	andi	$t3,$t0,0x1
  40901c:	1160000d 	beqz	$t3,409054 <_Psema+0x3b4>
  409020:	31180002 	andi	$t8,$t0,0x2
  409024:	8e02001c 	lw	$v0,28($s0)
  409028:	00000000 	nop
  40902c:	8c4c0004 	lw	$t4,4($v0)
  409030:	00000000 	nop
  409034:	258d0001 	addiu	$t5,$t4,1
  409038:	ac4d0004 	sw	$t5,4($v0)
  40903c:	8e02001c 	lw	$v0,28($s0)
  409040:	00000000 	nop
  409044:	8c4f0000 	lw	$t7,0($v0)
  409048:	00000000 	nop
  40904c:	25ee0001 	addiu	$t6,$t7,1
  409050:	ac4e0000 	sw	$t6,0($v0)
  409054:	13000012 	beqz	$t8,4090a0 <_Psema+0x400>
  409058:	8faa0030 	lw	$t2,48($sp)
  40905c:	8d2a0e00 	lw	$t2,3584($t1)
  409060:	8e190020 	lw	$t9,32($s0)
  409064:	3c0d0020 	lui	$t5,0x20
  409068:	af2a0000 	sw	$t2,0($t9)
  40906c:	8e0c0020 	lw	$t4,32($s0)
  409070:	8fab0044 	lw	$t3,68($sp)
  409074:	00000000 	nop
  409078:	ad8b0004 	sw	$t3,4($t4)
  40907c:	8e0e0020 	lw	$t6,32($s0)
  409080:	8daf0e00 	lw	$t7,3584($t5)
  409084:	00000000 	nop
  409088:	adcf0008 	sw	$t7,8($t6)
  40908c:	8e090020 	lw	$t1,32($s0)
  409090:	8fb80044 	lw	$t8,68($sp)
  409094:	00000000 	nop
  409098:	ad38000c 	sw	$t8,12($t1)
  40909c:	8faa0030 	lw	$t2,48($sp)
  4090a0:	8f99aee8 	lw	$t9,-20760($gp)
  4090a4:	8d440440 	lw	$a0,1088($t2)
  4090a8:	0320f809 	jalr	$t9
  4090ac:	afa80028 	sw	$t0,40($sp)
  4090b0:	8fab0030 	lw	$t3,48($sp)
  4090b4:	8fa80028 	lw	$t0,40($sp)
  4090b8:	8d6c0428 	lw	$t4,1064($t3)
  4090bc:	310f0004 	andi	$t7,$t0,0x4
  4090c0:	318d0004 	andi	$t5,$t4,0x4
  4090c4:	11a0000c 	beqz	$t5,4090f8 <_Psema+0x458>
  4090c8:	00000000 	nop
  4090cc:	11e0000a 	beqz	$t7,4090f8 <_Psema+0x458>
  4090d0:	02002025 	move	$a0,$s0
  4090d4:	8fb80044 	lw	$t8,68($sp)
  4090d8:	3c0e0020 	lui	$t6,0x20
  4090dc:	8dc60e00 	lw	$a2,3584($t6)
  4090e0:	afb80010 	sw	$t8,16($sp)
  4090e4:	8609000c 	lh	$t1,12($s0)
  4090e8:	24050001 	li	$a1,1
  4090ec:	00003825 	move	$a3,$zero
  4090f0:	0c1027b7 	jal	409edc <_usdumpsema+0x174>
  4090f4:	afa90014 	sw	$t1,20($sp)
  4090f8:	8f99aee8 	lw	$t9,-20760($gp)
  4090fc:	8e040024 	lw	$a0,36($s0)
  409100:	0320f809 	jalr	$t9
  409104:	00000000 	nop
  409108:	24020001 	li	$v0,1
  40910c:	8fbf0024 	lw	$ra,36($sp)
  409110:	8fb00020 	lw	$s0,32($sp)
  409114:	03e00008 	jr	$ra
  409118:	27bd0040 	addiu	$sp,$sp,64

0040911c <_CPsema>:
  40911c:	27bdffc0 	addiu	$sp,$sp,-64
  409120:	afbf0024 	sw	$ra,36($sp)
  409124:	afb00020 	sw	$s0,32($sp)
  409128:	afa50044 	sw	$a1,68($sp)
  40912c:	94820016 	lhu	$v0,22($a0)
  409130:	8f99aee4 	lw	$t9,-20764($gp)
  409134:	00808025 	move	$s0,$a0
  409138:	8c840024 	lw	$a0,36($a0)
  40913c:	0320f809 	jalr	$t9
  409140:	a7a2003e 	sh	$v0,62($sp)
  409144:	8604000c 	lh	$a0,12($s0)
  409148:	97a2003e 	lhu	$v0,62($sp)
  40914c:	1c800033 	bgtz	$a0,40921c <_CPsema+0x100>
  409150:	3c080020 	lui	$t0,0x20
  409154:	8e050000 	lw	$a1,0($s0)
  409158:	304e0010 	andi	$t6,$v0,0x10
  40915c:	11c00029 	beqz	$t6,409204 <_CPsema+0xe8>
  409160:	3c080020 	lui	$t0,0x20
  409164:	8d0f0e00 	lw	$t7,3584($t0)
  409168:	8e180004 	lw	$t8,4($s0)
  40916c:	00000000 	nop
  409170:	15f80024 	bne	$t7,$t8,409204 <_CPsema+0xe8>
  409174:	00000000 	nop
  409178:	860a000e 	lh	$t2,14($s0)
  40917c:	304c0002 	andi	$t4,$v0,0x2
  409180:	254b0001 	addiu	$t3,$t2,1
  409184:	11800019 	beqz	$t4,4091ec <_CPsema+0xd0>
  409188:	a60b000e 	sh	$t3,14($s0)
  40918c:	8f99aee4 	lw	$t9,-20764($gp)
  409190:	8ca40440 	lw	$a0,1088($a1)
  409194:	0320f809 	jalr	$t9
  409198:	afa50038 	sw	$a1,56($sp)
  40919c:	3c080020 	lui	$t0,0x20
  4091a0:	8d0d0e00 	lw	$t5,3584($t0)
  4091a4:	8e0e0020 	lw	$t6,32($s0)
  4091a8:	8fa50038 	lw	$a1,56($sp)
  4091ac:	8fa90044 	lw	$t1,68($sp)
  4091b0:	adcd0000 	sw	$t5,0($t6)
  4091b4:	8e0f0020 	lw	$t7,32($s0)
  4091b8:	00000000 	nop
  4091bc:	ade90004 	sw	$t1,4($t7)
  4091c0:	8e0a0020 	lw	$t2,32($s0)
  4091c4:	8d180e00 	lw	$t8,3584($t0)
  4091c8:	00000000 	nop
  4091cc:	ad580008 	sw	$t8,8($t2)
  4091d0:	8e0b0020 	lw	$t3,32($s0)
  4091d4:	00000000 	nop
  4091d8:	ad69000c 	sw	$t1,12($t3)
  4091dc:	8f99aee8 	lw	$t9,-20760($gp)
  4091e0:	8ca40440 	lw	$a0,1088($a1)
  4091e4:	0320f809 	jalr	$t9
  4091e8:	00000000 	nop
  4091ec:	8f99aee8 	lw	$t9,-20760($gp)
  4091f0:	8e040024 	lw	$a0,36($s0)
  4091f4:	0320f809 	jalr	$t9
  4091f8:	00000000 	nop
  4091fc:	10000053 	b	40934c <_CPsema+0x230>
  409200:	24020001 	li	$v0,1
  409204:	8f99aee8 	lw	$t9,-20760($gp)
  409208:	8e040024 	lw	$a0,36($s0)
  40920c:	0320f809 	jalr	$t9
  409210:	00000000 	nop
  409214:	1000004d 	b	40934c <_CPsema+0x230>
  409218:	00001025 	move	$v0,$zero
  40921c:	248cffff 	addiu	$t4,$a0,-1
  409220:	a60c000c 	sh	$t4,12($s0)
  409224:	8d0d0e00 	lw	$t5,3584($t0)
  409228:	240e0001 	li	$t6,1
  40922c:	304f0007 	andi	$t7,$v0,0x7
  409230:	a60e000e 	sh	$t6,14($s0)
  409234:	00401825 	move	$v1,$v0
  409238:	11e0003f 	beqz	$t7,409338 <_CPsema+0x21c>
  40923c:	ae0d0004 	sw	$t5,4($s0)
  409240:	8e020000 	lw	$v0,0($s0)
  409244:	8f99aee4 	lw	$t9,-20764($gp)
  409248:	8c440440 	lw	$a0,1088($v0)
  40924c:	afa3002c 	sw	$v1,44($sp)
  409250:	0320f809 	jalr	$t9
  409254:	afa20034 	sw	$v0,52($sp)
  409258:	8fa3002c 	lw	$v1,44($sp)
  40925c:	8fa90044 	lw	$t1,68($sp)
  409260:	30780001 	andi	$t8,$v1,0x1
  409264:	1300000d 	beqz	$t8,40929c <_CPsema+0x180>
  409268:	3c080020 	lui	$t0,0x20
  40926c:	8e02001c 	lw	$v0,28($s0)
  409270:	00000000 	nop
  409274:	8c4a0004 	lw	$t2,4($v0)
  409278:	00000000 	nop
  40927c:	254b0001 	addiu	$t3,$t2,1
  409280:	ac4b0004 	sw	$t3,4($v0)
  409284:	8e02001c 	lw	$v0,28($s0)
  409288:	00000000 	nop
  40928c:	8c4c0000 	lw	$t4,0($v0)
  409290:	00000000 	nop
  409294:	258d0001 	addiu	$t5,$t4,1
  409298:	ac4d0000 	sw	$t5,0($v0)
  40929c:	306e0002 	andi	$t6,$v1,0x2
  4092a0:	11c00010 	beqz	$t6,4092e4 <_CPsema+0x1c8>
  4092a4:	8fad0034 	lw	$t5,52($sp)
  4092a8:	8d0f0e00 	lw	$t7,3584($t0)
  4092ac:	8e190020 	lw	$t9,32($s0)
  4092b0:	00000000 	nop
  4092b4:	af2f0000 	sw	$t7,0($t9)
  4092b8:	8e180020 	lw	$t8,32($s0)
  4092bc:	00000000 	nop
  4092c0:	af090004 	sw	$t1,4($t8)
  4092c4:	8e0b0020 	lw	$t3,32($s0)
  4092c8:	8d0a0e00 	lw	$t2,3584($t0)
  4092cc:	00000000 	nop
  4092d0:	ad6a0008 	sw	$t2,8($t3)
  4092d4:	8e0c0020 	lw	$t4,32($s0)
  4092d8:	00000000 	nop
  4092dc:	ad89000c 	sw	$t1,12($t4)
  4092e0:	8fad0034 	lw	$t5,52($sp)
  4092e4:	8f99aee8 	lw	$t9,-20760($gp)
  4092e8:	8da40440 	lw	$a0,1088($t5)
  4092ec:	0320f809 	jalr	$t9
  4092f0:	afa3002c 	sw	$v1,44($sp)
  4092f4:	8fae0034 	lw	$t6,52($sp)
  4092f8:	8fa3002c 	lw	$v1,44($sp)
  4092fc:	8dcf0428 	lw	$t7,1064($t6)
  409300:	8fa90044 	lw	$t1,68($sp)
  409304:	31f80004 	andi	$t8,$t7,0x4
  409308:	1300000b 	beqz	$t8,409338 <_CPsema+0x21c>
  40930c:	3c080020 	lui	$t0,0x20
  409310:	306a0004 	andi	$t2,$v1,0x4
  409314:	11400008 	beqz	$t2,409338 <_CPsema+0x21c>
  409318:	02002025 	move	$a0,$s0
  40931c:	8d060e00 	lw	$a2,3584($t0)
  409320:	afa90010 	sw	$t1,16($sp)
  409324:	860b000c 	lh	$t3,12($s0)
  409328:	24050001 	li	$a1,1
  40932c:	00003825 	move	$a3,$zero
  409330:	0c1027b7 	jal	409edc <_usdumpsema+0x174>
  409334:	afab0014 	sw	$t3,20($sp)
  409338:	8f99aee8 	lw	$t9,-20760($gp)
  40933c:	8e040024 	lw	$a0,36($s0)
  409340:	0320f809 	jalr	$t9
  409344:	00000000 	nop
  409348:	24020001 	li	$v0,1
  40934c:	8fbf0024 	lw	$ra,36($sp)
  409350:	8fb00020 	lw	$s0,32($sp)
  409354:	03e00008 	jr	$ra
  409358:	27bd0040 	addiu	$sp,$sp,64

0040935c <_Vsema>:
  40935c:	27bdff98 	addiu	$sp,$sp,-104
  409360:	afbf0044 	sw	$ra,68($sp)
  409364:	afbe0040 	sw	$s8,64($sp)
  409368:	afb7003c 	sw	$s7,60($sp)
  40936c:	afb60038 	sw	$s6,56($sp)
  409370:	afb50034 	sw	$s5,52($sp)
  409374:	afb40030 	sw	$s4,48($sp)
  409378:	afb3002c 	sw	$s3,44($sp)
  40937c:	afb20028 	sw	$s2,40($sp)
  409380:	afb10024 	sw	$s1,36($sp)
  409384:	afb00020 	sw	$s0,32($sp)
  409388:	94950016 	lhu	$s5,22($a0)
  40938c:	00808025 	move	$s0,$a0
  409390:	32ae0010 	andi	$t6,$s5,0x10
  409394:	00a0b025 	move	$s6,$a1
  409398:	afae0048 	sw	$t6,72($sp)
  40939c:	24170001 	li	$s7,1
  4093a0:	3c1e0020 	lui	$s8,0x20
  4093a4:	8f99aee4 	lw	$t9,-20764($gp)
  4093a8:	8e040024 	lw	$a0,36($s0)
  4093ac:	0320f809 	jalr	$t9
  4093b0:	00000000 	nop
  4093b4:	8faf0048 	lw	$t7,72($sp)
  4093b8:	00000000 	nop
  4093bc:	11e0000f 	beqz	$t7,4093fc <_Vsema+0xa0>
  4093c0:	00000000 	nop
  4093c4:	8618000e 	lh	$t8,14($s0)
  4093c8:	00000000 	nop
  4093cc:	2708ffff 	addiu	$t0,$t8,-1
  4093d0:	a608000e 	sh	$t0,14($s0)
  4093d4:	8609000e 	lh	$t1,14($s0)
  4093d8:	00000000 	nop
  4093dc:	19200007 	blez	$t1,4093fc <_Vsema+0xa0>
  4093e0:	00000000 	nop
  4093e4:	8f99aee8 	lw	$t9,-20760($gp)
  4093e8:	8e040024 	lw	$a0,36($s0)
  4093ec:	0320f809 	jalr	$t9
  4093f0:	00000000 	nop
  4093f4:	10000096 	b	409650 <_Vsema+0x2f4>
  4093f8:	00001025 	move	$v0,$zero
  4093fc:	860b000c 	lh	$t3,12($s0)
  409400:	240affff 	li	$t2,-1
  409404:	256c0001 	addiu	$t4,$t3,1
  409408:	a60c000c 	sh	$t4,12($s0)
  40940c:	860d000c 	lh	$t5,12($s0)
  409410:	ae0a0004 	sw	$t2,4($s0)
  409414:	1da00053 	bgtz	$t5,409564 <_Vsema+0x208>
  409418:	32a50007 	andi	$a1,$s5,0x7
  40941c:	96020012 	lhu	$v0,18($s0)
  409420:	96040014 	lhu	$a0,20($s0)
  409424:	244e0001 	addiu	$t6,$v0,1
  409428:	00027880 	sll	$t7,$v0,0x2
  40942c:	a60e0012 	sh	$t6,18($s0)
  409430:	020fc021 	addu	$t8,$s0,$t7
  409434:	8e120000 	lw	$s2,0($s0)
  409438:	8f130028 	lw	$s3,40($t8)
  40943c:	14820002 	bne	$a0,$v0,409448 <_Vsema+0xec>
  409440:	32b10002 	andi	$s1,$s5,0x2
  409444:	a6000012 	sh	$zero,18($s0)
  409448:	ae130004 	sw	$s3,4($s0)
  40944c:	10a00034 	beqz	$a1,409520 <_Vsema+0x1c4>
  409450:	a617000e 	sh	$s7,14($s0)
  409454:	8f99aee4 	lw	$t9,-20764($gp)
  409458:	8e440440 	lw	$a0,1088($s2)
  40945c:	0320f809 	jalr	$t9
  409460:	32b40001 	andi	$s4,$s5,0x1
  409464:	1220000e 	beqz	$s1,4094a0 <_Vsema+0x144>
  409468:	00000000 	nop
  40946c:	8e080020 	lw	$t0,32($s0)
  409470:	00000000 	nop
  409474:	ad130000 	sw	$s3,0($t0)
  409478:	8e090020 	lw	$t1,32($s0)
  40947c:	00000000 	nop
  409480:	ad360004 	sw	$s6,4($t1)
  409484:	8e0b0020 	lw	$t3,32($s0)
  409488:	8fca0e00 	lw	$t2,3584($s8)
  40948c:	00000000 	nop
  409490:	ad6a0008 	sw	$t2,8($t3)
  409494:	8e0c0020 	lw	$t4,32($s0)
  409498:	00000000 	nop
  40949c:	ad96000c 	sw	$s6,12($t4)
  4094a0:	1280000d 	beqz	$s4,4094d8 <_Vsema+0x17c>
  4094a4:	00000000 	nop
  4094a8:	8e02001c 	lw	$v0,28($s0)
  4094ac:	00000000 	nop
  4094b0:	8c4d0010 	lw	$t5,16($v0)
  4094b4:	00000000 	nop
  4094b8:	25aeffff 	addiu	$t6,$t5,-1
  4094bc:	ac4e0010 	sw	$t6,16($v0)
  4094c0:	8e02001c 	lw	$v0,28($s0)
  4094c4:	00000000 	nop
  4094c8:	8c4f0008 	lw	$t7,8($v0)
  4094cc:	00000000 	nop
  4094d0:	25f80001 	addiu	$t8,$t7,1
  4094d4:	ac580008 	sw	$t8,8($v0)
  4094d8:	8f99aee8 	lw	$t9,-20760($gp)
  4094dc:	8e440440 	lw	$a0,1088($s2)
  4094e0:	0320f809 	jalr	$t9
  4094e4:	00000000 	nop
  4094e8:	8e480428 	lw	$t0,1064($s2)
  4094ec:	32aa0004 	andi	$t2,$s5,0x4
  4094f0:	31090004 	andi	$t1,$t0,0x4
  4094f4:	1120000a 	beqz	$t1,409520 <_Vsema+0x1c4>
  4094f8:	00000000 	nop
  4094fc:	11400008 	beqz	$t2,409520 <_Vsema+0x1c4>
  409500:	02002025 	move	$a0,$s0
  409504:	8fc60e00 	lw	$a2,3584($s8)
  409508:	afb60010 	sw	$s6,16($sp)
  40950c:	860b000c 	lh	$t3,12($s0)
  409510:	24050005 	li	$a1,5
  409514:	02603825 	move	$a3,$s3
  409518:	0c1027b7 	jal	409edc <_usdumpsema+0x174>
  40951c:	afab0014 	sw	$t3,20($sp)
  409520:	8f99aee8 	lw	$t9,-20760($gp)
  409524:	8e040024 	lw	$a0,36($s0)
  409528:	0320f809 	jalr	$t9
  40952c:	00000000 	nop
  409530:	02402025 	move	$a0,$s2
  409534:	02002825 	move	$a1,$s0
  409538:	02603025 	move	$a2,$s3
  40953c:	0c102af6 	jal	40abd8 <_usunblock>
  409540:	27878858 	addiu	$a3,$gp,-30632
  409544:	04410003 	bgez	$v0,409554 <_Vsema+0x1f8>
  409548:	00000000 	nop
  40954c:	10000040 	b	409650 <_Vsema+0x2f4>
  409550:	2402ffff 	li	$v0,-1
  409554:	1057ff93 	beq	$v0,$s7,4093a4 <_Vsema+0x48>
  409558:	00000000 	nop
  40955c:	1000003c 	b	409650 <_Vsema+0x2f4>
  409560:	00001025 	move	$v0,$zero
  409564:	10a00035 	beqz	$a1,40963c <_Vsema+0x2e0>
  409568:	32b10002 	andi	$s1,$s5,0x2
  40956c:	8e120000 	lw	$s2,0($s0)
  409570:	8f99aee4 	lw	$t9,-20764($gp)
  409574:	8e440440 	lw	$a0,1088($s2)
  409578:	0320f809 	jalr	$t9
  40957c:	32b40001 	andi	$s4,$s5,0x1
  409580:	1220000e 	beqz	$s1,4095bc <_Vsema+0x260>
  409584:	00000000 	nop
  409588:	8e0d0020 	lw	$t5,32($s0)
  40958c:	240cffff 	li	$t4,-1
  409590:	adac0000 	sw	$t4,0($t5)
  409594:	8e0f0020 	lw	$t7,32($s0)
  409598:	240effff 	li	$t6,-1
  40959c:	adee0004 	sw	$t6,4($t7)
  4095a0:	8e080020 	lw	$t0,32($s0)
  4095a4:	8fd80e00 	lw	$t8,3584($s8)
  4095a8:	00000000 	nop
  4095ac:	ad180008 	sw	$t8,8($t0)
  4095b0:	8e090020 	lw	$t1,32($s0)
  4095b4:	00000000 	nop
  4095b8:	ad36000c 	sw	$s6,12($t1)
  4095bc:	1280000d 	beqz	$s4,4095f4 <_Vsema+0x298>
  4095c0:	00000000 	nop
  4095c4:	8e02001c 	lw	$v0,28($s0)
  4095c8:	00000000 	nop
  4095cc:	8c4a000c 	lw	$t2,12($v0)
  4095d0:	00000000 	nop
  4095d4:	254b0001 	addiu	$t3,$t2,1
  4095d8:	ac4b000c 	sw	$t3,12($v0)
  4095dc:	8e02001c 	lw	$v0,28($s0)
  4095e0:	00000000 	nop
  4095e4:	8c590008 	lw	$t9,8($v0)
  4095e8:	00000000 	nop
  4095ec:	272c0001 	addiu	$t4,$t9,1
  4095f0:	ac4c0008 	sw	$t4,8($v0)
  4095f4:	8f99aee8 	lw	$t9,-20760($gp)
  4095f8:	8e440440 	lw	$a0,1088($s2)
  4095fc:	0320f809 	jalr	$t9
  409600:	00000000 	nop
  409604:	8e4d0428 	lw	$t5,1064($s2)
  409608:	32af0004 	andi	$t7,$s5,0x4
  40960c:	31ae0004 	andi	$t6,$t5,0x4
  409610:	11c0000a 	beqz	$t6,40963c <_Vsema+0x2e0>
  409614:	00000000 	nop
  409618:	11e00008 	beqz	$t7,40963c <_Vsema+0x2e0>
  40961c:	02002025 	move	$a0,$s0
  409620:	8fc60e00 	lw	$a2,3584($s8)
  409624:	afb60010 	sw	$s6,16($sp)
  409628:	8618000c 	lh	$t8,12($s0)
  40962c:	24050004 	li	$a1,4
  409630:	00003825 	move	$a3,$zero
  409634:	0c1027b7 	jal	409edc <_usdumpsema+0x174>
  409638:	afb80014 	sw	$t8,20($sp)
  40963c:	8f99aee8 	lw	$t9,-20760($gp)
  409640:	8e040024 	lw	$a0,36($s0)
  409644:	0320f809 	jalr	$t9
  409648:	00000000 	nop
  40964c:	00001025 	move	$v0,$zero
  409650:	8fbf0044 	lw	$ra,68($sp)
  409654:	8fb00020 	lw	$s0,32($sp)
  409658:	8fb10024 	lw	$s1,36($sp)
  40965c:	8fb20028 	lw	$s2,40($sp)
  409660:	8fb3002c 	lw	$s3,44($sp)
  409664:	8fb40030 	lw	$s4,48($sp)
  409668:	8fb50034 	lw	$s5,52($sp)
  40966c:	8fb60038 	lw	$s6,56($sp)
  409670:	8fb7003c 	lw	$s7,60($sp)
  409674:	8fbe0040 	lw	$s8,64($sp)
  409678:	03e00008 	jr	$ra
  40967c:	27bd0068 	addiu	$sp,$sp,104

00409680 <_ustestsema>:
  409680:	8482000c 	lh	$v0,12($a0)
  409684:	03e00008 	jr	$ra
  409688:	00000000 	nop

0040968c <_usinitsema>:
  40968c:	27bdffe8 	addiu	$sp,$sp,-24
  409690:	afbf0014 	sw	$ra,20($sp)
  409694:	04a00004 	bltz	$a1,4096a8 <_usinitsema+0x1c>
  409698:	00803025 	move	$a2,$a0
  40969c:	28a17531 	slti	$at,$a1,30001
  4096a0:	14200005 	bnez	$at,4096b8 <_usinitsema+0x2c>
  4096a4:	2407ffff 	li	$a3,-1
  4096a8:	0c102025 	jal	408094 <_setoserror>
  4096ac:	24040016 	li	$a0,22
  4096b0:	1000003a 	b	40979c <_usinitsema+0x110>
  4096b4:	2402ffff 	li	$v0,-1
  4096b8:	948f0014 	lhu	$t7,20($a0)
  4096bc:	a485000c 	sh	$a1,12($a0)
  4096c0:	a480000e 	sh	$zero,14($a0)
  4096c4:	a4800012 	sh	$zero,18($a0)
  4096c8:	a4800010 	sh	$zero,16($a0)
  4096cc:	ac870004 	sw	$a3,4($a0)
  4096d0:	00001025 	move	$v0,$zero
  4096d4:	05e00007 	bltz	$t7,4096f4 <_usinitsema+0x68>
  4096d8:	24830028 	addiu	$v1,$a0,40
  4096dc:	ac600000 	sw	$zero,0($v1)
  4096e0:	94d80014 	lhu	$t8,20($a2)
  4096e4:	24420001 	addiu	$v0,$v0,1
  4096e8:	0302082a 	slt	$at,$t8,$v0
  4096ec:	1020fffb 	beqz	$at,4096dc <_usinitsema+0x50>
  4096f0:	24630004 	addiu	$v1,$v1,4
  4096f4:	94830016 	lhu	$v1,22($a0)
  4096f8:	00000000 	nop
  4096fc:	10600026 	beqz	$v1,409798 <_usinitsema+0x10c>
  409700:	30790001 	andi	$t9,$v1,0x1
  409704:	13200015 	beqz	$t9,40975c <_usinitsema+0xd0>
  409708:	00601025 	move	$v0,$v1
  40970c:	8c88001c 	lw	$t0,28($a0)
  409710:	00000000 	nop
  409714:	ad000004 	sw	$zero,4($t0)
  409718:	8c89001c 	lw	$t1,28($a0)
  40971c:	00000000 	nop
  409720:	ad200000 	sw	$zero,0($t1)
  409724:	8c8a001c 	lw	$t2,28($a0)
  409728:	00000000 	nop
  40972c:	ad400008 	sw	$zero,8($t2)
  409730:	8c8b001c 	lw	$t3,28($a0)
  409734:	00000000 	nop
  409738:	ad60000c 	sw	$zero,12($t3)
  40973c:	8c8c001c 	lw	$t4,28($a0)
  409740:	00000000 	nop
  409744:	ad800010 	sw	$zero,16($t4)
  409748:	8c8d001c 	lw	$t5,28($a0)
  40974c:	00000000 	nop
  409750:	ada00014 	sw	$zero,20($t5)
  409754:	94820016 	lhu	$v0,22($a0)
  409758:	00000000 	nop
  40975c:	304e0002 	andi	$t6,$v0,0x2
  409760:	11c0000e 	beqz	$t6,40979c <_usinitsema+0x110>
  409764:	00001025 	move	$v0,$zero
  409768:	8c8f0020 	lw	$t7,32($a0)
  40976c:	2402ffff 	li	$v0,-1
  409770:	ade70000 	sw	$a3,0($t7)
  409774:	8c980020 	lw	$t8,32($a0)
  409778:	00000000 	nop
  40977c:	af020004 	sw	$v0,4($t8)
  409780:	8c990020 	lw	$t9,32($a0)
  409784:	00000000 	nop
  409788:	af270008 	sw	$a3,8($t9)
  40978c:	8c880020 	lw	$t0,32($a0)
  409790:	00000000 	nop
  409794:	ad02000c 	sw	$v0,12($t0)
  409798:	00001025 	move	$v0,$zero
  40979c:	8fbf0014 	lw	$ra,20($sp)
  4097a0:	27bd0018 	addiu	$sp,$sp,24
  4097a4:	03e00008 	jr	$ra
  4097a8:	00000000 	nop

004097ac <_usnewsema>:
  4097ac:	27bdffe0 	addiu	$sp,$sp,-32
  4097b0:	afb10018 	sw	$s1,24($sp)
  4097b4:	00808825 	move	$s1,$a0
  4097b8:	afbf001c 	sw	$ra,28($sp)
  4097bc:	afb00014 	sw	$s0,20($sp)
  4097c0:	afa50024 	sw	$a1,36($sp)
  4097c4:	8c840424 	lw	$a0,1060($a0)
  4097c8:	02202825 	move	$a1,$s1
  4097cc:	00047080 	sll	$t6,$a0,0x2
  4097d0:	0c103110 	jal	40c440 <_usmalloc>
  4097d4:	25c40028 	addiu	$a0,$t6,40
  4097d8:	14400005 	bnez	$v0,4097f0 <_usnewsema+0x44>
  4097dc:	00408025 	move	$s0,$v0
  4097e0:	0c102025 	jal	408094 <_setoserror>
  4097e4:	2404000c 	li	$a0,12
  4097e8:	10000025 	b	409880 <_usnewsema+0xd4>
  4097ec:	00001025 	move	$v0,$zero
  4097f0:	8e2f0424 	lw	$t7,1060($s1)
  4097f4:	24090004 	li	$t1,4
  4097f8:	25f8ffff 	addiu	$t8,$t7,-1
  4097fc:	a4580014 	sh	$t8,20($v0)
  409800:	8e390428 	lw	$t9,1064($s1)
  409804:	00000000 	nop
  409808:	33280004 	andi	$t0,$t9,0x4
  40980c:	11000003 	beqz	$t0,40981c <_usnewsema+0x70>
  409810:	00000000 	nop
  409814:	10000002 	b	409820 <_usnewsema+0x74>
  409818:	a4490016 	sh	$t1,22($v0)
  40981c:	a4400016 	sh	$zero,22($v0)
  409820:	ae00001c 	sw	$zero,28($s0)
  409824:	ae000020 	sw	$zero,32($s0)
  409828:	ae000008 	sw	$zero,8($s0)
  40982c:	ae110000 	sw	$s1,0($s0)
  409830:	8f99aeec 	lw	$t9,-20756($gp)
  409834:	02202025 	move	$a0,$s1
  409838:	0320f809 	jalr	$t9
  40983c:	00000000 	nop
  409840:	14400006 	bnez	$v0,40985c <_usnewsema+0xb0>
  409844:	ae020024 	sw	$v0,36($s0)
  409848:	02002025 	move	$a0,$s0
  40984c:	0c102629 	jal	4098a4 <_usfreesema>
  409850:	02202825 	move	$a1,$s1
  409854:	1000000a 	b	409880 <_usnewsema+0xd4>
  409858:	00001025 	move	$v0,$zero
  40985c:	8fa50024 	lw	$a1,36($sp)
  409860:	0c1025a3 	jal	40968c <_usinitsema>
  409864:	02002025 	move	$a0,$s0
  409868:	04410004 	bgez	$v0,40987c <_usnewsema+0xd0>
  40986c:	02002025 	move	$a0,$s0
  409870:	0c102629 	jal	4098a4 <_usfreesema>
  409874:	02202825 	move	$a1,$s1
  409878:	00008025 	move	$s0,$zero
  40987c:	02001025 	move	$v0,$s0
  409880:	8fbf001c 	lw	$ra,28($sp)
  409884:	8fb00014 	lw	$s0,20($sp)
  409888:	8fb10018 	lw	$s1,24($sp)
  40988c:	03e00008 	jr	$ra
  409890:	27bd0020 	addiu	$sp,$sp,32

00409894 <_ussemaspace>:
  409894:	00041880 	sll	$v1,$a0,0x2
  409898:	00631021 	addu	$v0,$v1,$v1
  40989c:	03e00008 	jr	$ra
  4098a0:	2442007c 	addiu	$v0,$v0,124

004098a4 <_usfreesema>:
  4098a4:	27bdffd8 	addiu	$sp,$sp,-40
  4098a8:	8f8e8ab0 	lw	$t6,-30032($gp)
  4098ac:	afbf0024 	sw	$ra,36($sp)
  4098b0:	afb10020 	sw	$s1,32($sp)
  4098b4:	afb0001c 	sw	$s0,28($sp)
  4098b8:	8c910000 	lw	$s1,0($a0)
  4098bc:	11c0000b 	beqz	$t6,4098ec <_usfreesema+0x48>
  4098c0:	00808025 	move	$s0,$a0
  4098c4:	12250009 	beq	$s1,$a1,4098ec <_usfreesema+0x48>
  4098c8:	00002025 	move	$a0,$zero
  4098cc:	3c0f0020 	lui	$t7,0x20
  4098d0:	8df80e00 	lw	$t8,3584($t7)
  4098d4:	3c050042 	lui	$a1,0x42
  4098d8:	24a5a330 	addiu	$a1,$a1,-23760
  4098dc:	02003025 	move	$a2,$s0
  4098e0:	02203825 	move	$a3,$s1
  4098e4:	0c1050fc 	jal	4143f0 <_uprint>
  4098e8:	afb80010 	sw	$t8,16($sp)
  4098ec:	96030016 	lhu	$v1,22($s0)
  4098f0:	00000000 	nop
  4098f4:	1060000e 	beqz	$v1,409930 <_usfreesema+0x8c>
  4098f8:	30790001 	andi	$t9,$v1,0x1
  4098fc:	13200006 	beqz	$t9,409918 <_usfreesema+0x74>
  409900:	00601025 	move	$v0,$v1
  409904:	8e04001c 	lw	$a0,28($s0)
  409908:	0c103119 	jal	40c464 <_usfree>
  40990c:	02202825 	move	$a1,$s1
  409910:	96020016 	lhu	$v0,22($s0)
  409914:	00000000 	nop
  409918:	30480002 	andi	$t0,$v0,0x2
  40991c:	11000004 	beqz	$t0,409930 <_usfreesema+0x8c>
  409920:	00000000 	nop
  409924:	8e040020 	lw	$a0,32($s0)
  409928:	0c103119 	jal	40c464 <_usfree>
  40992c:	02202825 	move	$a1,$s1
  409930:	8e040024 	lw	$a0,36($s0)
  409934:	8f99aef4 	lw	$t9,-20748($gp)
  409938:	10800003 	beqz	$a0,409948 <_usfreesema+0xa4>
  40993c:	00000000 	nop
  409940:	0320f809 	jalr	$t9
  409944:	02202825 	move	$a1,$s1
  409948:	a6000012 	sh	$zero,18($s0)
  40994c:	a6000010 	sh	$zero,16($s0)
  409950:	ae000000 	sw	$zero,0($s0)
  409954:	02002025 	move	$a0,$s0
  409958:	0c103119 	jal	40c464 <_usfree>
  40995c:	02202825 	move	$a1,$s1
  409960:	8fbf0024 	lw	$ra,36($sp)
  409964:	8fb0001c 	lw	$s0,28($sp)
  409968:	8fb10020 	lw	$s1,32($sp)
  40996c:	03e00008 	jr	$ra
  409970:	27bd0028 	addiu	$sp,$sp,40

00409974 <_usctlsema>:
  409974:	27bdffe0 	addiu	$sp,$sp,-32
  409978:	24affff7 	addiu	$t7,$a1,-9
  40997c:	afa60028 	sw	$a2,40($sp)
  409980:	afa7002c 	sw	$a3,44($sp)
  409984:	2de1000c 	sltiu	$at,$t7,12
  409988:	00803025 	move	$a2,$a0
  40998c:	afbf0014 	sw	$ra,20($sp)
  409990:	afa40020 	sw	$a0,32($sp)
  409994:	afa50024 	sw	$a1,36($sp)
  409998:	102000eb 	beqz	$at,409d48 <_usctlsema+0x3d4>
  40999c:	00003825 	move	$a3,$zero
  4099a0:	000f7880 	sll	$t7,$t7,0x2
  4099a4:	3c010042 	lui	$at,0x42
  4099a8:	002f0821 	addu	$at,$at,$t7
  4099ac:	8c2fa794 	lw	$t7,-22636($at)
  4099b0:	00000000 	nop
  4099b4:	01e00008 	jr	$t7
  4099b8:	00000000 	nop
  4099bc:	94d80016 	lhu	$t8,22($a2)
  4099c0:	24040018 	li	$a0,24
  4099c4:	33190001 	andi	$t9,$t8,0x1
  4099c8:	172000e3 	bnez	$t9,409d58 <_usctlsema+0x3e4>
  4099cc:	00e01025 	move	$v0,$a3
  4099d0:	8cc50000 	lw	$a1,0($a2)
  4099d4:	afa70018 	sw	$a3,24($sp)
  4099d8:	0c103110 	jal	40c440 <_usmalloc>
  4099dc:	afa60020 	sw	$a2,32($sp)
  4099e0:	8fa60020 	lw	$a2,32($sp)
  4099e4:	8fa70018 	lw	$a3,24($sp)
  4099e8:	14400005 	bnez	$v0,409a00 <_usctlsema+0x8c>
  4099ec:	acc2001c 	sw	$v0,28($a2)
  4099f0:	0c102025 	jal	408094 <_setoserror>
  4099f4:	2404000c 	li	$a0,12
  4099f8:	100000d7 	b	409d58 <_usctlsema+0x3e4>
  4099fc:	2402ffff 	li	$v0,-1
  409a00:	94c80016 	lhu	$t0,22($a2)
  409a04:	8cca001c 	lw	$t2,28($a2)
  409a08:	35090001 	ori	$t1,$t0,0x1
  409a0c:	a4c90016 	sh	$t1,22($a2)
  409a10:	ad400000 	sw	$zero,0($t2)
  409a14:	8ccb001c 	lw	$t3,28($a2)
  409a18:	00000000 	nop
  409a1c:	ad600004 	sw	$zero,4($t3)
  409a20:	8ccc001c 	lw	$t4,28($a2)
  409a24:	00000000 	nop
  409a28:	ad800008 	sw	$zero,8($t4)
  409a2c:	8ccd001c 	lw	$t5,28($a2)
  409a30:	00000000 	nop
  409a34:	ada0000c 	sw	$zero,12($t5)
  409a38:	8cce001c 	lw	$t6,28($a2)
  409a3c:	00000000 	nop
  409a40:	adc00010 	sw	$zero,16($t6)
  409a44:	8ccf001c 	lw	$t7,28($a2)
  409a48:	100000c2 	b	409d54 <_usctlsema+0x3e0>
  409a4c:	ade00014 	sw	$zero,20($t7)
  409a50:	94c20016 	lhu	$v0,22($a2)
  409a54:	00000000 	nop
  409a58:	30580001 	andi	$t8,$v0,0x1
  409a5c:	130000bd 	beqz	$t8,409d54 <_usctlsema+0x3e0>
  409a60:	3059fffe 	andi	$t9,$v0,0xfffe
  409a64:	a4d90016 	sh	$t9,22($a2)
  409a68:	8cc4001c 	lw	$a0,28($a2)
  409a6c:	8cc50000 	lw	$a1,0($a2)
  409a70:	0c103119 	jal	40c464 <_usfree>
  409a74:	afa70018 	sw	$a3,24($sp)
  409a78:	8fa70018 	lw	$a3,24($sp)
  409a7c:	100000b6 	b	409d58 <_usctlsema+0x3e4>
  409a80:	00e01025 	move	$v0,$a3
  409a84:	94c80016 	lhu	$t0,22($a2)
  409a88:	27a3002b 	addiu	$v1,$sp,43
  409a8c:	31090001 	andi	$t1,$t0,0x1
  409a90:	11200021 	beqz	$t1,409b18 <_usctlsema+0x1a4>
  409a94:	2401fffc 	li	$at,-4
  409a98:	8ccb001c 	lw	$t3,28($a2)
  409a9c:	00615024 	and	$t2,$v1,$at
  409aa0:	25430004 	addiu	$v1,$t2,4
  409aa4:	8c62fffc 	lw	$v0,-4($v1)
  409aa8:	8d6c0004 	lw	$t4,4($t3)
  409aac:	00000000 	nop
  409ab0:	ac4c0004 	sw	$t4,4($v0)
  409ab4:	8ccd001c 	lw	$t5,28($a2)
  409ab8:	00000000 	nop
  409abc:	8dae0000 	lw	$t6,0($t5)
  409ac0:	00000000 	nop
  409ac4:	ac4e0000 	sw	$t6,0($v0)
  409ac8:	8ccf001c 	lw	$t7,28($a2)
  409acc:	00000000 	nop
  409ad0:	8df80008 	lw	$t8,8($t7)
  409ad4:	00000000 	nop
  409ad8:	ac580008 	sw	$t8,8($v0)
  409adc:	8cd9001c 	lw	$t9,28($a2)
  409ae0:	00000000 	nop
  409ae4:	8f28000c 	lw	$t0,12($t9)
  409ae8:	00000000 	nop
  409aec:	ac48000c 	sw	$t0,12($v0)
  409af0:	8cc9001c 	lw	$t1,28($a2)
  409af4:	00000000 	nop
  409af8:	8d2a0010 	lw	$t2,16($t1)
  409afc:	00000000 	nop
  409b00:	ac4a0010 	sw	$t2,16($v0)
  409b04:	8ccb001c 	lw	$t3,28($a2)
  409b08:	00000000 	nop
  409b0c:	8d6c0014 	lw	$t4,20($t3)
  409b10:	10000090 	b	409d54 <_usctlsema+0x3e0>
  409b14:	ac4c0014 	sw	$t4,20($v0)
  409b18:	0c102025 	jal	408094 <_setoserror>
  409b1c:	24040016 	li	$a0,22
  409b20:	1000008c 	b	409d54 <_usctlsema+0x3e0>
  409b24:	2407ffff 	li	$a3,-1
  409b28:	94cd0016 	lhu	$t5,22($a2)
  409b2c:	00000000 	nop
  409b30:	31ae0001 	andi	$t6,$t5,0x1
  409b34:	11c00088 	beqz	$t6,409d58 <_usctlsema+0x3e4>
  409b38:	00e01025 	move	$v0,$a3
  409b3c:	8ccf001c 	lw	$t7,28($a2)
  409b40:	00000000 	nop
  409b44:	ade00004 	sw	$zero,4($t7)
  409b48:	8cd8001c 	lw	$t8,28($a2)
  409b4c:	00000000 	nop
  409b50:	af000000 	sw	$zero,0($t8)
  409b54:	8cd9001c 	lw	$t9,28($a2)
  409b58:	00000000 	nop
  409b5c:	af200008 	sw	$zero,8($t9)
  409b60:	8cc8001c 	lw	$t0,28($a2)
  409b64:	00000000 	nop
  409b68:	ad00000c 	sw	$zero,12($t0)
  409b6c:	8cc9001c 	lw	$t1,28($a2)
  409b70:	00000000 	nop
  409b74:	ad200010 	sw	$zero,16($t1)
  409b78:	8cca001c 	lw	$t2,28($a2)
  409b7c:	10000075 	b	409d54 <_usctlsema+0x3e0>
  409b80:	ad400014 	sw	$zero,20($t2)
  409b84:	94cb0016 	lhu	$t3,22($a2)
  409b88:	24040010 	li	$a0,16
  409b8c:	316c0002 	andi	$t4,$t3,0x2
  409b90:	15800071 	bnez	$t4,409d58 <_usctlsema+0x3e4>
  409b94:	00e01025 	move	$v0,$a3
  409b98:	8cc50000 	lw	$a1,0($a2)
  409b9c:	afa70018 	sw	$a3,24($sp)
  409ba0:	0c103110 	jal	40c440 <_usmalloc>
  409ba4:	afa60020 	sw	$a2,32($sp)
  409ba8:	8fa60020 	lw	$a2,32($sp)
  409bac:	8fa70018 	lw	$a3,24($sp)
  409bb0:	14400005 	bnez	$v0,409bc8 <_usctlsema+0x254>
  409bb4:	acc20020 	sw	$v0,32($a2)
  409bb8:	0c102025 	jal	408094 <_setoserror>
  409bbc:	2404000c 	li	$a0,12
  409bc0:	10000065 	b	409d58 <_usctlsema+0x3e4>
  409bc4:	2402ffff 	li	$v0,-1
  409bc8:	94cd0016 	lhu	$t5,22($a2)
  409bcc:	8ccf0020 	lw	$t7,32($a2)
  409bd0:	35ae0002 	ori	$t6,$t5,0x2
  409bd4:	2402ffff 	li	$v0,-1
  409bd8:	a4ce0016 	sh	$t6,22($a2)
  409bdc:	ade20000 	sw	$v0,0($t7)
  409be0:	8cd80020 	lw	$t8,32($a2)
  409be4:	2403ffff 	li	$v1,-1
  409be8:	af030004 	sw	$v1,4($t8)
  409bec:	8cd90020 	lw	$t9,32($a2)
  409bf0:	00000000 	nop
  409bf4:	af220008 	sw	$v0,8($t9)
  409bf8:	8cc80020 	lw	$t0,32($a2)
  409bfc:	10000055 	b	409d54 <_usctlsema+0x3e0>
  409c00:	ad03000c 	sw	$v1,12($t0)
  409c04:	94c20016 	lhu	$v0,22($a2)
  409c08:	00000000 	nop
  409c0c:	30490002 	andi	$t1,$v0,0x2
  409c10:	11200050 	beqz	$t1,409d54 <_usctlsema+0x3e0>
  409c14:	304afffd 	andi	$t2,$v0,0xfffd
  409c18:	a4ca0016 	sh	$t2,22($a2)
  409c1c:	8cc40020 	lw	$a0,32($a2)
  409c20:	8cc50000 	lw	$a1,0($a2)
  409c24:	0c103119 	jal	40c464 <_usfree>
  409c28:	afa70018 	sw	$a3,24($sp)
  409c2c:	8fa70018 	lw	$a3,24($sp)
  409c30:	10000049 	b	409d58 <_usctlsema+0x3e4>
  409c34:	00e01025 	move	$v0,$a3
  409c38:	94cb0016 	lhu	$t3,22($a2)
  409c3c:	27a3002b 	addiu	$v1,$sp,43
  409c40:	316c0002 	andi	$t4,$t3,0x2
  409c44:	11800017 	beqz	$t4,409ca4 <_usctlsema+0x330>
  409c48:	2401fffc 	li	$at,-4
  409c4c:	8cce0020 	lw	$t6,32($a2)
  409c50:	00616824 	and	$t5,$v1,$at
  409c54:	25a30004 	addiu	$v1,$t5,4
  409c58:	8c62fffc 	lw	$v0,-4($v1)
  409c5c:	8dcf0000 	lw	$t7,0($t6)
  409c60:	00000000 	nop
  409c64:	ac4f0000 	sw	$t7,0($v0)
  409c68:	8cd80020 	lw	$t8,32($a2)
  409c6c:	00000000 	nop
  409c70:	8f190004 	lw	$t9,4($t8)
  409c74:	00000000 	nop
  409c78:	ac590004 	sw	$t9,4($v0)
  409c7c:	8cc80020 	lw	$t0,32($a2)
  409c80:	00000000 	nop
  409c84:	8d090008 	lw	$t1,8($t0)
  409c88:	00000000 	nop
  409c8c:	ac490008 	sw	$t1,8($v0)
  409c90:	8cca0020 	lw	$t2,32($a2)
  409c94:	00000000 	nop
  409c98:	8d4b000c 	lw	$t3,12($t2)
  409c9c:	1000002d 	b	409d54 <_usctlsema+0x3e0>
  409ca0:	ac4b000c 	sw	$t3,12($v0)
  409ca4:	0c102025 	jal	408094 <_setoserror>
  409ca8:	24040016 	li	$a0,22
  409cac:	10000029 	b	409d54 <_usctlsema+0x3e0>
  409cb0:	2407ffff 	li	$a3,-1
  409cb4:	94cc0016 	lhu	$t4,22($a2)
  409cb8:	00000000 	nop
  409cbc:	318d0002 	andi	$t5,$t4,0x2
  409cc0:	11a00025 	beqz	$t5,409d58 <_usctlsema+0x3e4>
  409cc4:	00e01025 	move	$v0,$a3
  409cc8:	8cce0020 	lw	$t6,32($a2)
  409ccc:	2402ffff 	li	$v0,-1
  409cd0:	adc20000 	sw	$v0,0($t6)
  409cd4:	8ccf0020 	lw	$t7,32($a2)
  409cd8:	2403ffff 	li	$v1,-1
  409cdc:	ade30004 	sw	$v1,4($t7)
  409ce0:	8cd80020 	lw	$t8,32($a2)
  409ce4:	00000000 	nop
  409ce8:	af020008 	sw	$v0,8($t8)
  409cec:	8cd90020 	lw	$t9,32($a2)
  409cf0:	10000018 	b	409d54 <_usctlsema+0x3e0>
  409cf4:	af23000c 	sw	$v1,12($t9)
  409cf8:	94c80016 	lhu	$t0,22($a2)
  409cfc:	00000000 	nop
  409d00:	35090004 	ori	$t1,$t0,0x4
  409d04:	10000013 	b	409d54 <_usctlsema+0x3e0>
  409d08:	a4c90016 	sh	$t1,22($a2)
  409d0c:	94ca0016 	lhu	$t2,22($a2)
  409d10:	00000000 	nop
  409d14:	314bfffb 	andi	$t3,$t2,0xfffb
  409d18:	1000000e 	b	409d54 <_usctlsema+0x3e0>
  409d1c:	a4cb0016 	sh	$t3,22($a2)
  409d20:	94cc0016 	lhu	$t4,22($a2)
  409d24:	00000000 	nop
  409d28:	358d0010 	ori	$t5,$t4,0x10
  409d2c:	10000009 	b	409d54 <_usctlsema+0x3e0>
  409d30:	a4cd0016 	sh	$t5,22($a2)
  409d34:	94ce0016 	lhu	$t6,22($a2)
  409d38:	00000000 	nop
  409d3c:	31cfffef 	andi	$t7,$t6,0xffef
  409d40:	10000004 	b	409d54 <_usctlsema+0x3e0>
  409d44:	a4cf0016 	sh	$t7,22($a2)
  409d48:	0c102025 	jal	408094 <_setoserror>
  409d4c:	24040016 	li	$a0,22
  409d50:	2407ffff 	li	$a3,-1
  409d54:	00e01025 	move	$v0,$a3
  409d58:	8fbf0014 	lw	$ra,20($sp)
  409d5c:	27bd0020 	addiu	$sp,$sp,32
  409d60:	03e00008 	jr	$ra
  409d64:	00000000 	nop

00409d68 <_usdumpsema>:
  409d68:	27bdffc8 	addiu	$sp,$sp,-56
  409d6c:	afbf0024 	sw	$ra,36($sp)
  409d70:	afb10020 	sw	$s1,32($sp)
  409d74:	afb0001c 	sw	$s0,28($sp)
  409d78:	afa60040 	sw	$a2,64($sp)
  409d7c:	8c8e0000 	lw	$t6,0($a0)
  409d80:	00808025 	move	$s0,$a0
  409d84:	00a08825 	move	$s1,$a1
  409d88:	0c1025a0 	jal	409680 <_ustestsema>
  409d8c:	afae0030 	sw	$t6,48($sp)
  409d90:	8faf0030 	lw	$t7,48($sp)
  409d94:	8f99aee4 	lw	$t9,-20764($gp)
  409d98:	afa2002c 	sw	$v0,44($sp)
  409d9c:	8de40444 	lw	$a0,1092($t7)
  409da0:	0320f809 	jalr	$t9
  409da4:	00000000 	nop
  409da8:	8fb8002c 	lw	$t8,44($sp)
  409dac:	3c050042 	lui	$a1,0x42
  409db0:	8fa60040 	lw	$a2,64($sp)
  409db4:	24a5a364 	addiu	$a1,$a1,-23708
  409db8:	02202025 	move	$a0,$s1
  409dbc:	02003825 	move	$a3,$s0
  409dc0:	0c103cb8 	jal	40f2e0 <fprintf>
  409dc4:	afb80010 	sw	$t8,16($sp)
  409dc8:	96080016 	lhu	$t0,22($s0)
  409dcc:	3c050042 	lui	$a1,0x42
  409dd0:	31090008 	andi	$t1,$t0,0x8
  409dd4:	11200007 	beqz	$t1,409df4 <_usdumpsema+0x8c>
  409dd8:	02202025 	move	$a0,$s1
  409ddc:	8e060018 	lw	$a2,24($s0)
  409de0:	02202025 	move	$a0,$s1
  409de4:	0c103cb8 	jal	40f2e0 <fprintf>
  409de8:	24a5a384 	addiu	$a1,$a1,-23676
  409dec:	10000004 	b	409e00 <_usdumpsema+0x98>
  409df0:	96030016 	lhu	$v1,22($s0)
  409df4:	0c103cb8 	jal	40f2e0 <fprintf>
  409df8:	27858860 	addiu	$a1,$gp,-30624
  409dfc:	96030016 	lhu	$v1,22($s0)
  409e00:	00000000 	nop
  409e04:	306a0001 	andi	$t2,$v1,0x1
  409e08:	1140001a 	beqz	$t2,409e74 <_usdumpsema+0x10c>
  409e0c:	306e0002 	andi	$t6,$v1,0x2
  409e10:	0c1025a0 	jal	409680 <_ustestsema>
  409e14:	02002025 	move	$a0,$s0
  409e18:	8e03001c 	lw	$v1,28($s0)
  409e1c:	3c050042 	lui	$a1,0x42
  409e20:	8c6b0014 	lw	$t3,20($v1)
  409e24:	8c670010 	lw	$a3,16($v1)
  409e28:	24a5a398 	addiu	$a1,$a1,-23656
  409e2c:	02202025 	move	$a0,$s1
  409e30:	00403025 	move	$a2,$v0
  409e34:	0c103cb8 	jal	40f2e0 <fprintf>
  409e38:	afab0010 	sw	$t3,16($sp)
  409e3c:	8e03001c 	lw	$v1,28($s0)
  409e40:	3c050042 	lui	$a1,0x42
  409e44:	8c6c0008 	lw	$t4,8($v1)
  409e48:	8c660004 	lw	$a2,4($v1)
  409e4c:	8c670000 	lw	$a3,0($v1)
  409e50:	afac0010 	sw	$t4,16($sp)
  409e54:	8c6d000c 	lw	$t5,12($v1)
  409e58:	24a5a3cc 	addiu	$a1,$a1,-23604
  409e5c:	02202025 	move	$a0,$s1
  409e60:	0c103cb8 	jal	40f2e0 <fprintf>
  409e64:	afad0014 	sw	$t5,20($sp)
  409e68:	96030016 	lhu	$v1,22($s0)
  409e6c:	00000000 	nop
  409e70:	306e0002 	andi	$t6,$v1,0x2
  409e74:	11c0000e 	beqz	$t6,409eb0 <_usdumpsema+0x148>
  409e78:	02202025 	move	$a0,$s1
  409e7c:	8e030020 	lw	$v1,32($s0)
  409e80:	3c050042 	lui	$a1,0x42
  409e84:	8c660000 	lw	$a2,0($v1)
  409e88:	8c670004 	lw	$a3,4($v1)
  409e8c:	0c103cb8 	jal	40f2e0 <fprintf>
  409e90:	24a5a408 	addiu	$a1,$a1,-23544
  409e94:	8e030020 	lw	$v1,32($s0)
  409e98:	3c050042 	lui	$a1,0x42
  409e9c:	8c660008 	lw	$a2,8($v1)
  409ea0:	8c67000c 	lw	$a3,12($v1)
  409ea4:	24a5a43c 	addiu	$a1,$a1,-23492
  409ea8:	0c103cb8 	jal	40f2e0 <fprintf>
  409eac:	02202025 	move	$a0,$s1
  409eb0:	8faf0030 	lw	$t7,48($sp)
  409eb4:	8f99aee8 	lw	$t9,-20760($gp)
  409eb8:	8de40444 	lw	$a0,1092($t7)
  409ebc:	0320f809 	jalr	$t9
  409ec0:	00000000 	nop
  409ec4:	8fbf0024 	lw	$ra,36($sp)
  409ec8:	8fb0001c 	lw	$s0,28($sp)
  409ecc:	8fb10020 	lw	$s1,32($sp)
  409ed0:	27bd0038 	addiu	$sp,$sp,56
  409ed4:	03e00008 	jr	$ra
  409ed8:	00001025 	move	$v0,$zero
  409edc:	27bdffd8 	addiu	$sp,$sp,-40
  409ee0:	afbf001c 	sw	$ra,28($sp)
  409ee4:	afb00018 	sw	$s0,24($sp)
  409ee8:	afa40028 	sw	$a0,40($sp)
  409eec:	afa5002c 	sw	$a1,44($sp)
  409ef0:	afa60030 	sw	$a2,48($sp)
  409ef4:	afa70034 	sw	$a3,52($sp)
  409ef8:	8c900000 	lw	$s0,0($a0)
  409efc:	24040020 	li	$a0,32
  409f00:	8e02043c 	lw	$v0,1084($s0)
  409f04:	00000000 	nop
  409f08:	10400006 	beqz	$v0,409f24 <_usdumpsema+0x1bc>
  409f0c:	00000000 	nop
  409f10:	8e0f0434 	lw	$t7,1076($s0)
  409f14:	00000000 	nop
  409f18:	004f082b 	sltu	$at,$v0,$t7
  409f1c:	14200005 	bnez	$at,409f34 <_usdumpsema+0x1cc>
  409f20:	00000000 	nop
  409f24:	0c103110 	jal	40c440 <_usmalloc>
  409f28:	02002825 	move	$a1,$s0
  409f2c:	1440001c 	bnez	$v0,409fa0 <_usdumpsema+0x238>
  409f30:	00401825 	move	$v1,$v0
  409f34:	8f99aee4 	lw	$t9,-20764($gp)
  409f38:	8e040440 	lw	$a0,1088($s0)
  409f3c:	0320f809 	jalr	$t9
  409f40:	00000000 	nop
  409f44:	8e180438 	lw	$t8,1080($s0)
  409f48:	8e090434 	lw	$t1,1076($s0)
  409f4c:	27080001 	addiu	$t0,$t8,1
  409f50:	15200007 	bnez	$t1,409f70 <_usdumpsema+0x208>
  409f54:	ae080438 	sw	$t0,1080($s0)
  409f58:	8f99aee8 	lw	$t9,-20760($gp)
  409f5c:	8e040440 	lw	$a0,1088($s0)
  409f60:	0320f809 	jalr	$t9
  409f64:	00000000 	nop
  409f68:	1000003b 	b	40a058 <_usdumpsema+0x2f0>
  409f6c:	8fbf001c 	lw	$ra,28($sp)
  409f70:	8e03042c 	lw	$v1,1068($s0)
  409f74:	00000000 	nop
  409f78:	8c620018 	lw	$v0,24($v1)
  409f7c:	00000000 	nop
  409f80:	10400003 	beqz	$v0,409f90 <_usdumpsema+0x228>
  409f84:	00000000 	nop
  409f88:	10000002 	b	409f94 <_usdumpsema+0x22c>
  409f8c:	ac40001c 	sw	$zero,28($v0)
  409f90:	ae000430 	sw	$zero,1072($s0)
  409f94:	8c6a0018 	lw	$t2,24($v1)
  409f98:	10000009 	b	409fc0 <_usdumpsema+0x258>
  409f9c:	ae0a042c 	sw	$t2,1068($s0)
  409fa0:	8f99aee4 	lw	$t9,-20764($gp)
  409fa4:	8e040440 	lw	$a0,1088($s0)
  409fa8:	0320f809 	jalr	$t9
  409fac:	afa30020 	sw	$v1,32($sp)
  409fb0:	8e0b0434 	lw	$t3,1076($s0)
  409fb4:	8fa30020 	lw	$v1,32($sp)
  409fb8:	256c0001 	addiu	$t4,$t3,1
  409fbc:	ae0c0434 	sw	$t4,1076($s0)
  409fc0:	8fad0028 	lw	$t5,40($sp)
  409fc4:	00000000 	nop
  409fc8:	ac6d0000 	sw	$t5,0($v1)
  409fcc:	8fae002c 	lw	$t6,44($sp)
  409fd0:	00000000 	nop
  409fd4:	ac6e0004 	sw	$t6,4($v1)
  409fd8:	8faf0030 	lw	$t7,48($sp)
  409fdc:	00000000 	nop
  409fe0:	ac6f0008 	sw	$t7,8($v1)
  409fe4:	8fb8003c 	lw	$t8,60($sp)
  409fe8:	00000000 	nop
  409fec:	ac78000c 	sw	$t8,12($v1)
  409ff0:	8fa80034 	lw	$t0,52($sp)
  409ff4:	00000000 	nop
  409ff8:	ac680010 	sw	$t0,16($v1)
  409ffc:	8fa90038 	lw	$t1,56($sp)
  40a000:	ac600018 	sw	$zero,24($v1)
  40a004:	ac690014 	sw	$t1,20($v1)
  40a008:	8e0a042c 	lw	$t2,1068($s0)
  40a00c:	00000000 	nop
  40a010:	15400005 	bnez	$t2,40a028 <_usdumpsema+0x2c0>
  40a014:	00000000 	nop
  40a018:	ae03042c 	sw	$v1,1068($s0)
  40a01c:	ae030430 	sw	$v1,1072($s0)
  40a020:	10000008 	b	40a044 <_usdumpsema+0x2dc>
  40a024:	ac60001c 	sw	$zero,28($v1)
  40a028:	8e190430 	lw	$t9,1072($s0)
  40a02c:	00000000 	nop
  40a030:	af230018 	sw	$v1,24($t9)
  40a034:	8e0b0430 	lw	$t3,1072($s0)
  40a038:	00000000 	nop
  40a03c:	ac6b001c 	sw	$t3,28($v1)
  40a040:	ae030430 	sw	$v1,1072($s0)
  40a044:	8f99aee8 	lw	$t9,-20760($gp)
  40a048:	8e040440 	lw	$a0,1088($s0)
  40a04c:	0320f809 	jalr	$t9
  40a050:	00000000 	nop
  40a054:	8fbf001c 	lw	$ra,28($sp)
  40a058:	8fb00018 	lw	$s0,24($sp)
  40a05c:	03e00008 	jr	$ra
  40a060:	27bd0028 	addiu	$sp,$sp,40

0040a064 <_usdumphist>:
  40a064:	27bdffa0 	addiu	$sp,$sp,-96
  40a068:	afbf003c 	sw	$ra,60($sp)
  40a06c:	afb40038 	sw	$s4,56($sp)
  40a070:	afb30034 	sw	$s3,52($sp)
  40a074:	afb20030 	sw	$s2,48($sp)
  40a078:	afb1002c 	sw	$s1,44($sp)
  40a07c:	afb00028 	sw	$s0,40($sp)
  40a080:	8c870000 	lw	$a3,0($a0)
  40a084:	00808825 	move	$s1,$a0
  40a088:	14a00003 	bnez	$a1,40a098 <_usdumphist+0x34>
  40a08c:	00a09825 	move	$s3,$a1
  40a090:	3c130042 	lui	$s3,0x42
  40a094:	2673ddc4 	addiu	$s3,$s3,-8764
  40a098:	24040007 	li	$a0,7
  40a09c:	00e02825 	move	$a1,$a3
  40a0a0:	0c1051cc 	jal	414730 <_usconfig>
  40a0a4:	27a6004c 	addiu	$a2,$sp,76
  40a0a8:	14400053 	bnez	$v0,40a1f8 <_usdumphist+0x194>
  40a0ac:	02602025 	move	$a0,$s3
  40a0b0:	8fae0054 	lw	$t6,84($sp)
  40a0b4:	8fa6004c 	lw	$a2,76($sp)
  40a0b8:	3c050042 	lui	$a1,0x42
  40a0bc:	8fa70050 	lw	$a3,80($sp)
  40a0c0:	24a5a470 	addiu	$a1,$a1,-23440
  40a0c4:	0c103cb8 	jal	40f2e0 <fprintf>
  40a0c8:	afae0010 	sw	$t6,16($sp)
  40a0cc:	3c050042 	lui	$a1,0x42
  40a0d0:	24a5a49c 	addiu	$a1,$a1,-23396
  40a0d4:	0c103cb8 	jal	40f2e0 <fprintf>
  40a0d8:	02602025 	move	$a0,$s3
  40a0dc:	8fb0004c 	lw	$s0,76($sp)
  40a0e0:	00001825 	move	$v1,$zero
  40a0e4:	1200001f 	beqz	$s0,40a164 <_usdumphist+0x100>
  40a0e8:	3c140042 	lui	$s4,0x42
  40a0ec:	3c120042 	lui	$s2,0x42
  40a0f0:	2652d620 	addiu	$s2,$s2,-10720
  40a0f4:	2694a4b0 	addiu	$s4,$s4,-23376
  40a0f8:	12200005 	beqz	$s1,40a110 <_usdumphist+0xac>
  40a0fc:	00000000 	nop
  40a100:	8e0f0000 	lw	$t7,0($s0)
  40a104:	00000000 	nop
  40a108:	162f0012 	bne	$s1,$t7,40a154 <_usdumphist+0xf0>
  40a10c:	00000000 	nop
  40a110:	8e180004 	lw	$t8,4($s0)
  40a114:	8e090008 	lw	$t1,8($s0)
  40a118:	0018c880 	sll	$t9,$t8,0x2
  40a11c:	02594021 	addu	$t0,$s2,$t9
  40a120:	8d060000 	lw	$a2,0($t0)
  40a124:	8e070000 	lw	$a3,0($s0)
  40a128:	afa90010 	sw	$t1,16($sp)
  40a12c:	8e0a0010 	lw	$t2,16($s0)
  40a130:	02602025 	move	$a0,$s3
  40a134:	afaa0014 	sw	$t2,20($sp)
  40a138:	8e0b0014 	lw	$t3,20($s0)
  40a13c:	02802825 	move	$a1,$s4
  40a140:	afab0018 	sw	$t3,24($sp)
  40a144:	8e0c000c 	lw	$t4,12($s0)
  40a148:	0c103cb8 	jal	40f2e0 <fprintf>
  40a14c:	afac001c 	sw	$t4,28($sp)
  40a150:	02001825 	move	$v1,$s0
  40a154:	8e10001c 	lw	$s0,28($s0)
  40a158:	00000000 	nop
  40a15c:	1600ffe6 	bnez	$s0,40a0f8 <_usdumphist+0x94>
  40a160:	00000000 	nop
  40a164:	3c120042 	lui	$s2,0x42
  40a168:	3c050042 	lui	$a1,0x42
  40a16c:	2652d620 	addiu	$s2,$s2,-10720
  40a170:	24a5a4e0 	addiu	$a1,$a1,-23328
  40a174:	02602025 	move	$a0,$s3
  40a178:	0c103cb8 	jal	40f2e0 <fprintf>
  40a17c:	afa30058 	sw	$v1,88($sp)
  40a180:	8fb00058 	lw	$s0,88($sp)
  40a184:	3c140042 	lui	$s4,0x42
  40a188:	1200001b 	beqz	$s0,40a1f8 <_usdumphist+0x194>
  40a18c:	2694a4f4 	addiu	$s4,$s4,-23308
  40a190:	12200005 	beqz	$s1,40a1a8 <_usdumphist+0x144>
  40a194:	00000000 	nop
  40a198:	8e0d0000 	lw	$t5,0($s0)
  40a19c:	00000000 	nop
  40a1a0:	162d0011 	bne	$s1,$t5,40a1e8 <_usdumphist+0x184>
  40a1a4:	00000000 	nop
  40a1a8:	8e0e0004 	lw	$t6,4($s0)
  40a1ac:	8e190008 	lw	$t9,8($s0)
  40a1b0:	000e7880 	sll	$t7,$t6,0x2
  40a1b4:	024fc021 	addu	$t8,$s2,$t7
  40a1b8:	8f060000 	lw	$a2,0($t8)
  40a1bc:	8e070000 	lw	$a3,0($s0)
  40a1c0:	afb90010 	sw	$t9,16($sp)
  40a1c4:	8e080010 	lw	$t0,16($s0)
  40a1c8:	02602025 	move	$a0,$s3
  40a1cc:	afa80014 	sw	$t0,20($sp)
  40a1d0:	8e090014 	lw	$t1,20($s0)
  40a1d4:	02802825 	move	$a1,$s4
  40a1d8:	afa90018 	sw	$t1,24($sp)
  40a1dc:	8e0a000c 	lw	$t2,12($s0)
  40a1e0:	0c103cb8 	jal	40f2e0 <fprintf>
  40a1e4:	afaa001c 	sw	$t2,28($sp)
  40a1e8:	8e100018 	lw	$s0,24($s0)
  40a1ec:	00000000 	nop
  40a1f0:	1600ffe7 	bnez	$s0,40a190 <_usdumphist+0x12c>
  40a1f4:	00000000 	nop
  40a1f8:	8fbf003c 	lw	$ra,60($sp)
  40a1fc:	8fb00028 	lw	$s0,40($sp)
  40a200:	8fb1002c 	lw	$s1,44($sp)
  40a204:	8fb20030 	lw	$s2,48($sp)
  40a208:	8fb30034 	lw	$s3,52($sp)
  40a20c:	8fb40038 	lw	$s4,56($sp)
  40a210:	03e00008 	jr	$ra
  40a214:	27bd0060 	addiu	$sp,$sp,96

0040a218 <_usnewpollsema>:
  40a218:	27bdffd0 	addiu	$sp,$sp,-48
  40a21c:	afbf001c 	sw	$ra,28($sp)
  40a220:	afb00018 	sw	$s0,24($sp)
  40a224:	00808025 	move	$s0,$a0
  40a228:	0c1025eb 	jal	4097ac <_usnewsema>
  40a22c:	afa40024 	sw	$a0,36($sp)
  40a230:	8fa70024 	lw	$a3,36($sp)
  40a234:	14400003 	bnez	$v0,40a244 <_usnewpollsema+0x2c>
  40a238:	00403025 	move	$a2,$v0
  40a23c:	10000026 	b	40a2d8 <_usnewpollsema+0xc0>
  40a240:	00001025 	move	$v0,$zero
  40a244:	94ce0016 	lhu	$t6,22($a2)
  40a248:	acc00018 	sw	$zero,24($a2)
  40a24c:	35cf0008 	ori	$t7,$t6,0x8
  40a250:	a4cf0016 	sh	$t7,22($a2)
  40a254:	8e040424 	lw	$a0,1060($s0)
  40a258:	afa70024 	sw	$a3,36($sp)
  40a25c:	0004c040 	sll	$t8,$a0,0x1
  40a260:	03002025 	move	$a0,$t8
  40a264:	afa6002c 	sw	$a2,44($sp)
  40a268:	0c103110 	jal	40c440 <_usmalloc>
  40a26c:	02002825 	move	$a1,$s0
  40a270:	8fa6002c 	lw	$a2,44($sp)
  40a274:	8fa70024 	lw	$a3,36($sp)
  40a278:	14400008 	bnez	$v0,40a29c <_usnewpollsema+0x84>
  40a27c:	acc20008 	sw	$v0,8($a2)
  40a280:	00c02025 	move	$a0,$a2
  40a284:	0c102629 	jal	4098a4 <_usfreesema>
  40a288:	02002825 	move	$a1,$s0
  40a28c:	0c102025 	jal	408094 <_setoserror>
  40a290:	2404000c 	li	$a0,12
  40a294:	10000010 	b	40a2d8 <_usnewpollsema+0xc0>
  40a298:	00001025 	move	$v0,$zero
  40a29c:	8e190424 	lw	$t9,1060($s0)
  40a2a0:	00001025 	move	$v0,$zero
  40a2a4:	1b20000b 	blez	$t9,40a2d4 <_usnewpollsema+0xbc>
  40a2a8:	00001825 	move	$v1,$zero
  40a2ac:	2404ffff 	li	$a0,-1
  40a2b0:	8cc80008 	lw	$t0,8($a2)
  40a2b4:	24420001 	addiu	$v0,$v0,1
  40a2b8:	01034821 	addu	$t1,$t0,$v1
  40a2bc:	a5240000 	sh	$a0,0($t1)
  40a2c0:	8cea0424 	lw	$t2,1060($a3)
  40a2c4:	24630002 	addiu	$v1,$v1,2
  40a2c8:	004a082a 	slt	$at,$v0,$t2
  40a2cc:	1420fff8 	bnez	$at,40a2b0 <_usnewpollsema+0x98>
  40a2d0:	00000000 	nop
  40a2d4:	00c01025 	move	$v0,$a2
  40a2d8:	8fbf001c 	lw	$ra,28($sp)
  40a2dc:	8fb00018 	lw	$s0,24($sp)
  40a2e0:	03e00008 	jr	$ra
  40a2e4:	27bd0030 	addiu	$sp,$sp,48

0040a2e8 <_usfreepollsema>:
  40a2e8:	27bdffe8 	addiu	$sp,$sp,-24
  40a2ec:	afbf0014 	sw	$ra,20($sp)
  40a2f0:	afa40018 	sw	$a0,24($sp)
  40a2f4:	afa5001c 	sw	$a1,28($sp)
  40a2f8:	8c840008 	lw	$a0,8($a0)
  40a2fc:	0c103119 	jal	40c464 <_usfree>
  40a300:	00000000 	nop
  40a304:	8fa40018 	lw	$a0,24($sp)
  40a308:	8fa5001c 	lw	$a1,28($sp)
  40a30c:	0c102629 	jal	4098a4 <_usfreesema>
  40a310:	00000000 	nop
  40a314:	8fbf0014 	lw	$ra,20($sp)
  40a318:	27bd0018 	addiu	$sp,$sp,24
  40a31c:	03e00008 	jr	$ra
  40a320:	00001025 	move	$v0,$zero

0040a324 <_usopenpollsema>:
  40a324:	27bdff18 	addiu	$sp,$sp,-232
  40a328:	afbf0034 	sw	$ra,52($sp)
  40a32c:	afb40030 	sw	$s4,48($sp)
  40a330:	afb3002c 	sw	$s3,44($sp)
  40a334:	afb20028 	sw	$s2,40($sp)
  40a338:	afb10024 	sw	$s1,36($sp)
  40a33c:	afb00020 	sw	$s0,32($sp)
  40a340:	afa500ec 	sw	$a1,236($sp)
  40a344:	8c940000 	lw	$s4,0($a0)
  40a348:	00809825 	move	$s3,$a0
  40a34c:	0c104f39 	jal	413ce4 <__usfastadd>
  40a350:	02802025 	move	$a0,$s4
  40a354:	2412ffff 	li	$s2,-1
  40a358:	14520003 	bne	$v0,$s2,40a368 <_usopenpollsema+0x44>
  40a35c:	a7a200ce 	sh	$v0,206($sp)
  40a360:	100000b9 	b	40a648 <_usopenpollsema+0x324>
  40a364:	2402ffff 	li	$v0,-1
  40a368:	0c104a0a 	jal	412828 <_usclean_tidmap>
  40a36c:	02802025 	move	$a0,$s4
  40a370:	8e840a64 	lw	$a0,2660($s4)
  40a374:	0c102034 	jal	4080d0 <_uspsema>
  40a378:	00000000 	nop
  40a37c:	04410003 	bgez	$v0,40a38c <_usopenpollsema+0x68>
  40a380:	00000000 	nop
  40a384:	100000b0 	b	40a648 <_usopenpollsema+0x324>
  40a388:	2402ffff 	li	$v0,-1
  40a38c:	8e620018 	lw	$v0,24($s3)
  40a390:	00000000 	nop
  40a394:	10400029 	beqz	$v0,40a43c <_usopenpollsema+0x118>
  40a398:	00000000 	nop
  40a39c:	8e8e0424 	lw	$t6,1060($s4)
  40a3a0:	00008025 	move	$s0,$zero
  40a3a4:	19c00025 	blez	$t6,40a43c <_usopenpollsema+0x118>
  40a3a8:	00102c00 	sll	$a1,$s0,0x10
  40a3ac:	00057c03 	sra	$t7,$a1,0x10
  40a3b0:	01e02825 	move	$a1,$t7
  40a3b4:	0c104990 	jal	412640 <_usget_pid>
  40a3b8:	02802025 	move	$a0,$s4
  40a3bc:	10520018 	beq	$v0,$s2,40a420 <_usopenpollsema+0xfc>
  40a3c0:	00000000 	nop
  40a3c4:	8e780008 	lw	$t8,8($s3)
  40a3c8:	0010c840 	sll	$t9,$s0,0x1
  40a3cc:	03194021 	addu	$t0,$t8,$t9
  40a3d0:	85110000 	lh	$s1,0($t0)
  40a3d4:	00000000 	nop
  40a3d8:	12320011 	beq	$s1,$s2,40a420 <_usopenpollsema+0xfc>
  40a3dc:	02202025 	move	$a0,$s1
  40a3e0:	0c104154 	jal	410550 <_fstat>
  40a3e4:	27a50044 	addiu	$a1,$sp,68
  40a3e8:	1440000d 	bnez	$v0,40a420 <_usopenpollsema+0xfc>
  40a3ec:	00000000 	nop
  40a3f0:	8fa90058 	lw	$t1,88($sp)
  40a3f4:	24012000 	li	$at,8192
  40a3f8:	312af000 	andi	$t2,$t1,0xf000
  40a3fc:	15410008 	bne	$t2,$at,40a420 <_usopenpollsema+0xfc>
  40a400:	00000000 	nop
  40a404:	8fab0068 	lw	$t3,104($sp)
  40a408:	8e6c0018 	lw	$t4,24($s3)
  40a40c:	00000000 	nop
  40a410:	156c0003 	bne	$t3,$t4,40a420 <_usopenpollsema+0xfc>
  40a414:	00000000 	nop
  40a418:	1000007b 	b	40a608 <_usopenpollsema+0x2e4>
  40a41c:	02208025 	move	$s0,$s1
  40a420:	8e8d0424 	lw	$t5,1060($s4)
  40a424:	26100001 	addiu	$s0,$s0,1
  40a428:	020d082a 	slt	$at,$s0,$t5
  40a42c:	1420ffdf 	bnez	$at,40a3ac <_usopenpollsema+0x88>
  40a430:	00102c00 	sll	$a1,$s0,0x10
  40a434:	8e620018 	lw	$v0,24($s3)
  40a438:	00000000 	nop
  40a43c:	1440003b 	bnez	$v0,40a52c <_usopenpollsema+0x208>
  40a440:	3c040042 	lui	$a0,0x42
  40a444:	3c040042 	lui	$a0,0x42
  40a448:	2484a524 	addiu	$a0,$a0,-23260
  40a44c:	0c10411c 	jal	410470 <_open>
  40a450:	24050002 	li	$a1,2
  40a454:	0441000e 	bgez	$v0,40a490 <_usopenpollsema+0x16c>
  40a458:	00408025 	move	$s0,$v0
  40a45c:	0c102020 	jal	408080 <_oserror>
  40a460:	00000000 	nop
  40a464:	8f8e8ab0 	lw	$t6,-30032($gp)
  40a468:	00409025 	move	$s2,$v0
  40a46c:	11c00070 	beqz	$t6,40a630 <_usopenpollsema+0x30c>
  40a470:	24040001 	li	$a0,1
  40a474:	3c0f0020 	lui	$t7,0x20
  40a478:	8de60e00 	lw	$a2,3584($t7)
  40a47c:	3c050042 	lui	$a1,0x42
  40a480:	0c1050fc 	jal	4143f0 <_uprint>
  40a484:	24a5a534 	addiu	$a1,$a1,-23244
  40a488:	1000006a 	b	40a634 <_usopenpollsema+0x310>
  40a48c:	8e840a64 	lw	$a0,2660($s4)
  40a490:	02002025 	move	$a0,$s0
  40a494:	0c104154 	jal	410550 <_fstat>
  40a498:	27a50044 	addiu	$a1,$sp,68
  40a49c:	14400006 	bnez	$v0,40a4b8 <_usopenpollsema+0x194>
  40a4a0:	00000000 	nop
  40a4a4:	8fa500ec 	lw	$a1,236($sp)
  40a4a8:	0c1040e0 	jal	410380 <_fchmod>
  40a4ac:	02002025 	move	$a0,$s0
  40a4b0:	04410010 	bgez	$v0,40a4f4 <_usopenpollsema+0x1d0>
  40a4b4:	00000000 	nop
  40a4b8:	0c102020 	jal	408080 <_oserror>
  40a4bc:	00000000 	nop
  40a4c0:	00409025 	move	$s2,$v0
  40a4c4:	0c101ae0 	jal	406b80 <_close>
  40a4c8:	02002025 	move	$a0,$s0
  40a4cc:	8f988ab0 	lw	$t8,-30032($gp)
  40a4d0:	24040001 	li	$a0,1
  40a4d4:	13000056 	beqz	$t8,40a630 <_usopenpollsema+0x30c>
  40a4d8:	3c050042 	lui	$a1,0x42
  40a4dc:	3c190020 	lui	$t9,0x20
  40a4e0:	8f260e00 	lw	$a2,3584($t9)
  40a4e4:	0c1050fc 	jal	4143f0 <_uprint>
  40a4e8:	24a5a568 	addiu	$a1,$a1,-23192
  40a4ec:	10000051 	b	40a634 <_usopenpollsema+0x310>
  40a4f0:	8e840a64 	lw	$a0,2660($s4)
  40a4f4:	8f88af30 	lw	$t0,-20688($gp)
  40a4f8:	00002025 	move	$a0,$zero
  40a4fc:	11000008 	beqz	$t0,40a520 <_usopenpollsema+0x1fc>
  40a500:	3c050042 	lui	$a1,0x42
  40a504:	8fa90068 	lw	$t1,104($sp)
  40a508:	87a600ce 	lh	$a2,206($sp)
  40a50c:	24a5a5a4 	addiu	$a1,$a1,-23132
  40a510:	02603825 	move	$a3,$s3
  40a514:	afb00014 	sw	$s0,20($sp)
  40a518:	0c1050fc 	jal	4143f0 <_uprint>
  40a51c:	afa90010 	sw	$t1,16($sp)
  40a520:	8faa0068 	lw	$t2,104($sp)
  40a524:	10000034 	b	40a5f8 <_usopenpollsema+0x2d4>
  40a528:	ae6a0018 	sw	$t2,24($s3)
  40a52c:	2484a5ec 	addiu	$a0,$a0,-23060
  40a530:	0c10411c 	jal	410470 <_open>
  40a534:	24050002 	li	$a1,2
  40a538:	04410005 	bgez	$v0,40a550 <_usopenpollsema+0x22c>
  40a53c:	00408825 	move	$s1,$v0
  40a540:	0c102020 	jal	408080 <_oserror>
  40a544:	00000000 	nop
  40a548:	10000039 	b	40a630 <_usopenpollsema+0x30c>
  40a54c:	00409025 	move	$s2,$v0
  40a550:	8e6b0018 	lw	$t3,24($s3)
  40a554:	3c050075 	lui	$a1,0x75
  40a558:	afb30040 	sw	$s3,64($sp)
  40a55c:	34a57302 	ori	$a1,$a1,0x7302
  40a560:	02202025 	move	$a0,$s1
  40a564:	27a6003c 	addiu	$a2,$sp,60
  40a568:	0c1040f8 	jal	4103e0 <_ioctl>
  40a56c:	afab003c 	sw	$t3,60($sp)
  40a570:	04410014 	bgez	$v0,40a5c4 <_usopenpollsema+0x2a0>
  40a574:	00408025 	move	$s0,$v0
  40a578:	0c102020 	jal	408080 <_oserror>
  40a57c:	00000000 	nop
  40a580:	00409025 	move	$s2,$v0
  40a584:	0c101ae0 	jal	406b80 <_close>
  40a588:	02202025 	move	$a0,$s1
  40a58c:	24010016 	li	$at,22
  40a590:	16410003 	bne	$s2,$at,40a5a0 <_usopenpollsema+0x27c>
  40a594:	00000000 	nop
  40a598:	1000ffaa 	b	40a444 <_usopenpollsema+0x120>
  40a59c:	ae600018 	sw	$zero,24($s3)
  40a5a0:	8f8c8ab0 	lw	$t4,-30032($gp)
  40a5a4:	24040001 	li	$a0,1
  40a5a8:	11800021 	beqz	$t4,40a630 <_usopenpollsema+0x30c>
  40a5ac:	3c050042 	lui	$a1,0x42
  40a5b0:	8e660018 	lw	$a2,24($s3)
  40a5b4:	0c1050fc 	jal	4143f0 <_uprint>
  40a5b8:	24a5a5f8 	addiu	$a1,$a1,-23048
  40a5bc:	1000001d 	b	40a634 <_usopenpollsema+0x310>
  40a5c0:	8e840a64 	lw	$a0,2660($s4)
  40a5c4:	8f8daf30 	lw	$t5,-20688($gp)
  40a5c8:	00002025 	move	$a0,$zero
  40a5cc:	11a00008 	beqz	$t5,40a5f0 <_usopenpollsema+0x2cc>
  40a5d0:	3c050042 	lui	$a1,0x42
  40a5d4:	8e6e0018 	lw	$t6,24($s3)
  40a5d8:	87a600ce 	lh	$a2,206($sp)
  40a5dc:	afb00014 	sw	$s0,20($sp)
  40a5e0:	24a5a634 	addiu	$a1,$a1,-22988
  40a5e4:	02603825 	move	$a3,$s3
  40a5e8:	0c1050fc 	jal	4143f0 <_uprint>
  40a5ec:	afae0010 	sw	$t6,16($sp)
  40a5f0:	0c101ae0 	jal	406b80 <_close>
  40a5f4:	02202025 	move	$a0,$s1
  40a5f8:	02002025 	move	$a0,$s0
  40a5fc:	24050002 	li	$a1,2
  40a600:	0c1040ec 	jal	4103b0 <_fcntl>
  40a604:	24060001 	li	$a2,1
  40a608:	8e840a64 	lw	$a0,2660($s4)
  40a60c:	0c10203c 	jal	4080f0 <_usvsema>
  40a610:	00000000 	nop
  40a614:	87b800ce 	lh	$t8,206($sp)
  40a618:	8e6f0008 	lw	$t7,8($s3)
  40a61c:	0018c840 	sll	$t9,$t8,0x1
  40a620:	01f94021 	addu	$t0,$t7,$t9
  40a624:	a5100000 	sh	$s0,0($t0)
  40a628:	10000007 	b	40a648 <_usopenpollsema+0x324>
  40a62c:	02001025 	move	$v0,$s0
  40a630:	8e840a64 	lw	$a0,2660($s4)
  40a634:	0c10203c 	jal	4080f0 <_usvsema>
  40a638:	00000000 	nop
  40a63c:	0c102025 	jal	408094 <_setoserror>
  40a640:	02402025 	move	$a0,$s2
  40a644:	2402ffff 	li	$v0,-1
  40a648:	8fbf0034 	lw	$ra,52($sp)
  40a64c:	8fb00020 	lw	$s0,32($sp)
  40a650:	8fb10024 	lw	$s1,36($sp)
  40a654:	8fb20028 	lw	$s2,40($sp)
  40a658:	8fb3002c 	lw	$s3,44($sp)
  40a65c:	8fb40030 	lw	$s4,48($sp)
  40a660:	03e00008 	jr	$ra
  40a664:	27bd00e8 	addiu	$sp,$sp,232

0040a668 <_usclosepollsema>:
  40a668:	27bdff20 	addiu	$sp,$sp,-224
  40a66c:	afbf002c 	sw	$ra,44($sp)
  40a670:	afb50028 	sw	$s5,40($sp)
  40a674:	afb40024 	sw	$s4,36($sp)
  40a678:	afb30020 	sw	$s3,32($sp)
  40a67c:	afb2001c 	sw	$s2,28($sp)
  40a680:	afb10018 	sw	$s1,24($sp)
  40a684:	afb00014 	sw	$s0,20($sp)
  40a688:	8c950000 	lw	$s5,0($a0)
  40a68c:	00808825 	move	$s1,$a0
  40a690:	00009025 	move	$s2,$zero
  40a694:	0c104999 	jal	412664 <_usgettid>
  40a698:	02a02025 	move	$a0,$s5
  40a69c:	2414ffff 	li	$s4,-1
  40a6a0:	14540005 	bne	$v0,$s4,40a6b8 <_usclosepollsema+0x50>
  40a6a4:	00409825 	move	$s3,$v0
  40a6a8:	0c102025 	jal	408094 <_setoserror>
  40a6ac:	24040016 	li	$a0,22
  40a6b0:	1000007b 	b	40a8a0 <_usclosepollsema+0x238>
  40a6b4:	2402ffff 	li	$v0,-1
  40a6b8:	0c104a0a 	jal	412828 <_usclean_tidmap>
  40a6bc:	02a02025 	move	$a0,$s5
  40a6c0:	8e2e0008 	lw	$t6,8($s1)
  40a6c4:	00138040 	sll	$s0,$s3,0x1
  40a6c8:	01d07821 	addu	$t7,$t6,$s0
  40a6cc:	85e40000 	lh	$a0,0($t7)
  40a6d0:	00000000 	nop
  40a6d4:	1284000b 	beq	$s4,$a0,40a704 <_usclosepollsema+0x9c>
  40a6d8:	00000000 	nop
  40a6dc:	0c101ae0 	jal	406b80 <_close>
  40a6e0:	00000000 	nop
  40a6e4:	10400003 	beqz	$v0,40a6f4 <_usclosepollsema+0x8c>
  40a6e8:	00000000 	nop
  40a6ec:	1000006c 	b	40a8a0 <_usclosepollsema+0x238>
  40a6f0:	2402ffff 	li	$v0,-1
  40a6f4:	8e380008 	lw	$t8,8($s1)
  40a6f8:	24120001 	li	$s2,1
  40a6fc:	0310c821 	addu	$t9,$t8,$s0
  40a700:	a7340000 	sh	$s4,0($t9)
  40a704:	2404000d 	li	$a0,13
  40a708:	0c1015dc 	jal	405770 <_prctl>
  40a70c:	00002825 	move	$a1,$zero
  40a710:	04410003 	bgez	$v0,40a720 <_usclosepollsema+0xb8>
  40a714:	00000000 	nop
  40a718:	10000061 	b	40a8a0 <_usclosepollsema+0x238>
  40a71c:	00001025 	move	$v0,$zero
  40a720:	8ea40a64 	lw	$a0,2660($s5)
  40a724:	0c102034 	jal	4080d0 <_uspsema>
  40a728:	00000000 	nop
  40a72c:	04410003 	bgez	$v0,40a73c <_usclosepollsema+0xd4>
  40a730:	00000000 	nop
  40a734:	1000005a 	b	40a8a0 <_usclosepollsema+0x238>
  40a738:	2402ffff 	li	$v0,-1
  40a73c:	8ea20424 	lw	$v0,1060($s5)
  40a740:	00009825 	move	$s3,$zero
  40a744:	1840004d 	blez	$v0,40a87c <_usclosepollsema+0x214>
  40a748:	00008025 	move	$s0,$zero
  40a74c:	8e280008 	lw	$t0,8($s1)
  40a750:	00132c00 	sll	$a1,$s3,0x10
  40a754:	01104821 	addu	$t1,$t0,$s0
  40a758:	852a0000 	lh	$t2,0($t1)
  40a75c:	00055c03 	sra	$t3,$a1,0x10
  40a760:	128a0042 	beq	$s4,$t2,40a86c <_usclosepollsema+0x204>
  40a764:	02a02025 	move	$a0,$s5
  40a768:	0c104990 	jal	412640 <_usget_pid>
  40a76c:	01602825 	move	$a1,$t3
  40a770:	2404000d 	li	$a0,13
  40a774:	0c1015dc 	jal	405770 <_prctl>
  40a778:	00402825 	move	$a1,$v0
  40a77c:	04400014 	bltz	$v0,40a7d0 <_usclosepollsema+0x168>
  40a780:	304c0002 	andi	$t4,$v0,0x2
  40a784:	15800004 	bnez	$t4,40a798 <_usclosepollsema+0x130>
  40a788:	00000000 	nop
  40a78c:	8ea20424 	lw	$v0,1060($s5)
  40a790:	10000037 	b	40a870 <_usclosepollsema+0x208>
  40a794:	26730001 	addiu	$s3,$s3,1
  40a798:	16400009 	bnez	$s2,40a7c0 <_usclosepollsema+0x158>
  40a79c:	00000000 	nop
  40a7a0:	8e2d0008 	lw	$t5,8($s1)
  40a7a4:	00000000 	nop
  40a7a8:	01b07021 	addu	$t6,$t5,$s0
  40a7ac:	85c40000 	lh	$a0,0($t6)
  40a7b0:	0c101ae0 	jal	406b80 <_close>
  40a7b4:	00000000 	nop
  40a7b8:	14400035 	bnez	$v0,40a890 <_usclosepollsema+0x228>
  40a7bc:	26520001 	addiu	$s2,$s2,1
  40a7c0:	8e2f0008 	lw	$t7,8($s1)
  40a7c4:	00000000 	nop
  40a7c8:	01f0c021 	addu	$t8,$t7,$s0
  40a7cc:	a7140000 	sh	$s4,0($t8)
  40a7d0:	0c102020 	jal	408080 <_oserror>
  40a7d4:	00000000 	nop
  40a7d8:	24010003 	li	$at,3
  40a7dc:	14410021 	bne	$v0,$at,40a864 <_usclosepollsema+0x1fc>
  40a7e0:	00000000 	nop
  40a7e4:	1640001b 	bnez	$s2,40a854 <_usclosepollsema+0x1ec>
  40a7e8:	00000000 	nop
  40a7ec:	8e390008 	lw	$t9,8($s1)
  40a7f0:	27a50040 	addiu	$a1,$sp,64
  40a7f4:	03304021 	addu	$t0,$t9,$s0
  40a7f8:	85040000 	lh	$a0,0($t0)
  40a7fc:	0c104154 	jal	410550 <_fstat>
  40a800:	00000000 	nop
  40a804:	14400013 	bnez	$v0,40a854 <_usclosepollsema+0x1ec>
  40a808:	00000000 	nop
  40a80c:	8fa90054 	lw	$t1,84($sp)
  40a810:	24012000 	li	$at,8192
  40a814:	312af000 	andi	$t2,$t1,0xf000
  40a818:	1541000e 	bne	$t2,$at,40a854 <_usclosepollsema+0x1ec>
  40a81c:	00000000 	nop
  40a820:	8fab0064 	lw	$t3,100($sp)
  40a824:	8e2c0018 	lw	$t4,24($s1)
  40a828:	00000000 	nop
  40a82c:	156c0009 	bne	$t3,$t4,40a854 <_usclosepollsema+0x1ec>
  40a830:	00000000 	nop
  40a834:	8e2d0008 	lw	$t5,8($s1)
  40a838:	00000000 	nop
  40a83c:	01b07021 	addu	$t6,$t5,$s0
  40a840:	85c40000 	lh	$a0,0($t6)
  40a844:	0c101ae0 	jal	406b80 <_close>
  40a848:	00000000 	nop
  40a84c:	14400010 	bnez	$v0,40a890 <_usclosepollsema+0x228>
  40a850:	26520001 	addiu	$s2,$s2,1
  40a854:	8e2f0008 	lw	$t7,8($s1)
  40a858:	00000000 	nop
  40a85c:	01f0c021 	addu	$t8,$t7,$s0
  40a860:	a7140000 	sh	$s4,0($t8)
  40a864:	8ea20424 	lw	$v0,1060($s5)
  40a868:	00000000 	nop
  40a86c:	26730001 	addiu	$s3,$s3,1
  40a870:	0262082a 	slt	$at,$s3,$v0
  40a874:	1420ffb5 	bnez	$at,40a74c <_usclosepollsema+0xe4>
  40a878:	26100002 	addiu	$s0,$s0,2
  40a87c:	8ea40a64 	lw	$a0,2660($s5)
  40a880:	0c10203c 	jal	4080f0 <_usvsema>
  40a884:	00000000 	nop
  40a888:	10000005 	b	40a8a0 <_usclosepollsema+0x238>
  40a88c:	00001025 	move	$v0,$zero
  40a890:	8ea40a64 	lw	$a0,2660($s5)
  40a894:	0c10203c 	jal	4080f0 <_usvsema>
  40a898:	00000000 	nop
  40a89c:	2402ffff 	li	$v0,-1
  40a8a0:	8fbf002c 	lw	$ra,44($sp)
  40a8a4:	8fb00014 	lw	$s0,20($sp)
  40a8a8:	8fb10018 	lw	$s1,24($sp)
  40a8ac:	8fb2001c 	lw	$s2,28($sp)
  40a8b0:	8fb30020 	lw	$s3,32($sp)
  40a8b4:	8fb40024 	lw	$s4,36($sp)
  40a8b8:	8fb50028 	lw	$s5,40($sp)
  40a8bc:	03e00008 	jr	$ra
  40a8c0:	27bd00e0 	addiu	$sp,$sp,224
  40a8c4:	27bdff18 	addiu	$sp,$sp,-232
  40a8c8:	afb60038 	sw	$s6,56($sp)
  40a8cc:	afbf003c 	sw	$ra,60($sp)
  40a8d0:	afb50034 	sw	$s5,52($sp)
  40a8d4:	afb40030 	sw	$s4,48($sp)
  40a8d8:	afb3002c 	sw	$s3,44($sp)
  40a8dc:	afb20028 	sw	$s2,40($sp)
  40a8e0:	afb10024 	sw	$s1,36($sp)
  40a8e4:	afb00020 	sw	$s0,32($sp)
  40a8e8:	afa500ec 	sw	$a1,236($sp)
  40a8ec:	0080b025 	move	$s6,$a0
  40a8f0:	8c920000 	lw	$s2,0($a0)
  40a8f4:	2404000d 	li	$a0,13
  40a8f8:	0c1015dc 	jal	405770 <_prctl>
  40a8fc:	00002825 	move	$a1,$zero
  40a900:	04410003 	bgez	$v0,40a910 <_usclosepollsema+0x2a8>
  40a904:	00000000 	nop
  40a908:	10000055 	b	40aa60 <_usclosepollsema+0x3f8>
  40a90c:	2402ffff 	li	$v0,-1
  40a910:	8e420424 	lw	$v0,1060($s2)
  40a914:	00008025 	move	$s0,$zero
  40a918:	18400050 	blez	$v0,40aa5c <_usclosepollsema+0x3f4>
  40a91c:	00008825 	move	$s1,$zero
  40a920:	2415ffff 	li	$s5,-1
  40a924:	8ece0008 	lw	$t6,8($s6)
  40a928:	00109c00 	sll	$s3,$s0,0x10
  40a92c:	01d17821 	addu	$t7,$t6,$s1
  40a930:	85f40000 	lh	$s4,0($t7)
  40a934:	0013c403 	sra	$t8,$s3,0x10
  40a938:	12950044 	beq	$s4,$s5,40aa4c <_usclosepollsema+0x3e4>
  40a93c:	02402025 	move	$a0,$s2
  40a940:	00182c00 	sll	$a1,$t8,0x10
  40a944:	0005cc03 	sra	$t9,$a1,0x10
  40a948:	03202825 	move	$a1,$t9
  40a94c:	0c104990 	jal	412640 <_usget_pid>
  40a950:	03009825 	move	$s3,$t8
  40a954:	2404000d 	li	$a0,13
  40a958:	0c1015dc 	jal	405770 <_prctl>
  40a95c:	00402825 	move	$a1,$v0
  40a960:	04410004 	bgez	$v0,40a974 <_usclosepollsema+0x30c>
  40a964:	30480002 	andi	$t0,$v0,0x2
  40a968:	8e420424 	lw	$v0,1060($s2)
  40a96c:	10000038 	b	40aa50 <_usclosepollsema+0x3e8>
  40a970:	26100001 	addiu	$s0,$s0,1
  40a974:	15000005 	bnez	$t0,40a98c <_usclosepollsema+0x324>
  40a978:	87aa00ee 	lh	$t2,238($sp)
  40a97c:	8e420424 	lw	$v0,1060($s2)
  40a980:	10000033 	b	40aa50 <_usclosepollsema+0x3e8>
  40a984:	26100001 	addiu	$s0,$s0,1
  40a988:	87aa00ee 	lh	$t2,238($sp)
  40a98c:	8ec90008 	lw	$t1,8($s6)
  40a990:	000a5840 	sll	$t3,$t2,0x1
  40a994:	012b6021 	addu	$t4,$t1,$t3
  40a998:	a5940000 	sh	$s4,0($t4)
  40a99c:	8f8daf30 	lw	$t5,-20688($gp)
  40a9a0:	02802025 	move	$a0,$s4
  40a9a4:	11a0001c 	beqz	$t5,40aa18 <_usclosepollsema+0x3b0>
  40a9a8:	00000000 	nop
  40a9ac:	0c104154 	jal	410550 <_fstat>
  40a9b0:	27a50050 	addiu	$a1,$sp,80
  40a9b4:	1440000a 	bnez	$v0,40a9e0 <_usclosepollsema+0x378>
  40a9b8:	02402025 	move	$a0,$s2
  40a9bc:	8fae0064 	lw	$t6,100($sp)
  40a9c0:	24012000 	li	$at,8192
  40a9c4:	31cff000 	andi	$t7,$t6,0xf000
  40a9c8:	15e10006 	bne	$t7,$at,40a9e4 <_usclosepollsema+0x37c>
  40a9cc:	00132c00 	sll	$a1,$s3,0x10
  40a9d0:	8fb80074 	lw	$t8,116($sp)
  40a9d4:	8ed90018 	lw	$t9,24($s6)
  40a9d8:	00000000 	nop
  40a9dc:	1319000e 	beq	$t8,$t9,40aa18 <_usclosepollsema+0x3b0>
  40a9e0:	00132c00 	sll	$a1,$s3,0x10
  40a9e4:	00054403 	sra	$t0,$a1,0x10
  40a9e8:	0c104990 	jal	412640 <_usget_pid>
  40a9ec:	01002825 	move	$a1,$t0
  40a9f0:	3c0a0020 	lui	$t2,0x20
  40a9f4:	8d460e00 	lw	$a2,3584($t2)
  40a9f8:	3c050042 	lui	$a1,0x42
  40a9fc:	24a5a67c 	addiu	$a1,$a1,-22916
  40aa00:	afb40010 	sw	$s4,16($sp)
  40aa04:	00002025 	move	$a0,$zero
  40aa08:	0c1050fc 	jal	4143f0 <_uprint>
  40aa0c:	00403825 	move	$a3,$v0
  40aa10:	10000013 	b	40aa60 <_usclosepollsema+0x3f8>
  40aa14:	2402ffff 	li	$v0,-1
  40aa18:	8f89af30 	lw	$t1,-20688($gp)
  40aa1c:	00002025 	move	$a0,$zero
  40aa20:	11200006 	beqz	$t1,40aa3c <_usclosepollsema+0x3d4>
  40aa24:	3c050042 	lui	$a1,0x42
  40aa28:	87a600ee 	lh	$a2,238($sp)
  40aa2c:	24a5a6c8 	addiu	$a1,$a1,-22840
  40aa30:	02c03825 	move	$a3,$s6
  40aa34:	0c1050fc 	jal	4143f0 <_uprint>
  40aa38:	afb40010 	sw	$s4,16($sp)
  40aa3c:	00141400 	sll	$v0,$s4,0x10
  40aa40:	00025c03 	sra	$t3,$v0,0x10
  40aa44:	10000006 	b	40aa60 <_usclosepollsema+0x3f8>
  40aa48:	01601025 	move	$v0,$t3
  40aa4c:	26100001 	addiu	$s0,$s0,1
  40aa50:	0202082a 	slt	$at,$s0,$v0
  40aa54:	1420ffb3 	bnez	$at,40a924 <_usclosepollsema+0x2bc>
  40aa58:	26310002 	addiu	$s1,$s1,2
  40aa5c:	2402ffff 	li	$v0,-1
  40aa60:	8fbf003c 	lw	$ra,60($sp)
  40aa64:	8fb00020 	lw	$s0,32($sp)
  40aa68:	8fb10024 	lw	$s1,36($sp)
  40aa6c:	8fb20028 	lw	$s2,40($sp)
  40aa70:	8fb3002c 	lw	$s3,44($sp)
  40aa74:	8fb40030 	lw	$s4,48($sp)
  40aa78:	8fb50034 	lw	$s5,52($sp)
  40aa7c:	8fb60038 	lw	$s6,56($sp)
  40aa80:	03e00008 	jr	$ra
  40aa84:	27bd00e8 	addiu	$sp,$sp,232

0040aa88 <_usblock>:
  40aa88:	27bdffc8 	addiu	$sp,$sp,-56
  40aa8c:	afbf002c 	sw	$ra,44($sp)
  40aa90:	afb00020 	sw	$s0,32($sp)
  40aa94:	00a08025 	move	$s0,$a1
  40aa98:	afb20028 	sw	$s2,40($sp)
  40aa9c:	afb10024 	sw	$s1,36($sp)
  40aaa0:	afa40038 	sw	$a0,56($sp)
  40aaa4:	afa60040 	sw	$a2,64($sp)
  40aaa8:	0c104f39 	jal	413ce4 <__usfastadd>
  40aaac:	afa70044 	sw	$a3,68($sp)
  40aab0:	2403ffff 	li	$v1,-1
  40aab4:	1443000c 	bne	$v0,$v1,40aae8 <_usblock+0x60>
  40aab8:	a7a20032 	sh	$v0,50($sp)
  40aabc:	8f8e8ab0 	lw	$t6,-30032($gp)
  40aac0:	00002025 	move	$a0,$zero
  40aac4:	11c00006 	beqz	$t6,40aae0 <_usblock+0x58>
  40aac8:	3c050042 	lui	$a1,0x42
  40aacc:	3c0f0020 	lui	$t7,0x20
  40aad0:	8de70e00 	lw	$a3,3584($t7)
  40aad4:	8fa60044 	lw	$a2,68($sp)
  40aad8:	0c1050fc 	jal	4143f0 <_uprint>
  40aadc:	24a5a708 	addiu	$a1,$a1,-22776
  40aae0:	10000037 	b	40abc0 <_usblock+0x138>
  40aae4:	2402ffff 	li	$v0,-1
  40aae8:	12000016 	beqz	$s0,40ab44 <_usblock+0xbc>
  40aaec:	8fac0038 	lw	$t4,56($sp)
  40aaf0:	96180016 	lhu	$t8,22($s0)
  40aaf4:	00000000 	nop
  40aaf8:	33190008 	andi	$t9,$t8,0x8
  40aafc:	13200011 	beqz	$t9,40ab44 <_usblock+0xbc>
  40ab00:	8fac0038 	lw	$t4,56($sp)
  40ab04:	8e080008 	lw	$t0,8($s0)
  40ab08:	00024840 	sll	$t1,$v0,0x1
  40ab0c:	01095021 	addu	$t2,$t0,$t1
  40ab10:	85520000 	lh	$s2,0($t2)
  40ab14:	87a50032 	lh	$a1,50($sp)
  40ab18:	16430007 	bne	$s2,$v1,40ab38 <_usblock+0xb0>
  40ab1c:	3c110075 	lui	$s1,0x75
  40ab20:	0c102a31 	jal	40a8c4 <_usclosepollsema+0x25c>
  40ab24:	02002025 	move	$a0,$s0
  40ab28:	00029400 	sll	$s2,$v0,0x10
  40ab2c:	00125c03 	sra	$t3,$s2,0x10
  40ab30:	01609025 	move	$s2,$t3
  40ab34:	3c110075 	lui	$s1,0x75
  40ab38:	10000008 	b	40ab5c <_usblock+0xd4>
  40ab3c:	36317304 	ori	$s1,$s1,0x7304
  40ab40:	8fac0038 	lw	$t4,56($sp)
  40ab44:	000270c0 	sll	$t6,$v0,0x3
  40ab48:	8d8d000c 	lw	$t5,12($t4)
  40ab4c:	3c110075 	lui	$s1,0x75
  40ab50:	01ae7821 	addu	$t7,$t5,$t6
  40ab54:	85f20006 	lh	$s2,6($t7)
  40ab58:	36317303 	ori	$s1,$s1,0x7303
  40ab5c:	24100004 	li	$s0,4
  40ab60:	02402025 	move	$a0,$s2
  40ab64:	0c1040f8 	jal	4103e0 <_ioctl>
  40ab68:	02202825 	move	$a1,$s1
  40ab6c:	10400014 	beqz	$v0,40abc0 <_usblock+0x138>
  40ab70:	00001025 	move	$v0,$zero
  40ab74:	0c102020 	jal	408080 <_oserror>
  40ab78:	00000000 	nop
  40ab7c:	1050fff9 	beq	$v0,$s0,40ab64 <_usblock+0xdc>
  40ab80:	02402025 	move	$a0,$s2
  40ab84:	8f988ab0 	lw	$t8,-30032($gp)
  40ab88:	24040001 	li	$a0,1
  40ab8c:	13000009 	beqz	$t8,40abb4 <_usblock+0x12c>
  40ab90:	3c050042 	lui	$a1,0x42
  40ab94:	3c190020 	lui	$t9,0x20
  40ab98:	87a80032 	lh	$t0,50($sp)
  40ab9c:	8f270e00 	lw	$a3,3584($t9)
  40aba0:	8fa60044 	lw	$a2,68($sp)
  40aba4:	afb20014 	sw	$s2,20($sp)
  40aba8:	24a5a728 	addiu	$a1,$a1,-22744
  40abac:	0c1050fc 	jal	4143f0 <_uprint>
  40abb0:	afa80010 	sw	$t0,16($sp)
  40abb4:	10000002 	b	40abc0 <_usblock+0x138>
  40abb8:	2402ffff 	li	$v0,-1
  40abbc:	00001025 	move	$v0,$zero
  40abc0:	8fbf002c 	lw	$ra,44($sp)
  40abc4:	8fb00020 	lw	$s0,32($sp)
  40abc8:	8fb10024 	lw	$s1,36($sp)
  40abcc:	8fb20028 	lw	$s2,40($sp)
  40abd0:	03e00008 	jr	$ra
  40abd4:	27bd0038 	addiu	$sp,$sp,56

0040abd8 <_usunblock>:
  40abd8:	27bdffd0 	addiu	$sp,$sp,-48
  40abdc:	afbf0024 	sw	$ra,36($sp)
  40abe0:	afb00020 	sw	$s0,32($sp)
  40abe4:	afa40030 	sw	$a0,48($sp)
  40abe8:	afa50034 	sw	$a1,52($sp)
  40abec:	afa60038 	sw	$a2,56($sp)
  40abf0:	0c104f39 	jal	413ce4 <__usfastadd>
  40abf4:	afa7003c 	sw	$a3,60($sp)
  40abf8:	2403ffff 	li	$v1,-1
  40abfc:	8fa40034 	lw	$a0,52($sp)
  40ac00:	1443000c 	bne	$v0,$v1,40ac34 <_usunblock+0x5c>
  40ac04:	a7a2002a 	sh	$v0,42($sp)
  40ac08:	8f8e8ab0 	lw	$t6,-30032($gp)
  40ac0c:	00002025 	move	$a0,$zero
  40ac10:	11c00006 	beqz	$t6,40ac2c <_usunblock+0x54>
  40ac14:	3c050042 	lui	$a1,0x42
  40ac18:	3c0f0020 	lui	$t7,0x20
  40ac1c:	8de70e00 	lw	$a3,3584($t7)
  40ac20:	8fa6003c 	lw	$a2,60($sp)
  40ac24:	0c1050fc 	jal	4143f0 <_uprint>
  40ac28:	24a5a74c 	addiu	$a1,$a1,-22708
  40ac2c:	10000039 	b	40ad14 <_usunblock+0x13c>
  40ac30:	2402ffff 	li	$v0,-1
  40ac34:	10800016 	beqz	$a0,40ac90 <_usunblock+0xb8>
  40ac38:	8fac0030 	lw	$t4,48($sp)
  40ac3c:	94980016 	lhu	$t8,22($a0)
  40ac40:	00000000 	nop
  40ac44:	33190008 	andi	$t9,$t8,0x8
  40ac48:	13200011 	beqz	$t9,40ac90 <_usunblock+0xb8>
  40ac4c:	8fac0030 	lw	$t4,48($sp)
  40ac50:	8c880008 	lw	$t0,8($a0)
  40ac54:	00024840 	sll	$t1,$v0,0x1
  40ac58:	01095021 	addu	$t2,$t0,$t1
  40ac5c:	85500000 	lh	$s0,0($t2)
  40ac60:	87a5002a 	lh	$a1,42($sp)
  40ac64:	16030006 	bne	$s0,$v1,40ac80 <_usunblock+0xa8>
  40ac68:	00000000 	nop
  40ac6c:	0c102a31 	jal	40a8c4 <_usclosepollsema+0x25c>
  40ac70:	00000000 	nop
  40ac74:	00028400 	sll	$s0,$v0,0x10
  40ac78:	00105c03 	sra	$t3,$s0,0x10
  40ac7c:	01608025 	move	$s0,$t3
  40ac80:	3c050075 	lui	$a1,0x75
  40ac84:	10000008 	b	40aca8 <_usunblock+0xd0>
  40ac88:	34a57307 	ori	$a1,$a1,0x7307
  40ac8c:	8fac0030 	lw	$t4,48($sp)
  40ac90:	000270c0 	sll	$t6,$v0,0x3
  40ac94:	8d8d000c 	lw	$t5,12($t4)
  40ac98:	3c050075 	lui	$a1,0x75
  40ac9c:	01ae7821 	addu	$t7,$t5,$t6
  40aca0:	85f00006 	lh	$s0,6($t7)
  40aca4:	34a57306 	ori	$a1,$a1,0x7306
  40aca8:	8fa60038 	lw	$a2,56($sp)
  40acac:	0c1040f8 	jal	4103e0 <_ioctl>
  40acb0:	02002025 	move	$a0,$s0
  40acb4:	10400017 	beqz	$v0,40ad14 <_usunblock+0x13c>
  40acb8:	00001025 	move	$v0,$zero
  40acbc:	0c102020 	jal	408080 <_oserror>
  40acc0:	00000000 	nop
  40acc4:	24010003 	li	$at,3
  40acc8:	14410003 	bne	$v0,$at,40acd8 <_usunblock+0x100>
  40accc:	00000000 	nop
  40acd0:	10000010 	b	40ad14 <_usunblock+0x13c>
  40acd4:	24020001 	li	$v0,1
  40acd8:	8f988ab0 	lw	$t8,-30032($gp)
  40acdc:	24040001 	li	$a0,1
  40ace0:	13000009 	beqz	$t8,40ad08 <_usunblock+0x130>
  40ace4:	3c050042 	lui	$a1,0x42
  40ace8:	3c190020 	lui	$t9,0x20
  40acec:	87a8002a 	lh	$t0,42($sp)
  40acf0:	8f270e00 	lw	$a3,3584($t9)
  40acf4:	8fa6003c 	lw	$a2,60($sp)
  40acf8:	afb00014 	sw	$s0,20($sp)
  40acfc:	24a5a76c 	addiu	$a1,$a1,-22676
  40ad00:	0c1050fc 	jal	4143f0 <_uprint>
  40ad04:	afa80010 	sw	$t0,16($sp)
  40ad08:	10000002 	b	40ad14 <_usunblock+0x13c>
  40ad0c:	2402ffff 	li	$v0,-1
  40ad10:	00001025 	move	$v0,$zero
  40ad14:	8fbf0024 	lw	$ra,36($sp)
  40ad18:	8fb00020 	lw	$s0,32($sp)
  40ad1c:	03e00008 	jr	$ra
  40ad20:	27bd0030 	addiu	$sp,$sp,48
	...

0040ad30 <_seminit>:
  40ad30:	8f8eaee0 	lw	$t6,-20768($gp)
  40ad34:	27bdffc0 	addiu	$sp,$sp,-64
  40ad38:	afbf001c 	sw	$ra,28($sp)
  40ad3c:	afb10018 	sw	$s1,24($sp)
  40ad40:	11c0000c 	beqz	$t6,40ad74 <_seminit+0x44>
  40ad44:	afb00014 	sw	$s0,20($sp)
  40ad48:	8f8faedc 	lw	$t7,-20772($gp)
  40ad4c:	00000000 	nop
  40ad50:	8de40404 	lw	$a0,1028($t7)
  40ad54:	0c104a69 	jal	4129a4 <_usany_tids_left>
  40ad58:	00000000 	nop
  40ad5c:	04410003 	bgez	$v0,40ad6c <_seminit+0x3c>
  40ad60:	00000000 	nop
  40ad64:	1000009e 	b	40afe0 <_seminit+0x2b0>
  40ad68:	2402ffff 	li	$v0,-1
  40ad6c:	1000009c 	b	40afe0 <_seminit+0x2b0>
  40ad70:	00001025 	move	$v0,$zero
  40ad74:	8f98aedc 	lw	$t8,-20772($gp)
  40ad78:	24040001 	li	$a0,1
  40ad7c:	17000007 	bnez	$t8,40ad9c <_seminit+0x6c>
  40ad80:	00000000 	nop
  40ad84:	0c1041bc 	jal	4106f0 <_calloc>
  40ad88:	24050408 	li	$a1,1032
  40ad8c:	14400003 	bnez	$v0,40ad9c <_seminit+0x6c>
  40ad90:	af82aedc 	sw	$v0,-20772($gp)
  40ad94:	10000092 	b	40afe0 <_seminit+0x2b0>
  40ad98:	2402ffff 	li	$v0,-1
  40ad9c:	3c040042 	lui	$a0,0x42
  40ada0:	0c1041e0 	jal	410780 <getenv>
  40ada4:	2484a7d0 	addiu	$a0,$a0,-22576
  40ada8:	10400007 	beqz	$v0,40adc8 <_seminit+0x98>
  40adac:	00002025 	move	$a0,$zero
  40adb0:	8f88aedc 	lw	$t0,-20772($gp)
  40adb4:	3c190042 	lui	$t9,0x42
  40adb8:	2739a7e4 	addiu	$t9,$t9,-22556
  40adbc:	10000007 	b	40addc <_seminit+0xac>
  40adc0:	ad190400 	sw	$t9,1024($t0)
  40adc4:	00002025 	move	$a0,$zero
  40adc8:	0c103e20 	jal	40f880 <_tempnam>
  40adcc:	278588a0 	addiu	$a1,$gp,-30560
  40add0:	8f89aedc 	lw	$t1,-20772($gp)
  40add4:	00000000 	nop
  40add8:	ad220400 	sw	$v0,1024($t1)
  40addc:	24040001 	li	$a0,1
  40ade0:	0c1051cc 	jal	414730 <_usconfig>
  40ade4:	24050008 	li	$a1,8
  40ade8:	00408025 	move	$s0,$v0
  40adec:	24040001 	li	$a0,1
  40adf0:	0c1051cc 	jal	414730 <_usconfig>
  40adf4:	00402825 	move	$a1,$v0
  40adf8:	0c102625 	jal	409894 <_ussemaspace>
  40adfc:	02002025 	move	$a0,$s0
  40ae00:	00022940 	sll	$a1,$v0,0x5
  40ae04:	00a22821 	addu	$a1,$a1,$v0
  40ae08:	00052880 	sll	$a1,$a1,0x2
  40ae0c:	00a22823 	subu	$a1,$a1,$v0
  40ae10:	00052840 	sll	$a1,$a1,0x1
  40ae14:	3401b240 	li	$at,0xb240
  40ae18:	00a12821 	addu	$a1,$a1,$at
  40ae1c:	0c1051cc 	jal	414730 <_usconfig>
  40ae20:	24040002 	li	$a0,2
  40ae24:	00408025 	move	$s0,$v0
  40ae28:	24040010 	li	$a0,16
  40ae2c:	0c1051cc 	jal	414730 <_usconfig>
  40ae30:	24050001 	li	$a1,1
  40ae34:	afa20024 	sw	$v0,36($sp)
  40ae38:	24040014 	li	$a0,20
  40ae3c:	0c1051cc 	jal	414730 <_usconfig>
  40ae40:	00002825 	move	$a1,$zero
  40ae44:	afa20034 	sw	$v0,52($sp)
  40ae48:	24040015 	li	$a0,21
  40ae4c:	0c1051cc 	jal	414730 <_usconfig>
  40ae50:	00002825 	move	$a1,$zero
  40ae54:	8f8aaedc 	lw	$t2,-20772($gp)
  40ae58:	afa20030 	sw	$v0,48($sp)
  40ae5c:	8d440400 	lw	$a0,1024($t2)
  40ae60:	0c104c16 	jal	413058 <_usinit>
  40ae64:	00000000 	nop
  40ae68:	00408825 	move	$s1,$v0
  40ae6c:	24040002 	li	$a0,2
  40ae70:	0c1051cc 	jal	414730 <_usconfig>
  40ae74:	02002825 	move	$a1,$s0
  40ae78:	8fa50024 	lw	$a1,36($sp)
  40ae7c:	0c1051cc 	jal	414730 <_usconfig>
  40ae80:	24040010 	li	$a0,16
  40ae84:	8fa50034 	lw	$a1,52($sp)
  40ae88:	0c1051cc 	jal	414730 <_usconfig>
  40ae8c:	24040014 	li	$a0,20
  40ae90:	8fa50030 	lw	$a1,48($sp)
  40ae94:	0c1051cc 	jal	414730 <_usconfig>
  40ae98:	24040015 	li	$a0,21
  40ae9c:	16200003 	bnez	$s1,40aeac <_seminit+0x17c>
  40aea0:	00000000 	nop
  40aea4:	1000004e 	b	40afe0 <_seminit+0x2b0>
  40aea8:	2402ffff 	li	$v0,-1
  40aeac:	8f99aeec 	lw	$t9,-20756($gp)
  40aeb0:	02202025 	move	$a0,$s1
  40aeb4:	0320f809 	jalr	$t9
  40aeb8:	00000000 	nop
  40aebc:	10400045 	beqz	$v0,40afd4 <_seminit+0x2a4>
  40aec0:	af82aec8 	sw	$v0,-20792($gp)
  40aec4:	8f99aeec 	lw	$t9,-20756($gp)
  40aec8:	02202025 	move	$a0,$s1
  40aecc:	0320f809 	jalr	$t9
  40aed0:	00000000 	nop
  40aed4:	1040003f 	beqz	$v0,40afd4 <_seminit+0x2a4>
  40aed8:	af82aec4 	sw	$v0,-20796($gp)
  40aedc:	8f99aeec 	lw	$t9,-20756($gp)
  40aee0:	02202025 	move	$a0,$s1
  40aee4:	0320f809 	jalr	$t9
  40aee8:	00000000 	nop
  40aeec:	10400039 	beqz	$v0,40afd4 <_seminit+0x2a4>
  40aef0:	af82aec0 	sw	$v0,-20800($gp)
  40aef4:	02202025 	move	$a0,$s1
  40aef8:	0c1025eb 	jal	4097ac <_usnewsema>
  40aefc:	24050001 	li	$a1,1
  40af00:	10400034 	beqz	$v0,40afd4 <_seminit+0x2a4>
  40af04:	af82aecc 	sw	$v0,-20788($gp)
  40af08:	00402025 	move	$a0,$v0
  40af0c:	0c10265d 	jal	409974 <_usctlsema>
  40af10:	24050013 	li	$a1,19
  40af14:	02202025 	move	$a0,$s1
  40af18:	0c1025eb 	jal	4097ac <_usnewsema>
  40af1c:	24050001 	li	$a1,1
  40af20:	1040002c 	beqz	$v0,40afd4 <_seminit+0x2a4>
  40af24:	af82aed8 	sw	$v0,-20776($gp)
  40af28:	00402025 	move	$a0,$v0
  40af2c:	0c10265d 	jal	409974 <_usctlsema>
  40af30:	24050013 	li	$a1,19
  40af34:	02202025 	move	$a0,$s1
  40af38:	0c1025eb 	jal	4097ac <_usnewsema>
  40af3c:	24050001 	li	$a1,1
  40af40:	10400024 	beqz	$v0,40afd4 <_seminit+0x2a4>
  40af44:	af82aed4 	sw	$v0,-20780($gp)
  40af48:	02202025 	move	$a0,$s1
  40af4c:	0c1025eb 	jal	4097ac <_usnewsema>
  40af50:	24050001 	li	$a1,1
  40af54:	1040001f 	beqz	$v0,40afd4 <_seminit+0x2a4>
  40af58:	af82aed0 	sw	$v0,-20784($gp)
  40af5c:	00402025 	move	$a0,$v0
  40af60:	0c10265d 	jal	409974 <_usctlsema>
  40af64:	24050013 	li	$a1,19
  40af68:	00008025 	move	$s0,$zero
  40af6c:	02202025 	move	$a0,$s1
  40af70:	0c1025eb 	jal	4097ac <_usnewsema>
  40af74:	24050001 	li	$a1,1
  40af78:	8f8baedc 	lw	$t3,-20772($gp)
  40af7c:	00402025 	move	$a0,$v0
  40af80:	01701821 	addu	$v1,$t3,$s0
  40af84:	10400013 	beqz	$v0,40afd4 <_seminit+0x2a4>
  40af88:	ac620000 	sw	$v0,0($v1)
  40af8c:	0c10265d 	jal	409974 <_usctlsema>
  40af90:	24050013 	li	$a1,19
  40af94:	26100004 	addiu	$s0,$s0,4
  40af98:	24010400 	li	$at,1024
  40af9c:	1601fff4 	bne	$s0,$at,40af70 <_seminit+0x240>
  40afa0:	02202025 	move	$a0,$s1
  40afa4:	8f8caedc 	lw	$t4,-20772($gp)
  40afa8:	240d0001 	li	$t5,1
  40afac:	ad910404 	sw	$s1,1028($t4)
  40afb0:	8f8e88b0 	lw	$t6,-30544($gp)
  40afb4:	8f8f88b8 	lw	$t7,-30536($gp)
  40afb8:	8f9888c0 	lw	$t8,-30528($gp)
  40afbc:	af8daee0 	sw	$t5,-20768($gp)
  40afc0:	00001025 	move	$v0,$zero
  40afc4:	af8e88b4 	sw	$t6,-30540($gp)
  40afc8:	af8f88bc 	sw	$t7,-30532($gp)
  40afcc:	10000004 	b	40afe0 <_seminit+0x2b0>
  40afd0:	af9888c4 	sw	$t8,-30524($gp)
  40afd4:	0c105133 	jal	4144cc <__usdetach>
  40afd8:	02202025 	move	$a0,$s1
  40afdc:	2402ffff 	li	$v0,-1
  40afe0:	8fbf001c 	lw	$ra,28($sp)
  40afe4:	8fb00014 	lw	$s0,20($sp)
  40afe8:	8fb10018 	lw	$s1,24($sp)
  40afec:	03e00008 	jr	$ra
  40aff0:	27bd0040 	addiu	$sp,$sp,64

0040aff4 <_semadd>:
  40aff4:	27bdfed8 	addiu	$sp,$sp,-296
  40aff8:	8f8eaedc 	lw	$t6,-20772($gp)
  40affc:	afbf001c 	sw	$ra,28($sp)
  40b000:	afb00018 	sw	$s0,24($sp)
  40b004:	8dc40404 	lw	$a0,1028($t6)
  40b008:	0c104f02 	jal	413c08 <_usadd>
  40b00c:	00000000 	nop
  40b010:	10400024 	beqz	$v0,40b0a4 <_semadd+0xb0>
  40b014:	8fbf001c 	lw	$ra,28($sp)
  40b018:	0c102020 	jal	408080 <_oserror>
  40b01c:	00000000 	nop
  40b020:	0c104024 	jal	410090 <strerror>
  40b024:	00402025 	move	$a0,$v0
  40b028:	3c0f0020 	lui	$t7,0x20
  40b02c:	8de60e00 	lw	$a2,3584($t7)
  40b030:	27b00028 	addiu	$s0,$sp,40
  40b034:	3c050042 	lui	$a1,0x42
  40b038:	24a5a7f0 	addiu	$a1,$a1,-22544
  40b03c:	02002025 	move	$a0,$s0
  40b040:	0c103cf4 	jal	40f3d0 <sprintf>
  40b044:	00403825 	move	$a3,$v0
  40b048:	0c101ad0 	jal	406b40 <strlen>
  40b04c:	02002025 	move	$a0,$s0
  40b050:	24040002 	li	$a0,2
  40b054:	02002825 	move	$a1,$s0
  40b058:	0c101af8 	jal	406be0 <_write>
  40b05c:	00403025 	move	$a2,$v0
  40b060:	0c102020 	jal	408080 <_oserror>
  40b064:	00000000 	nop
  40b068:	2401001c 	li	$at,28
  40b06c:	1441000a 	bne	$v0,$at,40b098 <_semadd+0xa4>
  40b070:	02002025 	move	$a0,$s0
  40b074:	3c050042 	lui	$a1,0x42
  40b078:	0c103cf4 	jal	40f3d0 <sprintf>
  40b07c:	24a5a820 	addiu	$a1,$a1,-22496
  40b080:	0c101ad0 	jal	406b40 <strlen>
  40b084:	02002025 	move	$a0,$s0
  40b088:	24040002 	li	$a0,2
  40b08c:	02002825 	move	$a1,$s0
  40b090:	0c101af8 	jal	406be0 <_write>
  40b094:	00403025 	move	$a2,$v0
  40b098:	0c1015d0 	jal	405740 <__exit>
  40b09c:	2404ffff 	li	$a0,-1
  40b0a0:	8fbf001c 	lw	$ra,28($sp)
  40b0a4:	8fb00018 	lw	$s0,24($sp)
  40b0a8:	03e00008 	jr	$ra
  40b0ac:	27bd0128 	addiu	$sp,$sp,296

0040b0b0 <_flockfile>:
  40b0b0:	8f82aedc 	lw	$v0,-20772($gp)
  40b0b4:	27bdffe8 	addiu	$sp,$sp,-24
  40b0b8:	1040000b 	beqz	$v0,40b0e8 <_flockfile+0x38>
  40b0bc:	afbf0014 	sw	$ra,20($sp)
  40b0c0:	908e000d 	lbu	$t6,13($a0)
  40b0c4:	00000000 	nop
  40b0c8:	000e7880 	sll	$t7,$t6,0x2
  40b0cc:	004fc021 	addu	$t8,$v0,$t7
  40b0d0:	8f040000 	lw	$a0,0($t8)
  40b0d4:	00000000 	nop
  40b0d8:	10800004 	beqz	$a0,40b0ec <_flockfile+0x3c>
  40b0dc:	8fbf0014 	lw	$ra,20($sp)
  40b0e0:	0c102034 	jal	4080d0 <_uspsema>
  40b0e4:	00000000 	nop
  40b0e8:	8fbf0014 	lw	$ra,20($sp)
  40b0ec:	27bd0018 	addiu	$sp,$sp,24
  40b0f0:	03e00008 	jr	$ra
  40b0f4:	00000000 	nop

0040b0f8 <_ftrylockfile>:
  40b0f8:	8f82aedc 	lw	$v0,-20772($gp)
  40b0fc:	27bdffe0 	addiu	$sp,$sp,-32
  40b100:	afbf0014 	sw	$ra,20($sp)
  40b104:	1040000f 	beqz	$v0,40b144 <_ftrylockfile+0x4c>
  40b108:	00001825 	move	$v1,$zero
  40b10c:	908e000d 	lbu	$t6,13($a0)
  40b110:	00000000 	nop
  40b114:	000e7880 	sll	$t7,$t6,0x2
  40b118:	004fc021 	addu	$t8,$v0,$t7
  40b11c:	8f040000 	lw	$a0,0($t8)
  40b120:	00000000 	nop
  40b124:	10800008 	beqz	$a0,40b148 <_ftrylockfile+0x50>
  40b128:	8fbf0014 	lw	$ra,20($sp)
  40b12c:	0c102038 	jal	4080e0 <_uscpsema>
  40b130:	afa00018 	sw	$zero,24($sp)
  40b134:	8fa30018 	lw	$v1,24($sp)
  40b138:	14400003 	bnez	$v0,40b148 <_ftrylockfile+0x50>
  40b13c:	8fbf0014 	lw	$ra,20($sp)
  40b140:	24030001 	li	$v1,1
  40b144:	8fbf0014 	lw	$ra,20($sp)
  40b148:	27bd0020 	addiu	$sp,$sp,32
  40b14c:	03e00008 	jr	$ra
  40b150:	00601025 	move	$v0,$v1

0040b154 <_funlockfile>:
  40b154:	8f82aedc 	lw	$v0,-20772($gp)
  40b158:	27bdffe8 	addiu	$sp,$sp,-24
  40b15c:	1040000b 	beqz	$v0,40b18c <_funlockfile+0x38>
  40b160:	afbf0014 	sw	$ra,20($sp)
  40b164:	908e000d 	lbu	$t6,13($a0)
  40b168:	00000000 	nop
  40b16c:	000e7880 	sll	$t7,$t6,0x2
  40b170:	004fc021 	addu	$t8,$v0,$t7
  40b174:	8f040000 	lw	$a0,0($t8)
  40b178:	00000000 	nop
  40b17c:	10800004 	beqz	$a0,40b190 <_funlockfile+0x3c>
  40b180:	8fbf0014 	lw	$ra,20($sp)
  40b184:	0c10203c 	jal	4080f0 <_usvsema>
  40b188:	00000000 	nop
  40b18c:	8fbf0014 	lw	$ra,20($sp)
  40b190:	27bd0018 	addiu	$sp,$sp,24
  40b194:	03e00008 	jr	$ra
  40b198:	00000000 	nop

0040b19c <__fislockfile>:
  40b19c:	8f82aedc 	lw	$v0,-20772($gp)
  40b1a0:	27bdffe0 	addiu	$sp,$sp,-32
  40b1a4:	10400016 	beqz	$v0,40b200 <__fislockfile+0x64>
  40b1a8:	afbf0014 	sw	$ra,20($sp)
  40b1ac:	908e000d 	lbu	$t6,13($a0)
  40b1b0:	00000000 	nop
  40b1b4:	000e7880 	sll	$t7,$t6,0x2
  40b1b8:	004fc021 	addu	$t8,$v0,$t7
  40b1bc:	8f040000 	lw	$a0,0($t8)
  40b1c0:	00000000 	nop
  40b1c4:	1080000f 	beqz	$a0,40b204 <__fislockfile+0x68>
  40b1c8:	24020001 	li	$v0,1
  40b1cc:	0c1025a0 	jal	409680 <_ustestsema>
  40b1d0:	afa4001c 	sw	$a0,28($sp)
  40b1d4:	8fa4001c 	lw	$a0,28($sp)
  40b1d8:	28590001 	slti	$t9,$v0,1
  40b1dc:	13200009 	beqz	$t9,40b204 <__fislockfile+0x68>
  40b1e0:	03201025 	move	$v0,$t9
  40b1e4:	3c080020 	lui	$t0,0x20
  40b1e8:	8d090e00 	lw	$t1,3584($t0)
  40b1ec:	8c8a0004 	lw	$t2,4($a0)
  40b1f0:	00000000 	nop
  40b1f4:	012a1026 	xor	$v0,$t1,$t2
  40b1f8:	10000002 	b	40b204 <__fislockfile+0x68>
  40b1fc:	2c420001 	sltiu	$v0,$v0,1
  40b200:	24020001 	li	$v0,1
  40b204:	8fbf0014 	lw	$ra,20($sp)
  40b208:	27bd0020 	addiu	$sp,$sp,32
  40b20c:	03e00008 	jr	$ra
	...
  40b220:	24020030 	li	$v0,48
  40b224:	28a10064 	slti	$at,$a1,100
  40b228:	14200007 	bnez	$at,40b248 <__fislockfile+0xac>
  40b22c:	a082000d 	sb	$v0,13($a0)
  40b230:	908e000d 	lbu	$t6,13($a0)
  40b234:	24a5ff9c 	addiu	$a1,$a1,-100
  40b238:	28a10064 	slti	$at,$a1,100
  40b23c:	25cf0001 	addiu	$t7,$t6,1
  40b240:	1020fffb 	beqz	$at,40b230 <__fislockfile+0x94>
  40b244:	a08f000d 	sb	$t7,13($a0)
  40b248:	28a1000a 	slti	$at,$a1,10
  40b24c:	14200007 	bnez	$at,40b26c <__fislockfile+0xd0>
  40b250:	a082000e 	sb	$v0,14($a0)
  40b254:	9098000e 	lbu	$t8,14($a0)
  40b258:	24a5fff6 	addiu	$a1,$a1,-10
  40b25c:	28a1000a 	slti	$at,$a1,10
  40b260:	27190001 	addiu	$t9,$t8,1
  40b264:	1020fffb 	beqz	$at,40b254 <__fislockfile+0xb8>
  40b268:	a099000e 	sb	$t9,14($a0)
  40b26c:	24a80030 	addiu	$t0,$a1,48
  40b270:	03e00008 	jr	$ra
  40b274:	a088000f 	sb	$t0,15($a0)

0040b278 <_ushardlock_create>:
  40b278:	27bdffa8 	addiu	$sp,$sp,-88
  40b27c:	afb00020 	sw	$s0,32($sp)
  40b280:	afa5005c 	sw	$a1,92($sp)
  40b284:	afa60060 	sw	$a2,96($sp)
  40b288:	afbf0024 	sw	$ra,36($sp)
  40b28c:	afa70064 	sw	$a3,100($sp)
  40b290:	3c0f0042 	lui	$t7,0x42
  40b294:	25efa850 	addiu	$t7,$t7,-22448
  40b298:	8de10000 	lw	$at,0($t7)
  40b29c:	27ae0044 	addiu	$t6,$sp,68
  40b2a0:	adc10000 	sw	$at,0($t6)
  40b2a4:	8de10008 	lw	$at,8($t7)
  40b2a8:	8de80004 	lw	$t0,4($t7)
  40b2ac:	adc10008 	sw	$at,8($t6)
  40b2b0:	adc80004 	sw	$t0,4($t6)
  40b2b4:	8de8000c 	lw	$t0,12($t7)
  40b2b8:	91e10010 	lbu	$at,16($t7)
  40b2bc:	00808025 	move	$s0,$a0
  40b2c0:	00a03025 	move	$a2,$a1
  40b2c4:	00a02025 	move	$a0,$a1
  40b2c8:	3c05686c 	lui	$a1,0x686c
  40b2cc:	adc8000c 	sw	$t0,12($t6)
  40b2d0:	a1c10010 	sb	$at,16($t6)
  40b2d4:	afa00034 	sw	$zero,52($sp)
  40b2d8:	afa6005c 	sw	$a2,92($sp)
  40b2dc:	0c1040f8 	jal	4103e0 <_ioctl>
  40b2e0:	34a56167 	ori	$a1,$a1,0x6167
  40b2e4:	1c400009 	bgtz	$v0,40b30c <_ushardlock_create+0x94>
  40b2e8:	00403825 	move	$a3,$v0
  40b2ec:	8f898ab0 	lw	$t1,-30032($gp)
  40b2f0:	24040001 	li	$a0,1
  40b2f4:	11200003 	beqz	$t1,40b304 <_ushardlock_create+0x8c>
  40b2f8:	3c050042 	lui	$a1,0x42
  40b2fc:	0c1050fc 	jal	4143f0 <_uprint>
  40b300:	24a5a864 	addiu	$a1,$a1,-22428
  40b304:	10000089 	b	40b52c <_ushardlock_create+0x2b4>
  40b308:	00001025 	move	$v0,$zero
  40b30c:	8f8aaf30 	lw	$t2,-20688($gp)
  40b310:	00002025 	move	$a0,$zero
  40b314:	11400008 	beqz	$t2,40b338 <_ushardlock_create+0xc0>
  40b318:	3c050042 	lui	$a1,0x42
  40b31c:	3c0b0020 	lui	$t3,0x20
  40b320:	8d660e00 	lw	$a2,3584($t3)
  40b324:	afa70040 	sw	$a3,64($sp)
  40b328:	0c1050fc 	jal	4143f0 <_uprint>
  40b32c:	24a5a880 	addiu	$a1,$a1,-22400
  40b330:	8fa70040 	lw	$a3,64($sp)
  40b334:	00000000 	nop
  40b338:	27a40044 	addiu	$a0,$sp,68
  40b33c:	0c102c88 	jal	40b220 <__fislockfile+0x84>
  40b340:	00e02825 	move	$a1,$a3
  40b344:	26040454 	addiu	$a0,$s0,1108
  40b348:	0c101aa4 	jal	406a90 <strcpy>
  40b34c:	27a50044 	addiu	$a1,$sp,68
  40b350:	8fa4005c 	lw	$a0,92($sp)
  40b354:	3c05686c 	lui	$a1,0x686c
  40b358:	34a57372 	ori	$a1,$a1,0x7372
  40b35c:	0c1040f8 	jal	4103e0 <_ioctl>
  40b360:	00003025 	move	$a2,$zero
  40b364:	1c400009 	bgtz	$v0,40b38c <_ushardlock_create+0x114>
  40b368:	00402825 	move	$a1,$v0
  40b36c:	8f8c8ab0 	lw	$t4,-30032($gp)
  40b370:	24040001 	li	$a0,1
  40b374:	11800003 	beqz	$t4,40b384 <_ushardlock_create+0x10c>
  40b378:	3c050042 	lui	$a1,0x42
  40b37c:	0c1050fc 	jal	4143f0 <_uprint>
  40b380:	24a5a8b0 	addiu	$a1,$a1,-22352
  40b384:	10000069 	b	40b52c <_ushardlock_create+0x2b4>
  40b388:	00001025 	move	$v0,$zero
  40b38c:	8fa40060 	lw	$a0,96($sp)
  40b390:	24060003 	li	$a2,3
  40b394:	1080000a 	beqz	$a0,40b3c0 <_ushardlock_create+0x148>
  40b398:	24070001 	li	$a3,1
  40b39c:	8fb90064 	lw	$t9,100($sp)
  40b3a0:	3c01003f 	lui	$at,0x3f
  40b3a4:	3421ffff 	ori	$at,$at,0xffff
  40b3a8:	00992021 	addu	$a0,$a0,$t9
  40b3ac:	00812021 	addu	$a0,$a0,$at
  40b3b0:	240d0001 	li	$t5,1
  40b3b4:	00047d82 	srl	$t7,$a0,0x16
  40b3b8:	afad0034 	sw	$t5,52($sp)
  40b3bc:	000f2580 	sll	$a0,$t7,0x16
  40b3c0:	8fa9005c 	lw	$t1,92($sp)
  40b3c4:	afa00014 	sw	$zero,20($sp)
  40b3c8:	afa40060 	sw	$a0,96($sp)
  40b3cc:	afa5003c 	sw	$a1,60($sp)
  40b3d0:	0c104104 	jal	410410 <_mmap>
  40b3d4:	afa90010 	sw	$t1,16($sp)
  40b3d8:	2401ffff 	li	$at,-1
  40b3dc:	1441000a 	bne	$v0,$at,40b408 <_ushardlock_create+0x190>
  40b3e0:	ae020854 	sw	$v0,2132($s0)
  40b3e4:	8f8a8ab0 	lw	$t2,-30032($gp)
  40b3e8:	24040001 	li	$a0,1
  40b3ec:	11400004 	beqz	$t2,40b400 <_ushardlock_create+0x188>
  40b3f0:	3c050042 	lui	$a1,0x42
  40b3f4:	8fa60060 	lw	$a2,96($sp)
  40b3f8:	0c1050fc 	jal	4143f0 <_uprint>
  40b3fc:	24a5a8cc 	addiu	$a1,$a1,-22324
  40b400:	1000004a 	b	40b52c <_ushardlock_create+0x2b4>
  40b404:	00001025 	move	$v0,$zero
  40b408:	8fab0034 	lw	$t3,52($sp)
  40b40c:	8fac0060 	lw	$t4,96($sp)
  40b410:	11600014 	beqz	$t3,40b464 <_ushardlock_create+0x1ec>
  40b414:	00000000 	nop
  40b418:	8e040854 	lw	$a0,2132($s0)
  40b41c:	8fa5003c 	lw	$a1,60($sp)
  40b420:	11840010 	beq	$t4,$a0,40b464 <_ushardlock_create+0x1ec>
  40b424:	00000000 	nop
  40b428:	0c104110 	jal	410440 <_munmap>
  40b42c:	00000000 	nop
  40b430:	8f8d8ab0 	lw	$t5,-30032($gp)
  40b434:	00002025 	move	$a0,$zero
  40b438:	11a00006 	beqz	$t5,40b454 <_ushardlock_create+0x1dc>
  40b43c:	3c050042 	lui	$a1,0x42
  40b440:	3c190020 	lui	$t9,0x20
  40b444:	8f270e00 	lw	$a3,3584($t9)
  40b448:	8fa60060 	lw	$a2,96($sp)
  40b44c:	0c1050fc 	jal	4143f0 <_uprint>
  40b450:	24a5a8f8 	addiu	$a1,$a1,-22280
  40b454:	0c102025 	jal	408094 <_setoserror>
  40b458:	24040010 	li	$a0,16
  40b45c:	10000033 	b	40b52c <_ushardlock_create+0x2b4>
  40b460:	00001025 	move	$v0,$zero
  40b464:	8f98af30 	lw	$t8,-20688($gp)
  40b468:	00002025 	move	$a0,$zero
  40b46c:	13000006 	beqz	$t8,40b488 <_ushardlock_create+0x210>
  40b470:	3c050042 	lui	$a1,0x42
  40b474:	3c0e0020 	lui	$t6,0x20
  40b478:	8dc60e00 	lw	$a2,3584($t6)
  40b47c:	8e070854 	lw	$a3,2132($s0)
  40b480:	0c1050fc 	jal	4143f0 <_uprint>
  40b484:	24a5a954 	addiu	$a1,$a1,-22188
  40b488:	8fa4005c 	lw	$a0,92($sp)
  40b48c:	3c05686c 	lui	$a1,0x686c
  40b490:	34a5616c 	ori	$a1,$a1,0x616c
  40b494:	0c1040f8 	jal	4103e0 <_ioctl>
  40b498:	27a60038 	addiu	$a2,$sp,56
  40b49c:	2401ffff 	li	$at,-1
  40b4a0:	1441000f 	bne	$v0,$at,40b4e0 <_ushardlock_create+0x268>
  40b4a4:	26040858 	addiu	$a0,$s0,2136
  40b4a8:	8f8f8ab0 	lw	$t7,-30032($gp)
  40b4ac:	24040001 	li	$a0,1
  40b4b0:	11e00003 	beqz	$t7,40b4c0 <_ushardlock_create+0x248>
  40b4b4:	3c050042 	lui	$a1,0x42
  40b4b8:	0c1050fc 	jal	4143f0 <_uprint>
  40b4bc:	24a5a980 	addiu	$a1,$a1,-22144
  40b4c0:	8e040854 	lw	$a0,2132($s0)
  40b4c4:	8fa5003c 	lw	$a1,60($sp)
  40b4c8:	0c104110 	jal	410440 <_munmap>
  40b4cc:	00000000 	nop
  40b4d0:	2408ffff 	li	$t0,-1
  40b4d4:	ae080854 	sw	$t0,2132($s0)
  40b4d8:	10000014 	b	40b52c <_ushardlock_create+0x2b4>
  40b4dc:	00001025 	move	$v0,$zero
  40b4e0:	8fa90038 	lw	$t1,56($sp)
  40b4e4:	00002825 	move	$a1,$zero
  40b4e8:	ae090450 	sw	$t1,1104($s0)
  40b4ec:	afa4002c 	sw	$a0,44($sp)
  40b4f0:	0c104248 	jal	410920 <_bfclr>
  40b4f4:	24061000 	li	$a2,4096
  40b4f8:	8fa4002c 	lw	$a0,44($sp)
  40b4fc:	0c10421c 	jal	410870 <_bset>
  40b500:	00002825 	move	$a1,$zero
  40b504:	8e0a0854 	lw	$t2,2132($s0)
  40b508:	24050001 	li	$a1,1
  40b50c:	ae0a0a58 	sw	$t2,2648($s0)
  40b510:	8fa4002c 	lw	$a0,44($sp)
  40b514:	0c10421c 	jal	410870 <_bset>
  40b518:	00000000 	nop
  40b51c:	8e0b0854 	lw	$t3,2132($s0)
  40b520:	24020001 	li	$v0,1
  40b524:	256c0004 	addiu	$t4,$t3,4
  40b528:	ae0c0000 	sw	$t4,0($s0)
  40b52c:	8fbf0024 	lw	$ra,36($sp)
  40b530:	8fb00020 	lw	$s0,32($sp)
  40b534:	03e00008 	jr	$ra
  40b538:	27bd0058 	addiu	$sp,$sp,88

0040b53c <_ushardlock_attach>:
  40b53c:	27bdffd0 	addiu	$sp,$sp,-48
  40b540:	8f8eaf30 	lw	$t6,-20688($gp)
  40b544:	afbf001c 	sw	$ra,28($sp)
  40b548:	afa40030 	sw	$a0,48($sp)
  40b54c:	afa50034 	sw	$a1,52($sp)
  40b550:	11c00008 	beqz	$t6,40b574 <_ushardlock_attach+0x38>
  40b554:	afa00024 	sw	$zero,36($sp)
  40b558:	3c0f0020 	lui	$t7,0x20
  40b55c:	8de60e00 	lw	$a2,3584($t7)
  40b560:	3c050042 	lui	$a1,0x42
  40b564:	8fa70030 	lw	$a3,48($sp)
  40b568:	24a5a9a4 	addiu	$a1,$a1,-22108
  40b56c:	0c1050fc 	jal	4143f0 <_uprint>
  40b570:	00002025 	move	$a0,$zero
  40b574:	8fa40030 	lw	$a0,48($sp)
  40b578:	0c10411c 	jal	410470 <_open>
  40b57c:	24050002 	li	$a1,2
  40b580:	0441000a 	bgez	$v0,40b5ac <_ushardlock_attach+0x70>
  40b584:	00402025 	move	$a0,$v0
  40b588:	8f988ab0 	lw	$t8,-30032($gp)
  40b58c:	24040001 	li	$a0,1
  40b590:	13000004 	beqz	$t8,40b5a4 <_ushardlock_attach+0x68>
  40b594:	3c050042 	lui	$a1,0x42
  40b598:	8fa60030 	lw	$a2,48($sp)
  40b59c:	0c1050fc 	jal	4143f0 <_uprint>
  40b5a0:	24a5a9d8 	addiu	$a1,$a1,-22056
  40b5a4:	1000005d 	b	40b71c <_ushardlock_attach+0x1e0>
  40b5a8:	2402ffff 	li	$v0,-1
  40b5ac:	24050002 	li	$a1,2
  40b5b0:	24060001 	li	$a2,1
  40b5b4:	0c1040ec 	jal	4103b0 <_fcntl>
  40b5b8:	afa4002c 	sw	$a0,44($sp)
  40b5bc:	8fa4002c 	lw	$a0,44($sp)
  40b5c0:	3c05686c 	lui	$a1,0x686c
  40b5c4:	34a57372 	ori	$a1,$a1,0x7372
  40b5c8:	0c1040f8 	jal	4103e0 <_ioctl>
  40b5cc:	00003025 	move	$a2,$zero
  40b5d0:	1c40000c 	bgtz	$v0,40b604 <_ushardlock_attach+0xc8>
  40b5d4:	00402825 	move	$a1,$v0
  40b5d8:	8f998ab0 	lw	$t9,-30032($gp)
  40b5dc:	24040001 	li	$a0,1
  40b5e0:	13200003 	beqz	$t9,40b5f0 <_ushardlock_attach+0xb4>
  40b5e4:	3c050042 	lui	$a1,0x42
  40b5e8:	0c1050fc 	jal	4143f0 <_uprint>
  40b5ec:	24a5aa00 	addiu	$a1,$a1,-22016
  40b5f0:	8fa4002c 	lw	$a0,44($sp)
  40b5f4:	0c101ae0 	jal	406b80 <_close>
  40b5f8:	00000000 	nop
  40b5fc:	10000047 	b	40b71c <_ushardlock_attach+0x1e0>
  40b600:	2402ffff 	li	$v0,-1
  40b604:	8fa80034 	lw	$t0,52($sp)
  40b608:	2401ffff 	li	$at,-1
  40b60c:	8d040000 	lw	$a0,0($t0)
  40b610:	24060003 	li	$a2,3
  40b614:	10810005 	beq	$a0,$at,40b62c <_ushardlock_attach+0xf0>
  40b618:	24070001 	li	$a3,1
  40b61c:	24090001 	li	$t1,1
  40b620:	afa90024 	sw	$t1,36($sp)
  40b624:	10000002 	b	40b630 <_ushardlock_attach+0xf4>
  40b628:	afa40020 	sw	$a0,32($sp)
  40b62c:	afa00020 	sw	$zero,32($sp)
  40b630:	8faa002c 	lw	$t2,44($sp)
  40b634:	8fa40020 	lw	$a0,32($sp)
  40b638:	afa00014 	sw	$zero,20($sp)
  40b63c:	afa50028 	sw	$a1,40($sp)
  40b640:	0c104104 	jal	410410 <_mmap>
  40b644:	afaa0010 	sw	$t2,16($sp)
  40b648:	8fab0034 	lw	$t3,52($sp)
  40b64c:	8fa50028 	lw	$a1,40($sp)
  40b650:	2401ffff 	li	$at,-1
  40b654:	1441000c 	bne	$v0,$at,40b688 <_ushardlock_attach+0x14c>
  40b658:	ad620000 	sw	$v0,0($t3)
  40b65c:	8f8c8ab0 	lw	$t4,-30032($gp)
  40b660:	24040001 	li	$a0,1
  40b664:	11800003 	beqz	$t4,40b674 <_ushardlock_attach+0x138>
  40b668:	3c050042 	lui	$a1,0x42
  40b66c:	0c1050fc 	jal	4143f0 <_uprint>
  40b670:	24a5aa1c 	addiu	$a1,$a1,-21988
  40b674:	8fa4002c 	lw	$a0,44($sp)
  40b678:	0c101ae0 	jal	406b80 <_close>
  40b67c:	00000000 	nop
  40b680:	10000026 	b	40b71c <_ushardlock_attach+0x1e0>
  40b684:	2402ffff 	li	$v0,-1
  40b688:	8fad0024 	lw	$t5,36($sp)
  40b68c:	8fae0034 	lw	$t6,52($sp)
  40b690:	11a00016 	beqz	$t5,40b6ec <_ushardlock_attach+0x1b0>
  40b694:	00000000 	nop
  40b698:	8dc40000 	lw	$a0,0($t6)
  40b69c:	8faf0020 	lw	$t7,32($sp)
  40b6a0:	00000000 	nop
  40b6a4:	11e40011 	beq	$t7,$a0,40b6ec <_ushardlock_attach+0x1b0>
  40b6a8:	00000000 	nop
  40b6ac:	0c104110 	jal	410440 <_munmap>
  40b6b0:	00000000 	nop
  40b6b4:	8f988ab0 	lw	$t8,-30032($gp)
  40b6b8:	00002025 	move	$a0,$zero
  40b6bc:	13000004 	beqz	$t8,40b6d0 <_ushardlock_attach+0x194>
  40b6c0:	3c050042 	lui	$a1,0x42
  40b6c4:	8fa60020 	lw	$a2,32($sp)
  40b6c8:	0c1050fc 	jal	4143f0 <_uprint>
  40b6cc:	24a5aa40 	addiu	$a1,$a1,-21952
  40b6d0:	8fa4002c 	lw	$a0,44($sp)
  40b6d4:	0c101ae0 	jal	406b80 <_close>
  40b6d8:	00000000 	nop
  40b6dc:	0c102025 	jal	408094 <_setoserror>
  40b6e0:	24040010 	li	$a0,16
  40b6e4:	1000000d 	b	40b71c <_ushardlock_attach+0x1e0>
  40b6e8:	2402ffff 	li	$v0,-1
  40b6ec:	8f99af30 	lw	$t9,-20688($gp)
  40b6f0:	00002025 	move	$a0,$zero
  40b6f4:	13200007 	beqz	$t9,40b714 <_ushardlock_attach+0x1d8>
  40b6f8:	3c050042 	lui	$a1,0x42
  40b6fc:	8fa90034 	lw	$t1,52($sp)
  40b700:	3c080020 	lui	$t0,0x20
  40b704:	8d060e00 	lw	$a2,3584($t0)
  40b708:	8d270000 	lw	$a3,0($t1)
  40b70c:	0c1050fc 	jal	4143f0 <_uprint>
  40b710:	24a5aa84 	addiu	$a1,$a1,-21884
  40b714:	8fa2002c 	lw	$v0,44($sp)
  40b718:	00000000 	nop
  40b71c:	8fbf001c 	lw	$ra,28($sp)
  40b720:	27bd0030 	addiu	$sp,$sp,48
  40b724:	03e00008 	jr	$ra
  40b728:	00000000 	nop

0040b72c <_ushardlock_detach>:
  40b72c:	27bdffd8 	addiu	$sp,$sp,-40
  40b730:	8f8faf30 	lw	$t7,-20688($gp)
  40b734:	240e0001 	li	$t6,1
  40b738:	afbf0014 	sw	$ra,20($sp)
  40b73c:	afa40028 	sw	$a0,40($sp)
  40b740:	afa5002c 	sw	$a1,44($sp)
  40b744:	afa60030 	sw	$a2,48($sp)
  40b748:	11e00008 	beqz	$t7,40b76c <_ushardlock_detach+0x40>
  40b74c:	afae001c 	sw	$t6,28($sp)
  40b750:	3c180020 	lui	$t8,0x20
  40b754:	8f060e00 	lw	$a2,3584($t8)
  40b758:	3c050042 	lui	$a1,0x42
  40b75c:	8fa70028 	lw	$a3,40($sp)
  40b760:	24a5aab0 	addiu	$a1,$a1,-21840
  40b764:	0c1050fc 	jal	4143f0 <_uprint>
  40b768:	00002025 	move	$a0,$zero
  40b76c:	8fb90030 	lw	$t9,48($sp)
  40b770:	8fa90030 	lw	$t1,48($sp)
  40b774:	0721000e 	bgez	$t9,40b7b0 <_ushardlock_detach+0x84>
  40b778:	00000000 	nop
  40b77c:	8fa40028 	lw	$a0,40($sp)
  40b780:	0c10411c 	jal	410470 <_open>
  40b784:	24050002 	li	$a1,2
  40b788:	0441000a 	bgez	$v0,40b7b4 <_ushardlock_detach+0x88>
  40b78c:	afa20024 	sw	$v0,36($sp)
  40b790:	8f888ab0 	lw	$t0,-30032($gp)
  40b794:	24040001 	li	$a0,1
  40b798:	11000003 	beqz	$t0,40b7a8 <_ushardlock_detach+0x7c>
  40b79c:	3c050042 	lui	$a1,0x42
  40b7a0:	0c1050fc 	jal	4143f0 <_uprint>
  40b7a4:	24a5aae4 	addiu	$a1,$a1,-21788
  40b7a8:	10000026 	b	40b844 <_ushardlock_detach+0x118>
  40b7ac:	00001025 	move	$v0,$zero
  40b7b0:	afa90024 	sw	$t1,36($sp)
  40b7b4:	8fa40024 	lw	$a0,36($sp)
  40b7b8:	3c05686c 	lui	$a1,0x686c
  40b7bc:	34a57372 	ori	$a1,$a1,0x7372
  40b7c0:	0c1040f8 	jal	4103e0 <_ioctl>
  40b7c4:	00003025 	move	$a2,$zero
  40b7c8:	1c400009 	bgtz	$v0,40b7f0 <_ushardlock_detach+0xc4>
  40b7cc:	00402825 	move	$a1,$v0
  40b7d0:	8f8a8ab0 	lw	$t2,-30032($gp)
  40b7d4:	24040001 	li	$a0,1
  40b7d8:	11400003 	beqz	$t2,40b7e8 <_ushardlock_detach+0xbc>
  40b7dc:	3c050042 	lui	$a1,0x42
  40b7e0:	0c1050fc 	jal	4143f0 <_uprint>
  40b7e4:	24a5ab0c 	addiu	$a1,$a1,-21748
  40b7e8:	1000000e 	b	40b824 <_ushardlock_detach+0xf8>
  40b7ec:	afa0001c 	sw	$zero,28($sp)
  40b7f0:	8fa4002c 	lw	$a0,44($sp)
  40b7f4:	0c104110 	jal	410440 <_munmap>
  40b7f8:	00000000 	nop
  40b7fc:	2401ffff 	li	$at,-1
  40b800:	14410009 	bne	$v0,$at,40b828 <_ushardlock_detach+0xfc>
  40b804:	8fac0030 	lw	$t4,48($sp)
  40b808:	8f8b8ab0 	lw	$t3,-30032($gp)
  40b80c:	24040001 	li	$a0,1
  40b810:	11600003 	beqz	$t3,40b820 <_ushardlock_detach+0xf4>
  40b814:	3c050042 	lui	$a1,0x42
  40b818:	0c1050fc 	jal	4143f0 <_uprint>
  40b81c:	24a5ab2c 	addiu	$a1,$a1,-21716
  40b820:	afa0001c 	sw	$zero,28($sp)
  40b824:	8fac0030 	lw	$t4,48($sp)
  40b828:	8fa40024 	lw	$a0,36($sp)
  40b82c:	05810004 	bgez	$t4,40b840 <_ushardlock_detach+0x114>
  40b830:	8fa2001c 	lw	$v0,28($sp)
  40b834:	0c101ae0 	jal	406b80 <_close>
  40b838:	00000000 	nop
  40b83c:	8fa2001c 	lw	$v0,28($sp)
  40b840:	00000000 	nop
  40b844:	8fbf0014 	lw	$ra,20($sp)
  40b848:	27bd0028 	addiu	$sp,$sp,40
  40b84c:	03e00008 	jr	$ra
  40b850:	00000000 	nop
  40b854:	27bdffd8 	addiu	$sp,$sp,-40
  40b858:	afbf0014 	sw	$ra,20($sp)
  40b85c:	8c8e0450 	lw	$t6,1104($a0)
  40b860:	00803825 	move	$a3,$a0
  40b864:	29c11000 	slti	$at,$t6,4096
  40b868:	1420000b 	bnez	$at,40b898 <_ushardlock_detach+0x16c>
  40b86c:	24e60454 	addiu	$a2,$a3,1108
  40b870:	0c102025 	jal	408094 <_setoserror>
  40b874:	2404001c 	li	$a0,28
  40b878:	8f8f8ab0 	lw	$t7,-30032($gp)
  40b87c:	00002025 	move	$a0,$zero
  40b880:	11e00003 	beqz	$t7,40b890 <_ushardlock_detach+0x164>
  40b884:	3c050042 	lui	$a1,0x42
  40b888:	0c1050fc 	jal	4143f0 <_uprint>
  40b88c:	24a5ab54 	addiu	$a1,$a1,-21676
  40b890:	10000030 	b	40b954 <_ushardlock_detach+0x228>
  40b894:	00001025 	move	$v0,$zero
  40b898:	00c02025 	move	$a0,$a2
  40b89c:	24050002 	li	$a1,2
  40b8a0:	afa60018 	sw	$a2,24($sp)
  40b8a4:	0c10411c 	jal	410470 <_open>
  40b8a8:	afa70028 	sw	$a3,40($sp)
  40b8ac:	8fa60018 	lw	$a2,24($sp)
  40b8b0:	8fa70028 	lw	$a3,40($sp)
  40b8b4:	04410009 	bgez	$v0,40b8dc <_ushardlock_detach+0x1b0>
  40b8b8:	00402025 	move	$a0,$v0
  40b8bc:	8f988ab0 	lw	$t8,-30032($gp)
  40b8c0:	24040001 	li	$a0,1
  40b8c4:	13000003 	beqz	$t8,40b8d4 <_ushardlock_detach+0x1a8>
  40b8c8:	3c050042 	lui	$a1,0x42
  40b8cc:	0c1050fc 	jal	4143f0 <_uprint>
  40b8d0:	24a5ab78 	addiu	$a1,$a1,-21640
  40b8d4:	1000001f 	b	40b954 <_ushardlock_detach+0x228>
  40b8d8:	00001025 	move	$v0,$zero
  40b8dc:	3c05686c 	lui	$a1,0x686c
  40b8e0:	34a5616c 	ori	$a1,$a1,0x616c
  40b8e4:	27a6001c 	addiu	$a2,$sp,28
  40b8e8:	afa40024 	sw	$a0,36($sp)
  40b8ec:	0c1040f8 	jal	4103e0 <_ioctl>
  40b8f0:	afa70028 	sw	$a3,40($sp)
  40b8f4:	8fa70028 	lw	$a3,40($sp)
  40b8f8:	2401ffff 	li	$at,-1
  40b8fc:	1441000c 	bne	$v0,$at,40b930 <_ushardlock_detach+0x204>
  40b900:	00000000 	nop
  40b904:	8f998ab0 	lw	$t9,-30032($gp)
  40b908:	24040001 	li	$a0,1
  40b90c:	13200003 	beqz	$t9,40b91c <_ushardlock_detach+0x1f0>
  40b910:	3c050042 	lui	$a1,0x42
  40b914:	0c1050fc 	jal	4143f0 <_uprint>
  40b918:	24a5ab9c 	addiu	$a1,$a1,-21604
  40b91c:	8fa40024 	lw	$a0,36($sp)
  40b920:	0c101ae0 	jal	406b80 <_close>
  40b924:	00000000 	nop
  40b928:	1000000a 	b	40b954 <_ushardlock_detach+0x228>
  40b92c:	00001025 	move	$v0,$zero
  40b930:	8ce80450 	lw	$t0,1104($a3)
  40b934:	8fa9001c 	lw	$t1,28($sp)
  40b938:	00000000 	nop
  40b93c:	01095021 	addu	$t2,$t0,$t1
  40b940:	acea0450 	sw	$t2,1104($a3)
  40b944:	8fa40024 	lw	$a0,36($sp)
  40b948:	0c101ae0 	jal	406b80 <_close>
  40b94c:	00000000 	nop
  40b950:	24020001 	li	$v0,1
  40b954:	8fbf0014 	lw	$ra,20($sp)
  40b958:	27bd0028 	addiu	$sp,$sp,40
  40b95c:	03e00008 	jr	$ra
  40b960:	00000000 	nop
  40b964:	27bdffd0 	addiu	$sp,$sp,-48
  40b968:	afb00018 	sw	$s0,24($sp)
  40b96c:	00808025 	move	$s0,$a0
  40b970:	afbf001c 	sw	$ra,28($sp)
  40b974:	8c840a58 	lw	$a0,2648($a0)
  40b978:	0c102ee6 	jal	40bb98 <_ushardlock_detach+0x46c>
  40b97c:	00000000 	nop
  40b980:	26040858 	addiu	$a0,$s0,2136
  40b984:	8e060450 	lw	$a2,1104($s0)
  40b988:	afa40024 	sw	$a0,36($sp)
  40b98c:	0c10425a 	jal	410968 <_bftstset>
  40b990:	00002825 	move	$a1,$zero
  40b994:	afa20028 	sw	$v0,40($sp)
  40b998:	8e0e0450 	lw	$t6,1104($s0)
  40b99c:	00000000 	nop
  40b9a0:	004e082a 	slt	$at,$v0,$t6
  40b9a4:	1420000b 	bnez	$at,40b9d4 <_ushardlock_detach+0x2a8>
  40b9a8:	8fa40024 	lw	$a0,36($sp)
  40b9ac:	0c102e15 	jal	40b854 <_ushardlock_detach+0x128>
  40b9b0:	02002025 	move	$a0,$s0
  40b9b4:	14400007 	bnez	$v0,40b9d4 <_ushardlock_detach+0x2a8>
  40b9b8:	8fa40024 	lw	$a0,36($sp)
  40b9bc:	8e040a58 	lw	$a0,2648($s0)
  40b9c0:	0c102f0a 	jal	40bc28 <_ushardlock_detach+0x4fc>
  40b9c4:	00000000 	nop
  40b9c8:	10000017 	b	40ba28 <_ushardlock_detach+0x2fc>
  40b9cc:	00001025 	move	$v0,$zero
  40b9d0:	8fa40024 	lw	$a0,36($sp)
  40b9d4:	8fa50028 	lw	$a1,40($sp)
  40b9d8:	0c10421c 	jal	410870 <_bset>
  40b9dc:	00000000 	nop
  40b9e0:	8e040a58 	lw	$a0,2648($s0)
  40b9e4:	0c102f0a 	jal	40bc28 <_ushardlock_detach+0x4fc>
  40b9e8:	00000000 	nop
  40b9ec:	8fb80028 	lw	$t8,40($sp)
  40b9f0:	8e0f0854 	lw	$t7,2132($s0)
  40b9f4:	07010003 	bgez	$t8,40ba04 <_ushardlock_detach+0x2d8>
  40b9f8:	0018c983 	sra	$t9,$t8,0x6
  40b9fc:	2701003f 	addiu	$at,$t8,63
  40ba00:	0001c983 	sra	$t9,$at,0x6
  40ba04:	00194340 	sll	$t0,$t9,0xd
  40ba08:	01e84821 	addu	$t1,$t7,$t0
  40ba0c:	07010004 	bgez	$t8,40ba20 <_ushardlock_detach+0x2f4>
  40ba10:	330a003f 	andi	$t2,$t8,0x3f
  40ba14:	11400002 	beqz	$t2,40ba20 <_ushardlock_detach+0x2f4>
  40ba18:	00000000 	nop
  40ba1c:	254affc0 	addiu	$t2,$t2,-64
  40ba20:	000a5880 	sll	$t3,$t2,0x2
  40ba24:	012b1021 	addu	$v0,$t1,$t3
  40ba28:	8fbf001c 	lw	$ra,28($sp)
  40ba2c:	8fb00018 	lw	$s0,24($sp)
  40ba30:	03e00008 	jr	$ra
  40ba34:	27bd0030 	addiu	$sp,$sp,48
  40ba38:	ac800000 	sw	$zero,0($a0)
  40ba3c:	03e00008 	jr	$ra
  40ba40:	00001025 	move	$v0,$zero
  40ba44:	27bdffe8 	addiu	$sp,$sp,-24
  40ba48:	afbf0014 	sw	$ra,20($sp)
  40ba4c:	afa40018 	sw	$a0,24($sp)
  40ba50:	0c102f0a 	jal	40bc28 <_ushardlock_detach+0x4fc>
  40ba54:	afa5001c 	sw	$a1,28($sp)
  40ba58:	8fae001c 	lw	$t6,28($sp)
  40ba5c:	00000000 	nop
  40ba60:	8dc40a58 	lw	$a0,2648($t6)
