
subreg.ld:     file format elf32-bigmips

Disassembly of section .reginfo:

004000a0 <.reginfo>:
  4000a0:	f3fffffe 	0xf3fffffe
  4000a4:	00000000 	nop
  4000a8:	003f3fff 	0x3f3fff
	...
  4000b4:	00425be0 	0x425be0
Disassembly of section .init:

00400fc0 <__istart-0xc>:
	...

00400fcc <__istart>:
  400fcc:	00000000 	nop
  400fd0:	03e00008 	jr	$ra
	...
Disassembly of section .text:

00400fe0 <__start>:
  400fe0:	8fa40000 	lw	$a0,0($sp)
  400fe4:	27a50004 	addiu	$a1,$sp,4
  400fe8:	3c1c0042 	lui	$gp,0x42
  400fec:	24a60004 	addiu	$a2,$a1,4
  400ff0:	00041080 	sll	$v0,$a0,0x2
  400ff4:	279c5be0 	addiu	$gp,$gp,23520
  400ff8:	00c23021 	addu	$a2,$a2,$v0
  400ffc:	3c010042 	lui	$at,0x42
  401000:	27bdffe8 	addiu	$sp,$sp,-24
  401004:	ac26dc00 	sw	$a2,-9216($at)
  401008:	af85af64 	sw	$a1,-20636($gp)
  40100c:	afa00014 	sw	$zero,20($sp)
  401010:	0000f025 	move	$s8,$zero
  401014:	0c1003f3 	jal	400fcc <__istart>
  401018:	af84af68 	sw	$a0,-20632($gp)
  40101c:	0c101578 	jal	4055e0 <__readenv_sigfpe>
  401020:	00000000 	nop
  401024:	3c060042 	lui	$a2,0x42
  401028:	8f84af68 	lw	$a0,-20632($gp)
  40102c:	8f85af64 	lw	$a1,-20636($gp)
  401030:	8cc6dc00 	lw	$a2,-9216($a2)
  401034:	0c100418 	jal	401060 <main>
  401038:	00000000 	nop
  40103c:	0c10155c 	jal	405570 <exit>
  401040:	00402025 	move	$a0,$v0
  401044:	0000000d 	break

00401048 <_mcount>:
  401048:	27bdfff8 	addiu	$sp,$sp,-8
  40104c:	27bd0010 	addiu	$sp,$sp,16
  401050:	03e00008 	jr	$ra
  401054:	0020f825 	move	$ra,$at
	...

00401060 <main>:
  401060:	27bdff68 	addiu	$sp,$sp,-152
  401064:	afbf0094 	sw	$ra,148($sp)
  401068:	afbc0090 	sw	$gp,144($sp)
  40106c:	afb1008c 	sw	$s1,140($sp)
  401070:	afb00088 	sw	$s0,136($sp)
  401074:	3c050042 	lui	$a1,0x42
  401078:	24a5a0c4 	addiu	$a1,$a1,-24380
  40107c:	88a20000 	lwl	$v0,0($a1)
  401080:	98a20003 	lwr	$v0,3($a1)
  401084:	88a30004 	lwl	$v1,4($a1)
  401088:	98a30007 	lwr	$v1,7($a1)
  40108c:	88a40008 	lwl	$a0,8($a1)
  401090:	98a4000b 	lwr	$a0,11($a1)
  401094:	aba20018 	swl	$v0,24($sp)
  401098:	bba2001b 	swr	$v0,27($sp)
  40109c:	aba3001c 	swl	$v1,28($sp)
  4010a0:	bba3001f 	swr	$v1,31($sp)
  4010a4:	aba40020 	swl	$a0,32($sp)
  4010a8:	bba40023 	swr	$a0,35($sp)
  4010ac:	88a2000c 	lwl	$v0,12($a1)
  4010b0:	98a2000f 	lwr	$v0,15($a1)
  4010b4:	88a30010 	lwl	$v1,16($a1)
  4010b8:	98a30013 	lwr	$v1,19($a1)
  4010bc:	88a40014 	lwl	$a0,20($a1)
  4010c0:	98a40017 	lwr	$a0,23($a1)
  4010c4:	aba20024 	swl	$v0,36($sp)
  4010c8:	bba20027 	swr	$v0,39($sp)
  4010cc:	aba30028 	swl	$v1,40($sp)
  4010d0:	bba3002b 	swr	$v1,43($sp)
  4010d4:	aba4002c 	swl	$a0,44($sp)
  4010d8:	bba4002f 	swr	$a0,47($sp)
  4010dc:	88a20018 	lwl	$v0,24($a1)
  4010e0:	98a2001b 	lwr	$v0,27($a1)
  4010e4:	80a3001c 	lb	$v1,28($a1)
  4010e8:	80a4001d 	lb	$a0,29($a1)
  4010ec:	aba20030 	swl	$v0,48($sp)
  4010f0:	bba20033 	swr	$v0,51($sp)
  4010f4:	a3a30034 	sb	$v1,52($sp)
  4010f8:	a3a40035 	sb	$a0,53($sp)
  4010fc:	80a2001e 	lb	$v0,30($a1)
  401100:	00000000 	nop
  401104:	a3a20036 	sb	$v0,54($sp)
  401108:	27a40037 	addiu	$a0,$sp,55
  40110c:	00002821 	move	$a1,$zero
  401110:	0c1019bc 	jal	4066f0 <memset>
  401114:	24060013 	li	$a2,19
  401118:	3c050042 	lui	$a1,0x42
  40111c:	24a5a0e4 	addiu	$a1,$a1,-24348
  401120:	8ca20000 	lw	$v0,0($a1)
  401124:	8ca30004 	lw	$v1,4($a1)
  401128:	84a40008 	lh	$a0,8($a1)
  40112c:	afa20050 	sw	$v0,80($sp)
  401130:	afa30054 	sw	$v1,84($sp)
  401134:	a7a40058 	sh	$a0,88($sp)
  401138:	3c040042 	lui	$a0,0x42
  40113c:	2484a0f0 	addiu	$a0,$a0,-24336
  401140:	27b10050 	addiu	$s1,$sp,80
  401144:	0c10157c 	jal	4055f0 <printf>
  401148:	02202821 	move	$a1,$s1
  40114c:	27b00018 	addiu	$s0,$sp,24
  401150:	0c101ad0 	jal	406b40 <strlen>
  401154:	02002021 	move	$a0,$s0
  401158:	02202021 	move	$a0,$s1
  40115c:	02002821 	move	$a1,$s0
  401160:	0c1019e0 	jal	406780 <memcpy>
  401164:	24460001 	addiu	$a2,$v0,1
  401168:	3c040042 	lui	$a0,0x42
  40116c:	2484a10c 	addiu	$a0,$a0,-24308
  401170:	0c10157c 	jal	4055f0 <printf>
  401174:	02202821 	move	$a1,$s1
  401178:	00001021 	move	$v0,$zero
  40117c:	8fbf0094 	lw	$ra,148($sp)
  401180:	8fb1008c 	lw	$s1,140($sp)
  401184:	8fb00088 	lw	$s0,136($sp)
  401188:	03e00008 	jr	$ra
  40118c:	27bd0098 	addiu	$sp,$sp,152

00401190 <_LoadDouble>:
  401190:	d8820000 	0xd8820000
  401194:	03e00008 	jr	$ra
  401198:	00000000 	nop

0040119c <_StoreDouble>:
  40119c:	03e00008 	jr	$ra
  4011a0:	f8860000 	0xf8860000

004011a4 <_Sync>:
  4011a4:	03e00008 	jr	$ra
  4011a8:	0000000f 	0xf

004011ac <_Prefetch>:
  4011ac:	cc800000 	lwc3	$0,0($a0)
  4011b0:	03e00008 	jr	$ra
  4011b4:	00000000 	nop

004011b8 <_PrefetchX>:
  4011b8:	cc810000 	lwc3	$1,0($a0)
  4011bc:	03e00008 	jr	$ra
  4011c0:	00000000 	nop

004011c4 <_FetchAndInc>:
  4011c4:	c0820000 	lwc0	$2,0($a0)
  4011c8:	20450001 	addi	$a1,$v0,1
  4011cc:	e0850000 	swc0	$5,0($a0)
  4011d0:	10a0fffc 	beqz	$a1,4011c4 <_FetchAndInc>
  4011d4:	00000000 	nop
  4011d8:	03e00008 	jr	$ra
  4011dc:	00000000 	nop

004011e0 <_ArrayLockAcquire>:
  4011e0:	c0a20000 	lwc0	$2,0($a1)
  4011e4:	20470001 	addi	$a3,$v0,1
  4011e8:	14e60002 	bne	$a3,$a2,4011f4 <_ArrayLockNoWrap>
  4011ec:	00000000 	nop
  4011f0:	00003821 	move	$a3,$zero

004011f4 <_ArrayLockNoWrap>:
  4011f4:	e0a70000 	swc0	$7,0($a1)
  4011f8:	10e0fff9 	beqz	$a3,4011e0 <_ArrayLockAcquire>
  4011fc:	00000000 	nop
  401200:	000239c0 	sll	$a3,$v0,0x7
  401204:	00873821 	addu	$a3,$a0,$a3

00401208 <_ArrayLockWait>:
  401208:	8ce30000 	lw	$v1,0($a3)
  40120c:	1060fffe 	beqz	$v1,401208 <_ArrayLockWait>
  401210:	00000000 	nop
  401214:	ace00000 	sw	$zero,0($a3)

00401218 <_ArrayLockExit>:
  401218:	03e00008 	jr	$ra
  40121c:	00000000 	nop

00401220 <_ArrayUnlockEntry>:
  401220:	20a20001 	addi	$v0,$a1,1
  401224:	14460002 	bne	$v0,$a2,401230 <_ArrayUnlockNoWrap>
  401228:	00000000 	nop
  40122c:	00001021 	move	$v0,$zero

00401230 <_ArrayUnlockNoWrap>:
  401230:	000211c0 	sll	$v0,$v0,0x7
  401234:	00821021 	addu	$v0,$a0,$v0
  401238:	20030001 	addi	$v1,$zero,1
  40123c:	ac430000 	sw	$v1,0($v0)

00401240 <_ArrayUnlockExit>:
  401240:	03e00008 	jr	$ra
  401244:	00000000 	nop

00401248 <_LockEnter>:
  401248:	c0850000 	lwc0	$5,0($a0)
  40124c:	14a0fffe 	bnez	$a1,401248 <_LockEnter>
  401250:	00000000 	nop
  401254:	24060001 	li	$a2,1
  401258:	e0860000 	swc0	$6,0($a0)
  40125c:	10c0fffa 	beqz	$a2,401248 <_LockEnter>
  401260:	00000000 	nop

00401264 <__Lock_End>:
  401264:	03e00008 	jr	$ra
  401268:	00000000 	nop

0040126c <_Unlock>:
  40126c:	0000000f 	0xf
  401270:	ac800000 	sw	$zero,0($a0)

00401274 <__Unlock_End>:
  401274:	03e00008 	jr	$ra
  401278:	00000000 	nop

0040127c <_Barrier>:
  40127c:	0000000f 	0xf
  401280:	20c70001 	addi	$a3,$a2,1
  401284:	8c880080 	lw	$t0,128($a0)

00401288 <loop>:
  401288:	c0820000 	lwc0	$2,0($a0)
  40128c:	24420001 	addiu	$v0,$v0,1
  401290:	00053040 	sll	$a2,$a1,0x1
  401294:	14460002 	bne	$v0,$a2,4012a0 <loop+0x18>
  401298:	00000000 	nop
  40129c:	00001021 	move	$v0,$zero
  4012a0:	00404821 	move	$t1,$v0
  4012a4:	e0820000 	swc0	$2,0($a0)
  4012a8:	1040000e 	beqz	$v0,4012e4 <backoff>
  4012ac:	00000000 	nop
  4012b0:	11200008 	beqz	$t1,4012d4 <release>
  4012b4:	00000000 	nop
  4012b8:	11250006 	beq	$t1,$a1,4012d4 <release>
  4012bc:	00000000 	nop

004012c0 <wait>:
  4012c0:	8c890080 	lw	$t1,128($a0)
  4012c4:	1109fffe 	beq	$t0,$t1,4012c0 <wait>
  4012c8:	00000000 	nop

004012cc <__Barrier_End_1>:
  4012cc:	03e00008 	jr	$ra
  4012d0:	00000000 	nop

004012d4 <release>:
  4012d4:	25080001 	addiu	$t0,$t0,1
  4012d8:	ac880080 	sw	$t0,128($a0)

004012dc <__Barrier_End_2>:
  4012dc:	03e00008 	jr	$ra
  4012e0:	00000000 	nop

004012e4 <backoff>:
  4012e4:	00e04821 	move	$t1,$a3

004012e8 <backloop>:
  4012e8:	2129ffff 	addi	$t1,$t1,-1
  4012ec:	1520fffe 	bnez	$t1,4012e8 <backloop>
  4012f0:	00000000 	nop
  4012f4:	081004a2 	j	401288 <loop>
  4012f8:	20e70001 	addi	$a3,$a3,1

004012fc <_CheckPlatform>:
  4012fc:	2402040c 	li	$v0,1036
  401300:	0000000c 	syscall
  401304:	03e00008 	jr	$ra
  401308:	00000000 	nop

0040130c <_Exit>:
  40130c:	240203e9 	li	$v0,1001
  401310:	0000000c 	syscall
  401314:	03e00008 	jr	$ra
  401318:	00000000 	nop

0040131c <_FetchAndStore>:
  40131c:	24070000 	li	$a3,0
  401320:	00803021 	move	$a2,$a0
  401324:	ccc10000 	lwc3	$1,0($a2)

00401328 <_FASTry>:
  401328:	00a04820 	add	$t1,$a1,$zero
  40132c:	c0c80000 	lwc0	$8,0($a2)
  401330:	e0c90000 	swc0	$9,0($a2)
  401334:	00000000 	nop
  401338:	15200005 	bnez	$t1,401350 <_FASEnd>
  40133c:	24020405 	li	$v0,1029
  401340:	00e02021 	move	$a0,$a3
  401344:	0000000c 	syscall
  401348:	20e70001 	addi	$a3,$a3,1
  40134c:	1000fff6 	b	401328 <_FASTry>

00401350 <_FASEnd>:
  401350:	01001020 	add	$v0,$t0,$zero
  401354:	03e00008 	jr	$ra
  401358:	00000000 	nop

0040135c <_CompareAndSwap>:
  40135c:	24070000 	li	$a3,0
  401360:	00805021 	move	$t2,$a0
  401364:	cd410000 	lwc3	$1,0($t2)

00401368 <_CASTry>:
  401368:	00c04820 	add	$t1,$a2,$zero
  40136c:	c1480000 	lwc0	$8,0($t2)
  401370:	00000000 	nop
  401374:	1505000c 	bne	$t0,$a1,4013a8 <_CASFail>
  401378:	00000000 	nop
  40137c:	e1490000 	swc0	$9,0($t2)
  401380:	00000000 	nop
  401384:	15200005 	bnez	$t1,40139c <_CASEnd>
  401388:	24020405 	li	$v0,1029
  40138c:	00e02021 	move	$a0,$a3
  401390:	0000000c 	syscall
  401394:	20e70001 	addi	$a3,$a3,1
  401398:	1000fff3 	b	401368 <_CASTry>

0040139c <_CASEnd>:
  40139c:	24020001 	li	$v0,1
  4013a0:	03e00008 	jr	$ra
  4013a4:	00000000 	nop

004013a8 <_CASFail>:
  4013a8:	00001020 	add	$v0,$zero,$zero
  4013ac:	03e00008 	jr	$ra
  4013b0:	00000000 	nop

004013b4 <_CountDown>:
  4013b4:	10800004 	beqz	$a0,4013c8 <_CD_done>
  4013b8:	00000000 	nop

004013bc <_CD>:
  4013bc:	2484ffff 	addiu	$a0,$a0,-1
  4013c0:	1c80fffe 	bgtz	$a0,4013bc <_CD>
  4013c4:	00000000 	nop

004013c8 <_CD_done>:
  4013c8:	03e00008 	jr	$ra
  4013cc:	00000000 	nop

004013d0 <_DummyNops>:
	...
  4053d0:	03e00008 	jr	$ra

004053d4 <LibcStart>:
  4053d4:	03e00008 	jr	$ra
	...

004053e0 <_Page_Flush_D>:
  4053e0:	00042820 	add	$a1,$zero,$a0
  4053e4:	24040011 	li	$a0,17
  4053e8:	2402049d 	li	$v0,1181
  4053ec:	0000000c 	syscall
  4053f0:	03e00008 	jr	$ra
  4053f4:	00000000 	nop

004053f8 <_Page_Flush_S>:
  4053f8:	00042820 	add	$a1,$zero,$a0
  4053fc:	24040012 	li	$a0,18
  405400:	2402049d 	li	$v0,1181
  405404:	0000000c 	syscall
  405408:	03e00008 	jr	$ra
  40540c:	00000000 	nop

00405410 <_Hit_WB_Inval_D>:
  405410:	00042820 	add	$a1,$zero,$a0
  405414:	2404000b 	li	$a0,11
  405418:	2402049d 	li	$v0,1181
  40541c:	0000000c 	syscall
  405420:	03e00008 	jr	$ra
  405424:	00000000 	nop

00405428 <_Hit_WB_Inval_S>:
  405428:	00042820 	add	$a1,$zero,$a0
  40542c:	2404000c 	li	$a0,12
  405430:	2402049d 	li	$v0,1181
  405434:	0000000c 	syscall
  405438:	03e00008 	jr	$ra
  40543c:	00000000 	nop

00405440 <_Index_WB_Inval_D>:
  405440:	00053020 	add	$a2,$zero,$a1
  405444:	00042820 	add	$a1,$zero,$a0
  405448:	2404000d 	li	$a0,13
  40544c:	2402049d 	li	$v0,1181
  405450:	0000000c 	syscall
  405454:	03e00008 	jr	$ra
  405458:	00000000 	nop

0040545c <_Index_WB_Inval_S>:
  40545c:	00053020 	add	$a2,$zero,$a1
  405460:	00042820 	add	$a1,$zero,$a0
  405464:	2404000e 	li	$a0,14
  405468:	2402049d 	li	$v0,1181
  40546c:	0000000c 	syscall
  405470:	03e00008 	jr	$ra
  405474:	00000000 	nop

00405478 <_PlaceRange>:
  405478:	00063820 	add	$a3,$zero,$a2
  40547c:	00053020 	add	$a2,$zero,$a1
  405480:	00042820 	add	$a1,$zero,$a0
  405484:	24040004 	li	$a0,4
  405488:	2402049d 	li	$v0,1181
  40548c:	0000000c 	syscall
  405490:	03e00008 	jr	$ra
  405494:	00000000 	nop

00405498 <_Create>:
  405498:	00053020 	add	$a2,$zero,$a1
  40549c:	00042820 	add	$a1,$zero,$a0
  4054a0:	24040006 	li	$a0,6
  4054a4:	2402049d 	li	$v0,1181
  4054a8:	0000000c 	syscall
  4054ac:	03e00008 	jr	$ra
  4054b0:	00000000 	nop

004054b4 <_Wait_for_end>:
  4054b4:	00042820 	add	$a1,$zero,$a0
  4054b8:	24040007 	li	$a0,7
  4054bc:	2402049d 	li	$v0,1181
  4054c0:	0000000c 	syscall
  4054c4:	03e00008 	jr	$ra
  4054c8:	00000000 	nop

004054cc <_Syscall>:
  4054cc:	2402049d 	li	$v0,1181
  4054d0:	0000000c 	syscall
  4054d4:	03e00008 	jr	$ra
  4054d8:	00801020 	add	$v0,$a0,$zero

004054dc <_IOMap>:
  4054dc:	00042820 	add	$a1,$zero,$a0
  4054e0:	24040008 	li	$a0,8
  4054e4:	2402049d 	li	$v0,1181
  4054e8:	0000000c 	syscall
  4054ec:	03e00008 	jr	$ra
  4054f0:	00000000 	nop

004054f4 <_IOMapGeneral>:
  4054f4:	00054020 	add	$t0,$zero,$a1
  4054f8:	00042820 	add	$a1,$zero,$a0
  4054fc:	24040009 	li	$a0,9
  405500:	2402049d 	li	$v0,1181
  405504:	0000000c 	syscall
  405508:	03e00008 	jr	$ra
  40550c:	00000000 	nop

00405510 <_MemoryMap>:
  405510:	8fa20010 	lw	$v0,16($sp)
  405514:	00024820 	add	$t1,$zero,$v0
  405518:	00074020 	add	$t0,$zero,$a3
  40551c:	00063820 	add	$a3,$zero,$a2
  405520:	00053020 	add	$a2,$zero,$a1
  405524:	00042820 	add	$a1,$zero,$a0
  405528:	24040013 	li	$a0,19
  40552c:	2402049d 	li	$v0,1181
  405530:	0000000c 	syscall
  405534:	03e00008 	jr	$ra
  405538:	00000000 	nop

0040553c <_GetPhysAddr>:
  40553c:	00042820 	add	$a1,$zero,$a0
  405540:	2404000a 	li	$a0,10
  405544:	2402049d 	li	$v0,1181
  405548:	0000000c 	syscall
  40554c:	00801020 	add	$v0,$a0,$zero
  405550:	03e00008 	jr	$ra
  405554:	00a01820 	add	$v1,$a1,$zero

00405558 <_GetNodeNum>:
  405558:	24040014 	li	$a0,20
  40555c:	2402049d 	li	$v0,1181
  405560:	0000000c 	syscall
  405564:	03e00008 	jr	$ra
  405568:	00801020 	add	$v0,$a0,$zero
  40556c:	00000000 	nop

00405570 <exit>:
  405570:	27bdffe8 	addiu	$sp,$sp,-24
  405574:	afbf0014 	sw	$ra,20($sp)
  405578:	0c101b75 	jal	406dd4 <__eachexithandle>
  40557c:	afa40018 	sw	$a0,24($sp)
  405580:	0c1015dc 	jal	405770 <_prctl>
  405584:	2404000e 	li	$a0,14
  405588:	28410002 	slti	$at,$v0,2
  40558c:	10200009 	beqz	$at,4055b4 <exit+0x44>
  405590:	00000000 	nop
  405594:	0c101b2d 	jal	406cb4 <_exithandle>
  405598:	00000000 	nop
  40559c:	3c0e0000 	lui	$t6,0x0
  4055a0:	25ce0000 	addiu	$t6,$t6,0
  4055a4:	11c00003 	beqz	$t6,4055b4 <exit+0x44>
  4055a8:	00000000 	nop
  4055ac:	0c1015e8 	jal	4057a0 <_rld_new_interface>
  4055b0:	00002025 	move	$a0,$zero
  4055b4:	0c1015f0 	jal	4057c0 <_cleanup>
  4055b8:	00000000 	nop
  4055bc:	8fa40018 	lw	$a0,24($sp)
  4055c0:	0c1015d0 	jal	405740 <__exit>
  4055c4:	00000000 	nop
  4055c8:	8fbf0014 	lw	$ra,20($sp)
  4055cc:	27bd0018 	addiu	$sp,$sp,24
  4055d0:	03e00008 	jr	$ra
	...

004055e0 <__readenv_sigfpe>:
  4055e0:	03e00008 	jr	$ra
	...

004055f0 <printf>:
  4055f0:	27bdffd8 	addiu	$sp,$sp,-40
  4055f4:	8f8e88b4 	lw	$t6,-30540($gp)
  4055f8:	afbf0014 	sw	$ra,20($sp)
  4055fc:	afa40028 	sw	$a0,40($sp)
  405600:	afa5002c 	sw	$a1,44($sp)
  405604:	afa60030 	sw	$a2,48($sp)
  405608:	11c00006 	beqz	$t6,405624 <printf+0x34>
  40560c:	afa70034 	sw	$a3,52($sp)
  405610:	3c040042 	lui	$a0,0x42
  405614:	0c102c2c 	jal	40b0b0 <_flockfile>
  405618:	2484ddb4 	addiu	$a0,$a0,-8780
  40561c:	10000002 	b	405628 <printf+0x38>
  405620:	24030001 	li	$v1,1
  405624:	00001825 	move	$v1,$zero
  405628:	3c070042 	lui	$a3,0x42
  40562c:	24e7dda4 	addiu	$a3,$a3,-8796
  405630:	90e2001c 	lbu	$v0,28($a3)
  405634:	27a5002c 	addiu	$a1,$sp,44
  405638:	304f0002 	andi	$t7,$v0,0x2
  40563c:	15e0000d 	bnez	$t7,405674 <printf+0x84>
  405640:	30580080 	andi	$t8,$v0,0x80
  405644:	13000003 	beqz	$t8,405654 <printf+0x64>
  405648:	34590002 	ori	$t9,$v0,0x2
  40564c:	10000009 	b	405674 <printf+0x84>
  405650:	a0f9001c 	sb	$t9,28($a3)
  405654:	10600003 	beqz	$v1,405664 <printf+0x74>
  405658:	3c040042 	lui	$a0,0x42
  40565c:	0c102c55 	jal	40b154 <_funlockfile>
  405660:	2484ddb4 	addiu	$a0,$a0,-8780
  405664:	0c102025 	jal	408094 <_setoserror>
  405668:	24040009 	li	$a0,9
  40566c:	10000017 	b	4056cc <printf+0xdc>
  405670:	2402ffff 	li	$v0,-1
  405674:	8fa40028 	lw	$a0,40($sp)
  405678:	3c060042 	lui	$a2,0x42
  40567c:	24c6ddb4 	addiu	$a2,$a2,-8780
  405680:	0c1031e7 	jal	40c79c <_doprnt>
  405684:	afa3001c 	sw	$v1,28($sp)
  405688:	3c070042 	lui	$a3,0x42
  40568c:	24e7dda4 	addiu	$a3,$a3,-8796
  405690:	90e8001c 	lbu	$t0,28($a3)
  405694:	8fa3001c 	lw	$v1,28($sp)
  405698:	31090020 	andi	$t1,$t0,0x20
  40569c:	11200003 	beqz	$t1,4056ac <printf+0xbc>
  4056a0:	00402825 	move	$a1,$v0
  4056a4:	10000001 	b	4056ac <printf+0xbc>
  4056a8:	2405ffff 	li	$a1,-1
  4056ac:	10600006 	beqz	$v1,4056c8 <printf+0xd8>
  4056b0:	3c040042 	lui	$a0,0x42
  4056b4:	2484ddb4 	addiu	$a0,$a0,-8780
  4056b8:	0c102c55 	jal	40b154 <_funlockfile>
  4056bc:	afa50018 	sw	$a1,24($sp)
  4056c0:	8fa50018 	lw	$a1,24($sp)
  4056c4:	00000000 	nop
  4056c8:	00a01025 	move	$v0,$a1
  4056cc:	8fbf0014 	lw	$ra,20($sp)
  4056d0:	27bd0028 	addiu	$sp,$sp,40
  4056d4:	03e00008 	jr	$ra
	...

004056e0 <_execv>:
  4056e0:	27bdffe8 	addiu	$sp,$sp,-24
  4056e4:	afbf0014 	sw	$ra,20($sp)
  4056e8:	8f868020 	lw	$a2,-32736($gp)
  4056ec:	0c1015c4 	jal	405710 <_execve>
  4056f0:	00000000 	nop
  4056f4:	8fbf0014 	lw	$ra,20($sp)
  4056f8:	27bd0018 	addiu	$sp,$sp,24
  4056fc:	03e00008 	jr	$ra
	...

00405710 <_execve>:
  405710:	24020423 	li	$v0,1059
  405714:	0000000c 	syscall
  405718:	14e00003 	bnez	$a3,405728 <_execve+0x18>
  40571c:	00000000 	nop
  405720:	03e00008 	jr	$ra
  405724:	00000000 	nop
  405728:	3c190040 	lui	$t9,0x40
  40572c:	27396b60 	addiu	$t9,$t9,27488
  405730:	03200008 	jr	$t9
	...

00405740 <__exit>:
  405740:	240203e9 	li	$v0,1001
  405744:	0000000c 	syscall
  405748:	14e00003 	bnez	$a3,405758 <__exit+0x18>
  40574c:	00000000 	nop
  405750:	03e00008 	jr	$ra
  405754:	00000000 	nop
  405758:	3c190040 	lui	$t9,0x40
  40575c:	27396b60 	addiu	$t9,$t9,27488
  405760:	03200008 	jr	$t9
	...

00405770 <_prctl>:
  405770:	2402046a 	li	$v0,1130
  405774:	0000000c 	syscall
  405778:	14e00003 	bnez	$a3,405788 <_prctl+0x18>
  40577c:	00000000 	nop
  405780:	03e00008 	jr	$ra
  405784:	00000000 	nop
  405788:	3c190040 	lui	$t9,0x40
  40578c:	27396b60 	addiu	$t9,$t9,27488
  405790:	03200008 	jr	$t9
	...

004057a0 <_rld_new_interface>:
  4057a0:	27bdfff8 	addiu	$sp,$sp,-8
  4057a4:	afa40008 	sw	$a0,8($sp)
  4057a8:	afa5000c 	sw	$a1,12($sp)
  4057ac:	afa60010 	sw	$a2,16($sp)
  4057b0:	afa70014 	sw	$a3,20($sp)
  4057b4:	03e00008 	jr	$ra
  4057b8:	27bd0008 	addiu	$sp,$sp,8
  4057bc:	00000000 	nop

004057c0 <_cleanup>:
  4057c0:	27bdffe8 	addiu	$sp,$sp,-24
  4057c4:	afbf0014 	sw	$ra,20($sp)
  4057c8:	0c1018b0 	jal	4062c0 <fflush>
  4057cc:	00002025 	move	$a0,$zero
  4057d0:	8fbf0014 	lw	$ra,20($sp)
  4057d4:	27bd0018 	addiu	$sp,$sp,24
  4057d8:	03e00008 	jr	$ra
  4057dc:	00000000 	nop

004057e0 <_flushlbf>:
  4057e0:	27bdffc8 	addiu	$sp,$sp,-56
  4057e4:	8f8e88b4 	lw	$t6,-30540($gp)
  4057e8:	afbf0034 	sw	$ra,52($sp)
  4057ec:	afb60030 	sw	$s6,48($sp)
  4057f0:	afb5002c 	sw	$s5,44($sp)
  4057f4:	afb40028 	sw	$s4,40($sp)
  4057f8:	afb30024 	sw	$s3,36($sp)
  4057fc:	afb20020 	sw	$s2,32($sp)
  405800:	afb1001c 	sw	$s1,28($sp)
  405804:	11c00008 	beqz	$t6,405828 <_flushlbf+0x48>
  405808:	afb00018 	sw	$s0,24($sp)
  40580c:	8f84aed0 	lw	$a0,-20784($gp)
  405810:	0c102034 	jal	4080d0 <_uspsema>
  405814:	00000000 	nop
  405818:	24140001 	li	$s4,1
  40581c:	00541826 	xor	$v1,$v0,$s4
  405820:	10000003 	b	405830 <_flushlbf+0x50>
  405824:	2c630001 	sltiu	$v1,$v1,1
  405828:	00001825 	move	$v1,$zero
  40582c:	24140001 	li	$s4,1
  405830:	8f848828 	lw	$a0,-30680($gp)
  405834:	27958810 	addiu	$s5,$gp,-30704
  405838:	279681c4 	addiu	$s6,$gp,-32316
  40583c:	24130042 	li	$s3,66
  405840:	8f8f8804 	lw	$t7,-30716($gp)
  405844:	00809025 	move	$s2,$a0
  405848:	01f61023 	subu	$v0,$t7,$s6
  40584c:	0002c103 	sra	$t8,$v0,0x4
  405850:	2b010065 	slti	$at,$t8,101
  405854:	14200003 	bnez	$at,405864 <_flushlbf+0x84>
  405858:	af988820 	sw	$t8,-30688($gp)
  40585c:	24190064 	li	$t9,100
  405860:	af998820 	sw	$t9,-30688($gp)
  405864:	8eb10010 	lw	$s1,16($s5)
  405868:	8eb00000 	lw	$s0,0($s5)
  40586c:	2631ffff 	addiu	$s1,$s1,-1
  405870:	0620001f 	bltz	$s1,4058f0 <_flushlbf+0x110>
  405874:	00000000 	nop
  405878:	9208000c 	lbu	$t0,12($s0)
  40587c:	00000000 	nop
  405880:	31090042 	andi	$t1,$t0,0x42
  405884:	16690017 	bne	$s3,$t1,4058e4 <_flushlbf+0x104>
  405888:	00000000 	nop
  40588c:	10600004 	beqz	$v1,4058a0 <_flushlbf+0xc0>
  405890:	00000000 	nop
  405894:	8f84aed0 	lw	$a0,-20784($gp)
  405898:	0c10203c 	jal	4080f0 <_usvsema>
  40589c:	00000000 	nop
  4058a0:	0c1018b0 	jal	4062c0 <fflush>
  4058a4:	02002025 	move	$a0,$s0
  4058a8:	8f8a88b4 	lw	$t2,-30540($gp)
  4058ac:	8f84aed0 	lw	$a0,-20784($gp)
  4058b0:	11400006 	beqz	$t2,4058cc <_flushlbf+0xec>
  4058b4:	00001825 	move	$v1,$zero
  4058b8:	0c102034 	jal	4080d0 <_uspsema>
  4058bc:	00000000 	nop
  4058c0:	00541826 	xor	$v1,$v0,$s4
  4058c4:	10000001 	b	4058cc <_flushlbf+0xec>
  4058c8:	2c630001 	sltiu	$v1,$v1,1
  4058cc:	8f848828 	lw	$a0,-30680($gp)
  4058d0:	00000000 	nop
  4058d4:	12440004 	beq	$s2,$a0,4058e8 <_flushlbf+0x108>
  4058d8:	2631ffff 	addiu	$s1,$s1,-1
  4058dc:	1000ffd8 	b	405840 <_flushlbf+0x60>
  4058e0:	27958810 	addiu	$s5,$gp,-30704
  4058e4:	2631ffff 	addiu	$s1,$s1,-1
  4058e8:	0621ffe3 	bgez	$s1,405878 <_flushlbf+0x98>
  4058ec:	26100010 	addiu	$s0,$s0,16
  4058f0:	8eb50014 	lw	$s5,20($s5)
  4058f4:	00000000 	nop
  4058f8:	16a0ffda 	bnez	$s5,405864 <_flushlbf+0x84>
  4058fc:	00000000 	nop
  405900:	10600005 	beqz	$v1,405918 <_flushlbf+0x138>
  405904:	8fbf0034 	lw	$ra,52($sp)
  405908:	8f84aed0 	lw	$a0,-20784($gp)
  40590c:	0c10203c 	jal	4080f0 <_usvsema>
  405910:	00000000 	nop
  405914:	8fbf0034 	lw	$ra,52($sp)
  405918:	8fb00018 	lw	$s0,24($sp)
  40591c:	8fb1001c 	lw	$s1,28($sp)
  405920:	8fb20020 	lw	$s2,32($sp)
  405924:	8fb30024 	lw	$s3,36($sp)
  405928:	8fb40028 	lw	$s4,40($sp)
  40592c:	8fb5002c 	lw	$s5,44($sp)
  405930:	8fb60030 	lw	$s6,48($sp)
  405934:	03e00008 	jr	$ra
  405938:	27bd0038 	addiu	$sp,$sp,56

0040593c <_findiop>:
  40593c:	8f988804 	lw	$t8,-30716($gp)
  405940:	279981c4 	addiu	$t9,$gp,-32316
  405944:	8f8e8828 	lw	$t6,-30680($gp)
  405948:	03191023 	subu	$v0,$t8,$t9
  40594c:	00024103 	sra	$t0,$v0,0x4
  405950:	27bdffd8 	addiu	$sp,$sp,-40
  405954:	29010065 	slti	$at,$t0,101
  405958:	25cf0001 	addiu	$t7,$t6,1
  40595c:	afbf0014 	sw	$ra,20($sp)
  405960:	af8f8828 	sw	$t7,-30680($gp)
  405964:	27848810 	addiu	$a0,$gp,-30704
  405968:	14200003 	bnez	$at,405978 <_findiop+0x3c>
  40596c:	af888820 	sw	$t0,-30688($gp)
  405970:	24090064 	li	$t1,100
  405974:	af898820 	sw	$t1,-30688($gp)
  405978:	8c820010 	lw	$v0,16($a0)
  40597c:	8c830000 	lw	$v1,0($a0)
  405980:	2442ffff 	addiu	$v0,$v0,-1
  405984:	0440000c 	bltz	$v0,4059b8 <_findiop+0x7c>
  405988:	24870014 	addiu	$a3,$a0,20
  40598c:	906a000c 	lbu	$t2,12($v1)
  405990:	2442ffff 	addiu	$v0,$v0,-1
  405994:	15400006 	bnez	$t2,4059b0 <_findiop+0x74>
  405998:	00000000 	nop
  40599c:	ac600000 	sw	$zero,0($v1)
  4059a0:	ac600004 	sw	$zero,4($v1)
  4059a4:	ac600008 	sw	$zero,8($v1)
  4059a8:	10000021 	b	405a30 <_findiop+0xf4>
  4059ac:	00601025 	move	$v0,$v1
  4059b0:	0441fff6 	bgez	$v0,40598c <_findiop+0x50>
  4059b4:	24630010 	addiu	$v1,$v1,16
  4059b8:	8c840014 	lw	$a0,20($a0)
  4059bc:	00000000 	nop
  4059c0:	1480ffed 	bnez	$a0,405978 <_findiop+0x3c>
  4059c4:	00000000 	nop
  4059c8:	240400c8 	li	$a0,200
  4059cc:	0c101bd2 	jal	406f48 <_malloc>
  4059d0:	afa70020 	sw	$a3,32($sp)
  4059d4:	8fa70020 	lw	$a3,32($sp)
  4059d8:	14400003 	bnez	$v0,4059e8 <_findiop+0xac>
  4059dc:	00402025 	move	$a0,$v0
  4059e0:	10000013 	b	405a30 <_findiop+0xf4>
  4059e4:	00001025 	move	$v0,$zero
  4059e8:	00002825 	move	$a1,$zero
  4059ec:	240600c8 	li	$a2,200
  4059f0:	afa4001c 	sw	$a0,28($sp)
  4059f4:	0c1019bc 	jal	4066f0 <memset>
  4059f8:	afa70020 	sw	$a3,32($sp)
  4059fc:	8fa4001c 	lw	$a0,28($sp)
  405a00:	8fa70020 	lw	$a3,32($sp)
  405a04:	240b0008 	li	$t3,8
  405a08:	24820018 	addiu	$v0,$a0,24
  405a0c:	248c0098 	addiu	$t4,$a0,152
  405a10:	248d00b8 	addiu	$t5,$a0,184
  405a14:	248e00c0 	addiu	$t6,$a0,192
  405a18:	ac820000 	sw	$v0,0($a0)
  405a1c:	ac8b0010 	sw	$t3,16($a0)
  405a20:	ac8c0004 	sw	$t4,4($a0)
  405a24:	ac8d0008 	sw	$t5,8($a0)
  405a28:	ac8e000c 	sw	$t6,12($a0)
  405a2c:	ace40000 	sw	$a0,0($a3)
  405a30:	8fbf0014 	lw	$ra,20($sp)
  405a34:	27bd0028 	addiu	$sp,$sp,40
  405a38:	03e00008 	jr	$ra
  405a3c:	00000000 	nop

00405a40 <_setbufend>:
  405a40:	8f8e88b4 	lw	$t6,-30540($gp)
  405a44:	27bdffe8 	addiu	$sp,$sp,-24
  405a48:	afbf0014 	sw	$ra,20($sp)
  405a4c:	afa5001c 	sw	$a1,28($sp)
  405a50:	11c00008 	beqz	$t6,405a74 <_setbufend+0x34>
  405a54:	00803025 	move	$a2,$a0
  405a58:	8f84aed0 	lw	$a0,-20784($gp)
  405a5c:	0c102034 	jal	4080d0 <_uspsema>
  405a60:	afa60018 	sw	$a2,24($sp)
  405a64:	8fa60018 	lw	$a2,24($sp)
  405a68:	38470001 	xori	$a3,$v0,0x1
  405a6c:	10000002 	b	405a78 <_setbufend+0x38>
  405a70:	2ce70001 	sltiu	$a3,$a3,1
  405a74:	00003825 	move	$a3,$zero
  405a78:	27828810 	addiu	$v0,$gp,-30704
  405a7c:	8c430000 	lw	$v1,0($v0)
  405a80:	00000000 	nop
  405a84:	00c3082b 	sltu	$at,$a2,$v1
  405a88:	1420001b 	bnez	$at,405af8 <_setbufend+0xb8>
  405a8c:	00000000 	nop
  405a90:	8c4f0010 	lw	$t7,16($v0)
  405a94:	00000000 	nop
  405a98:	000fc100 	sll	$t8,$t7,0x4
  405a9c:	0078c821 	addu	$t9,$v1,$t8
  405aa0:	00d9082b 	sltu	$at,$a2,$t9
  405aa4:	10200014 	beqz	$at,405af8 <_setbufend+0xb8>
  405aa8:	00c32023 	subu	$a0,$a2,$v1
  405aac:	8c490004 	lw	$t1,4($v0)
  405ab0:	00044103 	sra	$t0,$a0,0x4
  405ab4:	00085080 	sll	$t2,$t0,0x2
  405ab8:	012a2821 	addu	$a1,$t1,$t2
  405abc:	8cac0000 	lw	$t4,0($a1)
  405ac0:	8fab001c 	lw	$t3,28($sp)
  405ac4:	01002025 	move	$a0,$t0
  405ac8:	116c0002 	beq	$t3,$t4,405ad4 <_setbufend+0x94>
  405acc:	00000000 	nop
  405ad0:	acab0000 	sw	$t3,0($a1)
  405ad4:	8c4d0008 	lw	$t5,8($v0)
  405ad8:	00000000 	nop
  405adc:	01a41821 	addu	$v1,$t5,$a0
  405ae0:	906e0000 	lbu	$t6,0($v1)
  405ae4:	00000000 	nop
  405ae8:	11c00007 	beqz	$t6,405b08 <_setbufend+0xc8>
  405aec:	00000000 	nop
  405af0:	10000005 	b	405b08 <_setbufend+0xc8>
  405af4:	a0600000 	sb	$zero,0($v1)
  405af8:	8c420014 	lw	$v0,20($v0)
  405afc:	00000000 	nop
  405b00:	1440ffde 	bnez	$v0,405a7c <_setbufend+0x3c>
  405b04:	00000000 	nop
  405b08:	10e00005 	beqz	$a3,405b20 <_setbufend+0xe0>
  405b0c:	8fbf0014 	lw	$ra,20($sp)
  405b10:	8f84aed0 	lw	$a0,-20784($gp)
  405b14:	0c10203c 	jal	4080f0 <_usvsema>
  405b18:	00000000 	nop
  405b1c:	8fbf0014 	lw	$ra,20($sp)
  405b20:	27bd0018 	addiu	$sp,$sp,24
  405b24:	03e00008 	jr	$ra
  405b28:	00000000 	nop

00405b2c <_realbufend>:
  405b2c:	8f8e88b4 	lw	$t6,-30540($gp)
  405b30:	27bdffe0 	addiu	$sp,$sp,-32
  405b34:	afbf0014 	sw	$ra,20($sp)
  405b38:	11c00008 	beqz	$t6,405b5c <_realbufend+0x30>
  405b3c:	00802825 	move	$a1,$a0
  405b40:	8f84aed0 	lw	$a0,-20784($gp)
  405b44:	0c102034 	jal	4080d0 <_uspsema>
  405b48:	afa50020 	sw	$a1,32($sp)
  405b4c:	8fa50020 	lw	$a1,32($sp)
  405b50:	38440001 	xori	$a0,$v0,0x1
  405b54:	10000002 	b	405b60 <_realbufend+0x34>
  405b58:	2c840001 	sltiu	$a0,$a0,1
  405b5c:	00002025 	move	$a0,$zero
  405b60:	27828810 	addiu	$v0,$gp,-30704
  405b64:	8c430000 	lw	$v1,0($v0)
  405b68:	00000000 	nop
  405b6c:	00a3082b 	sltu	$at,$a1,$v1
  405b70:	14200016 	bnez	$at,405bcc <_realbufend+0xa0>
  405b74:	00000000 	nop
  405b78:	8c4f0010 	lw	$t7,16($v0)
  405b7c:	00000000 	nop
  405b80:	000fc100 	sll	$t8,$t7,0x4
  405b84:	0078c821 	addu	$t9,$v1,$t8
  405b88:	00b9082b 	sltu	$at,$a1,$t9
  405b8c:	1020000f 	beqz	$at,405bcc <_realbufend+0xa0>
  405b90:	00a34823 	subu	$t1,$a1,$v1
  405b94:	8c480004 	lw	$t0,4($v0)
  405b98:	00095103 	sra	$t2,$t1,0x4
  405b9c:	000a5880 	sll	$t3,$t2,0x2
  405ba0:	010b6021 	addu	$t4,$t0,$t3
  405ba4:	8d860000 	lw	$a2,0($t4)
  405ba8:	10800006 	beqz	$a0,405bc4 <_realbufend+0x98>
  405bac:	00000000 	nop
  405bb0:	8f84aed0 	lw	$a0,-20784($gp)
  405bb4:	0c10203c 	jal	4080f0 <_usvsema>
  405bb8:	afa60018 	sw	$a2,24($sp)
  405bbc:	8fa60018 	lw	$a2,24($sp)
  405bc0:	00000000 	nop
  405bc4:	1000000b 	b	405bf4 <_realbufend+0xc8>
  405bc8:	00c01025 	move	$v0,$a2
  405bcc:	8c420014 	lw	$v0,20($v0)
  405bd0:	00000000 	nop
  405bd4:	1440ffe3 	bnez	$v0,405b64 <_realbufend+0x38>
  405bd8:	00000000 	nop
  405bdc:	10800005 	beqz	$a0,405bf4 <_realbufend+0xc8>
  405be0:	00001025 	move	$v0,$zero
  405be4:	8f84aed0 	lw	$a0,-20784($gp)
  405be8:	0c10203c 	jal	4080f0 <_usvsema>
  405bec:	00000000 	nop
  405bf0:	00001025 	move	$v0,$zero
  405bf4:	8fbf0014 	lw	$ra,20($sp)
  405bf8:	27bd0020 	addiu	$sp,$sp,32
  405bfc:	03e00008 	jr	$ra
  405c00:	00000000 	nop

00405c04 <_incbufend>:
  405c04:	8f8e88b4 	lw	$t6,-30540($gp)
  405c08:	27bdffe8 	addiu	$sp,$sp,-24
  405c0c:	afa5001c 	sw	$a1,28($sp)
  405c10:	00802825 	move	$a1,$a0
  405c14:	afbf0014 	sw	$ra,20($sp)
  405c18:	11c00008 	beqz	$t6,405c3c <_incbufend+0x38>
  405c1c:	afa40018 	sw	$a0,24($sp)
  405c20:	8f84aed0 	lw	$a0,-20784($gp)
  405c24:	0c102034 	jal	4080d0 <_uspsema>
  405c28:	afa50018 	sw	$a1,24($sp)
  405c2c:	8fa50018 	lw	$a1,24($sp)
  405c30:	38480001 	xori	$t0,$v0,0x1
  405c34:	10000002 	b	405c40 <_incbufend+0x3c>
  405c38:	2d080001 	sltiu	$t0,$t0,1
  405c3c:	00004025 	move	$t0,$zero
  405c40:	27828810 	addiu	$v0,$gp,-30704
  405c44:	8c430000 	lw	$v1,0($v0)
  405c48:	00000000 	nop
  405c4c:	00a3082b 	sltu	$at,$a1,$v1
  405c50:	14200018 	bnez	$at,405cb4 <_incbufend+0xb0>
  405c54:	00000000 	nop
  405c58:	8c4f0010 	lw	$t7,16($v0)
  405c5c:	00000000 	nop
  405c60:	000fc100 	sll	$t8,$t7,0x4
  405c64:	0078c821 	addu	$t9,$v1,$t8
  405c68:	00b9082b 	sltu	$at,$a1,$t9
  405c6c:	10200011 	beqz	$at,405cb4 <_incbufend+0xb0>
  405c70:	00a32023 	subu	$a0,$a1,$v1
  405c74:	8c4a0004 	lw	$t2,4($v0)
  405c78:	00044903 	sra	$t1,$a0,0x4
  405c7c:	00095880 	sll	$t3,$t1,0x2
  405c80:	014b3021 	addu	$a2,$t2,$t3
  405c84:	8ccc0000 	lw	$t4,0($a2)
  405c88:	00000000 	nop
  405c8c:	258d0001 	addiu	$t5,$t4,1
  405c90:	accd0000 	sw	$t5,0($a2)
  405c94:	8c4e0008 	lw	$t6,8($v0)
  405c98:	00000000 	nop
  405c9c:	01c93821 	addu	$a3,$t6,$t1
  405ca0:	90ef0000 	lbu	$t7,0($a3)
  405ca4:	00000000 	nop
  405ca8:	25f80001 	addiu	$t8,$t7,1
  405cac:	10000005 	b	405cc4 <_incbufend+0xc0>
  405cb0:	a0f80000 	sb	$t8,0($a3)
  405cb4:	8c420014 	lw	$v0,20($v0)
  405cb8:	00000000 	nop
  405cbc:	1440ffe1 	bnez	$v0,405c44 <_incbufend+0x40>
  405cc0:	00000000 	nop
  405cc4:	11000005 	beqz	$t0,405cdc <_incbufend+0xd8>
  405cc8:	8fbf0014 	lw	$ra,20($sp)
  405ccc:	8f84aed0 	lw	$a0,-20784($gp)
  405cd0:	0c10203c 	jal	4080f0 <_usvsema>
  405cd4:	00000000 	nop
  405cd8:	8fbf0014 	lw	$ra,20($sp)
  405cdc:	27bd0018 	addiu	$sp,$sp,24
  405ce0:	03e00008 	jr	$ra
  405ce4:	00000000 	nop

00405ce8 <_resetbufend>:
  405ce8:	8f8e88b4 	lw	$t6,-30540($gp)
  405cec:	27bdffe8 	addiu	$sp,$sp,-24
  405cf0:	afbf0014 	sw	$ra,20($sp)
  405cf4:	11c00008 	beqz	$t6,405d18 <_resetbufend+0x30>
  405cf8:	00802825 	move	$a1,$a0
  405cfc:	8f84aed0 	lw	$a0,-20784($gp)
  405d00:	0c102034 	jal	4080d0 <_uspsema>
  405d04:	afa50018 	sw	$a1,24($sp)
  405d08:	8fa50018 	lw	$a1,24($sp)
  405d0c:	38470001 	xori	$a3,$v0,0x1
  405d10:	10000002 	b	405d1c <_resetbufend+0x34>
  405d14:	2ce70001 	sltiu	$a3,$a3,1
  405d18:	00003825 	move	$a3,$zero
  405d1c:	27828810 	addiu	$v0,$gp,-30704
  405d20:	8c430000 	lw	$v1,0($v0)
  405d24:	00000000 	nop
  405d28:	00a3082b 	sltu	$at,$a1,$v1
  405d2c:	14200018 	bnez	$at,405d90 <_resetbufend+0xa8>
  405d30:	00000000 	nop
  405d34:	8c4f0010 	lw	$t7,16($v0)
  405d38:	00000000 	nop
  405d3c:	000fc100 	sll	$t8,$t7,0x4
  405d40:	0078c821 	addu	$t9,$v1,$t8
  405d44:	00b9082b 	sltu	$at,$a1,$t9
  405d48:	10200011 	beqz	$at,405d90 <_resetbufend+0xa8>
  405d4c:	00a32023 	subu	$a0,$a1,$v1
  405d50:	8c490004 	lw	$t1,4($v0)
  405d54:	8c4c0008 	lw	$t4,8($v0)
  405d58:	00044103 	sra	$t0,$a0,0x4
  405d5c:	00085080 	sll	$t2,$t0,0x2
  405d60:	012a3021 	addu	$a2,$t1,$t2
  405d64:	01886821 	addu	$t5,$t4,$t0
  405d68:	91ae0000 	lbu	$t6,0($t5)
  405d6c:	8ccb0000 	lw	$t3,0($a2)
  405d70:	00000000 	nop
  405d74:	016e7823 	subu	$t7,$t3,$t6
  405d78:	accf0000 	sw	$t7,0($a2)
  405d7c:	8c580008 	lw	$t8,8($v0)
  405d80:	00000000 	nop
  405d84:	0308c821 	addu	$t9,$t8,$t0
  405d88:	10000005 	b	405da0 <_resetbufend+0xb8>
  405d8c:	a3200000 	sb	$zero,0($t9)
  405d90:	8c420014 	lw	$v0,20($v0)
  405d94:	00000000 	nop
  405d98:	1440ffe1 	bnez	$v0,405d20 <_resetbufend+0x38>
  405d9c:	00000000 	nop
  405da0:	10e00005 	beqz	$a3,405db8 <_resetbufend+0xd0>
  405da4:	8fbf0014 	lw	$ra,20($sp)
  405da8:	8f84aed0 	lw	$a0,-20784($gp)
  405dac:	0c10203c 	jal	4080f0 <_usvsema>
  405db0:	00000000 	nop
  405db4:	8fbf0014 	lw	$ra,20($sp)
  405db8:	27bd0018 	addiu	$sp,$sp,24
  405dbc:	03e00008 	jr	$ra
  405dc0:	00000000 	nop

00405dc4 <_realbufendadj>:
  405dc4:	8f8e88b4 	lw	$t6,-30540($gp)
  405dc8:	27bdffd8 	addiu	$sp,$sp,-40
  405dcc:	afbf0014 	sw	$ra,20($sp)
  405dd0:	11c00008 	beqz	$t6,405df4 <_realbufendadj+0x30>
  405dd4:	00802825 	move	$a1,$a0
  405dd8:	8f84aed0 	lw	$a0,-20784($gp)
  405ddc:	0c102034 	jal	4080d0 <_uspsema>
  405de0:	afa50028 	sw	$a1,40($sp)
  405de4:	8fa50028 	lw	$a1,40($sp)
  405de8:	38440001 	xori	$a0,$v0,0x1
  405dec:	10000002 	b	405df8 <_realbufendadj+0x34>
  405df0:	2c840001 	sltiu	$a0,$a0,1
  405df4:	00002025 	move	$a0,$zero
  405df8:	00003025 	move	$a2,$zero
  405dfc:	27828810 	addiu	$v0,$gp,-30704
  405e00:	8c430000 	lw	$v1,0($v0)
  405e04:	00000000 	nop
  405e08:	00a3082b 	sltu	$at,$a1,$v1
  405e0c:	1420000f 	bnez	$at,405e4c <_realbufendadj+0x88>
  405e10:	00000000 	nop
  405e14:	8c4f0010 	lw	$t7,16($v0)
  405e18:	00000000 	nop
  405e1c:	000fc100 	sll	$t8,$t7,0x4
  405e20:	0078c821 	addu	$t9,$v1,$t8
  405e24:	00b9082b 	sltu	$at,$a1,$t9
  405e28:	10200008 	beqz	$at,405e4c <_realbufendadj+0x88>
  405e2c:	00000000 	nop
  405e30:	8c480008 	lw	$t0,8($v0)
  405e34:	00a34823 	subu	$t1,$a1,$v1
  405e38:	00095103 	sra	$t2,$t1,0x4
  405e3c:	010a5821 	addu	$t3,$t0,$t2
  405e40:	91660000 	lbu	$a2,0($t3)
  405e44:	10000005 	b	405e5c <_realbufendadj+0x98>
  405e48:	00000000 	nop
  405e4c:	8c420014 	lw	$v0,20($v0)
  405e50:	00000000 	nop
  405e54:	1440ffea 	bnez	$v0,405e00 <_realbufendadj+0x3c>
  405e58:	00000000 	nop
  405e5c:	10800007 	beqz	$a0,405e7c <_realbufendadj+0xb8>
  405e60:	8fbf0014 	lw	$ra,20($sp)
  405e64:	8f84aed0 	lw	$a0,-20784($gp)
  405e68:	0c10203c 	jal	4080f0 <_usvsema>
  405e6c:	afa60018 	sw	$a2,24($sp)
  405e70:	8fa60018 	lw	$a2,24($sp)
  405e74:	00000000 	nop
  405e78:	8fbf0014 	lw	$ra,20($sp)
  405e7c:	27bd0028 	addiu	$sp,$sp,40
  405e80:	03e00008 	jr	$ra
  405e84:	00c01025 	move	$v0,$a2

00405e88 <_realbufdirty>:
  405e88:	8f8e88b4 	lw	$t6,-30540($gp)
  405e8c:	27bdffd8 	addiu	$sp,$sp,-40
  405e90:	afbf0014 	sw	$ra,20($sp)
  405e94:	11c00008 	beqz	$t6,405eb8 <_realbufdirty+0x30>
  405e98:	00802825 	move	$a1,$a0
  405e9c:	8f84aed0 	lw	$a0,-20784($gp)
  405ea0:	0c102034 	jal	4080d0 <_uspsema>
  405ea4:	afa50028 	sw	$a1,40($sp)
  405ea8:	8fa50028 	lw	$a1,40($sp)
  405eac:	38440001 	xori	$a0,$v0,0x1
  405eb0:	10000002 	b	405ebc <_realbufdirty+0x34>
  405eb4:	2c840001 	sltiu	$a0,$a0,1
  405eb8:	00002025 	move	$a0,$zero
  405ebc:	00003025 	move	$a2,$zero
  405ec0:	27828810 	addiu	$v0,$gp,-30704
  405ec4:	8c430000 	lw	$v1,0($v0)
  405ec8:	00000000 	nop
  405ecc:	00a3082b 	sltu	$at,$a1,$v1
  405ed0:	1420000f 	bnez	$at,405f10 <_realbufdirty+0x88>
  405ed4:	00000000 	nop
  405ed8:	8c4f0010 	lw	$t7,16($v0)
  405edc:	00000000 	nop
  405ee0:	000fc100 	sll	$t8,$t7,0x4
  405ee4:	0078c821 	addu	$t9,$v1,$t8
  405ee8:	00b9082b 	sltu	$at,$a1,$t9
  405eec:	10200008 	beqz	$at,405f10 <_realbufdirty+0x88>
  405ef0:	00000000 	nop
  405ef4:	8c48000c 	lw	$t0,12($v0)
  405ef8:	00a34823 	subu	$t1,$a1,$v1
  405efc:	00095103 	sra	$t2,$t1,0x4
  405f00:	010a5821 	addu	$t3,$t0,$t2
  405f04:	91660000 	lbu	$a2,0($t3)
  405f08:	10000005 	b	405f20 <_realbufdirty+0x98>
  405f0c:	00000000 	nop
  405f10:	8c420014 	lw	$v0,20($v0)
  405f14:	00000000 	nop
  405f18:	1440ffea 	bnez	$v0,405ec4 <_realbufdirty+0x3c>
  405f1c:	00000000 	nop
  405f20:	10800007 	beqz	$a0,405f40 <_realbufdirty+0xb8>
  405f24:	8fbf0014 	lw	$ra,20($sp)
  405f28:	8f84aed0 	lw	$a0,-20784($gp)
  405f2c:	0c10203c 	jal	4080f0 <_usvsema>
  405f30:	afa6001c 	sw	$a2,28($sp)
  405f34:	8fa6001c 	lw	$a2,28($sp)
  405f38:	00000000 	nop
  405f3c:	8fbf0014 	lw	$ra,20($sp)
  405f40:	27bd0028 	addiu	$sp,$sp,40
  405f44:	03e00008 	jr	$ra
  405f48:	00c01025 	move	$v0,$a2

00405f4c <_setbufdirty>:
  405f4c:	8f8e88b4 	lw	$t6,-30540($gp)
  405f50:	27bdffe8 	addiu	$sp,$sp,-24
  405f54:	afbf0014 	sw	$ra,20($sp)
  405f58:	11c00008 	beqz	$t6,405f7c <_setbufdirty+0x30>
  405f5c:	00802825 	move	$a1,$a0
  405f60:	8f84aed0 	lw	$a0,-20784($gp)
  405f64:	0c102034 	jal	4080d0 <_uspsema>
  405f68:	afa50018 	sw	$a1,24($sp)
  405f6c:	8fa50018 	lw	$a1,24($sp)
  405f70:	38440001 	xori	$a0,$v0,0x1
  405f74:	10000002 	b	405f80 <_setbufdirty+0x34>
  405f78:	2c840001 	sltiu	$a0,$a0,1
  405f7c:	00002025 	move	$a0,$zero
  405f80:	27828810 	addiu	$v0,$gp,-30704
  405f84:	8c430000 	lw	$v1,0($v0)
  405f88:	00000000 	nop
  405f8c:	00a3082b 	sltu	$at,$a1,$v1
  405f90:	1420000f 	bnez	$at,405fd0 <_setbufdirty+0x84>
  405f94:	00000000 	nop
  405f98:	8c4f0010 	lw	$t7,16($v0)
  405f9c:	00000000 	nop
  405fa0:	000fc100 	sll	$t8,$t7,0x4
  405fa4:	0078c821 	addu	$t9,$v1,$t8
  405fa8:	00b9082b 	sltu	$at,$a1,$t9
  405fac:	10200008 	beqz	$at,405fd0 <_setbufdirty+0x84>
  405fb0:	00000000 	nop
  405fb4:	8c49000c 	lw	$t1,12($v0)
  405fb8:	00a35023 	subu	$t2,$a1,$v1
  405fbc:	000a5903 	sra	$t3,$t2,0x4
  405fc0:	24080001 	li	$t0,1
  405fc4:	012b6021 	addu	$t4,$t1,$t3
  405fc8:	10000005 	b	405fe0 <_setbufdirty+0x94>
  405fcc:	a1880000 	sb	$t0,0($t4)
  405fd0:	8c420014 	lw	$v0,20($v0)
  405fd4:	00000000 	nop
  405fd8:	1440ffea 	bnez	$v0,405f84 <_setbufdirty+0x38>
  405fdc:	00000000 	nop
  405fe0:	10800005 	beqz	$a0,405ff8 <_setbufdirty+0xac>
  405fe4:	8fbf0014 	lw	$ra,20($sp)
  405fe8:	8f84aed0 	lw	$a0,-20784($gp)
  405fec:	0c10203c 	jal	4080f0 <_usvsema>
  405ff0:	00000000 	nop
  405ff4:	8fbf0014 	lw	$ra,20($sp)
  405ff8:	27bd0018 	addiu	$sp,$sp,24
  405ffc:	03e00008 	jr	$ra
  406000:	00000000 	nop

00406004 <_setbufclean>:
  406004:	8f8e88b4 	lw	$t6,-30540($gp)
  406008:	27bdffe8 	addiu	$sp,$sp,-24
  40600c:	afbf0014 	sw	$ra,20($sp)
  406010:	11c00008 	beqz	$t6,406034 <_setbufclean+0x30>
  406014:	00802825 	move	$a1,$a0
  406018:	8f84aed0 	lw	$a0,-20784($gp)
  40601c:	0c102034 	jal	4080d0 <_uspsema>
  406020:	afa50018 	sw	$a1,24($sp)
  406024:	8fa50018 	lw	$a1,24($sp)
  406028:	38440001 	xori	$a0,$v0,0x1
  40602c:	10000002 	b	406038 <_setbufclean+0x34>
  406030:	2c840001 	sltiu	$a0,$a0,1
  406034:	00002025 	move	$a0,$zero
  406038:	27828810 	addiu	$v0,$gp,-30704
  40603c:	8c430000 	lw	$v1,0($v0)
  406040:	00000000 	nop
  406044:	00a3082b 	sltu	$at,$a1,$v1
  406048:	1420000e 	bnez	$at,406084 <_setbufclean+0x80>
  40604c:	00000000 	nop
  406050:	8c4f0010 	lw	$t7,16($v0)
  406054:	00000000 	nop
  406058:	000fc100 	sll	$t8,$t7,0x4
  40605c:	0078c821 	addu	$t9,$v1,$t8
  406060:	00b9082b 	sltu	$at,$a1,$t9
  406064:	10200007 	beqz	$at,406084 <_setbufclean+0x80>
  406068:	00000000 	nop
  40606c:	8c48000c 	lw	$t0,12($v0)
  406070:	00a34823 	subu	$t1,$a1,$v1
  406074:	00095103 	sra	$t2,$t1,0x4
  406078:	010a5821 	addu	$t3,$t0,$t2
  40607c:	10000005 	b	406094 <_setbufclean+0x90>
  406080:	a1600000 	sb	$zero,0($t3)
  406084:	8c420014 	lw	$v0,20($v0)
  406088:	00000000 	nop
  40608c:	1440ffeb 	bnez	$v0,40603c <_setbufclean+0x38>
  406090:	00000000 	nop
  406094:	10800005 	beqz	$a0,4060ac <_setbufclean+0xa8>
  406098:	8fbf0014 	lw	$ra,20($sp)
  40609c:	8f84aed0 	lw	$a0,-20784($gp)
  4060a0:	0c10203c 	jal	4080f0 <_usvsema>
  4060a4:	00000000 	nop
  4060a8:	8fbf0014 	lw	$ra,20($sp)
  4060ac:	27bd0018 	addiu	$sp,$sp,24
  4060b0:	03e00008 	jr	$ra
  4060b4:	00000000 	nop

004060b8 <_bufsync>:
  4060b8:	8c8e0004 	lw	$t6,4($a0)
  4060bc:	00000000 	nop
  4060c0:	00ae1023 	subu	$v0,$a1,$t6
  4060c4:	04410004 	bgez	$v0,4060d8 <_bufsync+0x20>
  4060c8:	00000000 	nop
  4060cc:	ac850004 	sw	$a1,4($a0)
  4060d0:	03e00008 	jr	$ra
  4060d4:	ac800000 	sw	$zero,0($a0)
  4060d8:	8c8f0000 	lw	$t7,0($a0)
  4060dc:	00000000 	nop
  4060e0:	004f082a 	slt	$at,$v0,$t7
  4060e4:	10200002 	beqz	$at,4060f0 <_bufsync+0x38>
  4060e8:	00000000 	nop
  4060ec:	ac820000 	sw	$v0,0($a0)
  4060f0:	03e00008 	jr	$ra
  4060f4:	00000000 	nop

004060f8 <_xflsbuf>:
  4060f8:	27bdffd8 	addiu	$sp,$sp,-40
  4060fc:	afbf0024 	sw	$ra,36($sp)
  406100:	afb30020 	sw	$s3,32($sp)
  406104:	afb2001c 	sw	$s2,28($sp)
  406108:	afb10018 	sw	$s1,24($sp)
  40610c:	afb00014 	sw	$s0,20($sp)
  406110:	8c920008 	lw	$s2,8($a0)
  406114:	9082000d 	lbu	$v0,13($a0)
  406118:	8c8e0004 	lw	$t6,4($a0)
  40611c:	28410064 	slti	$at,$v0,100
  406120:	00809825 	move	$s3,$a0
  406124:	ac920004 	sw	$s2,4($a0)
  406128:	10200007 	beqz	$at,406148 <_xflsbuf+0x50>
  40612c:	01d28823 	subu	$s1,$t6,$s2
  406130:	00027880 	sll	$t7,$v0,0x2
  406134:	3c050042 	lui	$a1,0x42
  406138:	00af2821 	addu	$a1,$a1,$t7
  40613c:	8ca5dc10 	lw	$a1,-9200($a1)
  406140:	10000005 	b	406158 <_xflsbuf+0x60>
  406144:	9278000c 	lbu	$t8,12($s3)
  406148:	0c1016cb 	jal	405b2c <_realbufend>
  40614c:	02602025 	move	$a0,$s3
  406150:	00402825 	move	$a1,$v0
  406154:	9278000c 	lbu	$t8,12($s3)
  406158:	00b24023 	subu	$t0,$a1,$s2
  40615c:	33190044 	andi	$t9,$t8,0x44
  406160:	13200003 	beqz	$t9,406170 <_xflsbuf+0x78>
  406164:	00000000 	nop
  406168:	10000002 	b	406174 <_xflsbuf+0x7c>
  40616c:	ae600000 	sw	$zero,0($s3)
  406170:	ae680000 	sw	$t0,0($s3)
  406174:	8e620000 	lw	$v0,0($s3)
  406178:	00000000 	nop
  40617c:	04410003 	bgez	$v0,40618c <_xflsbuf+0x94>
  406180:	00401825 	move	$v1,$v0
  406184:	10000001 	b	40618c <_xflsbuf+0x94>
  406188:	00001825 	move	$v1,$zero
  40618c:	8e690004 	lw	$t1,4($s3)
  406190:	00000000 	nop
  406194:	00a95023 	subu	$t2,$a1,$t1
  406198:	0143082a 	slt	$at,$t2,$v1
  40619c:	10200003 	beqz	$at,4061ac <_xflsbuf+0xb4>
  4061a0:	00000000 	nop
  4061a4:	0c10182e 	jal	4060b8 <_bufsync>
  4061a8:	02602025 	move	$a0,$s3
  4061ac:	9262000d 	lbu	$v0,13($s3)
  4061b0:	3c050042 	lui	$a1,0x42
  4061b4:	28410064 	slti	$at,$v0,100
  4061b8:	10200005 	beqz	$at,4061d0 <_xflsbuf+0xd8>
  4061bc:	24a5e530 	addiu	$a1,$a1,-6864
  4061c0:	00a25821 	addu	$t3,$a1,$v0
  4061c4:	91630000 	lbu	$v1,0($t3)
  4061c8:	10000006 	b	4061e4 <_xflsbuf+0xec>
  4061cc:	00000000 	nop
  4061d0:	0c101771 	jal	405dc4 <_realbufendadj>
  4061d4:	02602025 	move	$a0,$s3
  4061d8:	3c050042 	lui	$a1,0x42
  4061dc:	24a5e530 	addiu	$a1,$a1,-6864
  4061e0:	00401825 	move	$v1,$v0
  4061e4:	10600017 	beqz	$v1,406244 <_xflsbuf+0x14c>
  4061e8:	00000000 	nop
  4061ec:	9262000d 	lbu	$v0,13($s3)
  4061f0:	00000000 	nop
  4061f4:	28410064 	slti	$at,$v0,100
  4061f8:	10200010 	beqz	$at,40623c <_xflsbuf+0x144>
  4061fc:	00a26021 	addu	$t4,$a1,$v0
  406200:	91840000 	lbu	$a0,0($t4)
  406204:	00026880 	sll	$t5,$v0,0x2
  406208:	1080000e 	beqz	$a0,406244 <_xflsbuf+0x14c>
  40620c:	3c0e0042 	lui	$t6,0x42
  406210:	25cedc10 	addiu	$t6,$t6,-9200
  406214:	01ae1821 	addu	$v1,$t5,$t6
  406218:	8c6f0000 	lw	$t7,0($v1)
  40621c:	00000000 	nop
  406220:	01e4c023 	subu	$t8,$t7,$a0
  406224:	ac780000 	sw	$t8,0($v1)
  406228:	9279000d 	lbu	$t9,13($s3)
  40622c:	00000000 	nop
  406230:	00b94021 	addu	$t0,$a1,$t9
  406234:	10000003 	b	406244 <_xflsbuf+0x14c>
  406238:	a1000000 	sb	$zero,0($t0)
  40623c:	0c10173a 	jal	405ce8 <_resetbufend>
  406240:	02602025 	move	$a0,$s3
  406244:	16200003 	bnez	$s1,406254 <_xflsbuf+0x15c>
  406248:	02402825 	move	$a1,$s2
  40624c:	10000015 	b	4062a4 <_xflsbuf+0x1ac>
  406250:	00001025 	move	$v0,$zero
  406254:	9264000d 	lbu	$a0,13($s3)
  406258:	0c101af8 	jal	406be0 <_write>
  40625c:	02203025 	move	$a2,$s1
  406260:	1051000f 	beq	$v0,$s1,4062a0 <_xflsbuf+0x1a8>
  406264:	00408025 	move	$s0,$v0
  406268:	1c400006 	bgtz	$v0,406284 <_xflsbuf+0x18c>
  40626c:	02308823 	subu	$s1,$s1,$s0
  406270:	9269000c 	lbu	$t1,12($s3)
  406274:	2402ffff 	li	$v0,-1
  406278:	352a0020 	ori	$t2,$t1,0x20
  40627c:	10000009 	b	4062a4 <_xflsbuf+0x1ac>
  406280:	a26a000c 	sb	$t2,12($s3)
  406284:	02509021 	addu	$s2,$s2,$s0
  406288:	9264000d 	lbu	$a0,13($s3)
  40628c:	02402825 	move	$a1,$s2
  406290:	0c101af8 	jal	406be0 <_write>
  406294:	02203025 	move	$a2,$s1
  406298:	1451fff3 	bne	$v0,$s1,406268 <_xflsbuf+0x170>
  40629c:	00408025 	move	$s0,$v0
  4062a0:	00001025 	move	$v0,$zero
  4062a4:	8fbf0024 	lw	$ra,36($sp)
  4062a8:	8fb00014 	lw	$s0,20($sp)
  4062ac:	8fb10018 	lw	$s1,24($sp)
  4062b0:	8fb2001c 	lw	$s2,28($sp)
  4062b4:	8fb30020 	lw	$s3,32($sp)
  4062b8:	03e00008 	jr	$ra
  4062bc:	27bd0028 	addiu	$sp,$sp,40

004062c0 <fflush>:
  4062c0:	27bdffd0 	addiu	$sp,$sp,-48
  4062c4:	afb30020 	sw	$s3,32($sp)
  4062c8:	afb10018 	sw	$s1,24($sp)
  4062cc:	00808825 	move	$s1,$a0
  4062d0:	afbf002c 	sw	$ra,44($sp)
  4062d4:	afb50028 	sw	$s5,40($sp)
  4062d8:	afb40024 	sw	$s4,36($sp)
  4062dc:	afb2001c 	sw	$s2,28($sp)
  4062e0:	afb00014 	sw	$s0,20($sp)
  4062e4:	14800047 	bnez	$a0,406404 <fflush+0x144>
  4062e8:	00009825 	move	$s3,$zero
  4062ec:	8f8e88b4 	lw	$t6,-30540($gp)
  4062f0:	00001825 	move	$v1,$zero
  4062f4:	11c00008 	beqz	$t6,406318 <fflush+0x58>
  4062f8:	24140001 	li	$s4,1
  4062fc:	8f84aed0 	lw	$a0,-20784($gp)
  406300:	0c102034 	jal	4080d0 <_uspsema>
  406304:	00000000 	nop
  406308:	24140001 	li	$s4,1
  40630c:	00541826 	xor	$v1,$v0,$s4
  406310:	10000001 	b	406318 <fflush+0x58>
  406314:	2c630001 	sltiu	$v1,$v1,1
  406318:	8f848828 	lw	$a0,-30680($gp)
  40631c:	27958810 	addiu	$s5,$gp,-30704
  406320:	8f8f8804 	lw	$t7,-30716($gp)
  406324:	279881c4 	addiu	$t8,$gp,-32316
  406328:	01f81023 	subu	$v0,$t7,$t8
  40632c:	0002c903 	sra	$t9,$v0,0x4
  406330:	2b210065 	slti	$at,$t9,101
  406334:	00809025 	move	$s2,$a0
  406338:	14200003 	bnez	$at,406348 <fflush+0x88>
  40633c:	af998820 	sw	$t9,-30688($gp)
  406340:	24080064 	li	$t0,100
  406344:	af888820 	sw	$t0,-30688($gp)
  406348:	8eb00010 	lw	$s0,16($s5)
  40634c:	8eb10000 	lw	$s1,0($s5)
  406350:	2610ffff 	addiu	$s0,$s0,-1
  406354:	06000020 	bltz	$s0,4063d8 <fflush+0x118>
  406358:	00000000 	nop
  40635c:	9229000c 	lbu	$t1,12($s1)
  406360:	00000000 	nop
  406364:	312a0002 	andi	$t2,$t1,0x2
  406368:	11400018 	beqz	$t2,4063cc <fflush+0x10c>
  40636c:	00000000 	nop
  406370:	10600004 	beqz	$v1,406384 <fflush+0xc4>
  406374:	00000000 	nop
  406378:	8f84aed0 	lw	$a0,-20784($gp)
  40637c:	0c10203c 	jal	4080f0 <_usvsema>
  406380:	00000000 	nop
  406384:	0c1018b0 	jal	4062c0 <fflush>
  406388:	02202025 	move	$a0,$s1
  40638c:	8f8b88b4 	lw	$t3,-30540($gp)
  406390:	02629825 	or	$s3,$s3,$v0
  406394:	11600007 	beqz	$t3,4063b4 <fflush+0xf4>
  406398:	00001825 	move	$v1,$zero
  40639c:	8f84aed0 	lw	$a0,-20784($gp)
  4063a0:	0c102034 	jal	4080d0 <_uspsema>
  4063a4:	00000000 	nop
  4063a8:	00541826 	xor	$v1,$v0,$s4
  4063ac:	10000001 	b	4063b4 <fflush+0xf4>
  4063b0:	2c630001 	sltiu	$v1,$v1,1
  4063b4:	8f848828 	lw	$a0,-30680($gp)
  4063b8:	00000000 	nop
  4063bc:	12440004 	beq	$s2,$a0,4063d0 <fflush+0x110>
  4063c0:	2610ffff 	addiu	$s0,$s0,-1
  4063c4:	1000ffd6 	b	406320 <fflush+0x60>
  4063c8:	27958810 	addiu	$s5,$gp,-30704
  4063cc:	2610ffff 	addiu	$s0,$s0,-1
  4063d0:	0601ffe2 	bgez	$s0,40635c <fflush+0x9c>
  4063d4:	26310010 	addiu	$s1,$s1,16
  4063d8:	8eb50014 	lw	$s5,20($s5)
  4063dc:	00000000 	nop
  4063e0:	16a0ffd9 	bnez	$s5,406348 <fflush+0x88>
  4063e4:	00000000 	nop
  4063e8:	10600004 	beqz	$v1,4063fc <fflush+0x13c>
  4063ec:	00000000 	nop
  4063f0:	8f84aed0 	lw	$a0,-20784($gp)
  4063f4:	0c10203c 	jal	4080f0 <_usvsema>
  4063f8:	00000000 	nop
  4063fc:	10000061 	b	406584 <fflush+0x2c4>
  406400:	02601025 	move	$v0,$s3
  406404:	8f8c88b4 	lw	$t4,-30540($gp)
  406408:	00008025 	move	$s0,$zero
  40640c:	11800005 	beqz	$t4,406424 <fflush+0x164>
  406410:	00000000 	nop
  406414:	0c102c2c 	jal	40b0b0 <_flockfile>
  406418:	02202025 	move	$a0,$s1
  40641c:	10000001 	b	406424 <fflush+0x164>
  406420:	24100001 	li	$s0,1
  406424:	9223000c 	lbu	$v1,12($s1)
  406428:	00000000 	nop
  40642c:	306d0002 	andi	$t5,$v1,0x2
  406430:	15a0003d 	bnez	$t5,406528 <fflush+0x268>
  406434:	00000000 	nop
  406438:	8e220000 	lw	$v0,0($s1)
  40643c:	00000000 	nop
  406440:	18400004 	blez	$v0,406454 <fflush+0x194>
  406444:	00022823 	negu	$a1,$v0
  406448:	9224000d 	lbu	$a0,13($s1)
  40644c:	0c101aec 	jal	406bb0 <_lseek>
  406450:	24060001 	li	$a2,1
  406454:	9222000d 	lbu	$v0,13($s1)
  406458:	8e2e0008 	lw	$t6,8($s1)
  40645c:	28410064 	slti	$at,$v0,100
  406460:	ae200000 	sw	$zero,0($s1)
  406464:	10200007 	beqz	$at,406484 <fflush+0x1c4>
  406468:	ae2e0004 	sw	$t6,4($s1)
  40646c:	3c050042 	lui	$a1,0x42
  406470:	24a5e530 	addiu	$a1,$a1,-6864
  406474:	00a27821 	addu	$t7,$a1,$v0
  406478:	91e30000 	lbu	$v1,0($t7)
  40647c:	10000006 	b	406498 <fflush+0x1d8>
  406480:	00000000 	nop
  406484:	0c101771 	jal	405dc4 <_realbufendadj>
  406488:	02202025 	move	$a0,$s1
  40648c:	3c050042 	lui	$a1,0x42
  406490:	24a5e530 	addiu	$a1,$a1,-6864
  406494:	00401825 	move	$v1,$v0
  406498:	10600017 	beqz	$v1,4064f8 <fflush+0x238>
  40649c:	00000000 	nop
  4064a0:	9222000d 	lbu	$v0,13($s1)
  4064a4:	00000000 	nop
  4064a8:	28410064 	slti	$at,$v0,100
  4064ac:	10200010 	beqz	$at,4064f0 <fflush+0x230>
  4064b0:	00a2c021 	addu	$t8,$a1,$v0
  4064b4:	93040000 	lbu	$a0,0($t8)
  4064b8:	0002c880 	sll	$t9,$v0,0x2
  4064bc:	1080000e 	beqz	$a0,4064f8 <fflush+0x238>
  4064c0:	3c080042 	lui	$t0,0x42
  4064c4:	2508dc10 	addiu	$t0,$t0,-9200
  4064c8:	03281821 	addu	$v1,$t9,$t0
  4064cc:	8c690000 	lw	$t1,0($v1)
  4064d0:	00000000 	nop
  4064d4:	01245023 	subu	$t2,$t1,$a0
  4064d8:	ac6a0000 	sw	$t2,0($v1)
  4064dc:	922b000d 	lbu	$t3,13($s1)
  4064e0:	00000000 	nop
  4064e4:	00ab6021 	addu	$t4,$a1,$t3
  4064e8:	10000003 	b	4064f8 <fflush+0x238>
  4064ec:	a1800000 	sb	$zero,0($t4)
  4064f0:	0c10173a 	jal	405ce8 <_resetbufend>
  4064f4:	02202025 	move	$a0,$s1
  4064f8:	9223000c 	lbu	$v1,12($s1)
  4064fc:	00000000 	nop
  406500:	306d0080 	andi	$t5,$v1,0x80
  406504:	11a00002 	beqz	$t5,406510 <fflush+0x250>
  406508:	306efffe 	andi	$t6,$v1,0xfffe
  40650c:	a22e000c 	sb	$t6,12($s1)
  406510:	12000003 	beqz	$s0,406520 <fflush+0x260>
  406514:	00000000 	nop
  406518:	0c102c55 	jal	40b154 <_funlockfile>
  40651c:	02202025 	move	$a0,$s1
  406520:	10000018 	b	406584 <fflush+0x2c4>
  406524:	00001025 	move	$v0,$zero
  406528:	8e220008 	lw	$v0,8($s1)
  40652c:	00000000 	nop
  406530:	1040000b 	beqz	$v0,406560 <fflush+0x2a0>
  406534:	30780080 	andi	$t8,$v1,0x80
  406538:	8e2f0004 	lw	$t7,4($s1)
  40653c:	00000000 	nop
  406540:	004f082b 	sltu	$at,$v0,$t7
  406544:	10200006 	beqz	$at,406560 <fflush+0x2a0>
  406548:	30780080 	andi	$t8,$v1,0x80
  40654c:	0c10183e 	jal	4060f8 <_xflsbuf>
  406550:	02202025 	move	$a0,$s1
  406554:	9223000c 	lbu	$v1,12($s1)
  406558:	00409825 	move	$s3,$v0
  40655c:	30780080 	andi	$t8,$v1,0x80
  406560:	13000003 	beqz	$t8,406570 <fflush+0x2b0>
  406564:	3079fffd 	andi	$t9,$v1,0xfffd
  406568:	a239000c 	sb	$t9,12($s1)
  40656c:	ae200000 	sw	$zero,0($s1)
  406570:	12000004 	beqz	$s0,406584 <fflush+0x2c4>
  406574:	02601025 	move	$v0,$s3
  406578:	0c102c55 	jal	40b154 <_funlockfile>
  40657c:	02202025 	move	$a0,$s1
  406580:	02601025 	move	$v0,$s3
  406584:	8fbf002c 	lw	$ra,44($sp)
  406588:	8fb00014 	lw	$s0,20($sp)
  40658c:	8fb10018 	lw	$s1,24($sp)
  406590:	8fb2001c 	lw	$s2,28($sp)
  406594:	8fb30020 	lw	$s3,32($sp)
  406598:	8fb40024 	lw	$s4,36($sp)
  40659c:	8fb50028 	lw	$s5,40($sp)
  4065a0:	03e00008 	jr	$ra
  4065a4:	27bd0030 	addiu	$sp,$sp,48

004065a8 <fclose>:
  4065a8:	27bdffd0 	addiu	$sp,$sp,-48
  4065ac:	afb00018 	sw	$s0,24($sp)
  4065b0:	00808025 	move	$s0,$a0
  4065b4:	afbf001c 	sw	$ra,28($sp)
  4065b8:	10800005 	beqz	$a0,4065d0 <fclose+0x28>
  4065bc:	afa0002c 	sw	$zero,44($sp)
  4065c0:	908e000c 	lbu	$t6,12($a0)
  4065c4:	8f8f88b4 	lw	$t7,-30540($gp)
  4065c8:	15c00003 	bnez	$t6,4065d8 <fclose+0x30>
  4065cc:	00000000 	nop
  4065d0:	10000040 	b	4066d4 <fclose+0x12c>
  4065d4:	2402ffff 	li	$v0,-1
  4065d8:	11e00006 	beqz	$t7,4065f4 <fclose+0x4c>
  4065dc:	00000000 	nop
  4065e0:	0c102c2c 	jal	40b0b0 <_flockfile>
  4065e4:	02002025 	move	$a0,$s0
  4065e8:	24180001 	li	$t8,1
  4065ec:	10000002 	b	4065f8 <fclose+0x50>
  4065f0:	afb80028 	sw	$t8,40($sp)
  4065f4:	afa00028 	sw	$zero,40($sp)
  4065f8:	8f9988b4 	lw	$t9,-30540($gp)
  4065fc:	8f84aed0 	lw	$a0,-20784($gp)
  406600:	13200009 	beqz	$t9,406628 <fclose+0x80>
  406604:	00000000 	nop
  406608:	0c102034 	jal	4080d0 <_uspsema>
  40660c:	00000000 	nop
  406610:	38480001 	xori	$t0,$v0,0x1
  406614:	2d080001 	sltiu	$t0,$t0,1
  406618:	afa80024 	sw	$t0,36($sp)
  40661c:	9203000c 	lbu	$v1,12($s0)
  406620:	10000005 	b	406638 <fclose+0x90>
  406624:	30690083 	andi	$t1,$v1,0x83
  406628:	afa00024 	sw	$zero,36($sp)
  40662c:	9203000c 	lbu	$v1,12($s0)
  406630:	00000000 	nop
  406634:	30690083 	andi	$t1,$v1,0x83
  406638:	11200006 	beqz	$t1,406654 <fclose+0xac>
  40663c:	306a0004 	andi	$t2,$v1,0x4
  406640:	15400004 	bnez	$t2,406654 <fclose+0xac>
  406644:	00000000 	nop
  406648:	0c1018b0 	jal	4062c0 <fflush>
  40664c:	02002025 	move	$a0,$s0
  406650:	afa2002c 	sw	$v0,44($sp)
  406654:	9204000d 	lbu	$a0,13($s0)
  406658:	0c101ae0 	jal	406b80 <_close>
  40665c:	00000000 	nop
  406660:	04410002 	bgez	$v0,40666c <fclose+0xc4>
  406664:	240bffff 	li	$t3,-1
  406668:	afab002c 	sw	$t3,44($sp)
  40666c:	920c000c 	lbu	$t4,12($s0)
  406670:	00000000 	nop
  406674:	318d0008 	andi	$t5,$t4,0x8
  406678:	11a00004 	beqz	$t5,40668c <fclose+0xe4>
  40667c:	00000000 	nop
  406680:	8e040008 	lw	$a0,8($s0)
  406684:	0c101fc7 	jal	407f1c <_free>
  406688:	00000000 	nop
  40668c:	ae000008 	sw	$zero,8($s0)
  406690:	ae000004 	sw	$zero,4($s0)
  406694:	ae000000 	sw	$zero,0($s0)
  406698:	a200000c 	sb	$zero,12($s0)
  40669c:	8fae0028 	lw	$t6,40($sp)
  4066a0:	00000000 	nop
  4066a4:	11c00004 	beqz	$t6,4066b8 <fclose+0x110>
  4066a8:	8faf0024 	lw	$t7,36($sp)
  4066ac:	0c102c55 	jal	40b154 <_funlockfile>
  4066b0:	02002025 	move	$a0,$s0
  4066b4:	8faf0024 	lw	$t7,36($sp)
  4066b8:	8f84aed0 	lw	$a0,-20784($gp)
  4066bc:	11e00004 	beqz	$t7,4066d0 <fclose+0x128>
  4066c0:	8fa2002c 	lw	$v0,44($sp)
  4066c4:	0c10203c 	jal	4080f0 <_usvsema>
  4066c8:	00000000 	nop
  4066cc:	8fa2002c 	lw	$v0,44($sp)
  4066d0:	00000000 	nop
  4066d4:	8fbf001c 	lw	$ra,28($sp)
  4066d8:	8fb00018 	lw	$s0,24($sp)
  4066dc:	03e00008 	jr	$ra
  4066e0:	27bd0030 	addiu	$sp,$sp,48
	...

004066f0 <memset>:
  4066f0:	28c10008 	slti	$at,$a2,8
  4066f4:	1420001a 	bnez	$at,406760 <memset+0x70>
  4066f8:	00801025 	move	$v0,$a0
  4066fc:	10a00005 	beqz	$a1,406714 <memset+0x24>
  406700:	00041823 	negu	$v1,$a0
  406704:	00054200 	sll	$t0,$a1,0x8
  406708:	00a82825 	or	$a1,$a1,$t0
  40670c:	00054400 	sll	$t0,$a1,0x10
  406710:	00a82825 	or	$a1,$a1,$t0
  406714:	30630003 	andi	$v1,$v1,0x3
  406718:	10600003 	beqz	$v1,406728 <memset+0x38>
  40671c:	00c33023 	subu	$a2,$a2,$v1
  406720:	a8850000 	swl	$a1,0($a0)
  406724:	00832021 	addu	$a0,$a0,$v1
  406728:	30c80007 	andi	$t0,$a2,0x7
  40672c:	10c80007 	beq	$a2,$t0,40674c <memset+0x5c>
  406730:	00c83823 	subu	$a3,$a2,$t0
  406734:	00e43821 	addu	$a3,$a3,$a0
  406738:	24840008 	addiu	$a0,$a0,8
  40673c:	ac85fff8 	sw	$a1,-8($a0)
  406740:	1487fffd 	bne	$a0,$a3,406738 <memset+0x48>
  406744:	ac85fffc 	sw	$a1,-4($a0)
  406748:	01003025 	move	$a2,$t0
  40674c:	30c80004 	andi	$t0,$a2,0x4
  406750:	11000003 	beqz	$t0,406760 <memset+0x70>
  406754:	00c83023 	subu	$a2,$a2,$t0
  406758:	ac850000 	sw	$a1,0($a0)
  40675c:	24840004 	addiu	$a0,$a0,4
  406760:	18c00004 	blez	$a2,406774 <memset+0x84>
  406764:	00c43821 	addu	$a3,$a2,$a0
  406768:	24840001 	addiu	$a0,$a0,1
  40676c:	1487fffe 	bne	$a0,$a3,406768 <memset+0x78>
  406770:	a085ffff 	sb	$a1,-1($a0)
  406774:	03e00008 	jr	$ra
	...

00406780 <memcpy>:
  406780:	10c0001a 	beqz	$a2,4067ec <memcpy+0x6c>
  406784:	00803825 	move	$a3,$a0
  406788:	10a40018 	beq	$a1,$a0,4067ec <memcpy+0x6c>
  40678c:	0085082a 	slt	$at,$a0,$a1
  406790:	14200008 	bnez	$at,4067b4 <memcpy+0x34>
  406794:	28c10010 	slti	$at,$a2,16
  406798:	00a61020 	add	$v0,$a1,$a2
  40679c:	0082082a 	slt	$at,$a0,$v0
  4067a0:	10200004 	beqz	$at,4067b4 <memcpy+0x34>
  4067a4:	28c10010 	slti	$at,$a2,16
  4067a8:	1000005b 	b	406918 <memcpy+0x198>
  4067ac:	28c10010 	slti	$at,$a2,16
  4067b0:	28c10010 	slti	$at,$a2,16
  4067b4:	14200005 	bnez	$at,4067cc <memcpy+0x4c>
  4067b8:	00000000 	nop
  4067bc:	30a20003 	andi	$v0,$a1,0x3
  4067c0:	30830003 	andi	$v1,$a0,0x3
  4067c4:	1043000b 	beq	$v0,$v1,4067f4 <memcpy+0x74>
  4067c8:	00000000 	nop
  4067cc:	10c00007 	beqz	$a2,4067ec <memcpy+0x6c>
  4067d0:	00000000 	nop
  4067d4:	00a61821 	addu	$v1,$a1,$a2
  4067d8:	80a20000 	lb	$v0,0($a1)
  4067dc:	24a50001 	addiu	$a1,$a1,1
  4067e0:	24840001 	addiu	$a0,$a0,1
  4067e4:	14a3fffc 	bne	$a1,$v1,4067d8 <memcpy+0x58>
  4067e8:	a082ffff 	sb	$v0,-1($a0)
  4067ec:	03e00008 	jr	$ra
  4067f0:	00e01025 	move	$v0,$a3
  4067f4:	10400018 	beqz	$v0,406858 <memcpy+0xd8>
  4067f8:	24010001 	li	$at,1
  4067fc:	1041000f 	beq	$v0,$at,40683c <memcpy+0xbc>
  406800:	24010002 	li	$at,2
  406804:	10410007 	beq	$v0,$at,406824 <memcpy+0xa4>
  406808:	00000000 	nop
  40680c:	80a20000 	lb	$v0,0($a1)
  406810:	24a50001 	addiu	$a1,$a1,1
  406814:	24840001 	addiu	$a0,$a0,1
  406818:	24c6ffff 	addiu	$a2,$a2,-1
  40681c:	1000000e 	b	406858 <memcpy+0xd8>
  406820:	a082ffff 	sb	$v0,-1($a0)
  406824:	84a20000 	lh	$v0,0($a1)
  406828:	24a50002 	addiu	$a1,$a1,2
  40682c:	24840002 	addiu	$a0,$a0,2
  406830:	24c6fffe 	addiu	$a2,$a2,-2
  406834:	10000008 	b	406858 <memcpy+0xd8>
  406838:	a482fffe 	sh	$v0,-2($a0)
  40683c:	80a20000 	lb	$v0,0($a1)
  406840:	84a30001 	lh	$v1,1($a1)
  406844:	24a50003 	addiu	$a1,$a1,3
  406848:	24840003 	addiu	$a0,$a0,3
  40684c:	24c6fffd 	addiu	$a2,$a2,-3
  406850:	a082fffd 	sb	$v0,-3($a0)
  406854:	a483fffe 	sh	$v1,-2($a0)
  406858:	28c10020 	slti	$at,$a2,32
  40685c:	14200016 	bnez	$at,4068b8 <memcpy+0x138>
  406860:	28c10010 	slti	$at,$a2,16
  406864:	8ca20000 	lw	$v0,0($a1)
  406868:	8ca30004 	lw	$v1,4($a1)
  40686c:	8ca80008 	lw	$t0,8($a1)
  406870:	8ca9000c 	lw	$t1,12($a1)
  406874:	8caa0010 	lw	$t2,16($a1)
  406878:	8cab0014 	lw	$t3,20($a1)
  40687c:	8cac0018 	lw	$t4,24($a1)
  406880:	8cad001c 	lw	$t5,28($a1)
  406884:	24a50020 	addiu	$a1,$a1,32
  406888:	24840020 	addiu	$a0,$a0,32
  40688c:	24c6ffe0 	addiu	$a2,$a2,-32
  406890:	ac82ffe0 	sw	$v0,-32($a0)
  406894:	ac83ffe4 	sw	$v1,-28($a0)
  406898:	ac88ffe8 	sw	$t0,-24($a0)
  40689c:	ac89ffec 	sw	$t1,-20($a0)
  4068a0:	ac8afff0 	sw	$t2,-16($a0)
  4068a4:	ac8bfff4 	sw	$t3,-12($a0)
  4068a8:	ac8cfff8 	sw	$t4,-8($a0)
  4068ac:	1000ffea 	b	406858 <memcpy+0xd8>
  4068b0:	ac8dfffc 	sw	$t5,-4($a0)
  4068b4:	28c10010 	slti	$at,$a2,16
  4068b8:	1420000e 	bnez	$at,4068f4 <memcpy+0x174>
  4068bc:	28c10004 	slti	$at,$a2,4
  4068c0:	8ca20000 	lw	$v0,0($a1)
  4068c4:	8ca30004 	lw	$v1,4($a1)
  4068c8:	8ca80008 	lw	$t0,8($a1)
  4068cc:	8ca9000c 	lw	$t1,12($a1)
  4068d0:	24a50010 	addiu	$a1,$a1,16
  4068d4:	24840010 	addiu	$a0,$a0,16
  4068d8:	24c6fff0 	addiu	$a2,$a2,-16
  4068dc:	ac82fff0 	sw	$v0,-16($a0)
  4068e0:	ac83fff4 	sw	$v1,-12($a0)
  4068e4:	ac88fff8 	sw	$t0,-8($a0)
  4068e8:	1000fff2 	b	4068b4 <memcpy+0x134>
  4068ec:	ac89fffc 	sw	$t1,-4($a0)
  4068f0:	28c10004 	slti	$at,$a2,4
  4068f4:	1420ffb5 	bnez	$at,4067cc <memcpy+0x4c>
  4068f8:	00000000 	nop
  4068fc:	8ca20000 	lw	$v0,0($a1)
  406900:	24a50004 	addiu	$a1,$a1,4
  406904:	24840004 	addiu	$a0,$a0,4
  406908:	24c6fffc 	addiu	$a2,$a2,-4
  40690c:	1000fff8 	b	4068f0 <memcpy+0x170>
  406910:	ac82fffc 	sw	$v0,-4($a0)
  406914:	28c10010 	slti	$at,$a2,16
  406918:	00a62820 	add	$a1,$a1,$a2
  40691c:	14200005 	bnez	$at,406934 <memcpy+0x1b4>
  406920:	00862020 	add	$a0,$a0,$a2
  406924:	30a20003 	andi	$v0,$a1,0x3
  406928:	30830003 	andi	$v1,$a0,0x3
  40692c:	1043000d 	beq	$v0,$v1,406964 <memcpy+0x1e4>
  406930:	00000000 	nop
  406934:	10c0ffad 	beqz	$a2,4067ec <memcpy+0x6c>
  406938:	00000000 	nop
  40693c:	24a5ffff 	addiu	$a1,$a1,-1
  406940:	2484ffff 	addiu	$a0,$a0,-1
  406944:	00a61823 	subu	$v1,$a1,$a2
  406948:	80a20000 	lb	$v0,0($a1)
  40694c:	24a5ffff 	addiu	$a1,$a1,-1
  406950:	2484ffff 	addiu	$a0,$a0,-1
  406954:	14a3fffc 	bne	$a1,$v1,406948 <memcpy+0x1c8>
  406958:	a0820001 	sb	$v0,1($a0)
  40695c:	03e00008 	jr	$ra
  406960:	00e01025 	move	$v0,$a3
  406964:	10400018 	beqz	$v0,4069c8 <memcpy+0x248>
  406968:	24010003 	li	$at,3
  40696c:	1041000f 	beq	$v0,$at,4069ac <memcpy+0x22c>
  406970:	24010002 	li	$at,2
  406974:	10410007 	beq	$v0,$at,406994 <memcpy+0x214>
  406978:	00000000 	nop
  40697c:	80a2ffff 	lb	$v0,-1($a1)
  406980:	24a5ffff 	addiu	$a1,$a1,-1
  406984:	2484ffff 	addiu	$a0,$a0,-1
  406988:	24c6ffff 	addiu	$a2,$a2,-1
  40698c:	1000000e 	b	4069c8 <memcpy+0x248>
  406990:	a0820000 	sb	$v0,0($a0)
  406994:	84a2fffe 	lh	$v0,-2($a1)
  406998:	24a5fffe 	addiu	$a1,$a1,-2
  40699c:	2484fffe 	addiu	$a0,$a0,-2
  4069a0:	24c6fffe 	addiu	$a2,$a2,-2
  4069a4:	10000008 	b	4069c8 <memcpy+0x248>
  4069a8:	a4820000 	sh	$v0,0($a0)
  4069ac:	80a2ffff 	lb	$v0,-1($a1)
  4069b0:	84a3fffd 	lh	$v1,-3($a1)
  4069b4:	24a5fffd 	addiu	$a1,$a1,-3
  4069b8:	2484fffd 	addiu	$a0,$a0,-3
  4069bc:	24c6fffd 	addiu	$a2,$a2,-3
  4069c0:	a0820002 	sb	$v0,2($a0)
  4069c4:	a4830000 	sh	$v1,0($a0)
  4069c8:	28c10020 	slti	$at,$a2,32
  4069cc:	14200016 	bnez	$at,406a28 <memcpy+0x2a8>
  4069d0:	28c10010 	slti	$at,$a2,16
  4069d4:	8ca2fffc 	lw	$v0,-4($a1)
  4069d8:	8ca3fff8 	lw	$v1,-8($a1)
  4069dc:	8ca8fff4 	lw	$t0,-12($a1)
  4069e0:	8ca9fff0 	lw	$t1,-16($a1)
  4069e4:	8caaffec 	lw	$t2,-20($a1)
  4069e8:	8cabffe8 	lw	$t3,-24($a1)
  4069ec:	8cacffe4 	lw	$t4,-28($a1)
  4069f0:	8cadffe0 	lw	$t5,-32($a1)
  4069f4:	24a5ffe0 	addiu	$a1,$a1,-32
  4069f8:	2484ffe0 	addiu	$a0,$a0,-32
  4069fc:	24c6ffe0 	addiu	$a2,$a2,-32
  406a00:	ac82001c 	sw	$v0,28($a0)
  406a04:	ac830018 	sw	$v1,24($a0)
  406a08:	ac880014 	sw	$t0,20($a0)
  406a0c:	ac890010 	sw	$t1,16($a0)
  406a10:	ac8a000c 	sw	$t2,12($a0)
  406a14:	ac8b0008 	sw	$t3,8($a0)
  406a18:	ac8c0004 	sw	$t4,4($a0)
  406a1c:	1000ffea 	b	4069c8 <memcpy+0x248>
  406a20:	ac8d0000 	sw	$t5,0($a0)
  406a24:	28c10010 	slti	$at,$a2,16
  406a28:	1420000e 	bnez	$at,406a64 <memcpy+0x2e4>
  406a2c:	28c10004 	slti	$at,$a2,4
  406a30:	8ca2fffc 	lw	$v0,-4($a1)
  406a34:	8ca3fff8 	lw	$v1,-8($a1)
  406a38:	8ca8fff4 	lw	$t0,-12($a1)
  406a3c:	8ca9fff0 	lw	$t1,-16($a1)
  406a40:	24a5fff0 	addiu	$a1,$a1,-16
  406a44:	2484fff0 	addiu	$a0,$a0,-16
  406a48:	24c6fff0 	addiu	$a2,$a2,-16
  406a4c:	ac82000c 	sw	$v0,12($a0)
  406a50:	ac830008 	sw	$v1,8($a0)
  406a54:	ac880004 	sw	$t0,4($a0)
  406a58:	1000fff2 	b	406a24 <memcpy+0x2a4>
  406a5c:	ac890000 	sw	$t1,0($a0)
  406a60:	28c10004 	slti	$at,$a2,4
  406a64:	1420ffb3 	bnez	$at,406934 <memcpy+0x1b4>
  406a68:	00000000 	nop
  406a6c:	8ca2fffc 	lw	$v0,-4($a1)
  406a70:	24a5fffc 	addiu	$a1,$a1,-4
  406a74:	2484fffc 	addiu	$a0,$a0,-4
  406a78:	24c6fffc 	addiu	$a2,$a2,-4
  406a7c:	1000fff8 	b	406a60 <memcpy+0x2e0>
  406a80:	ac820000 	sw	$v0,0($a0)
	...

00406a90 <strcpy>:
  406a90:	00801025 	move	$v0,$a0
  406a94:	80a80000 	lb	$t0,0($a1)
  406a98:	348d0003 	ori	$t5,$a0,0x3
  406a9c:	11000024 	beqz	$t0,406b30 <strcpy+0xa0>
  406aa0:	01a47022 	sub	$t6,$t5,$a0
  406aa4:	80a90001 	lb	$t1,1($a1)
  406aa8:	00ae7820 	add	$t7,$a1,$t6
  406aac:	1120001f 	beqz	$t1,406b2c <strcpy+0x9c>
  406ab0:	00000000 	nop
  406ab4:	80aa0002 	lb	$t2,2($a1)
  406ab8:	00000000 	nop
  406abc:	1140001a 	beqz	$t2,406b28 <strcpy+0x98>
  406ac0:	88ac0000 	lwl	$t4,0($a1)
  406ac4:	80ab0003 	lb	$t3,3($a1)
  406ac8:	98ac0003 	lwr	$t4,3($a1)
  406acc:	11600014 	beqz	$t3,406b20 <strcpy+0x90>
  406ad0:	a88c0000 	swl	$t4,0($a0)
  406ad4:	21a4fffd 	addi	$a0,$t5,-3
  406ad8:	81e80001 	lb	$t0,1($t7)
  406adc:	21ef0004 	addi	$t7,$t7,4
  406ae0:	11000013 	beqz	$t0,406b30 <strcpy+0xa0>
  406ae4:	20840004 	addi	$a0,$a0,4
  406ae8:	81e9fffe 	lb	$t1,-2($t7)
  406aec:	00000000 	nop
  406af0:	1120000e 	beqz	$t1,406b2c <strcpy+0x9c>
  406af4:	00000000 	nop
  406af8:	81eaffff 	lb	$t2,-1($t7)
  406afc:	00000000 	nop
  406b00:	11400009 	beqz	$t2,406b28 <strcpy+0x98>
  406b04:	89ecfffd 	lwl	$t4,-3($t7)
  406b08:	81eb0000 	lb	$t3,0($t7)
  406b0c:	99ec0000 	lwr	$t4,0($t7)
  406b10:	1560fff1 	bnez	$t3,406ad8 <strcpy+0x48>
  406b14:	ac8c0000 	sw	$t4,0($a0)
  406b18:	03e00008 	jr	$ra
  406b1c:	00000000 	nop
  406b20:	03e00008 	jr	$ra
  406b24:	b88c0003 	swr	$t4,3($a0)
  406b28:	a08a0002 	sb	$t2,2($a0)
  406b2c:	a0890001 	sb	$t1,1($a0)
  406b30:	03e00008 	jr	$ra
  406b34:	a0880000 	sb	$t0,0($a0)
	...

00406b40 <strlen>:
  406b40:	2482ffff 	addiu	$v0,$a0,-1
  406b44:	90430001 	lbu	$v1,1($v0)
  406b48:	20420001 	addi	$v0,$v0,1
  406b4c:	1460fffd 	bnez	$v1,406b44 <strlen+0x4>
  406b50:	00000000 	nop
  406b54:	03e00008 	jr	$ra
  406b58:	00441023 	subu	$v0,$v0,$a0
  406b5c:	00000000 	nop

00406b60 <_cerror>:
  406b60:	3c080042 	lui	$t0,0x42
  406b64:	8d08e420 	lw	$t0,-7136($t0)
  406b68:	2789af6c 	addiu	$t1,$gp,-20628
  406b6c:	11090002 	beq	$t0,$t1,406b78 <_cerror+0x18>
  406b70:	af82af6c 	sw	$v0,-20628($gp)
  406b74:	ad020000 	sw	$v0,0($t0)
  406b78:	03e00008 	jr	$ra
  406b7c:	2402ffff 	li	$v0,-1

00406b80 <_close>:
  406b80:	240203ee 	li	$v0,1006
  406b84:	0000000c 	syscall
  406b88:	14e00004 	bnez	$a3,406b9c <_close+0x1c>
  406b8c:	00000000 	nop
  406b90:	00001025 	move	$v0,$zero
  406b94:	03e00008 	jr	$ra
  406b98:	00000000 	nop
  406b9c:	3c190040 	lui	$t9,0x40
  406ba0:	27396b60 	addiu	$t9,$t9,27488
  406ba4:	03200008 	jr	$t9
	...

00406bb0 <_lseek>:
  406bb0:	240203fb 	li	$v0,1019
  406bb4:	0000000c 	syscall
  406bb8:	14e00003 	bnez	$a3,406bc8 <_lseek+0x18>
  406bbc:	00000000 	nop
  406bc0:	03e00008 	jr	$ra
  406bc4:	00000000 	nop
  406bc8:	3c190040 	lui	$t9,0x40
  406bcc:	27396b60 	addiu	$t9,$t9,27488
  406bd0:	03200008 	jr	$t9
	...

00406be0 <_write>:
  406be0:	240203ec 	li	$v0,1004
  406be4:	0000000c 	syscall
  406be8:	14e00003 	bnez	$a3,406bf8 <_write+0x18>
  406bec:	00000000 	nop
  406bf0:	03e00008 	jr	$ra
  406bf4:	00000000 	nop
  406bf8:	3c190040 	lui	$t9,0x40
  406bfc:	27396b60 	addiu	$t9,$t9,27488
  406c00:	03200008 	jr	$t9
	...

00406c10 <atexit>:
  406c10:	8f8e88bc 	lw	$t6,-30532($gp)
  406c14:	27bdffe8 	addiu	$sp,$sp,-24
  406c18:	afbf0014 	sw	$ra,20($sp)
  406c1c:	11c00008 	beqz	$t6,406c40 <atexit+0x30>
  406c20:	00802825 	move	$a1,$a0
  406c24:	8f84aed4 	lw	$a0,-20780($gp)
  406c28:	0c102034 	jal	4080d0 <_uspsema>
  406c2c:	afa50018 	sw	$a1,24($sp)
  406c30:	8fa50018 	lw	$a1,24($sp)
  406c34:	38430001 	xori	$v1,$v0,0x1
  406c38:	10000002 	b	406c44 <atexit+0x34>
  406c3c:	2c630001 	sltiu	$v1,$v1,1
  406c40:	00001825 	move	$v1,$zero
  406c44:	10a00006 	beqz	$a1,406c60 <atexit+0x50>
  406c48:	00000000 	nop
  406c4c:	8f828830 	lw	$v0,-30672($gp)
  406c50:	00000000 	nop
  406c54:	28410025 	slti	$at,$v0,37
  406c58:	14200008 	bnez	$at,406c7c <atexit+0x6c>
  406c5c:	00027880 	sll	$t7,$v0,0x2
  406c60:	10600004 	beqz	$v1,406c74 <atexit+0x64>
  406c64:	00000000 	nop
  406c68:	8f84aed4 	lw	$a0,-20780($gp)
  406c6c:	0c10203c 	jal	4080f0 <_usvsema>
  406c70:	00000000 	nop
  406c74:	1000000b 	b	406ca4 <atexit+0x94>
  406c78:	2402ffff 	li	$v0,-1
  406c7c:	3c010042 	lui	$at,0x42
  406c80:	002f0821 	addu	$at,$at,$t7
  406c84:	24420001 	addiu	$v0,$v0,1
  406c88:	ac250b50 	sw	$a1,2896($at)
  406c8c:	10600004 	beqz	$v1,406ca0 <atexit+0x90>
  406c90:	af828830 	sw	$v0,-30672($gp)
  406c94:	8f84aed4 	lw	$a0,-20780($gp)
  406c98:	0c10203c 	jal	4080f0 <_usvsema>
  406c9c:	00000000 	nop
  406ca0:	00001025 	move	$v0,$zero
  406ca4:	8fbf0014 	lw	$ra,20($sp)
  406ca8:	27bd0018 	addiu	$sp,$sp,24
  406cac:	03e00008 	jr	$ra
  406cb0:	00000000 	nop

00406cb4 <_exithandle>:
  406cb4:	8f848830 	lw	$a0,-30672($gp)
  406cb8:	27bdffe0 	addiu	$sp,$sp,-32
  406cbc:	afbf001c 	sw	$ra,28($sp)
  406cc0:	1880000f 	blez	$a0,406d00 <_exithandle+0x4c>
  406cc4:	afb00018 	sw	$s0,24($sp)
  406cc8:	3c100042 	lui	$s0,0x42
  406ccc:	26100b50 	addiu	$s0,$s0,2896
  406cd0:	2482ffff 	addiu	$v0,$a0,-1
  406cd4:	00027080 	sll	$t6,$v0,0x2
  406cd8:	020e7821 	addu	$t7,$s0,$t6
  406cdc:	af828830 	sw	$v0,-30672($gp)
  406ce0:	8df90000 	lw	$t9,0($t7)
  406ce4:	00000000 	nop
  406ce8:	0320f809 	jalr	$t9
  406cec:	00000000 	nop
  406cf0:	8f848830 	lw	$a0,-30672($gp)
  406cf4:	00000000 	nop
  406cf8:	1c80fff6 	bgtz	$a0,406cd4 <_exithandle+0x20>
  406cfc:	2482ffff 	addiu	$v0,$a0,-1
  406d00:	8fbf001c 	lw	$ra,28($sp)
  406d04:	8fb00018 	lw	$s0,24($sp)
  406d08:	03e00008 	jr	$ra
  406d0c:	27bd0020 	addiu	$sp,$sp,32

00406d10 <__call_exitfns>:
  406d10:	27bdffe8 	addiu	$sp,$sp,-24
  406d14:	afbf0014 	sw	$ra,20($sp)
  406d18:	0c101b2d 	jal	406cb4 <_exithandle>
  406d1c:	00000000 	nop
  406d20:	8fbf0014 	lw	$ra,20($sp)
  406d24:	27bd0018 	addiu	$sp,$sp,24
  406d28:	03e00008 	jr	$ra
  406d2c:	00000000 	nop

00406d30 <__ateachexit>:
  406d30:	8f8e88bc 	lw	$t6,-30532($gp)
  406d34:	27bdffe8 	addiu	$sp,$sp,-24
  406d38:	afbf0014 	sw	$ra,20($sp)
  406d3c:	11c00008 	beqz	$t6,406d60 <__ateachexit+0x30>
  406d40:	00802825 	move	$a1,$a0
  406d44:	8f84aed4 	lw	$a0,-20780($gp)
  406d48:	0c102034 	jal	4080d0 <_uspsema>
  406d4c:	afa50018 	sw	$a1,24($sp)
  406d50:	8fa50018 	lw	$a1,24($sp)
  406d54:	38430001 	xori	$v1,$v0,0x1
  406d58:	10000002 	b	406d64 <__ateachexit+0x34>
  406d5c:	2c630001 	sltiu	$v1,$v1,1
  406d60:	00001825 	move	$v1,$zero
  406d64:	10a00006 	beqz	$a1,406d80 <__ateachexit+0x50>
  406d68:	00000000 	nop
  406d6c:	8f828834 	lw	$v0,-30668($gp)
  406d70:	00000000 	nop
  406d74:	28410025 	slti	$at,$v0,37
  406d78:	14200008 	bnez	$at,406d9c <__ateachexit+0x6c>
  406d7c:	00027880 	sll	$t7,$v0,0x2
  406d80:	10600004 	beqz	$v1,406d94 <__ateachexit+0x64>
  406d84:	00000000 	nop
  406d88:	8f84aed4 	lw	$a0,-20780($gp)
  406d8c:	0c10203c 	jal	4080f0 <_usvsema>
  406d90:	00000000 	nop
  406d94:	1000000b 	b	406dc4 <__ateachexit+0x94>
  406d98:	2402ffff 	li	$v0,-1
  406d9c:	3c010042 	lui	$at,0x42
  406da0:	002f0821 	addu	$at,$at,$t7
  406da4:	24420001 	addiu	$v0,$v0,1
  406da8:	ac250be8 	sw	$a1,3048($at)
  406dac:	10600004 	beqz	$v1,406dc0 <__ateachexit+0x90>
  406db0:	af828834 	sw	$v0,-30668($gp)
  406db4:	8f84aed4 	lw	$a0,-20780($gp)
  406db8:	0c10203c 	jal	4080f0 <_usvsema>
  406dbc:	00000000 	nop
  406dc0:	00001025 	move	$v0,$zero
  406dc4:	8fbf0014 	lw	$ra,20($sp)
  406dc8:	27bd0018 	addiu	$sp,$sp,24
  406dcc:	03e00008 	jr	$ra
  406dd0:	00000000 	nop

00406dd4 <__eachexithandle>:
  406dd4:	8f828834 	lw	$v0,-30668($gp)
  406dd8:	27bdffe0 	addiu	$sp,$sp,-32
  406ddc:	2442ffff 	addiu	$v0,$v0,-1
  406de0:	afbf001c 	sw	$ra,28($sp)
  406de4:	afb10018 	sw	$s1,24($sp)
  406de8:	0440000f 	bltz	$v0,406e28 <__eachexithandle+0x54>
  406dec:	afb00014 	sw	$s0,20($sp)
  406df0:	3c0f0042 	lui	$t7,0x42
  406df4:	25ef0be8 	addiu	$t7,$t7,3048
  406df8:	00027080 	sll	$t6,$v0,0x2
  406dfc:	3c110042 	lui	$s1,0x42
  406e00:	26310be8 	addiu	$s1,$s1,3048
  406e04:	01cf8021 	addu	$s0,$t6,$t7
  406e08:	8e190000 	lw	$t9,0($s0)
  406e0c:	00000000 	nop
  406e10:	0320f809 	jalr	$t9
  406e14:	00000000 	nop
  406e18:	2610fffc 	addiu	$s0,$s0,-4
  406e1c:	0211082b 	sltu	$at,$s0,$s1
  406e20:	1020fff9 	beqz	$at,406e08 <__eachexithandle+0x34>
  406e24:	00000000 	nop
  406e28:	8fbf001c 	lw	$ra,28($sp)
  406e2c:	8fb00014 	lw	$s0,20($sp)
  406e30:	8fb10018 	lw	$s1,24($sp)
  406e34:	03e00008 	jr	$ra
  406e38:	27bd0020 	addiu	$sp,$sp,32
  406e3c:	00000000 	nop
  406e40:	27bdffc0 	addiu	$sp,$sp,-64
  406e44:	afbf0014 	sw	$ra,20($sp)
  406e48:	14800002 	bnez	$a0,406e54 <__eachexithandle+0x80>
  406e4c:	00802825 	move	$a1,$a0
  406e50:	24050008 	li	$a1,8
  406e54:	000570c2 	srl	$t6,$a1,0x3
  406e58:	000e7880 	sll	$t7,$t6,0x2
  406e5c:	3c190042 	lui	$t9,0x42
  406e60:	27390d00 	addiu	$t9,$t9,3328
  406e64:	25f8fffc 	addiu	$t8,$t7,-4
  406e68:	03194021 	addu	$t0,$t8,$t9
  406e6c:	8d030000 	lw	$v1,0($t0)
  406e70:	24090008 	li	$t1,8
  406e74:	10600002 	beqz	$v1,406e80 <__eachexithandle+0xac>
  406e78:	30660003 	andi	$a2,$v1,0x3
  406e7c:	10c00027 	beqz	$a2,406f1c <__eachexithandle+0x148>
  406e80:	00c93804 	sllv	$a3,$t1,$a2
  406e84:	24aa0008 	addiu	$t2,$a1,8
  406e88:	01470019 	multu	$t2,$a3
  406e8c:	afa7002c 	sw	$a3,44($sp)
  406e90:	afa7001c 	sw	$a3,28($sp)
  406e94:	afa50040 	sw	$a1,64($sp)
  406e98:	afa60034 	sw	$a2,52($sp)
  406e9c:	afa80020 	sw	$t0,32($sp)
  406ea0:	00002012 	mflo	$a0
  406ea4:	0c101bec 	jal	406fb0 <_malloc+0x68>
  406ea8:	00000000 	nop
  406eac:	8fa80020 	lw	$t0,32($sp)
  406eb0:	8fa3002c 	lw	$v1,44($sp)
  406eb4:	8fa50040 	lw	$a1,64($sp)
  406eb8:	8fa60034 	lw	$a2,52($sp)
  406ebc:	8fa7001c 	lw	$a3,28($sp)
  406ec0:	14400003 	bnez	$v0,406ed0 <__eachexithandle+0xfc>
  406ec4:	ad020000 	sw	$v0,0($t0)
  406ec8:	1000001b 	b	406f38 <__eachexithandle+0x164>
  406ecc:	00001025 	move	$v0,$zero
  406ed0:	8d020000 	lw	$v0,0($t0)
  406ed4:	18e00009 	blez	$a3,406efc <__eachexithandle+0x128>
  406ed8:	24c60001 	addiu	$a2,$a2,1
  406edc:	00402025 	move	$a0,$v0
  406ee0:	ac450000 	sw	$a1,0($v0)
  406ee4:	00451021 	addu	$v0,$v0,$a1
  406ee8:	2463ffff 	addiu	$v1,$v1,-1
  406eec:	24420008 	addiu	$v0,$v0,8
  406ef0:	1c60fffa 	bgtz	$v1,406edc <__eachexithandle+0x108>
  406ef4:	ac820008 	sw	$v0,8($a0)
  406ef8:	afa4003c 	sw	$a0,60($sp)
  406efc:	8fa4003c 	lw	$a0,60($sp)
  406f00:	28c10004 	slti	$at,$a2,4
  406f04:	14200002 	bnez	$at,406f10 <__eachexithandle+0x13c>
  406f08:	00000000 	nop
  406f0c:	24060003 	li	$a2,3
  406f10:	ac860008 	sw	$a2,8($a0)
  406f14:	8d030000 	lw	$v1,0($t0)
  406f18:	00000000 	nop
  406f1c:	8c6b0008 	lw	$t3,8($v1)
  406f20:	24620008 	addiu	$v0,$v1,8
  406f24:	ad0b0000 	sw	$t3,0($t0)
  406f28:	8c6c0000 	lw	$t4,0($v1)
  406f2c:	00000000 	nop
  406f30:	358d0001 	ori	$t5,$t4,0x1
  406f34:	ac6d0000 	sw	$t5,0($v1)
  406f38:	8fbf0014 	lw	$ra,20($sp)
  406f3c:	27bd0040 	addiu	$sp,$sp,64
  406f40:	03e00008 	jr	$ra
  406f44:	00000000 	nop

00406f48 <_malloc>:
  406f48:	8f8e88c4 	lw	$t6,-30524($gp)
  406f4c:	27bdffe0 	addiu	$sp,$sp,-32
  406f50:	afbf0014 	sw	$ra,20($sp)
  406f54:	11c00005 	beqz	$t6,406f6c <_malloc+0x24>
  406f58:	afa40020 	sw	$a0,32($sp)
  406f5c:	8f99aee4 	lw	$t9,-20764($gp)
  406f60:	8f84aec8 	lw	$a0,-20792($gp)
  406f64:	0320f809 	jalr	$t9
  406f68:	00000000 	nop
  406f6c:	8fa40020 	lw	$a0,32($sp)
  406f70:	0c101bec 	jal	406fb0 <_malloc+0x68>
  406f74:	00000000 	nop
  406f78:	8f8f88c4 	lw	$t7,-30524($gp)
  406f7c:	00401825 	move	$v1,$v0
  406f80:	11e00008 	beqz	$t7,406fa4 <_malloc+0x5c>
  406f84:	8fbf0014 	lw	$ra,20($sp)
  406f88:	8f99aee8 	lw	$t9,-20760($gp)
  406f8c:	8f84aec8 	lw	$a0,-20792($gp)
  406f90:	0320f809 	jalr	$t9
  406f94:	afa2001c 	sw	$v0,28($sp)
  406f98:	8fa3001c 	lw	$v1,28($sp)
  406f9c:	00000000 	nop
  406fa0:	8fbf0014 	lw	$ra,20($sp)
  406fa4:	27bd0020 	addiu	$sp,$sp,32
  406fa8:	03e00008 	jr	$ra
  406fac:	00601025 	move	$v0,$v1
  406fb0:	27bdffd8 	addiu	$sp,$sp,-40
  406fb4:	30820007 	andi	$v0,$a0,0x7
  406fb8:	afbf0014 	sw	$ra,20($sp)
  406fbc:	10400003 	beqz	$v0,406fcc <_malloc+0x84>
  406fc0:	00803025 	move	$a2,$a0
  406fc4:	00823023 	subu	$a2,$a0,$v0
  406fc8:	24c60008 	addiu	$a2,$a2,8
  406fcc:	8f84aeac 	lw	$a0,-20820($gp)
  406fd0:	00000000 	nop
  406fd4:	10800025 	beqz	$a0,40706c <_malloc+0x124>
  406fd8:	2485fff8 	addiu	$a1,$a0,-8
  406fdc:	8c83fff8 	lw	$v1,-8($a0)
  406fe0:	2401fffc 	li	$at,-4
  406fe4:	00617024 	and	$t6,$v1,$at
  406fe8:	15c6000c 	bne	$t6,$a2,40701c <_malloc+0xd4>
  406fec:	01c01825 	move	$v1,$t6
  406ff0:	8f87aeb0 	lw	$a3,-20816($gp)
  406ff4:	3c010042 	lui	$at,0x42
  406ff8:	24e7001f 	addiu	$a3,$a3,31
  406ffc:	30ef001f 	andi	$t7,$a3,0x1f
  407000:	000fc080 	sll	$t8,$t7,0x2
  407004:	00380821 	addu	$at,$at,$t8
  407008:	ac200c80 	sw	$zero,3200($at)
  40700c:	af8faeb0 	sw	$t7,-20816($gp)
  407010:	24a20008 	addiu	$v0,$a1,8
  407014:	10000087 	b	407234 <_malloc+0x2ec>
  407018:	af80aeac 	sw	$zero,-20820($gp)
  40701c:	2cc10028 	sltiu	$at,$a2,40
  407020:	14200012 	bnez	$at,40706c <_malloc+0x124>
  407024:	00c3082b 	sltu	$at,$a2,$v1
  407028:	10200010 	beqz	$at,40706c <_malloc+0x124>
  40702c:	00000000 	nop
  407030:	8f87aeb0 	lw	$a3,-20816($gp)
  407034:	3c010042 	lui	$at,0x42
  407038:	24e7001f 	addiu	$a3,$a3,31
  40703c:	30f9001f 	andi	$t9,$a3,0x1f
  407040:	00194080 	sll	$t0,$t9,0x2
  407044:	00280821 	addu	$at,$at,$t0
  407048:	ac200c80 	sw	$zero,3200($at)
  40704c:	8ca90000 	lw	$t1,0($a1)
  407050:	00000000 	nop
  407054:	312a0002 	andi	$t2,$t1,0x2
  407058:	afaa0018 	sw	$t2,24($sp)
  40705c:	aca30000 	sw	$v1,0($a1)
  407060:	af99aeb0 	sw	$t9,-20816($gp)
  407064:	10000057 	b	4071c4 <_malloc+0x27c>
  407068:	af80aeac 	sw	$zero,-20820($gp)
  40706c:	afa00018 	sw	$zero,24($sp)
  407070:	00002025 	move	$a0,$zero
  407074:	0c101ffc 	jal	407ff0 <__free+0x78>
  407078:	afa60028 	sw	$a2,40($sp)
  40707c:	8fa60028 	lw	$a2,40($sp)
  407080:	8f87aea0 	lw	$a3,-20832($gp)
  407084:	2cc10028 	sltiu	$at,$a2,40
  407088:	10200005 	beqz	$at,4070a0 <_malloc+0x158>
  40708c:	00002825 	move	$a1,$zero
  407090:	0c101b90 	jal	406e40 <__eachexithandle+0x6c>
  407094:	00c02025 	move	$a0,$a2
  407098:	10000067 	b	407238 <_malloc+0x2f0>
  40709c:	8fbf0014 	lw	$ra,20($sp)
  4070a0:	10e0002d 	beqz	$a3,407158 <_malloc+0x210>
  4070a4:	00001825 	move	$v1,$zero
  4070a8:	00e02025 	move	$a0,$a3
  4070ac:	8c820000 	lw	$v0,0($a0)
  4070b0:	00000000 	nop
  4070b4:	0046082b 	sltu	$at,$v0,$a2
  4070b8:	1420000d 	bnez	$at,4070f0 <_malloc+0x1a8>
  4070bc:	00000000 	nop
  4070c0:	10600003 	beqz	$v1,4070d0 <_malloc+0x188>
  4070c4:	0062082b 	sltu	$at,$v1,$v0
  4070c8:	14200003 	bnez	$at,4070d8 <_malloc+0x190>
  4070cc:	00000000 	nop
  4070d0:	00802825 	move	$a1,$a0
  4070d4:	00401825 	move	$v1,$v0
  4070d8:	8c820010 	lw	$v0,16($a0)
  4070dc:	00000000 	nop
  4070e0:	10400009 	beqz	$v0,407108 <_malloc+0x1c0>
  4070e4:	00000000 	nop
  4070e8:	1000fff0 	b	4070ac <_malloc+0x164>
  4070ec:	00402025 	move	$a0,$v0
  4070f0:	8c820018 	lw	$v0,24($a0)
  4070f4:	00000000 	nop
  4070f8:	10400003 	beqz	$v0,407108 <_malloc+0x1c0>
  4070fc:	00000000 	nop
  407100:	1000ffea 	b	4070ac <_malloc+0x164>
  407104:	00402025 	move	$a0,$v0
  407108:	10a00009 	beqz	$a1,407130 <_malloc+0x1e8>
  40710c:	00000000 	nop
  407110:	00a02025 	move	$a0,$a1
  407114:	afa5001c 	sw	$a1,28($sp)
  407118:	0c101eca 	jal	407b28 <_realloc+0x8e4>
  40711c:	afa60028 	sw	$a2,40($sp)
  407120:	8fa5001c 	lw	$a1,28($sp)
  407124:	8fa60028 	lw	$a2,40($sp)
  407128:	1000000b 	b	407158 <_malloc+0x210>
  40712c:	00000000 	nop
  407130:	10870009 	beq	$a0,$a3,407158 <_malloc+0x210>
  407134:	00000000 	nop
  407138:	afa40020 	sw	$a0,32($sp)
  40713c:	afa5001c 	sw	$a1,28($sp)
  407140:	0c101f46 	jal	407d18 <_realloc+0xad4>
  407144:	afa60028 	sw	$a2,40($sp)
  407148:	8fa40020 	lw	$a0,32($sp)
  40714c:	8fa5001c 	lw	$a1,28($sp)
  407150:	8fa60028 	lw	$a2,40($sp)
  407154:	af84aea0 	sw	$a0,-20832($gp)
  407158:	14a00013 	bnez	$a1,4071a8 <_malloc+0x260>
  40715c:	00000000 	nop
  407160:	8f82aea4 	lw	$v0,-20828($gp)
  407164:	00c02025 	move	$a0,$a2
  407168:	10400008 	beqz	$v0,40718c <_malloc+0x244>
  40716c:	00000000 	nop
  407170:	8c4b0000 	lw	$t3,0($v0)
  407174:	00000000 	nop
  407178:	0166082b 	sltu	$at,$t3,$a2
  40717c:	14200003 	bnez	$at,40718c <_malloc+0x244>
  407180:	00000000 	nop
  407184:	10000008 	b	4071a8 <_malloc+0x260>
  407188:	00402825 	move	$a1,$v0
  40718c:	0c101e55 	jal	407954 <_realloc+0x710>
  407190:	afa60028 	sw	$a2,40($sp)
  407194:	8fa60028 	lw	$a2,40($sp)
  407198:	14400003 	bnez	$v0,4071a8 <_malloc+0x260>
  40719c:	00402825 	move	$a1,$v0
  4071a0:	10000024 	b	407234 <_malloc+0x2ec>
  4071a4:	00001025 	move	$v0,$zero
  4071a8:	8cac0000 	lw	$t4,0($a1)
  4071ac:	2401fffd 	li	$at,-3
  4071b0:	00ac1021 	addu	$v0,$a1,$t4
  4071b4:	8c4d0008 	lw	$t5,8($v0)
  4071b8:	00000000 	nop
  4071bc:	01a17024 	and	$t6,$t5,$at
  4071c0:	ac4e0008 	sw	$t6,8($v0)
  4071c4:	8ca40000 	lw	$a0,0($a1)
  4071c8:	8f98aea8 	lw	$t8,-20824($gp)
  4071cc:	00861823 	subu	$v1,$a0,$a2
  4071d0:	28610030 	slti	$at,$v1,48
  4071d4:	1420000e 	bnez	$at,407210 <_malloc+0x2c8>
  4071d8:	00a4c821 	addu	$t9,$a1,$a0
  4071dc:	2463fff8 	addiu	$v1,$v1,-8
  4071e0:	aca60000 	sw	$a2,0($a1)
  4071e4:	346f0001 	ori	$t7,$v1,0x1
  4071e8:	00a61021 	addu	$v0,$a1,$a2
  4071ec:	ac4f0008 	sw	$t7,8($v0)
  4071f0:	afa5001c 	sw	$a1,28($sp)
  4071f4:	0c101db6 	jal	4076d8 <_realloc+0x494>
  4071f8:	24440010 	addiu	$a0,$v0,16
  4071fc:	8fa5001c 	lw	$a1,28($sp)
  407200:	00000000 	nop
  407204:	8ca40000 	lw	$a0,0($a1)
  407208:	10000006 	b	407224 <_malloc+0x2dc>
  40720c:	8faa0018 	lw	$t2,24($sp)
  407210:	27280010 	addiu	$t0,$t9,16
  407214:	17080003 	bne	$t8,$t0,407224 <_malloc+0x2dc>
  407218:	8faa0018 	lw	$t2,24($sp)
  40721c:	af80aea4 	sw	$zero,-20828($gp)
  407220:	8faa0018 	lw	$t2,24($sp)
  407224:	34890001 	ori	$t1,$a0,0x1
  407228:	012a5825 	or	$t3,$t1,$t2
  40722c:	acab0000 	sw	$t3,0($a1)
  407230:	24a20008 	addiu	$v0,$a1,8
  407234:	8fbf0014 	lw	$ra,20($sp)
  407238:	27bd0028 	addiu	$sp,$sp,40
  40723c:	03e00008 	jr	$ra
  407240:	00000000 	nop

00407244 <_realloc>:
  407244:	27bdffc0 	addiu	$sp,$sp,-64
  407248:	afb10018 	sw	$s1,24($sp)
  40724c:	00a08825 	move	$s1,$a1
  407250:	afbf001c 	sw	$ra,28($sp)
  407254:	afb00014 	sw	$s0,20($sp)
  407258:	14800005 	bnez	$a0,407270 <_realloc+0x2c>
  40725c:	afa40040 	sw	$a0,64($sp)
  407260:	0c101bd2 	jal	406f48 <_malloc>
  407264:	00a02025 	move	$a0,$a1
  407268:	10000117 	b	4076c8 <_realloc+0x484>
  40726c:	8fbf001c 	lw	$ra,28($sp)
  407270:	8f8f88c4 	lw	$t7,-30524($gp)
  407274:	8f99aee4 	lw	$t9,-20764($gp)
  407278:	11e00005 	beqz	$t7,407290 <_realloc+0x4c>
  40727c:	8fa40040 	lw	$a0,64($sp)
  407280:	8f84aec8 	lw	$a0,-20792($gp)
  407284:	0320f809 	jalr	$t9
  407288:	00000000 	nop
  40728c:	8fa40040 	lw	$a0,64($sp)
  407290:	0c101ffc 	jal	407ff0 <__free+0x78>
  407294:	00000000 	nop
  407298:	8fb80040 	lw	$t8,64($sp)
  40729c:	32220007 	andi	$v0,$s1,0x7
  4072a0:	10400003 	beqz	$v0,4072b0 <_realloc+0x6c>
  4072a4:	2705fff8 	addiu	$a1,$t8,-8
  4072a8:	02228823 	subu	$s1,$s1,$v0
  4072ac:	26310008 	addiu	$s1,$s1,8
  4072b0:	8f08fff8 	lw	$t0,-8($t8)
  4072b4:	00a08025 	move	$s0,$a1
  4072b8:	31090001 	andi	$t1,$t0,0x1
  4072bc:	1520000a 	bnez	$t1,4072e8 <_realloc+0xa4>
  4072c0:	afa80034 	sw	$t0,52($sp)
  4072c4:	8f8a88c4 	lw	$t2,-30524($gp)
  4072c8:	8f99aee8 	lw	$t9,-20760($gp)
  4072cc:	11400004 	beqz	$t2,4072e0 <_realloc+0x9c>
  4072d0:	00000000 	nop
  4072d4:	8f84aec8 	lw	$a0,-20792($gp)
  4072d8:	0320f809 	jalr	$t9
  4072dc:	00000000 	nop
  4072e0:	100000f8 	b	4076c4 <_realloc+0x480>
  4072e4:	00001025 	move	$v0,$zero
  4072e8:	8cab0000 	lw	$t3,0($a1)
  4072ec:	2401fffc 	li	$at,-4
  4072f0:	01611824 	and	$v1,$t3,$at
  4072f4:	1623000e 	bne	$s1,$v1,407330 <_realloc+0xec>
  4072f8:	aca30000 	sw	$v1,0($a1)
  4072fc:	8fad0034 	lw	$t5,52($sp)
  407300:	00000000 	nop
  407304:	acad0000 	sw	$t5,0($a1)
  407308:	8f8e88c4 	lw	$t6,-30524($gp)
  40730c:	8f99aee8 	lw	$t9,-20760($gp)
  407310:	11c00005 	beqz	$t6,407328 <_realloc+0xe4>
  407314:	8fa20040 	lw	$v0,64($sp)
  407318:	8f84aec8 	lw	$a0,-20792($gp)
  40731c:	0320f809 	jalr	$t9
  407320:	00000000 	nop
  407324:	8fa20040 	lw	$v0,64($sp)
  407328:	100000e7 	b	4076c8 <_realloc+0x484>
  40732c:	8fbf001c 	lw	$ra,28($sp)
  407330:	2e210028 	sltiu	$at,$s1,40
  407334:	14200003 	bnez	$at,407344 <_realloc+0x100>
  407338:	2c610028 	sltiu	$at,$v1,40
  40733c:	10200007 	beqz	$at,40735c <_realloc+0x118>
  407340:	0071082b 	sltu	$at,$v1,$s1
  407344:	8fa20034 	lw	$v0,52($sp)
  407348:	8e030000 	lw	$v1,0($s0)
  40734c:	304f0003 	andi	$t7,$v0,0x3
  407350:	10000061 	b	4074d8 <_realloc+0x294>
  407354:	afaf0024 	sw	$t7,36($sp)
  407358:	0071082b 	sltu	$at,$v1,$s1
  40735c:	10200033 	beqz	$at,40742c <_realloc+0x1e8>
  407360:	00a33821 	addu	$a3,$a1,$v1
  407364:	8ce20008 	lw	$v0,8($a3)
  407368:	24e70008 	addiu	$a3,$a3,8
  40736c:	30580001 	andi	$t8,$v0,0x1
  407370:	1700001a 	bnez	$t8,4073dc <_realloc+0x198>
  407374:	2c410028 	sltiu	$at,$v0,40
  407378:	14200018 	bnez	$at,4073dc <_realloc+0x198>
  40737c:	00624021 	addu	$t0,$v1,$v0
  407380:	25090008 	addiu	$t1,$t0,8
  407384:	aca90000 	sw	$t1,0($a1)
  407388:	8f8aaea4 	lw	$t2,-20828($gp)
  40738c:	00e02025 	move	$a0,$a3
  407390:	10ea0008 	beq	$a3,$t2,4073b4 <_realloc+0x170>
  407394:	00000000 	nop
  407398:	afa50028 	sw	$a1,40($sp)
  40739c:	0c101eca 	jal	407b28 <_realloc+0x8e4>
  4073a0:	afa70038 	sw	$a3,56($sp)
  4073a4:	8fa50028 	lw	$a1,40($sp)
  4073a8:	8fa70038 	lw	$a3,56($sp)
  4073ac:	10000003 	b	4073bc <_realloc+0x178>
  4073b0:	8ceb0000 	lw	$t3,0($a3)
  4073b4:	af80aea4 	sw	$zero,-20828($gp)
  4073b8:	8ceb0000 	lw	$t3,0($a3)
  4073bc:	2401fffd 	li	$at,-3
  4073c0:	00eb1021 	addu	$v0,$a3,$t3
  4073c4:	8c4c0008 	lw	$t4,8($v0)
  4073c8:	00000000 	nop
  4073cc:	01816824 	and	$t5,$t4,$at
  4073d0:	ac4d0008 	sw	$t5,8($v0)
  4073d4:	8ca30000 	lw	$v1,0($a1)
  4073d8:	00000000 	nop
  4073dc:	0071082b 	sltu	$at,$v1,$s1
  4073e0:	10200012 	beqz	$at,40742c <_realloc+0x1e8>
  4073e4:	00a3c821 	addu	$t9,$a1,$v1
  4073e8:	8f8eaea8 	lw	$t6,-20824($gp)
  4073ec:	272f0010 	addiu	$t7,$t9,16
  4073f0:	15cf000e 	bne	$t6,$t7,40742c <_realloc+0x1e8>
  4073f4:	00002025 	move	$a0,$zero
  4073f8:	0c104128 	jal	4104a0 <_sbrk>
  4073fc:	afa50028 	sw	$a1,40($sp)
  407400:	8f98aea8 	lw	$t8,-20824($gp)
  407404:	8fa50028 	lw	$a1,40($sp)
  407408:	14580008 	bne	$v0,$t8,40742c <_realloc+0x1e8>
  40740c:	02202025 	move	$a0,$s1
  407410:	0c101e55 	jal	407954 <_realloc+0x710>
  407414:	af85aea4 	sw	$a1,-20828($gp)
  407418:	14400003 	bnez	$v0,407428 <_realloc+0x1e4>
  40741c:	00408025 	move	$s0,$v0
  407420:	8f90aea4 	lw	$s0,-20828($gp)
  407424:	00000000 	nop
  407428:	af80aea4 	sw	$zero,-20828($gp)
  40742c:	8e030000 	lw	$v1,0($s0)
  407430:	8fb80034 	lw	$t8,52($sp)
  407434:	0071082b 	sltu	$at,$v1,$s1
  407438:	14200026 	bnez	$at,4074d4 <_realloc+0x290>
  40743c:	33080003 	andi	$t0,$t8,0x3
  407440:	8fa80034 	lw	$t0,52($sp)
  407444:	00000000 	nop
  407448:	31090003 	andi	$t1,$t0,0x3
  40744c:	afa90024 	sw	$t1,36($sp)
  407450:	00712823 	subu	$a1,$v1,$s1
  407454:	28a10030 	slti	$at,$a1,48
  407458:	1420000b 	bnez	$at,407488 <_realloc+0x244>
  40745c:	02036021 	addu	$t4,$s0,$v1
  407460:	24a5fff8 	addiu	$a1,$a1,-8
  407464:	ae110000 	sw	$s1,0($s0)
  407468:	34aa0001 	ori	$t2,$a1,0x1
  40746c:	02111021 	addu	$v0,$s0,$s1
  407470:	ac4a0008 	sw	$t2,8($v0)
  407474:	0c101db6 	jal	4076d8 <_realloc+0x494>
  407478:	24440010 	addiu	$a0,$v0,16
  40747c:	8e030000 	lw	$v1,0($s0)
  407480:	10000007 	b	4074a0 <_realloc+0x25c>
  407484:	8fb90024 	lw	$t9,36($sp)
  407488:	8f8baea8 	lw	$t3,-20824($gp)
  40748c:	258d0010 	addiu	$t5,$t4,16
  407490:	156d0003 	bne	$t3,$t5,4074a0 <_realloc+0x25c>
  407494:	8fb90024 	lw	$t9,36($sp)
  407498:	af80aea4 	sw	$zero,-20828($gp)
  40749c:	8fb90024 	lw	$t9,36($sp)
  4074a0:	00000000 	nop
  4074a4:	00797025 	or	$t6,$v1,$t9
  4074a8:	ae0e0000 	sw	$t6,0($s0)
  4074ac:	8f8f88c4 	lw	$t7,-30524($gp)
  4074b0:	8f99aee8 	lw	$t9,-20760($gp)
  4074b4:	11e00005 	beqz	$t7,4074cc <_realloc+0x288>
  4074b8:	8fa20040 	lw	$v0,64($sp)
  4074bc:	8f84aec8 	lw	$a0,-20792($gp)
  4074c0:	0320f809 	jalr	$t9
  4074c4:	00000000 	nop
  4074c8:	8fa20040 	lw	$v0,64($sp)
  4074cc:	1000007e 	b	4076c8 <_realloc+0x484>
  4074d0:	8fbf001c 	lw	$ra,28($sp)
  4074d4:	afa80024 	sw	$t0,36($sp)
  4074d8:	8fa20024 	lw	$v0,36($sp)
  4074dc:	02202025 	move	$a0,$s1
  4074e0:	00624825 	or	$t1,$v1,$v0
  4074e4:	0c101bec 	jal	406fb0 <_malloc+0x68>
  4074e8:	ae090000 	sw	$t1,0($s0)
  4074ec:	1040001c 	beqz	$v0,407560 <_realloc+0x31c>
  4074f0:	00403825 	move	$a3,$v0
  4074f4:	8faa0034 	lw	$t2,52($sp)
  4074f8:	2401fffc 	li	$at,-4
  4074fc:	01416024 	and	$t4,$t2,$at
  407500:	022c082b 	sltu	$at,$s1,$t4
  407504:	10200002 	beqz	$at,407510 <_realloc+0x2cc>
  407508:	afac0034 	sw	$t4,52($sp)
  40750c:	afb10034 	sw	$s1,52($sp)
  407510:	8fa50040 	lw	$a1,64($sp)
  407514:	8fa60034 	lw	$a2,52($sp)
  407518:	00e02025 	move	$a0,$a3
  40751c:	0c1019e0 	jal	406780 <memcpy>
  407520:	afa70030 	sw	$a3,48($sp)
  407524:	8fa40040 	lw	$a0,64($sp)
  407528:	0c101fde 	jal	407f78 <__free>
  40752c:	00000000 	nop
  407530:	8f8b88c4 	lw	$t3,-30524($gp)
  407534:	8fa70030 	lw	$a3,48($sp)
  407538:	11600007 	beqz	$t3,407558 <_realloc+0x314>
  40753c:	00000000 	nop
  407540:	8f99aee8 	lw	$t9,-20760($gp)
  407544:	8f84aec8 	lw	$a0,-20792($gp)
  407548:	0320f809 	jalr	$t9
  40754c:	afa70030 	sw	$a3,48($sp)
  407550:	8fa70030 	lw	$a3,48($sp)
  407554:	00000000 	nop
  407558:	1000005a 	b	4076c4 <_realloc+0x480>
  40755c:	00e01025 	move	$v0,$a3
  407560:	8e0d0000 	lw	$t5,0($s0)
  407564:	2401fffc 	li	$at,-4
  407568:	01a17024 	and	$t6,$t5,$at
  40756c:	2dc10028 	sltiu	$at,$t6,40
  407570:	ae0e0000 	sw	$t6,0($s0)
  407574:	10200017 	beqz	$at,4075d4 <_realloc+0x390>
  407578:	01c01825 	move	$v1,$t6
  40757c:	022e082b 	sltu	$at,$s1,$t6
  407580:	10200010 	beqz	$at,4075c4 <_realloc+0x380>
  407584:	2e210028 	sltiu	$at,$s1,40
  407588:	8faf0024 	lw	$t7,36($sp)
  40758c:	00000000 	nop
  407590:	01cfc025 	or	$t8,$t6,$t7
  407594:	ae180000 	sw	$t8,0($s0)
  407598:	8f8888c4 	lw	$t0,-30524($gp)
  40759c:	8f99aee8 	lw	$t9,-20760($gp)
  4075a0:	11000005 	beqz	$t0,4075b8 <_realloc+0x374>
  4075a4:	8fa20040 	lw	$v0,64($sp)
  4075a8:	8f84aec8 	lw	$a0,-20792($gp)
  4075ac:	0320f809 	jalr	$t9
  4075b0:	00000000 	nop
  4075b4:	8fa20040 	lw	$v0,64($sp)
  4075b8:	10000043 	b	4076c8 <_realloc+0x484>
  4075bc:	8fbf001c 	lw	$ra,28($sp)
  4075c0:	2e210028 	sltiu	$at,$s1,40
  4075c4:	10200034 	beqz	$at,407698 <_realloc+0x454>
  4075c8:	8fab0024 	lw	$t3,36($sp)
  4075cc:	1000ffc2 	b	4074d8 <_realloc+0x294>
  4075d0:	24110028 	li	$s1,40
  4075d4:	2e210028 	sltiu	$at,$s1,40
  4075d8:	10200004 	beqz	$at,4075ec <_realloc+0x3a8>
  4075dc:	8fa90034 	lw	$t1,52($sp)
  4075e0:	1000ff9b 	b	407450 <_realloc+0x20c>
  4075e4:	24110028 	li	$s1,40
  4075e8:	8fa90034 	lw	$t1,52($sp)
  4075ec:	00000000 	nop
  4075f0:	312a0002 	andi	$t2,$t1,0x2
  4075f4:	11400028 	beqz	$t2,407698 <_realloc+0x454>
  4075f8:	8fab0024 	lw	$t3,36($sp)
  4075fc:	8e02fff8 	lw	$v0,-8($s0)
  407600:	00000000 	nop
  407604:	8c4c0000 	lw	$t4,0($v0)
  407608:	00000000 	nop
  40760c:	01835821 	addu	$t3,$t4,$v1
  407610:	256d0008 	addiu	$t5,$t3,8
  407614:	01b1082b 	sltu	$at,$t5,$s1
  407618:	1420001f 	bnez	$at,407698 <_realloc+0x454>
  40761c:	8fab0024 	lw	$t3,36($sp)
  407620:	8c4e0000 	lw	$t6,0($v0)
  407624:	00402025 	move	$a0,$v0
  407628:	2dc10028 	sltiu	$at,$t6,40
  40762c:	1420001a 	bnez	$at,407698 <_realloc+0x454>
  407630:	8fab0024 	lw	$t3,36($sp)
  407634:	0c101eca 	jal	407b28 <_realloc+0x8e4>
  407638:	afa20038 	sw	$v0,56($sp)
  40763c:	8fa70038 	lw	$a3,56($sp)
  407640:	8e180000 	lw	$t8,0($s0)
  407644:	8cef0000 	lw	$t7,0($a3)
  407648:	24e40008 	addiu	$a0,$a3,8
  40764c:	01f84021 	addu	$t0,$t7,$t8
  407650:	25190008 	addiu	$t9,$t0,8
  407654:	acf90000 	sw	$t9,0($a3)
  407658:	8e060000 	lw	$a2,0($s0)
  40765c:	8fa50040 	lw	$a1,64($sp)
  407660:	0c1019e0 	jal	406780 <memcpy>
  407664:	afa40020 	sw	$a0,32($sp)
  407668:	8fa90034 	lw	$t1,52($sp)
  40766c:	8fa40020 	lw	$a0,32($sp)
  407670:	2401fffd 	li	$at,-3
  407674:	8fb00038 	lw	$s0,56($sp)
  407678:	01215024 	and	$t2,$t1,$at
  40767c:	afaa0034 	sw	$t2,52($sp)
  407680:	afa40040 	sw	$a0,64($sp)
  407684:	314c0003 	andi	$t4,$t2,0x3
  407688:	8e030000 	lw	$v1,0($s0)
  40768c:	1000ff70 	b	407450 <_realloc+0x20c>
  407690:	afac0024 	sw	$t4,36($sp)
  407694:	8fab0024 	lw	$t3,36($sp)
  407698:	00000000 	nop
  40769c:	006b6825 	or	$t5,$v1,$t3
  4076a0:	ae0d0000 	sw	$t5,0($s0)
  4076a4:	8f8e88c4 	lw	$t6,-30524($gp)
  4076a8:	8f99aee8 	lw	$t9,-20760($gp)
  4076ac:	11c00005 	beqz	$t6,4076c4 <_realloc+0x480>
  4076b0:	00001025 	move	$v0,$zero
  4076b4:	8f84aec8 	lw	$a0,-20792($gp)
  4076b8:	0320f809 	jalr	$t9
  4076bc:	00000000 	nop
  4076c0:	00001025 	move	$v0,$zero
  4076c4:	8fbf001c 	lw	$ra,28($sp)
  4076c8:	8fb00014 	lw	$s0,20($sp)
  4076cc:	8fb10018 	lw	$s1,24($sp)
  4076d0:	03e00008 	jr	$ra
  4076d4:	27bd0040 	addiu	$sp,$sp,64
  4076d8:	27bdffc8 	addiu	$sp,$sp,-56
  4076dc:	afbf0014 	sw	$ra,20($sp)
  4076e0:	8c87fff8 	lw	$a3,-8($a0)
  4076e4:	2483fff8 	addiu	$v1,$a0,-8
  4076e8:	30ee0001 	andi	$t6,$a3,0x1
  4076ec:	11c00095 	beqz	$t6,407944 <_realloc+0x700>
  4076f0:	00602825 	move	$a1,$v1
  4076f4:	8c6f0000 	lw	$t7,0($v1)
  4076f8:	2401fffc 	li	$at,-4
  4076fc:	01e1c024 	and	$t8,$t7,$at
  407700:	2f010028 	sltiu	$at,$t8,40
  407704:	ac780000 	sw	$t8,0($v1)
  407708:	1020000c 	beqz	$at,40773c <_realloc+0x4f8>
  40770c:	03003025 	move	$a2,$t8
  407710:	001838c2 	srl	$a3,$t8,0x3
  407714:	24e7ffff 	addiu	$a3,$a3,-1
  407718:	3c080042 	lui	$t0,0x42
  40771c:	25080d00 	addiu	$t0,$t0,3328
  407720:	0007c880 	sll	$t9,$a3,0x2
  407724:	03281021 	addu	$v0,$t9,$t0
  407728:	8c490000 	lw	$t1,0($v0)
  40772c:	00000000 	nop
  407730:	ac690008 	sw	$t1,8($v1)
  407734:	10000083 	b	407944 <_realloc+0x700>
  407738:	ac430000 	sw	$v1,0($v0)
  40773c:	00662021 	addu	$a0,$v1,$a2
  407740:	8c820008 	lw	$v0,8($a0)
  407744:	24840008 	addiu	$a0,$a0,8
  407748:	304a0001 	andi	$t2,$v0,0x1
  40774c:	15400016 	bnez	$t2,4077a8 <_realloc+0x564>
  407750:	2c410028 	sltiu	$at,$v0,40
  407754:	14200015 	bnez	$at,4077ac <_realloc+0x568>
  407758:	30ee0002 	andi	$t6,$a3,0x2
  40775c:	8f8baea4 	lw	$t3,-20828($gp)
  407760:	00000000 	nop
  407764:	108b000e 	beq	$a0,$t3,4077a0 <_realloc+0x55c>
  407768:	00c26021 	addu	$t4,$a2,$v0
  40776c:	afa30018 	sw	$v1,24($sp)
  407770:	afa4002c 	sw	$a0,44($sp)
  407774:	afa50034 	sw	$a1,52($sp)
  407778:	0c101eca 	jal	407b28 <_realloc+0x8e4>
  40777c:	afa70028 	sw	$a3,40($sp)
  407780:	8fa30018 	lw	$v1,24($sp)
  407784:	8fa4002c 	lw	$a0,44($sp)
  407788:	8fa50034 	lw	$a1,52($sp)
  40778c:	8fa70028 	lw	$a3,40($sp)
  407790:	8c660000 	lw	$a2,0($v1)
  407794:	8c820000 	lw	$v0,0($a0)
  407798:	00000000 	nop
  40779c:	00c26021 	addu	$t4,$a2,$v0
  4077a0:	258d0008 	addiu	$t5,$t4,8
  4077a4:	ac6d0000 	sw	$t5,0($v1)
  4077a8:	30ee0002 	andi	$t6,$a3,0x2
  4077ac:	11c00013 	beqz	$t6,4077fc <_realloc+0x5b8>
  4077b0:	00000000 	nop
  4077b4:	8c64fff8 	lw	$a0,-8($v1)
  4077b8:	00000000 	nop
  4077bc:	8c8f0000 	lw	$t7,0($a0)
  4077c0:	00000000 	nop
  4077c4:	2de10028 	sltiu	$at,$t7,40
  4077c8:	1420000c 	bnez	$at,4077fc <_realloc+0x5b8>
  4077cc:	00000000 	nop
  4077d0:	afa30018 	sw	$v1,24($sp)
  4077d4:	0c101eca 	jal	407b28 <_realloc+0x8e4>
  4077d8:	afa4002c 	sw	$a0,44($sp)
  4077dc:	8fa30018 	lw	$v1,24($sp)
  4077e0:	8fa5002c 	lw	$a1,44($sp)
  4077e4:	8c790000 	lw	$t9,0($v1)
  4077e8:	8cb80000 	lw	$t8,0($a1)
  4077ec:	00000000 	nop
  4077f0:	03194021 	addu	$t0,$t8,$t9
  4077f4:	25090008 	addiu	$t1,$t0,8
  4077f8:	aca90000 	sw	$t1,0($a1)
  4077fc:	8caa0000 	lw	$t2,0($a1)
  407800:	aca00020 	sw	$zero,32($a1)
  407804:	aca00018 	sw	$zero,24($a1)
  407808:	aca00010 	sw	$zero,16($a1)
  40780c:	aca00008 	sw	$zero,8($a1)
  407810:	00aa5821 	addu	$t3,$a1,$t2
  407814:	ad650000 	sw	$a1,0($t3)
  407818:	8ca60000 	lw	$a2,0($a1)
  40781c:	8f8caea8 	lw	$t4,-20824($gp)
  407820:	00a61021 	addu	$v0,$a1,$a2
  407824:	244d0010 	addiu	$t5,$v0,16
  407828:	158d0003 	bne	$t4,$t5,407838 <_realloc+0x5f4>
  40782c:	00000000 	nop
  407830:	10000040 	b	407934 <_realloc+0x6f0>
  407834:	af85aea4 	sw	$a1,-20828($gp)
  407838:	8f87aea0 	lw	$a3,-20832($gp)
  40783c:	00c01825 	move	$v1,$a2
  407840:	10e0003b 	beqz	$a3,407930 <_realloc+0x6ec>
  407844:	00e02025 	move	$a0,$a3
  407848:	8c820000 	lw	$v0,0($a0)
  40784c:	00000000 	nop
  407850:	0062082b 	sltu	$at,$v1,$v0
  407854:	1020000b 	beqz	$at,407884 <_realloc+0x640>
  407858:	0043082b 	sltu	$at,$v0,$v1
  40785c:	8c820010 	lw	$v0,16($a0)
  407860:	00000000 	nop
  407864:	10400003 	beqz	$v0,407874 <_realloc+0x630>
  407868:	00000000 	nop
  40786c:	1000fff6 	b	407848 <_realloc+0x604>
  407870:	00402025 	move	$a0,$v0
  407874:	ac850010 	sw	$a1,16($a0)
  407878:	1000002a 	b	407924 <_realloc+0x6e0>
  40787c:	aca40008 	sw	$a0,8($a1)
  407880:	0043082b 	sltu	$at,$v0,$v1
  407884:	1020000a 	beqz	$at,4078b0 <_realloc+0x66c>
  407888:	00000000 	nop
  40788c:	8c820018 	lw	$v0,24($a0)
  407890:	00000000 	nop
  407894:	10400003 	beqz	$v0,4078a4 <_realloc+0x660>
  407898:	00000000 	nop
  40789c:	1000ffea 	b	407848 <_realloc+0x604>
  4078a0:	00402025 	move	$a0,$v0
  4078a4:	ac850018 	sw	$a1,24($a0)
  4078a8:	1000001e 	b	407924 <_realloc+0x6e0>
  4078ac:	aca40008 	sw	$a0,8($a1)
  4078b0:	8c820008 	lw	$v0,8($a0)
  4078b4:	240fffff 	li	$t7,-1
  4078b8:	1040000a 	beqz	$v0,4078e4 <_realloc+0x6a0>
  4078bc:	00000000 	nop
  4078c0:	8c4e0010 	lw	$t6,16($v0)
  4078c4:	00000000 	nop
  4078c8:	148e0003 	bne	$a0,$t6,4078d8 <_realloc+0x694>
  4078cc:	00000000 	nop
  4078d0:	10000002 	b	4078dc <_realloc+0x698>
  4078d4:	ac450010 	sw	$a1,16($v0)
  4078d8:	ac450018 	sw	$a1,24($v0)
  4078dc:	10000002 	b	4078e8 <_realloc+0x6a4>
  4078e0:	aca20008 	sw	$v0,8($a1)
  4078e4:	af85aea0 	sw	$a1,-20832($gp)
  4078e8:	8c820010 	lw	$v0,16($a0)
  4078ec:	00000000 	nop
  4078f0:	10400002 	beqz	$v0,4078fc <_realloc+0x6b8>
  4078f4:	00000000 	nop
  4078f8:	ac450008 	sw	$a1,8($v0)
  4078fc:	aca20010 	sw	$v0,16($a1)
  407900:	8c820018 	lw	$v0,24($a0)
  407904:	00000000 	nop
  407908:	10400002 	beqz	$v0,407914 <_realloc+0x6d0>
  40790c:	00000000 	nop
  407910:	ac450008 	sw	$a1,8($v0)
  407914:	aca20018 	sw	$v0,24($a1)
  407918:	aca40020 	sw	$a0,32($a1)
  40791c:	ac850008 	sw	$a1,8($a0)
  407920:	ac8f0010 	sw	$t7,16($a0)
  407924:	8cb80000 	lw	$t8,0($a1)
  407928:	10000002 	b	407934 <_realloc+0x6f0>
  40792c:	00b81021 	addu	$v0,$a1,$t8
  407930:	af85aea0 	sw	$a1,-20832($gp)
  407934:	8c590008 	lw	$t9,8($v0)
  407938:	00000000 	nop
  40793c:	37280002 	ori	$t0,$t9,0x2
  407940:	ac480008 	sw	$t0,8($v0)
  407944:	8fbf0014 	lw	$ra,20($sp)
  407948:	27bd0038 	addiu	$sp,$sp,56
  40794c:	03e00008 	jr	$ra
  407950:	00000000 	nop
  407954:	8f86aea4 	lw	$a2,-20828($gp)
  407958:	27bdffd8 	addiu	$sp,$sp,-40
  40795c:	afbf0014 	sw	$ra,20($sp)
  407960:	24850010 	addiu	$a1,$a0,16
  407964:	afa50020 	sw	$a1,32($sp)
  407968:	00002025 	move	$a0,$zero
  40796c:	0c104128 	jal	4104a0 <_sbrk>
  407970:	afa60024 	sw	$a2,36($sp)
  407974:	8fa50020 	lw	$a1,32($sp)
  407978:	8fa80024 	lw	$t0,36($sp)
  40797c:	30430007 	andi	$v1,$v0,0x7
  407980:	10600004 	beqz	$v1,407994 <_realloc+0x750>
  407984:	00403825 	move	$a3,$v0
  407988:	240e0008 	li	$t6,8
  40798c:	10000002 	b	407998 <_realloc+0x754>
  407990:	01c33023 	subu	$a2,$t6,$v1
  407994:	00003025 	move	$a2,$zero
  407998:	8f84aea8 	lw	$a0,-20824($gp)
  40799c:	8f83aeb4 	lw	$v1,-20812($gp)
  4079a0:	14440006 	bne	$v0,$a0,4079bc <_realloc+0x778>
  4079a4:	00000000 	nop
  4079a8:	11000004 	beqz	$t0,4079bc <_realloc+0x778>
  4079ac:	24a5fff8 	addiu	$a1,$a1,-8
  4079b0:	8d0f0000 	lw	$t7,0($t0)
  4079b4:	00000000 	nop
  4079b8:	00af2823 	subu	$a1,$a1,$t7
  4079bc:	1460000c 	bnez	$v1,4079f0 <_realloc+0x7ac>
  4079c0:	00000000 	nop
  4079c4:	afa50020 	sw	$a1,32($sp)
  4079c8:	afa6001c 	sw	$a2,28($sp)
  4079cc:	afa70018 	sw	$a3,24($sp)
  4079d0:	0c104160 	jal	410580 <_getpagesize>
  4079d4:	afa80024 	sw	$t0,36($sp)
  4079d8:	8fa50020 	lw	$a1,32($sp)
  4079dc:	8fa6001c 	lw	$a2,28($sp)
  4079e0:	8fa70018 	lw	$a3,24($sp)
  4079e4:	8fa80024 	lw	$t0,36($sp)
  4079e8:	8f84aea8 	lw	$a0,-20824($gp)
  4079ec:	2443ffff 	addiu	$v1,$v0,-1
  4079f0:	8f82aeb8 	lw	$v0,-20808($gp)
  4079f4:	24010008 	li	$at,8
  4079f8:	24420001 	addiu	$v0,$v0,1
  4079fc:	14410003 	bne	$v0,$at,407a0c <_realloc+0x7c8>
  407a00:	af82aeb8 	sw	$v0,-20808($gp)
  407a04:	0003c040 	sll	$t8,$v1,0x1
  407a08:	27030001 	addiu	$v1,$t8,1
  407a0c:	00a3c821 	addu	$t9,$a1,$v1
  407a10:	2729ffff 	addiu	$t1,$t9,-1
  407a14:	00605027 	nor	$t2,$v1,$zero
  407a18:	012a2824 	and	$a1,$t1,$t2
  407a1c:	14800009 	bnez	$a0,407a44 <_realloc+0x800>
  407a20:	af83aeb4 	sw	$v1,-20812($gp)
  407a24:	00e65821 	addu	$t3,$a3,$a2
  407a28:	01631024 	and	$v0,$t3,$v1
  407a2c:	10400005 	beqz	$v0,407a44 <_realloc+0x800>
  407a30:	af83aeb4 	sw	$v1,-20812($gp)
  407a34:	00a36021 	addu	$t4,$a1,$v1
  407a38:	01822823 	subu	$a1,$t4,$v0
  407a3c:	24a50001 	addiu	$a1,$a1,1
  407a40:	af83aeb4 	sw	$v1,-20812($gp)
  407a44:	00a61021 	addu	$v0,$a1,$a2
  407a48:	3c018000 	lui	$at,0x8000
  407a4c:	0041082b 	sltu	$at,$v0,$at
  407a50:	14200003 	bnez	$at,407a60 <_realloc+0x81c>
  407a54:	00402025 	move	$a0,$v0
  407a58:	1000002f 	b	407b18 <_realloc+0x8d4>
  407a5c:	00001025 	move	$v0,$zero
  407a60:	afa50020 	sw	$a1,32($sp)
  407a64:	afa6001c 	sw	$a2,28($sp)
  407a68:	0c104128 	jal	4104a0 <_sbrk>
  407a6c:	afa80024 	sw	$t0,36($sp)
  407a70:	8fa50020 	lw	$a1,32($sp)
  407a74:	8fa6001c 	lw	$a2,28($sp)
  407a78:	8fa80024 	lw	$t0,36($sp)
  407a7c:	2401ffff 	li	$at,-1
  407a80:	14410003 	bne	$v0,$at,407a90 <_realloc+0x84c>
  407a84:	00000000 	nop
  407a88:	10000023 	b	407b18 <_realloc+0x8d4>
  407a8c:	00001025 	move	$v0,$zero
  407a90:	8f84aea8 	lw	$a0,-20824($gp)
  407a94:	00463821 	addu	$a3,$v0,$a2
  407a98:	1444000a 	bne	$v0,$a0,407ac4 <_realloc+0x880>
  407a9c:	00000000 	nop
  407aa0:	11000006 	beqz	$t0,407abc <_realloc+0x878>
  407aa4:	2487fff8 	addiu	$a3,$a0,-8
  407aa8:	8d0d0000 	lw	$t5,0($t0)
  407aac:	01003825 	move	$a3,$t0
  407ab0:	00ad2821 	addu	$a1,$a1,$t5
  407ab4:	10000003 	b	407ac4 <_realloc+0x880>
  407ab8:	24a50010 	addiu	$a1,$a1,16
  407abc:	10000001 	b	407ac4 <_realloc+0x880>
  407ac0:	24a50008 	addiu	$a1,$a1,8
  407ac4:	24a2fff0 	addiu	$v0,$a1,-16
  407ac8:	8f86aea4 	lw	$a2,-20828($gp)
  407acc:	ace20000 	sw	$v0,0($a3)
  407ad0:	00e21821 	addu	$v1,$a3,$v0
  407ad4:	8c6e0008 	lw	$t6,8($v1)
  407ad8:	00e52021 	addu	$a0,$a3,$a1
  407adc:	35cf0001 	ori	$t7,$t6,0x1
  407ae0:	ac6f0008 	sw	$t7,8($v1)
  407ae4:	10c0000b 	beqz	$a2,407b14 <_realloc+0x8d0>
  407ae8:	af84aea8 	sw	$a0,-20824($gp)
  407aec:	10c7000a 	beq	$a2,$a3,407b18 <_realloc+0x8d4>
  407af0:	00e01025 	move	$v0,$a3
  407af4:	8cd80000 	lw	$t8,0($a2)
  407af8:	24c40008 	addiu	$a0,$a2,8
  407afc:	37190001 	ori	$t9,$t8,0x1
  407b00:	acd90000 	sw	$t9,0($a2)
  407b04:	0c101db6 	jal	4076d8 <_realloc+0x494>
  407b08:	afa70018 	sw	$a3,24($sp)
  407b0c:	8fa70018 	lw	$a3,24($sp)
  407b10:	00000000 	nop
  407b14:	00e01025 	move	$v0,$a3
  407b18:	8fbf0014 	lw	$ra,20($sp)
  407b1c:	27bd0028 	addiu	$sp,$sp,40
  407b20:	03e00008 	jr	$ra
  407b24:	00000000 	nop
  407b28:	27bdffe8 	addiu	$sp,$sp,-24
  407b2c:	afbf0014 	sw	$ra,20($sp)
  407b30:	8c8e0010 	lw	$t6,16($a0)
  407b34:	2401ffff 	li	$at,-1
  407b38:	15c10009 	bne	$t6,$at,407b60 <_realloc+0x91c>
  407b3c:	00803025 	move	$a2,$a0
  407b40:	8c850008 	lw	$a1,8($a0)
  407b44:	8c840020 	lw	$a0,32($a0)
  407b48:	00000000 	nop
  407b4c:	10800002 	beqz	$a0,407b58 <_realloc+0x914>
  407b50:	00000000 	nop
  407b54:	ac850008 	sw	$a1,8($a0)
  407b58:	1000006b 	b	407d08 <_realloc+0xac4>
  407b5c:	aca40020 	sw	$a0,32($a1)
  407b60:	8ccf0008 	lw	$t7,8($a2)
  407b64:	00c02025 	move	$a0,$a2
  407b68:	11e00005 	beqz	$t7,407b80 <_realloc+0x93c>
  407b6c:	00000000 	nop
  407b70:	0c101f46 	jal	407d18 <_realloc+0xad4>
  407b74:	afa60018 	sw	$a2,24($sp)
  407b78:	8fa60018 	lw	$a2,24($sp)
  407b7c:	00000000 	nop
  407b80:	8cc50020 	lw	$a1,32($a2)
  407b84:	00000000 	nop
  407b88:	10a00010 	beqz	$a1,407bcc <_realloc+0x988>
  407b8c:	00000000 	nop
  407b90:	aca00008 	sw	$zero,8($a1)
  407b94:	8cc40010 	lw	$a0,16($a2)
  407b98:	00000000 	nop
  407b9c:	10800002 	beqz	$a0,407ba8 <_realloc+0x964>
  407ba0:	00000000 	nop
  407ba4:	ac850008 	sw	$a1,8($a0)
  407ba8:	aca40010 	sw	$a0,16($a1)
  407bac:	8cc40018 	lw	$a0,24($a2)
  407bb0:	00000000 	nop
  407bb4:	10800002 	beqz	$a0,407bc0 <_realloc+0x97c>
  407bb8:	00000000 	nop
  407bbc:	ac850008 	sw	$a1,8($a0)
  407bc0:	aca40018 	sw	$a0,24($a1)
  407bc4:	10000050 	b	407d08 <_realloc+0xac4>
  407bc8:	af85aea0 	sw	$a1,-20832($gp)
  407bcc:	8cc50010 	lw	$a1,16($a2)
  407bd0:	00000000 	nop
  407bd4:	10a00046 	beqz	$a1,407cf0 <_realloc+0xaac>
  407bd8:	00000000 	nop
  407bdc:	aca00008 	sw	$zero,8($a1)
  407be0:	8cc20018 	lw	$v0,24($a2)
  407be4:	00000000 	nop
  407be8:	10400046 	beqz	$v0,407d04 <_realloc+0xac0>
  407bec:	00000000 	nop
  407bf0:	8ca40018 	lw	$a0,24($a1)
  407bf4:	00000000 	nop
  407bf8:	1080003a 	beqz	$a0,407ce4 <_realloc+0xaa0>
  407bfc:	00000000 	nop
  407c00:	8c830018 	lw	$v1,24($a0)
  407c04:	00000000 	nop
  407c08:	10600019 	beqz	$v1,407c70 <_realloc+0xa2c>
  407c0c:	00000000 	nop
  407c10:	8c620010 	lw	$v0,16($v1)
  407c14:	00000000 	nop
  407c18:	10400002 	beqz	$v0,407c24 <_realloc+0x9e0>
  407c1c:	ac820018 	sw	$v0,24($a0)
  407c20:	ac440008 	sw	$a0,8($v0)
  407c24:	8ca20008 	lw	$v0,8($a1)
  407c28:	00000000 	nop
  407c2c:	1040000c 	beqz	$v0,407c60 <_realloc+0xa1c>
  407c30:	ac620008 	sw	$v0,8($v1)
  407c34:	8cb90008 	lw	$t9,8($a1)
  407c38:	00000000 	nop
  407c3c:	8f280010 	lw	$t0,16($t9)
  407c40:	00000000 	nop
  407c44:	14a80003 	bne	$a1,$t0,407c54 <_realloc+0xa10>
  407c48:	00000000 	nop
  407c4c:	10000004 	b	407c60 <_realloc+0xa1c>
  407c50:	ac430010 	sw	$v1,16($v0)
  407c54:	8c6a0008 	lw	$t2,8($v1)
  407c58:	00000000 	nop
  407c5c:	ad430018 	sw	$v1,24($t2)
  407c60:	aca30008 	sw	$v1,8($a1)
  407c64:	ac650010 	sw	$a1,16($v1)
  407c68:	10000018 	b	407ccc <_realloc+0xa88>
  407c6c:	00602825 	move	$a1,$v1
  407c70:	8c820010 	lw	$v0,16($a0)
  407c74:	00000000 	nop
  407c78:	10400002 	beqz	$v0,407c84 <_realloc+0xa40>
  407c7c:	aca20018 	sw	$v0,24($a1)
  407c80:	ac450008 	sw	$a1,8($v0)
  407c84:	8ca20008 	lw	$v0,8($a1)
  407c88:	00000000 	nop
  407c8c:	1040000c 	beqz	$v0,407cc0 <_realloc+0xa7c>
  407c90:	ac820008 	sw	$v0,8($a0)
  407c94:	8cac0008 	lw	$t4,8($a1)
  407c98:	00000000 	nop
  407c9c:	8d8d0010 	lw	$t5,16($t4)
  407ca0:	00000000 	nop
  407ca4:	14ad0003 	bne	$a1,$t5,407cb4 <_realloc+0xa70>
  407ca8:	00000000 	nop
  407cac:	10000004 	b	407cc0 <_realloc+0xa7c>
  407cb0:	ac440010 	sw	$a0,16($v0)
  407cb4:	8c8f0008 	lw	$t7,8($a0)
  407cb8:	00000000 	nop
  407cbc:	ade40018 	sw	$a0,24($t7)
  407cc0:	ac850010 	sw	$a1,16($a0)
  407cc4:	aca40008 	sw	$a0,8($a1)
  407cc8:	00802825 	move	$a1,$a0
  407ccc:	8ca40018 	lw	$a0,24($a1)
  407cd0:	00000000 	nop
  407cd4:	1480ffca 	bnez	$a0,407c00 <_realloc+0x9bc>
  407cd8:	00000000 	nop
  407cdc:	8cc20018 	lw	$v0,24($a2)
  407ce0:	00000000 	nop
  407ce4:	aca20018 	sw	$v0,24($a1)
  407ce8:	10000006 	b	407d04 <_realloc+0xac0>
  407cec:	ac450008 	sw	$a1,8($v0)
  407cf0:	8cc50018 	lw	$a1,24($a2)
  407cf4:	00000000 	nop
  407cf8:	10a00002 	beqz	$a1,407d04 <_realloc+0xac0>
  407cfc:	00000000 	nop
  407d00:	aca00008 	sw	$zero,8($a1)
  407d04:	af85aea0 	sw	$a1,-20832($gp)
  407d08:	8fbf0014 	lw	$ra,20($sp)
  407d0c:	27bd0018 	addiu	$sp,$sp,24
  407d10:	03e00008 	jr	$ra
  407d14:	00000000 	nop
  407d18:	8c820008 	lw	$v0,8($a0)
  407d1c:	00000000 	nop
  407d20:	1040007c 	beqz	$v0,407f14 <_realloc+0xcd0>
  407d24:	00000000 	nop
  407d28:	8c450010 	lw	$a1,16($v0)
  407d2c:	8c430008 	lw	$v1,8($v0)
  407d30:	1485003c 	bne	$a0,$a1,407e24 <_realloc+0xbe0>
  407d34:	00000000 	nop
  407d38:	10600023 	beqz	$v1,407dc8 <_realloc+0xb84>
  407d3c:	00000000 	nop
  407d40:	8c6e0010 	lw	$t6,16($v1)
  407d44:	00000000 	nop
  407d48:	144e001f 	bne	$v0,$t6,407dc8 <_realloc+0xb84>
  407d4c:	00000000 	nop
  407d50:	8c460018 	lw	$a2,24($v0)
  407d54:	00000000 	nop
  407d58:	10c00002 	beqz	$a2,407d64 <_realloc+0xb20>
  407d5c:	ac660010 	sw	$a2,16($v1)
  407d60:	acc30008 	sw	$v1,8($a2)
  407d64:	8c860018 	lw	$a2,24($a0)
  407d68:	00000000 	nop
  407d6c:	10c00002 	beqz	$a2,407d78 <_realloc+0xb34>
  407d70:	ac460010 	sw	$a2,16($v0)
  407d74:	acc20008 	sw	$v0,8($a2)
  407d78:	8c660008 	lw	$a2,8($v1)
  407d7c:	00000000 	nop
  407d80:	10c0000c 	beqz	$a2,407db4 <_realloc+0xb70>
  407d84:	ac860008 	sw	$a2,8($a0)
  407d88:	8c790008 	lw	$t9,8($v1)
  407d8c:	00000000 	nop
  407d90:	8f280010 	lw	$t0,16($t9)
  407d94:	00000000 	nop
  407d98:	14680003 	bne	$v1,$t0,407da8 <_realloc+0xb64>
  407d9c:	00000000 	nop
  407da0:	10000004 	b	407db4 <_realloc+0xb70>
  407da4:	acc40010 	sw	$a0,16($a2)
  407da8:	8c8a0008 	lw	$t2,8($a0)
  407dac:	00000000 	nop
  407db0:	ad440018 	sw	$a0,24($t2)
  407db4:	ac820018 	sw	$v0,24($a0)
  407db8:	ac430018 	sw	$v1,24($v0)
  407dbc:	ac440008 	sw	$a0,8($v0)
  407dc0:	10000050 	b	407f04 <_realloc+0xcc0>
  407dc4:	ac620008 	sw	$v0,8($v1)
  407dc8:	8c860018 	lw	$a2,24($a0)
  407dcc:	00000000 	nop
  407dd0:	10c00002 	beqz	$a2,407ddc <_realloc+0xb98>
  407dd4:	ac460010 	sw	$a2,16($v0)
  407dd8:	acc20008 	sw	$v0,8($a2)
  407ddc:	8c460008 	lw	$a2,8($v0)
  407de0:	00000000 	nop
  407de4:	10c0000c 	beqz	$a2,407e18 <_realloc+0xbd4>
  407de8:	ac860008 	sw	$a2,8($a0)
  407dec:	8c4c0008 	lw	$t4,8($v0)
  407df0:	00000000 	nop
  407df4:	8d8d0010 	lw	$t5,16($t4)
  407df8:	00000000 	nop
  407dfc:	144d0003 	bne	$v0,$t5,407e0c <_realloc+0xbc8>
  407e00:	00000000 	nop
  407e04:	10000004 	b	407e18 <_realloc+0xbd4>
  407e08:	acc40010 	sw	$a0,16($a2)
  407e0c:	8c8f0008 	lw	$t7,8($a0)
  407e10:	00000000 	nop
  407e14:	ade40018 	sw	$a0,24($t7)
  407e18:	ac820018 	sw	$v0,24($a0)
  407e1c:	10000039 	b	407f04 <_realloc+0xcc0>
  407e20:	ac440008 	sw	$a0,8($v0)
  407e24:	10600021 	beqz	$v1,407eac <_realloc+0xc68>
  407e28:	00000000 	nop
  407e2c:	8c780018 	lw	$t8,24($v1)
  407e30:	00000000 	nop
  407e34:	1458001d 	bne	$v0,$t8,407eac <_realloc+0xc68>
  407e38:	00000000 	nop
  407e3c:	10a00002 	beqz	$a1,407e48 <_realloc+0xc04>
  407e40:	ac650018 	sw	$a1,24($v1)
  407e44:	aca30008 	sw	$v1,8($a1)
  407e48:	8c860010 	lw	$a2,16($a0)
  407e4c:	00000000 	nop
  407e50:	10c00002 	beqz	$a2,407e5c <_realloc+0xc18>
  407e54:	ac460018 	sw	$a2,24($v0)
  407e58:	acc20008 	sw	$v0,8($a2)
  407e5c:	8c660008 	lw	$a2,8($v1)
  407e60:	00000000 	nop
  407e64:	10c0000c 	beqz	$a2,407e98 <_realloc+0xc54>
  407e68:	ac860008 	sw	$a2,8($a0)
  407e6c:	8c690008 	lw	$t1,8($v1)
  407e70:	00000000 	nop
  407e74:	8d2a0010 	lw	$t2,16($t1)
  407e78:	00000000 	nop
  407e7c:	146a0003 	bne	$v1,$t2,407e8c <_realloc+0xc48>
  407e80:	00000000 	nop
  407e84:	10000004 	b	407e98 <_realloc+0xc54>
  407e88:	acc40010 	sw	$a0,16($a2)
  407e8c:	8c8c0008 	lw	$t4,8($a0)
  407e90:	00000000 	nop
  407e94:	ad840018 	sw	$a0,24($t4)
  407e98:	ac820010 	sw	$v0,16($a0)
  407e9c:	ac430010 	sw	$v1,16($v0)
  407ea0:	ac440008 	sw	$a0,8($v0)
  407ea4:	10000017 	b	407f04 <_realloc+0xcc0>
  407ea8:	ac620008 	sw	$v0,8($v1)
  407eac:	8c860010 	lw	$a2,16($a0)
  407eb0:	00000000 	nop
  407eb4:	10c00002 	beqz	$a2,407ec0 <_realloc+0xc7c>
  407eb8:	ac460018 	sw	$a2,24($v0)
  407ebc:	acc20008 	sw	$v0,8($a2)
  407ec0:	8c460008 	lw	$a2,8($v0)
  407ec4:	00000000 	nop
  407ec8:	10c0000c 	beqz	$a2,407efc <_realloc+0xcb8>
  407ecc:	ac860008 	sw	$a2,8($a0)
  407ed0:	8c4e0008 	lw	$t6,8($v0)
  407ed4:	00000000 	nop
  407ed8:	8dcf0010 	lw	$t7,16($t6)
  407edc:	00000000 	nop
  407ee0:	144f0003 	bne	$v0,$t7,407ef0 <_realloc+0xcac>
  407ee4:	00000000 	nop
  407ee8:	10000004 	b	407efc <_realloc+0xcb8>
  407eec:	acc40010 	sw	$a0,16($a2)
  407ef0:	8c990008 	lw	$t9,8($a0)
  407ef4:	00000000 	nop
  407ef8:	af240018 	sw	$a0,24($t9)
  407efc:	ac820010 	sw	$v0,16($a0)
  407f00:	ac440008 	sw	$a0,8($v0)
  407f04:	8c820008 	lw	$v0,8($a0)
  407f08:	00000000 	nop
  407f0c:	1440ff86 	bnez	$v0,407d28 <_realloc+0xae4>
  407f10:	00000000 	nop
  407f14:	03e00008 	jr	$ra
  407f18:	00000000 	nop

00407f1c <_free>:
  407f1c:	8f8e88c4 	lw	$t6,-30524($gp)
  407f20:	27bdffe8 	addiu	$sp,$sp,-24
  407f24:	afbf0014 	sw	$ra,20($sp)
  407f28:	11c00005 	beqz	$t6,407f40 <_free+0x24>
  407f2c:	afa40018 	sw	$a0,24($sp)
  407f30:	8f99aee4 	lw	$t9,-20764($gp)
  407f34:	8f84aec8 	lw	$a0,-20792($gp)
  407f38:	0320f809 	jalr	$t9
  407f3c:	00000000 	nop
  407f40:	8fa40018 	lw	$a0,24($sp)
  407f44:	0c101fde 	jal	407f78 <__free>
  407f48:	00000000 	nop
  407f4c:	8f8f88c4 	lw	$t7,-30524($gp)
  407f50:	8f99aee8 	lw	$t9,-20760($gp)
  407f54:	11e00005 	beqz	$t7,407f6c <_free+0x50>
  407f58:	8fbf0014 	lw	$ra,20($sp)
  407f5c:	8f84aec8 	lw	$a0,-20792($gp)
  407f60:	0320f809 	jalr	$t9
  407f64:	00000000 	nop
  407f68:	8fbf0014 	lw	$ra,20($sp)
  407f6c:	27bd0018 	addiu	$sp,$sp,24
  407f70:	03e00008 	jr	$ra
  407f74:	00000000 	nop

00407f78 <__free>:
  407f78:	27bdffe0 	addiu	$sp,$sp,-32
  407f7c:	afbf0014 	sw	$ra,20($sp)
  407f80:	10800017 	beqz	$a0,407fe0 <__free+0x68>
  407f84:	00802825 	move	$a1,$a0
  407f88:	8f8eaeb0 	lw	$t6,-20816($gp)
  407f8c:	3c180042 	lui	$t8,0x42
  407f90:	27180c80 	addiu	$t8,$t8,3200
  407f94:	000e7880 	sll	$t7,$t6,0x2
  407f98:	01f81021 	addu	$v0,$t7,$t8
  407f9c:	8c440000 	lw	$a0,0($v0)
  407fa0:	00000000 	nop
  407fa4:	10800007 	beqz	$a0,407fc4 <__free+0x4c>
  407fa8:	00000000 	nop
  407fac:	afa2001c 	sw	$v0,28($sp)
  407fb0:	0c101db6 	jal	4076d8 <_realloc+0x494>
  407fb4:	afa50020 	sw	$a1,32($sp)
  407fb8:	8fa2001c 	lw	$v0,28($sp)
  407fbc:	8fa50020 	lw	$a1,32($sp)
  407fc0:	00000000 	nop
  407fc4:	af85aeac 	sw	$a1,-20820($gp)
  407fc8:	ac450000 	sw	$a1,0($v0)
  407fcc:	8f99aeb0 	lw	$t9,-20816($gp)
  407fd0:	00000000 	nop
  407fd4:	27280001 	addiu	$t0,$t9,1
  407fd8:	3109001f 	andi	$t1,$t0,0x1f
  407fdc:	af89aeb0 	sw	$t1,-20816($gp)
  407fe0:	8fbf0014 	lw	$ra,20($sp)
  407fe4:	27bd0020 	addiu	$sp,$sp,32
  407fe8:	03e00008 	jr	$ra
  407fec:	00000000 	nop
  407ff0:	27bdffd8 	addiu	$sp,$sp,-40
  407ff4:	8f8eaeb0 	lw	$t6,-20816($gp)
  407ff8:	afb2001c 	sw	$s2,28($sp)
  407ffc:	3c120042 	lui	$s2,0x42
  408000:	afb30020 	sw	$s3,32($sp)
  408004:	26520c80 	addiu	$s2,$s2,3200
  408008:	afb10018 	sw	$s1,24($sp)
  40800c:	afb00014 	sw	$s0,20($sp)
  408010:	3c130042 	lui	$s3,0x42
  408014:	000e7880 	sll	$t7,$t6,0x2
  408018:	00808825 	move	$s1,$a0
  40801c:	afbf0024 	sw	$ra,36($sp)
  408020:	024f8021 	addu	$s0,$s2,$t7
  408024:	26730d00 	addiu	$s3,$s3,3328
  408028:	16120002 	bne	$s0,$s2,408034 <__free+0xbc>
  40802c:	00000000 	nop
  408030:	02608025 	move	$s0,$s3
  408034:	8e04fffc 	lw	$a0,-4($s0)
  408038:	2610fffc 	addiu	$s0,$s0,-4
  40803c:	10800008 	beqz	$a0,408060 <__free+0xe8>
  408040:	8fbf0024 	lw	$ra,36($sp)
  408044:	12240003 	beq	$s1,$a0,408054 <__free+0xdc>
  408048:	00000000 	nop
  40804c:	0c101db6 	jal	4076d8 <_realloc+0x494>
  408050:	00000000 	nop
  408054:	1000fff4 	b	408028 <__free+0xb0>
  408058:	ae000000 	sw	$zero,0($s0)
  40805c:	8fbf0024 	lw	$ra,36($sp)
  408060:	8fb00014 	lw	$s0,20($sp)
  408064:	8fb10018 	lw	$s1,24($sp)
  408068:	8fb2001c 	lw	$s2,28($sp)
  40806c:	8fb30020 	lw	$s3,32($sp)
  408070:	af80aeb0 	sw	$zero,-20816($gp)
  408074:	af80aeac 	sw	$zero,-20820($gp)
  408078:	03e00008 	jr	$ra
  40807c:	27bd0028 	addiu	$sp,$sp,40

00408080 <_oserror>:
  408080:	8f8e8840 	lw	$t6,-30656($gp)
  408084:	00000000 	nop
  408088:	8dc20000 	lw	$v0,0($t6)
  40808c:	03e00008 	jr	$ra
  408090:	00000000 	nop

00408094 <_setoserror>:
  408094:	8f8e8840 	lw	$t6,-30656($gp)
  408098:	af84af6c 	sw	$a0,-20628($gp)
  40809c:	00801025 	move	$v0,$a0
  4080a0:	03e00008 	jr	$ra
  4080a4:	adc40000 	sw	$a0,0($t6)

004080a8 <_goserror>:
  4080a8:	8f82af6c 	lw	$v0,-20628($gp)
  4080ac:	03e00008 	jr	$ra
  4080b0:	00000000 	nop

004080b4 <__oserror>:
  4080b4:	8f828840 	lw	$v0,-30656($gp)
  4080b8:	03e00008 	jr	$ra
  4080bc:	00000000 	nop

004080c0 <__initperthread_errno>:
  4080c0:	3c0e0020 	lui	$t6,0x20
  4080c4:	35ce0e84 	ori	$t6,$t6,0xe84
  4080c8:	03e00008 	jr	$ra
  4080cc:	af8e8840 	sw	$t6,-30656($gp)

004080d0 <_uspsema>:
  4080d0:	3c190041 	lui	$t9,0x41
  4080d4:	27398ca0 	addiu	$t9,$t9,-29536
  4080d8:	03200008 	jr	$t9
  4080dc:	03e02825 	move	$a1,$ra

004080e0 <_uscpsema>:
  4080e0:	3c190041 	lui	$t9,0x41
  4080e4:	2739911c 	addiu	$t9,$t9,-28388
  4080e8:	03200008 	jr	$t9
  4080ec:	03e02825 	move	$a1,$ra

004080f0 <_usvsema>:
  4080f0:	3c190041 	lui	$t9,0x41
  4080f4:	2739935c 	addiu	$t9,$t9,-27812
  4080f8:	03200008 	jr	$t9
  4080fc:	03e02825 	move	$a1,$ra

00408100 <__dswsetlock>:
  408100:	3c190041 	lui	$t9,0x41
  408104:	27398640 	addiu	$t9,$t9,-31168
  408108:	03200008 	jr	$t9
  40810c:	03e02825 	move	$a1,$ra

00408110 <__dhsetlock>:
  408110:	3c190041 	lui	$t9,0x41
  408114:	2739c0e4 	addiu	$t9,$t9,-16156
  408118:	03200008 	jr	$t9
  40811c:	03e02825 	move	$a1,$ra

00408120 <__dhunsetlock>:
  408120:	3c190041 	lui	$t9,0x41
  408124:	2739c1e8 	addiu	$t9,$t9,-15896
  408128:	03200008 	jr	$t9
  40812c:	03e02825 	move	$a1,$ra

00408130 <__dhwsetlock>:
  408130:	3c190041 	lui	$t9,0x41
  408134:	2739beb8 	addiu	$t9,$t9,-16712
  408138:	03200008 	jr	$t9
  40813c:	03e03025 	move	$a2,$ra

00408140 <_sinitlock>:
  408140:	948e0010 	lhu	$t6,16($a0)
  408144:	00801025 	move	$v0,$a0
  408148:	ac800004 	sw	$zero,4($a0)
  40814c:	ac80000c 	sw	$zero,12($a0)
  408150:	ac800008 	sw	$zero,8($a0)
  408154:	00001825 	move	$v1,$zero
  408158:	05c00007 	bltz	$t6,408178 <_sinitlock+0x38>
  40815c:	2485001c 	addiu	$a1,$a0,28
  408160:	aca00000 	sw	$zero,0($a1)
  408164:	944f0010 	lhu	$t7,16($v0)
  408168:	24630001 	addiu	$v1,$v1,1
  40816c:	01e3082a 	slt	$at,$t7,$v1
  408170:	1020fffb 	beqz	$at,408160 <_sinitlock+0x20>
  408174:	24a50004 	addiu	$a1,$a1,4
  408178:	94820012 	lhu	$v0,18($a0)
  40817c:	00000000 	nop
  408180:	10400014 	beqz	$v0,4081d4 <_sinitlock+0x94>
  408184:	30580001 	andi	$t8,$v0,0x1
  408188:	1300000c 	beqz	$t8,4081bc <_sinitlock+0x7c>
  40818c:	00401825 	move	$v1,$v0
  408190:	8c990014 	lw	$t9,20($a0)
  408194:	00000000 	nop
  408198:	af200000 	sw	$zero,0($t9)
  40819c:	8c880014 	lw	$t0,20($a0)
  4081a0:	00000000 	nop
  4081a4:	ad000004 	sw	$zero,4($t0)
  4081a8:	8c890014 	lw	$t1,20($a0)
  4081ac:	00000000 	nop
  4081b0:	ad200008 	sw	$zero,8($t1)
  4081b4:	94830012 	lhu	$v1,18($a0)
  4081b8:	00000000 	nop
  4081bc:	306a0002 	andi	$t2,$v1,0x2
  4081c0:	11400004 	beqz	$t2,4081d4 <_sinitlock+0x94>
  4081c4:	00000000 	nop
  4081c8:	8c8c0018 	lw	$t4,24($a0)
  4081cc:	240bffff 	li	$t3,-1
  4081d0:	ad8b0000 	sw	$t3,0($t4)
  4081d4:	03e00008 	jr	$ra
  4081d8:	00001025 	move	$v0,$zero

004081dc <_snewlock>:
  4081dc:	27bdffe0 	addiu	$sp,$sp,-32
  4081e0:	afb00014 	sw	$s0,20($sp)
  4081e4:	00808025 	move	$s0,$a0
  4081e8:	afbf001c 	sw	$ra,28($sp)
  4081ec:	afb10018 	sw	$s1,24($sp)
  4081f0:	8c840424 	lw	$a0,1060($a0)
  4081f4:	02002825 	move	$a1,$s0
  4081f8:	00047080 	sll	$t6,$a0,0x2
  4081fc:	0c103110 	jal	40c440 <_usmalloc>
  408200:	25c40020 	addiu	$a0,$t6,32
  408204:	14400005 	bnez	$v0,40821c <_snewlock+0x40>
  408208:	00408825 	move	$s1,$v0
  40820c:	0c102025 	jal	408094 <_setoserror>
  408210:	2404000c 	li	$a0,12
  408214:	10000035 	b	4082ec <_snewlock+0x110>
  408218:	00001025 	move	$v0,$zero
  40821c:	ac40000c 	sw	$zero,12($v0)
  408220:	ac400008 	sw	$zero,8($v0)
  408224:	8e0f0424 	lw	$t7,1060($s0)
  408228:	24010005 	li	$at,5
  40822c:	a44f0010 	sh	$t7,16($v0)
  408230:	8f98af34 	lw	$t8,-20684($gp)
  408234:	24190004 	li	$t9,4
  408238:	17010003 	bne	$t8,$at,408248 <_snewlock+0x6c>
  40823c:	24040004 	li	$a0,4
  408240:	10000002 	b	40824c <_snewlock+0x70>
  408244:	a4590012 	sh	$t9,18($v0)
  408248:	a4400012 	sh	$zero,18($v0)
  40824c:	ac400014 	sw	$zero,20($v0)
  408250:	ac400018 	sw	$zero,24($v0)
  408254:	ac500000 	sw	$s0,0($v0)
  408258:	8e08044c 	lw	$t0,1100($s0)
  40825c:	00000000 	nop
  408260:	1100001f 	beqz	$t0,4082e0 <_snewlock+0x104>
  408264:	00000000 	nop
  408268:	0c103110 	jal	40c440 <_usmalloc>
  40826c:	02002825 	move	$a1,$s0
  408270:	14400008 	bnez	$v0,408294 <_snewlock+0xb8>
  408274:	ae220018 	sw	$v0,24($s1)
  408278:	02202025 	move	$a0,$s1
  40827c:	0c103119 	jal	40c464 <_usfree>
  408280:	02002825 	move	$a1,$s0
  408284:	0c102025 	jal	408094 <_setoserror>
  408288:	2404000c 	li	$a0,12
  40828c:	10000017 	b	4082ec <_snewlock+0x110>
  408290:	00001025 	move	$v0,$zero
  408294:	2404000c 	li	$a0,12
  408298:	0c103110 	jal	40c440 <_usmalloc>
  40829c:	02002825 	move	$a1,$s0
  4082a0:	1440000b 	bnez	$v0,4082d0 <_snewlock+0xf4>
  4082a4:	ae220014 	sw	$v0,20($s1)
  4082a8:	8e240018 	lw	$a0,24($s1)
  4082ac:	0c103119 	jal	40c464 <_usfree>
  4082b0:	02002825 	move	$a1,$s0
  4082b4:	02202025 	move	$a0,$s1
  4082b8:	0c103119 	jal	40c464 <_usfree>
  4082bc:	02002825 	move	$a1,$s0
  4082c0:	0c102025 	jal	408094 <_setoserror>
  4082c4:	2404000c 	li	$a0,12
  4082c8:	10000008 	b	4082ec <_snewlock+0x110>
  4082cc:	00001025 	move	$v0,$zero
  4082d0:	96290012 	lhu	$t1,18($s1)
  4082d4:	00000000 	nop
  4082d8:	352a0003 	ori	$t2,$t1,0x3
  4082dc:	a62a0012 	sh	$t2,18($s1)
  4082e0:	0c102050 	jal	408140 <_sinitlock>
  4082e4:	02202025 	move	$a0,$s1
  4082e8:	02201025 	move	$v0,$s1
  4082ec:	8fbf001c 	lw	$ra,28($sp)
  4082f0:	8fb00014 	lw	$s0,20($sp)
  4082f4:	8fb10018 	lw	$s1,24($sp)
  4082f8:	03e00008 	jr	$ra
  4082fc:	27bd0020 	addiu	$sp,$sp,32

00408300 <_sfreelock>:
  408300:	27bdffe8 	addiu	$sp,$sp,-24
  408304:	afbf0014 	sw	$ra,20($sp)
  408308:	afa5001c 	sw	$a1,28($sp)
  40830c:	94830012 	lhu	$v1,18($a0)
  408310:	00803025 	move	$a2,$a0
  408314:	10600014 	beqz	$v1,408368 <_sfreelock+0x68>
  408318:	306e0001 	andi	$t6,$v1,0x1
  40831c:	11c00009 	beqz	$t6,408344 <_sfreelock+0x44>
  408320:	00601025 	move	$v0,$v1
  408324:	8c840014 	lw	$a0,20($a0)
  408328:	8cc50000 	lw	$a1,0($a2)
  40832c:	0c103119 	jal	40c464 <_usfree>
  408330:	afa60018 	sw	$a2,24($sp)
  408334:	8fa60018 	lw	$a2,24($sp)
  408338:	00000000 	nop
  40833c:	94c20012 	lhu	$v0,18($a2)
  408340:	00000000 	nop
  408344:	304f0002 	andi	$t7,$v0,0x2
  408348:	11e00007 	beqz	$t7,408368 <_sfreelock+0x68>
  40834c:	00000000 	nop
  408350:	8cc40018 	lw	$a0,24($a2)
  408354:	8cc50000 	lw	$a1,0($a2)
  408358:	0c103119 	jal	40c464 <_usfree>
  40835c:	afa60018 	sw	$a2,24($sp)
  408360:	8fa60018 	lw	$a2,24($sp)
  408364:	00000000 	nop
  408368:	8cc50000 	lw	$a1,0($a2)
  40836c:	0c103119 	jal	40c464 <_usfree>
  408370:	00c02025 	move	$a0,$a2
  408374:	8fbf0014 	lw	$ra,20($sp)
  408378:	27bd0018 	addiu	$sp,$sp,24
  40837c:	03e00008 	jr	$ra
  408380:	00000000 	nop

00408384 <_swsetlock>:
  408384:	8f99aee4 	lw	$t9,-20764($gp)
  408388:	27bdffe8 	addiu	$sp,$sp,-24
  40838c:	afbf0014 	sw	$ra,20($sp)
  408390:	0320f809 	jalr	$t9
  408394:	afa5001c 	sw	$a1,28($sp)
  408398:	8fbf0014 	lw	$ra,20($sp)
  40839c:	27bd0018 	addiu	$sp,$sp,24
  4083a0:	03e00008 	jr	$ra
  4083a4:	00000000 	nop

004083a8 <_stestlock>:
  4083a8:	8c82000c 	lw	$v0,12($a0)
  4083ac:	24030001 	li	$v1,1
  4083b0:	304effff 	andi	$t6,$v0,0xffff
  4083b4:	00027c02 	srl	$t7,$v0,0x10
  4083b8:	15cf0003 	bne	$t6,$t7,4083c8 <_stestlock+0x20>
  4083bc:	00000000 	nop
  4083c0:	03e00008 	jr	$ra
  4083c4:	00001025 	move	$v0,$zero
  4083c8:	03e00008 	jr	$ra
  4083cc:	00601025 	move	$v0,$v1

004083d0 <_sctllock>:
  4083d0:	27bdffe0 	addiu	$sp,$sp,-32
  4083d4:	afa60028 	sw	$a2,40($sp)
  4083d8:	24010003 	li	$at,3
  4083dc:	afbf0014 	sw	$ra,20($sp)
  4083e0:	afa50024 	sw	$a1,36($sp)
  4083e4:	afa7002c 	sw	$a3,44($sp)
  4083e8:	10a1000a 	beq	$a1,$at,408414 <_sctllock+0x44>
  4083ec:	00003025 	move	$a2,$zero
  4083f0:	24010004 	li	$at,4
  4083f4:	10a10021 	beq	$a1,$at,40847c <_sctllock+0xac>
  4083f8:	24010007 	li	$at,7
  4083fc:	10a1002d 	beq	$a1,$at,4084b4 <_sctllock+0xe4>
  408400:	24010008 	li	$at,8
  408404:	10a1003b 	beq	$a1,$at,4084f4 <_sctllock+0x124>
  408408:	00000000 	nop
  40840c:	10000041 	b	408514 <_sctllock+0x144>
  408410:	00000000 	nop
  408414:	948f0012 	lhu	$t7,18($a0)
  408418:	27a3002b 	addiu	$v1,$sp,43
  40841c:	31f80001 	andi	$t8,$t7,0x1
  408420:	13000012 	beqz	$t8,40846c <_sctllock+0x9c>
  408424:	2401fffc 	li	$at,-4
  408428:	8c880014 	lw	$t0,20($a0)
  40842c:	0061c824 	and	$t9,$v1,$at
  408430:	27230004 	addiu	$v1,$t9,4
  408434:	8c62fffc 	lw	$v0,-4($v1)
  408438:	8d090000 	lw	$t1,0($t0)
  40843c:	00000000 	nop
  408440:	ac490000 	sw	$t1,0($v0)
  408444:	8c8a0014 	lw	$t2,20($a0)
  408448:	00000000 	nop
  40844c:	8d4b0004 	lw	$t3,4($t2)
  408450:	00000000 	nop
  408454:	ac4b0004 	sw	$t3,4($v0)
  408458:	8c8c0014 	lw	$t4,20($a0)
  40845c:	00000000 	nop
  408460:	8d8d0008 	lw	$t5,8($t4)
  408464:	1000002e 	b	408520 <_sctllock+0x150>
  408468:	ac4d0008 	sw	$t5,8($v0)
  40846c:	0c102025 	jal	408094 <_setoserror>
  408470:	24040016 	li	$a0,22
  408474:	1000002a 	b	408520 <_sctllock+0x150>
  408478:	2406ffff 	li	$a2,-1
  40847c:	948e0012 	lhu	$t6,18($a0)
  408480:	00000000 	nop
  408484:	31cf0001 	andi	$t7,$t6,0x1
  408488:	11e00026 	beqz	$t7,408524 <_sctllock+0x154>
  40848c:	8fbf0014 	lw	$ra,20($sp)
  408490:	8c980014 	lw	$t8,20($a0)
  408494:	00000000 	nop
  408498:	af000000 	sw	$zero,0($t8)
  40849c:	8c990014 	lw	$t9,20($a0)
  4084a0:	00000000 	nop
  4084a4:	af200004 	sw	$zero,4($t9)
  4084a8:	8c880014 	lw	$t0,20($a0)
  4084ac:	1000001c 	b	408520 <_sctllock+0x150>
  4084b0:	ad000008 	sw	$zero,8($t0)
  4084b4:	94890012 	lhu	$t1,18($a0)
  4084b8:	27a3002b 	addiu	$v1,$sp,43
  4084bc:	312a0002 	andi	$t2,$t1,0x2
  4084c0:	11400008 	beqz	$t2,4084e4 <_sctllock+0x114>
  4084c4:	2401fffc 	li	$at,-4
  4084c8:	8c8c0018 	lw	$t4,24($a0)
  4084cc:	00615824 	and	$t3,$v1,$at
  4084d0:	25630004 	addiu	$v1,$t3,4
  4084d4:	8c62fffc 	lw	$v0,-4($v1)
  4084d8:	8d8d0000 	lw	$t5,0($t4)
  4084dc:	10000010 	b	408520 <_sctllock+0x150>
  4084e0:	ac4d0000 	sw	$t5,0($v0)
  4084e4:	0c102025 	jal	408094 <_setoserror>
  4084e8:	24040016 	li	$a0,22
  4084ec:	1000000c 	b	408520 <_sctllock+0x150>
  4084f0:	2406ffff 	li	$a2,-1
  4084f4:	948e0012 	lhu	$t6,18($a0)
  4084f8:	2418ffff 	li	$t8,-1
  4084fc:	31cf0002 	andi	$t7,$t6,0x2
  408500:	11e00008 	beqz	$t7,408524 <_sctllock+0x154>
  408504:	8fbf0014 	lw	$ra,20($sp)
  408508:	8c990018 	lw	$t9,24($a0)
  40850c:	10000004 	b	408520 <_sctllock+0x150>
  408510:	af380000 	sw	$t8,0($t9)
  408514:	0c102025 	jal	408094 <_setoserror>
  408518:	24040016 	li	$a0,22
  40851c:	2406ffff 	li	$a2,-1
  408520:	8fbf0014 	lw	$ra,20($sp)
  408524:	27bd0020 	addiu	$sp,$sp,32
  408528:	03e00008 	jr	$ra
  40852c:	00c01025 	move	$v0,$a2

00408530 <_sdumplock>:
  408530:	27bdffd0 	addiu	$sp,$sp,-48
  408534:	afbf0024 	sw	$ra,36($sp)
  408538:	afb10020 	sw	$s1,32($sp)
  40853c:	afb0001c 	sw	$s0,28($sp)
  408540:	afa60038 	sw	$a2,56($sp)
  408544:	8c820000 	lw	$v0,0($a0)
  408548:	8f99aee4 	lw	$t9,-20764($gp)
  40854c:	00808025 	move	$s0,$a0
  408550:	8c440448 	lw	$a0,1096($v0)
  408554:	00a08825 	move	$s1,$a1
  408558:	0320f809 	jalr	$t9
  40855c:	afa20028 	sw	$v0,40($sp)
  408560:	8e0e0004 	lw	$t6,4($s0)
  408564:	3c050042 	lui	$a1,0x42
  408568:	8fa60038 	lw	$a2,56($sp)
  40856c:	24a5a150 	addiu	$a1,$a1,-24240
  408570:	02202025 	move	$a0,$s1
  408574:	02003825 	move	$a3,$s0
  408578:	0c103cb8 	jal	40f2e0 <fprintf>
  40857c:	afae0010 	sw	$t6,16($sp)
  408580:	8f99af00 	lw	$t9,-20736($gp)
  408584:	02002025 	move	$a0,$s0
  408588:	0320f809 	jalr	$t9
  40858c:	00000000 	nop
  408590:	10400007 	beqz	$v0,4085b0 <_sdumplock+0x80>
  408594:	02202025 	move	$a0,$s1
  408598:	3c050042 	lui	$a1,0x42
  40859c:	24a5a178 	addiu	$a1,$a1,-24200
  4085a0:	0c103cb8 	jal	40f2e0 <fprintf>
  4085a4:	02202025 	move	$a0,$s1
  4085a8:	10000005 	b	4085c0 <_sdumplock+0x90>
  4085ac:	96030012 	lhu	$v1,18($s0)
  4085b0:	3c050042 	lui	$a1,0x42
  4085b4:	0c103cb8 	jal	40f2e0 <fprintf>
  4085b8:	24a5a188 	addiu	$a1,$a1,-24184
  4085bc:	96030012 	lhu	$v1,18($s0)
  4085c0:	02202025 	move	$a0,$s1
  4085c4:	306f0001 	andi	$t7,$v1,0x1
  4085c8:	11e0000a 	beqz	$t7,4085f4 <_sdumplock+0xc4>
  4085cc:	3c050042 	lui	$a1,0x42
  4085d0:	8e020014 	lw	$v0,20($s0)
  4085d4:	24a5a198 	addiu	$a1,$a1,-24168
  4085d8:	8c580008 	lw	$t8,8($v0)
  4085dc:	8c460004 	lw	$a2,4($v0)
  4085e0:	8c470000 	lw	$a3,0($v0)
  4085e4:	0c103cb8 	jal	40f2e0 <fprintf>
  4085e8:	afb80010 	sw	$t8,16($sp)
  4085ec:	96030012 	lhu	$v1,18($s0)
  4085f0:	00000000 	nop
  4085f4:	30680002 	andi	$t0,$v1,0x2
  4085f8:	11000006 	beqz	$t0,408614 <_sdumplock+0xe4>
  4085fc:	02202025 	move	$a0,$s1
  408600:	8e090018 	lw	$t1,24($s0)
  408604:	3c050042 	lui	$a1,0x42
  408608:	8d260000 	lw	$a2,0($t1)
  40860c:	0c103cb8 	jal	40f2e0 <fprintf>
  408610:	24a5a1c4 	addiu	$a1,$a1,-24124
  408614:	8faa0028 	lw	$t2,40($sp)
  408618:	8f99aee8 	lw	$t9,-20760($gp)
  40861c:	8d440448 	lw	$a0,1096($t2)
  408620:	0320f809 	jalr	$t9
  408624:	00000000 	nop
  408628:	8fbf0024 	lw	$ra,36($sp)
  40862c:	8fb0001c 	lw	$s0,28($sp)
  408630:	8fb10020 	lw	$s1,32($sp)
  408634:	27bd0030 	addiu	$sp,$sp,48
  408638:	03e00008 	jr	$ra
  40863c:	00001025 	move	$v0,$zero

00408640 <_dssetlock>:
  408640:	27bdffa0 	addiu	$sp,$sp,-96
  408644:	afbf003c 	sw	$ra,60($sp)
  408648:	afb60038 	sw	$s6,56($sp)
  40864c:	afb50034 	sw	$s5,52($sp)
  408650:	afb40030 	sw	$s4,48($sp)
  408654:	afb3002c 	sw	$s3,44($sp)
  408658:	afb20028 	sw	$s2,40($sp)
  40865c:	afb10024 	sw	$s1,36($sp)
  408660:	afb00020 	sw	$s0,32($sp)
  408664:	948e0012 	lhu	$t6,18($a0)
  408668:	94940010 	lhu	$s4,16($a0)
  40866c:	8c950000 	lw	$s5,0($a0)
  408670:	afa00040 	sw	$zero,64($sp)
  408674:	a7ae004a 	sh	$t6,74($sp)
  408678:	3c0f0020 	lui	$t7,0x20
  40867c:	8df60e00 	lw	$s6,3584($t7)
  408680:	8c980004 	lw	$t8,4($a0)
  408684:	00a08025 	move	$s0,$a1
  408688:	16d8000b 	bne	$s6,$t8,4086b8 <_dssetlock+0x78>
  40868c:	00809025 	move	$s2,$a0
  408690:	8eb9044c 	lw	$t9,1100($s5)
  408694:	24010002 	li	$at,2
  408698:	17210007 	bne	$t9,$at,4086b8 <_dssetlock+0x78>
  40869c:	00002025 	move	$a0,$zero
  4086a0:	3c050042 	lui	$a1,0x42
  4086a4:	24a5a1e4 	addiu	$a1,$a1,-24092
  4086a8:	02403025 	move	$a2,$s2
  4086ac:	02c03825 	move	$a3,$s6
  4086b0:	0c1050fc 	jal	4143f0 <_uprint>
  4086b4:	afb00010 	sw	$s0,16($sp)
  4086b8:	2653000c 	addiu	$s3,$s2,12
  4086bc:	8e45000c 	lw	$a1,12($s2)
  4086c0:	8f99af0c 	lw	$t9,-20724($gp)
  4086c4:	00058c02 	srl	$s1,$a1,0x10
  4086c8:	16910004 	bne	$s4,$s1,4086dc <_dssetlock+0x9c>
  4086cc:	30b0ffff 	andi	$s0,$a1,0xffff
  4086d0:	30b0ffff 	andi	$s0,$a1,0xffff
  4086d4:	10000004 	b	4086e8 <_dssetlock+0xa8>
  4086d8:	02003025 	move	$a2,$s0
  4086dc:	26280001 	addiu	$t0,$s1,1
  4086e0:	00084c00 	sll	$t1,$t0,0x10
  4086e4:	01303025 	or	$a2,$t1,$s0
  4086e8:	02602025 	move	$a0,$s3
  4086ec:	0320f809 	jalr	$t9
  4086f0:	02a03825 	move	$a3,$s5
  4086f4:	1040fff1 	beqz	$v0,4086bc <_dssetlock+0x7c>
  4086f8:	00000000 	nop
  4086fc:	1611000a 	bne	$s0,$s1,408728 <_dssetlock+0xe8>
  408700:	00116880 	sll	$t5,$s1,0x2
  408704:	ae560004 	sw	$s6,4($s2)
  408708:	97aa004a 	lhu	$t2,74($sp)
  40870c:	00000000 	nop
  408710:	314b0002 	andi	$t3,$t2,0x2
  408714:	11600029 	beqz	$t3,4087bc <_dssetlock+0x17c>
  408718:	97aa004a 	lhu	$t2,74($sp)
  40871c:	8e4c0018 	lw	$t4,24($s2)
  408720:	10000025 	b	4087b8 <_dssetlock+0x178>
  408724:	ad960000 	sw	$s6,0($t4)
  408728:	00117080 	sll	$t6,$s1,0x2
  40872c:	024ea021 	addu	$s4,$s2,$t6
  408730:	2694001c 	addiu	$s4,$s4,28
  408734:	024d9821 	addu	$s3,$s2,$t5
  408738:	8e70001c 	lw	$s0,28($s3)
  40873c:	8f99af0c 	lw	$t9,-20724($gp)
  408740:	02802025 	move	$a0,$s4
  408744:	02c03025 	move	$a2,$s6
  408748:	02a03825 	move	$a3,$s5
  40874c:	0320f809 	jalr	$t9
  408750:	02002825 	move	$a1,$s0
  408754:	1040fff8 	beqz	$v0,408738 <_dssetlock+0xf8>
  408758:	00000000 	nop
  40875c:	24010001 	li	$at,1
  408760:	1601000a 	bne	$s0,$at,40878c <_dssetlock+0x14c>
  408764:	24090001 	li	$t1,1
  408768:	ae560004 	sw	$s6,4($s2)
  40876c:	97af004a 	lhu	$t7,74($sp)
  408770:	00000000 	nop
  408774:	31f80002 	andi	$t8,$t7,0x2
  408778:	13000010 	beqz	$t8,4087bc <_dssetlock+0x17c>
  40877c:	97aa004a 	lhu	$t2,74($sp)
  408780:	8e480018 	lw	$t0,24($s2)
  408784:	1000000c 	b	4087b8 <_dssetlock+0x178>
  408788:	ad160000 	sw	$s6,0($t0)
  40878c:	3c070042 	lui	$a3,0x42
  408790:	afa90040 	sw	$t1,64($sp)
  408794:	24e7a220 	addiu	$a3,$a3,-24032
  408798:	02a02025 	move	$a0,$s5
  40879c:	00002825 	move	$a1,$zero
  4087a0:	0c102aa2 	jal	40aa88 <_usblock>
  4087a4:	02c03025 	move	$a2,$s6
  4087a8:	04410004 	bgez	$v0,4087bc <_dssetlock+0x17c>
  4087ac:	97aa004a 	lhu	$t2,74($sp)
  4087b0:	1000001d 	b	408828 <_dssetlock+0x1e8>
  4087b4:	2402ffff 	li	$v0,-1
  4087b8:	97aa004a 	lhu	$t2,74($sp)
  4087bc:	00000000 	nop
  4087c0:	314b0001 	andi	$t3,$t2,0x1
  4087c4:	11600018 	beqz	$t3,408828 <_dssetlock+0x1e8>
  4087c8:	24020001 	li	$v0,1
  4087cc:	8e420014 	lw	$v0,20($s2)
  4087d0:	00000000 	nop
  4087d4:	8c4c0004 	lw	$t4,4($v0)
  4087d8:	00000000 	nop
  4087dc:	258d0001 	addiu	$t5,$t4,1
  4087e0:	ac4d0004 	sw	$t5,4($v0)
  4087e4:	8e420014 	lw	$v0,20($s2)
  4087e8:	00000000 	nop
  4087ec:	8c4e0008 	lw	$t6,8($v0)
  4087f0:	00000000 	nop
  4087f4:	25d90001 	addiu	$t9,$t6,1
  4087f8:	ac590008 	sw	$t9,8($v0)
  4087fc:	8faf0040 	lw	$t7,64($sp)
  408800:	00000000 	nop
  408804:	11e00008 	beqz	$t7,408828 <_dssetlock+0x1e8>
  408808:	24020001 	li	$v0,1
  40880c:	8e420014 	lw	$v0,20($s2)
  408810:	00000000 	nop
  408814:	8c580000 	lw	$t8,0($v0)
  408818:	00000000 	nop
  40881c:	27080001 	addiu	$t0,$t8,1
  408820:	ac480000 	sw	$t0,0($v0)
  408824:	24020001 	li	$v0,1
  408828:	8fbf003c 	lw	$ra,60($sp)
  40882c:	8fb00020 	lw	$s0,32($sp)
  408830:	8fb10024 	lw	$s1,36($sp)
  408834:	8fb20028 	lw	$s2,40($sp)
  408838:	8fb3002c 	lw	$s3,44($sp)
  40883c:	8fb40030 	lw	$s4,48($sp)
  408840:	8fb50034 	lw	$s5,52($sp)
  408844:	8fb60038 	lw	$s6,56($sp)
  408848:	03e00008 	jr	$ra
  40884c:	27bd0060 	addiu	$sp,$sp,96

00408850 <_dsunsetlock>:
  408850:	27bdffb8 	addiu	$sp,$sp,-72
  408854:	afbf0044 	sw	$ra,68($sp)
  408858:	afbe0040 	sw	$s8,64($sp)
  40885c:	afb7003c 	sw	$s7,60($sp)
  408860:	afb60038 	sw	$s6,56($sp)
  408864:	afb50034 	sw	$s5,52($sp)
  408868:	afb40030 	sw	$s4,48($sp)
  40886c:	afb3002c 	sw	$s3,44($sp)
  408870:	afb20028 	sw	$s2,40($sp)
  408874:	afb10024 	sw	$s1,36($sp)
  408878:	afb00020 	sw	$s0,32($sp)
  40887c:	3c0e0020 	lui	$t6,0x20
  408880:	8dc70e00 	lw	$a3,3584($t6)
  408884:	8c820004 	lw	$v0,4($a0)
  408888:	94970010 	lhu	$s7,16($a0)
  40888c:	8c950000 	lw	$s5,0($a0)
  408890:	94900012 	lhu	$s0,18($a0)
  408894:	00808825 	move	$s1,$a0
  408898:	10e20017 	beq	$a3,$v0,4088f8 <_dsunsetlock+0xa8>
  40889c:	00a09025 	move	$s2,$a1
  4088a0:	1440000c 	bnez	$v0,4088d4 <_dsunsetlock+0x84>
  4088a4:	00000000 	nop
  4088a8:	8eaf044c 	lw	$t7,1100($s5)
  4088ac:	24010002 	li	$at,2
  4088b0:	15e10006 	bne	$t7,$at,4088cc <_dsunsetlock+0x7c>
  4088b4:	00002025 	move	$a0,$zero
  4088b8:	3c050042 	lui	$a1,0x42
  4088bc:	24a5a22c 	addiu	$a1,$a1,-24020
  4088c0:	02203025 	move	$a2,$s1
  4088c4:	0c1050fc 	jal	4143f0 <_uprint>
  4088c8:	afb20010 	sw	$s2,16($sp)
  4088cc:	1000004c 	b	408a00 <_dsunsetlock+0x1b0>
  4088d0:	00001025 	move	$v0,$zero
  4088d4:	8eb8044c 	lw	$t8,1100($s5)
  4088d8:	24010002 	li	$at,2
  4088dc:	17010006 	bne	$t8,$at,4088f8 <_dsunsetlock+0xa8>
  4088e0:	00002025 	move	$a0,$zero
  4088e4:	3c050042 	lui	$a1,0x42
  4088e8:	24a5a274 	addiu	$a1,$a1,-23948
  4088ec:	02203025 	move	$a2,$s1
  4088f0:	0c1050fc 	jal	4143f0 <_uprint>
  4088f4:	afb20010 	sw	$s2,16($sp)
  4088f8:	321e0002 	andi	$s8,$s0,0x2
  4088fc:	13c00004 	beqz	$s8,408910 <_dsunsetlock+0xc0>
  408900:	2636000c 	addiu	$s6,$s1,12
  408904:	8e280018 	lw	$t0,24($s1)
  408908:	2419ffff 	li	$t9,-1
  40890c:	ad190000 	sw	$t9,0($t0)
  408910:	ae200004 	sw	$zero,4($s1)
  408914:	3c14ffff 	lui	$s4,0xffff
  408918:	8e29000c 	lw	$t1,12($s1)
  40891c:	00000000 	nop
  408920:	312affff 	andi	$t2,$t1,0xffff
  408924:	000a5880 	sll	$t3,$t2,0x2
  408928:	022b6021 	addu	$t4,$s1,$t3
  40892c:	ad80001c 	sw	$zero,28($t4)
  408930:	8e25000c 	lw	$a1,12($s1)
  408934:	8f99af0c 	lw	$t9,-20724($gp)
  408938:	30a2ffff 	andi	$v0,$a1,0xffff
  40893c:	16e20003 	bne	$s7,$v0,40894c <_dsunsetlock+0xfc>
  408940:	02c02025 	move	$a0,$s6
  408944:	10000004 	b	408958 <_dsunsetlock+0x108>
  408948:	00b48024 	and	$s0,$a1,$s4
  40894c:	244d0001 	addiu	$t5,$v0,1
  408950:	00b47024 	and	$t6,$a1,$s4
  408954:	01ae8025 	or	$s0,$t5,$t6
  408958:	02003025 	move	$a2,$s0
  40895c:	0320f809 	jalr	$t9
  408960:	02a03825 	move	$a3,$s5
  408964:	1040fff2 	beqz	$v0,408930 <_dsunsetlock+0xe0>
  408968:	00000000 	nop
  40896c:	3202ffff 	andi	$v0,$s0,0xffff
  408970:	00107c02 	srl	$t7,$s0,0x10
  408974:	104f0021 	beq	$v0,$t7,4089fc <_dsunsetlock+0x1ac>
  408978:	0002c080 	sll	$t8,$v0,0x2
  40897c:	00024080 	sll	$t0,$v0,0x2
  408980:	02289821 	addu	$s3,$s1,$t0
  408984:	2673001c 	addiu	$s3,$s3,28
  408988:	02389021 	addu	$s2,$s1,$t8
  40898c:	8e50001c 	lw	$s0,28($s2)
  408990:	8f99af0c 	lw	$t9,-20724($gp)
  408994:	02602025 	move	$a0,$s3
  408998:	24060001 	li	$a2,1
  40899c:	02a03825 	move	$a3,$s5
  4089a0:	0320f809 	jalr	$t9
  4089a4:	02002825 	move	$a1,$s0
  4089a8:	1040fff8 	beqz	$v0,40898c <_dsunsetlock+0x13c>
  4089ac:	00000000 	nop
  4089b0:	2e010002 	sltiu	$at,$s0,2
  4089b4:	14200011 	bnez	$at,4089fc <_dsunsetlock+0x1ac>
  4089b8:	02a02025 	move	$a0,$s5
  4089bc:	13c00004 	beqz	$s8,4089d0 <_dsunsetlock+0x180>
  4089c0:	00002825 	move	$a1,$zero
  4089c4:	8e290018 	lw	$t1,24($s1)
  4089c8:	00000000 	nop
  4089cc:	ad300000 	sw	$s0,0($t1)
  4089d0:	3c070042 	lui	$a3,0x42
  4089d4:	ae300004 	sw	$s0,4($s1)
  4089d8:	24e7a2c8 	addiu	$a3,$a3,-23864
  4089dc:	0c102af6 	jal	40abd8 <_usunblock>
  4089e0:	02003025 	move	$a2,$s0
  4089e4:	04410003 	bgez	$v0,4089f4 <_dsunsetlock+0x1a4>
  4089e8:	24010001 	li	$at,1
  4089ec:	10000004 	b	408a00 <_dsunsetlock+0x1b0>
  4089f0:	2402ffff 	li	$v0,-1
  4089f4:	1041ffc8 	beq	$v0,$at,408918 <_dsunsetlock+0xc8>
  4089f8:	00000000 	nop
  4089fc:	00001025 	move	$v0,$zero
  408a00:	8fbf0044 	lw	$ra,68($sp)
  408a04:	8fb00020 	lw	$s0,32($sp)
  408a08:	8fb10024 	lw	$s1,36($sp)
  408a0c:	8fb20028 	lw	$s2,40($sp)
  408a10:	8fb3002c 	lw	$s3,44($sp)
  408a14:	8fb40030 	lw	$s4,48($sp)
  408a18:	8fb50034 	lw	$s5,52($sp)
  408a1c:	8fb60038 	lw	$s6,56($sp)
  408a20:	8fb7003c 	lw	$s7,60($sp)
  408a24:	8fbe0040 	lw	$s8,64($sp)
  408a28:	03e00008 	jr	$ra
  408a2c:	27bd0048 	addiu	$sp,$sp,72

00408a30 <_dscsetlock>:
  408a30:	27bdffd8 	addiu	$sp,$sp,-40
  408a34:	afb00014 	sw	$s0,20($sp)
  408a38:	00a08025 	move	$s0,$a1
  408a3c:	afb30020 	sw	$s3,32($sp)
  408a40:	afb10018 	sw	$s1,24($sp)
  408a44:	00808825 	move	$s1,$a0
  408a48:	afbf0024 	sw	$ra,36($sp)
  408a4c:	afb2001c 	sw	$s2,28($sp)
  408a50:	00009825 	move	$s3,$zero
  408a54:	00001825 	move	$v1,$zero
  408a58:	00a01025 	move	$v0,$a1
  408a5c:	1200000a 	beqz	$s0,408a88 <_dscsetlock+0x58>
  408a60:	2610ffff 	addiu	$s0,$s0,-1
  408a64:	24120001 	li	$s2,1
  408a68:	0c1022c4 	jal	408b10 <_dscsetlock+0xe0>
  408a6c:	02202025 	move	$a0,$s1
  408a70:	10520005 	beq	$v0,$s2,408a88 <_dscsetlock+0x58>
  408a74:	00401825 	move	$v1,$v0
  408a78:	02001025 	move	$v0,$s0
  408a7c:	02409825 	move	$s3,$s2
  408a80:	1600fff9 	bnez	$s0,408a68 <_dscsetlock+0x38>
  408a84:	2610ffff 	addiu	$s0,$s0,-1
  408a88:	962e0012 	lhu	$t6,18($s1)
  408a8c:	24120001 	li	$s2,1
  408a90:	31cf0001 	andi	$t7,$t6,0x1
  408a94:	11e00017 	beqz	$t7,408af4 <_dscsetlock+0xc4>
  408a98:	8fbf0024 	lw	$ra,36($sp)
  408a9c:	8e220014 	lw	$v0,20($s1)
  408aa0:	00000000 	nop
  408aa4:	8c580004 	lw	$t8,4($v0)
  408aa8:	00000000 	nop
  408aac:	27190001 	addiu	$t9,$t8,1
  408ab0:	14720007 	bne	$v1,$s2,408ad0 <_dscsetlock+0xa0>
  408ab4:	ac590004 	sw	$t9,4($v0)
  408ab8:	8e220014 	lw	$v0,20($s1)
  408abc:	00000000 	nop
  408ac0:	8c480008 	lw	$t0,8($v0)
  408ac4:	00000000 	nop
  408ac8:	25090001 	addiu	$t1,$t0,1
  408acc:	ac490008 	sw	$t1,8($v0)
  408ad0:	12600008 	beqz	$s3,408af4 <_dscsetlock+0xc4>
  408ad4:	8fbf0024 	lw	$ra,36($sp)
  408ad8:	8e220014 	lw	$v0,20($s1)
  408adc:	00000000 	nop
  408ae0:	8c4a0000 	lw	$t2,0($v0)
  408ae4:	00000000 	nop
  408ae8:	254b0001 	addiu	$t3,$t2,1
  408aec:	ac4b0000 	sw	$t3,0($v0)
  408af0:	8fbf0024 	lw	$ra,36($sp)
  408af4:	8fb00014 	lw	$s0,20($sp)
  408af8:	8fb10018 	lw	$s1,24($sp)
  408afc:	8fb2001c 	lw	$s2,28($sp)
  408b00:	8fb30020 	lw	$s3,32($sp)
  408b04:	27bd0028 	addiu	$sp,$sp,40
  408b08:	03e00008 	jr	$ra
  408b0c:	00601025 	move	$v0,$v1
  408b10:	27bdffb8 	addiu	$sp,$sp,-72
  408b14:	afbf002c 	sw	$ra,44($sp)
  408b18:	afb40028 	sw	$s4,40($sp)
  408b1c:	afb30024 	sw	$s3,36($sp)
  408b20:	afb20020 	sw	$s2,32($sp)
  408b24:	afb1001c 	sw	$s1,28($sp)
  408b28:	afb00018 	sw	$s0,24($sp)
  408b2c:	948e0012 	lhu	$t6,18($a0)
  408b30:	94930010 	lhu	$s3,16($a0)
  408b34:	8c940000 	lw	$s4,0($a0)
  408b38:	3c0f0020 	lui	$t7,0x20
  408b3c:	a7ae0036 	sh	$t6,54($sp)
  408b40:	8df80e00 	lw	$t8,3584($t7)
  408b44:	00809025 	move	$s2,$a0
  408b48:	afb80030 	sw	$t8,48($sp)
  408b4c:	8e45000c 	lw	$a1,12($s2)
  408b50:	00000000 	nop
  408b54:	30b0ffff 	andi	$s0,$a1,0xffff
  408b58:	00058c02 	srl	$s1,$a1,0x10
  408b5c:	12110003 	beq	$s0,$s1,408b6c <_dscsetlock+0x13c>
  408b60:	26390001 	addiu	$t9,$s1,1
  408b64:	10000021 	b	408bec <_dscsetlock+0x1bc>
  408b68:	00001025 	move	$v0,$zero
  408b6c:	16710003 	bne	$s3,$s1,408b7c <_dscsetlock+0x14c>
  408b70:	2644000c 	addiu	$a0,$s2,12
  408b74:	10000003 	b	408b84 <_dscsetlock+0x154>
  408b78:	02003025 	move	$a2,$s0
  408b7c:	00194400 	sll	$t0,$t9,0x10
  408b80:	01103025 	or	$a2,$t0,$s0
  408b84:	8f99af0c 	lw	$t9,-20724($gp)
  408b88:	02803825 	move	$a3,$s4
  408b8c:	0320f809 	jalr	$t9
  408b90:	00000000 	nop
  408b94:	1040ffed 	beqz	$v0,408b4c <_dscsetlock+0x11c>
  408b98:	00000000 	nop
  408b9c:	1611000c 	bne	$s0,$s1,408bd0 <_dscsetlock+0x1a0>
  408ba0:	3c040042 	lui	$a0,0x42
  408ba4:	8fa90030 	lw	$t1,48($sp)
  408ba8:	00000000 	nop
  408bac:	ae490004 	sw	$t1,4($s2)
  408bb0:	97aa0036 	lhu	$t2,54($sp)
  408bb4:	8fac0030 	lw	$t4,48($sp)
  408bb8:	314b0002 	andi	$t3,$t2,0x2
  408bbc:	1160000b 	beqz	$t3,408bec <_dscsetlock+0x1bc>
  408bc0:	24020001 	li	$v0,1
  408bc4:	8e4d0018 	lw	$t5,24($s2)
  408bc8:	10000007 	b	408be8 <_dscsetlock+0x1b8>
  408bcc:	adac0000 	sw	$t4,0($t5)
  408bd0:	3c050042 	lui	$a1,0x42
  408bd4:	24a5a2d4 	addiu	$a1,$a1,-23852
  408bd8:	0c103cb8 	jal	40f2e0 <fprintf>
  408bdc:	2484ddc4 	addiu	$a0,$a0,-8764
  408be0:	0c104194 	jal	410650 <abort>
  408be4:	00000000 	nop
  408be8:	24020001 	li	$v0,1
  408bec:	8fbf002c 	lw	$ra,44($sp)
  408bf0:	8fb00018 	lw	$s0,24($sp)
  408bf4:	8fb1001c 	lw	$s1,28($sp)
  408bf8:	8fb20020 	lw	$s2,32($sp)
  408bfc:	8fb30024 	lw	$s3,36($sp)
  408c00:	8fb40028 	lw	$s4,40($sp)
  408c04:	03e00008 	jr	$ra
  408c08:	27bd0048 	addiu	$sp,$sp,72

00408c0c <_ussoftlocks_init>:
  408c0c:	3c0e0041 	lui	$t6,0x41
  408c10:	3c0f0041 	lui	$t7,0x41
  408c14:	3c180041 	lui	$t8,0x41
  408c18:	3c190041 	lui	$t9,0x41
  408c1c:	3c080041 	lui	$t0,0x41
  408c20:	3c090041 	lui	$t1,0x41
  408c24:	3c0a0041 	lui	$t2,0x41
  408c28:	3c0b0041 	lui	$t3,0x41
  408c2c:	3c0c0041 	lui	$t4,0x41
  408c30:	3c0d0041 	lui	$t5,0x41
  408c34:	3c020041 	lui	$v0,0x41
  408c38:	25ce83a8 	addiu	$t6,$t6,-31832
  408c3c:	25ef83d0 	addiu	$t7,$t7,-31792
  408c40:	27188530 	addiu	$t8,$t8,-31440
  408c44:	273981dc 	addiu	$t9,$t9,-32292
  408c48:	25088140 	addiu	$t0,$t0,-32448
  408c4c:	25298300 	addiu	$t1,$t1,-32000
  408c50:	254a20d0 	addiu	$t2,$t2,8400
  408c54:	256b21fc 	addiu	$t3,$t3,8700
  408c58:	258c2188 	addiu	$t4,$t4,8584
  408c5c:	25ad8100 	addiu	$t5,$t5,-32512
  408c60:	244222e0 	addiu	$v0,$v0,8928
  408c64:	afa40000 	sw	$a0,0($sp)
  408c68:	afa50004 	sw	$a1,4($sp)
  408c6c:	af8eaf00 	sw	$t6,-20736($gp)
  408c70:	af8faf04 	sw	$t7,-20732($gp)
  408c74:	af98af08 	sw	$t8,-20728($gp)
  408c78:	af99aeec 	sw	$t9,-20756($gp)
  408c7c:	af88aef0 	sw	$t0,-20752($gp)
  408c80:	af89aef4 	sw	$t1,-20748($gp)
  408c84:	af8aaee4 	sw	$t2,-20764($gp)
  408c88:	af8baee8 	sw	$t3,-20760($gp)
  408c8c:	af8caefc 	sw	$t4,-20740($gp)
  408c90:	af8daef8 	sw	$t5,-20744($gp)
  408c94:	af82af0c 	sw	$v0,-20724($gp)
  408c98:	03e00008 	jr	$ra
  408c9c:	af82af10 	sw	$v0,-20720($gp)

00408ca0 <_Psema>:
  408ca0:	27bdffc0 	addiu	$sp,$sp,-64
  408ca4:	afbf0024 	sw	$ra,36($sp)
  408ca8:	afb00020 	sw	$s0,32($sp)
  408cac:	afa50044 	sw	$a1,68($sp)
  408cb0:	94830016 	lhu	$v1,22($a0)
  408cb4:	8f99aee4 	lw	$t9,-20764($gp)
  408cb8:	00808025 	move	$s0,$a0
  408cbc:	8c840024 	lw	$a0,36($a0)
  408cc0:	0320f809 	jalr	$t9
  408cc4:	a7a3003e 	sh	$v1,62($sp)
  408cc8:	860e000c 	lh	$t6,12($s0)
  408ccc:	97a3003e 	lhu	$v1,62($sp)
  408cd0:	25cfffff 	addiu	$t7,$t6,-1
  408cd4:	a60f000c 	sh	$t7,12($s0)
  408cd8:	8604000c 	lh	$a0,12($s0)
  408cdc:	3c0e0020 	lui	$t6,0x20
  408ce0:	048100c0 	bgez	$a0,408fe4 <_Psema+0x344>
  408ce4:	24090001 	li	$t1,1
  408ce8:	8e180000 	lw	$t8,0($s0)
  408cec:	96050014 	lhu	$a1,20($s0)
  408cf0:	30690010 	andi	$t1,$v1,0x10
  408cf4:	00604025 	move	$t0,$v1
  408cf8:	1120002b 	beqz	$t1,408da8 <_Psema+0x108>
  408cfc:	afb80034 	sw	$t8,52($sp)
  408d00:	3c0a0020 	lui	$t2,0x20
  408d04:	8d4b0e00 	lw	$t3,3584($t2)
  408d08:	8e0c0004 	lw	$t4,4($s0)
  408d0c:	248d0001 	addiu	$t5,$a0,1
  408d10:	156c0025 	bne	$t3,$t4,408da8 <_Psema+0x108>
  408d14:	306f0002 	andi	$t7,$v1,0x2
  408d18:	8619000e 	lh	$t9,14($s0)
  408d1c:	a60d000c 	sh	$t5,12($s0)
  408d20:	272e0001 	addiu	$t6,$t9,1
  408d24:	11e0001a 	beqz	$t7,408d90 <_Psema+0xf0>
  408d28:	a60e000e 	sh	$t6,14($s0)
  408d2c:	8fb80034 	lw	$t8,52($sp)
  408d30:	8f99aee4 	lw	$t9,-20764($gp)
  408d34:	8f040440 	lw	$a0,1088($t8)
  408d38:	0320f809 	jalr	$t9
  408d3c:	00000000 	nop
  408d40:	3c030020 	lui	$v1,0x20
  408d44:	8c690e00 	lw	$t1,3584($v1)
  408d48:	8e0a0020 	lw	$t2,32($s0)
  408d4c:	8fa50044 	lw	$a1,68($sp)
  408d50:	ad490000 	sw	$t1,0($t2)
  408d54:	8e0b0020 	lw	$t3,32($s0)
  408d58:	00000000 	nop
  408d5c:	ad650004 	sw	$a1,4($t3)
  408d60:	8e0d0020 	lw	$t5,32($s0)
  408d64:	8c6c0e00 	lw	$t4,3584($v1)
  408d68:	00000000 	nop
  408d6c:	adac0008 	sw	$t4,8($t5)
  408d70:	8e0e0020 	lw	$t6,32($s0)
  408d74:	00000000 	nop
  408d78:	adc5000c 	sw	$a1,12($t6)
  408d7c:	8faf0034 	lw	$t7,52($sp)
  408d80:	8f99aee8 	lw	$t9,-20760($gp)
  408d84:	8de40440 	lw	$a0,1088($t7)
  408d88:	0320f809 	jalr	$t9
  408d8c:	00000000 	nop
  408d90:	8f99aee8 	lw	$t9,-20760($gp)
  408d94:	8e040024 	lw	$a0,36($s0)
  408d98:	0320f809 	jalr	$t9
  408d9c:	00000000 	nop
  408da0:	100000da 	b	40910c <_Psema+0x46c>
  408da4:	24020001 	li	$v0,1
  408da8:	96030010 	lhu	$v1,16($s0)
  408dac:	3c0d0020 	lui	$t5,0x20
  408db0:	24780001 	addiu	$t8,$v1,1
  408db4:	14a30002 	bne	$a1,$v1,408dc0 <_Psema+0x120>
  408db8:	a6180010 	sh	$t8,16($s0)
  408dbc:	a6000010 	sh	$zero,16($s0)
  408dc0:	96090012 	lhu	$t1,18($s0)
  408dc4:	960a0010 	lhu	$t2,16($s0)
  408dc8:	00037880 	sll	$t7,$v1,0x2
  408dcc:	152a0012 	bne	$t1,$t2,408e18 <_Psema+0x178>
  408dd0:	020fc021 	addu	$t8,$s0,$t7
  408dd4:	8f99aee8 	lw	$t9,-20760($gp)
  408dd8:	8e040024 	lw	$a0,36($s0)
  408ddc:	0320f809 	jalr	$t9
  408de0:	00000000 	nop
  408de4:	8f8b8ab0 	lw	$t3,-30032($gp)
  408de8:	00002025 	move	$a0,$zero
  408dec:	11600006 	beqz	$t3,408e08 <_Psema+0x168>
  408df0:	3c050042 	lui	$a1,0x42
  408df4:	3c0c0020 	lui	$t4,0x20
  408df8:	8d870e00 	lw	$a3,3584($t4)
  408dfc:	24a5a300 	addiu	$a1,$a1,-23808
  408e00:	0c1050fc 	jal	4143f0 <_uprint>
  408e04:	02003025 	move	$a2,$s0
  408e08:	0c102025 	jal	408094 <_setoserror>
  408e0c:	24040022 	li	$a0,34
  408e10:	100000be 	b	40910c <_Psema+0x46c>
  408e14:	2402ffff 	li	$v0,-1
  408e18:	8dae0e00 	lw	$t6,3584($t5)
  408e1c:	31090007 	andi	$t1,$t0,0x7
  408e20:	af0e0028 	sw	$t6,40($t8)
  408e24:	11200046 	beqz	$t1,408f40 <_Psema+0x2a0>
  408e28:	afa9002c 	sw	$t1,44($sp)
  408e2c:	8fb90034 	lw	$t9,52($sp)
  408e30:	00000000 	nop
  408e34:	8f240440 	lw	$a0,1088($t9)
  408e38:	8f99aee4 	lw	$t9,-20764($gp)
  408e3c:	afa80028 	sw	$t0,40($sp)
  408e40:	0320f809 	jalr	$t9
  408e44:	00000000 	nop
  408e48:	8fa80028 	lw	$t0,40($sp)
  408e4c:	3c0a0020 	lui	$t2,0x20
  408e50:	310b0001 	andi	$t3,$t0,0x1
  408e54:	11600016 	beqz	$t3,408eb0 <_Psema+0x210>
  408e58:	31090002 	andi	$t1,$t0,0x2
  408e5c:	8e02001c 	lw	$v0,28($s0)
  408e60:	00000000 	nop
  408e64:	8c4c0004 	lw	$t4,4($v0)
  408e68:	00000000 	nop
  408e6c:	258d0001 	addiu	$t5,$t4,1
  408e70:	ac4d0004 	sw	$t5,4($v0)
  408e74:	8e02001c 	lw	$v0,28($s0)
  408e78:	00000000 	nop
  408e7c:	8c4f0010 	lw	$t7,16($v0)
  408e80:	00000000 	nop
  408e84:	25ee0001 	addiu	$t6,$t7,1
  408e88:	ac4e0010 	sw	$t6,16($v0)
  408e8c:	8e02001c 	lw	$v0,28($s0)
  408e90:	00000000 	nop
  408e94:	8c430010 	lw	$v1,16($v0)
  408e98:	8c580014 	lw	$t8,20($v0)
  408e9c:	00000000 	nop
  408ea0:	0303082a 	slt	$at,$t8,$v1
  408ea4:	10200002 	beqz	$at,408eb0 <_Psema+0x210>
  408ea8:	00000000 	nop
  408eac:	ac430014 	sw	$v1,20($v0)
  408eb0:	1120000a 	beqz	$t1,408edc <_Psema+0x23c>
  408eb4:	8faf0034 	lw	$t7,52($sp)
  408eb8:	8d590e00 	lw	$t9,3584($t2)
  408ebc:	8e0b0020 	lw	$t3,32($s0)
  408ec0:	00000000 	nop
  408ec4:	ad790008 	sw	$t9,8($t3)
  408ec8:	8e0d0020 	lw	$t5,32($s0)
  408ecc:	8fac0044 	lw	$t4,68($sp)
  408ed0:	00000000 	nop
  408ed4:	adac000c 	sw	$t4,12($t5)
  408ed8:	8faf0034 	lw	$t7,52($sp)
  408edc:	8f99aee8 	lw	$t9,-20760($gp)
  408ee0:	8de40440 	lw	$a0,1088($t7)
  408ee4:	0320f809 	jalr	$t9
  408ee8:	afa80028 	sw	$t0,40($sp)
  408eec:	8fae0034 	lw	$t6,52($sp)
  408ef0:	8fa80028 	lw	$t0,40($sp)
  408ef4:	8dd80428 	lw	$t8,1064($t6)
  408ef8:	310a0004 	andi	$t2,$t0,0x4
  408efc:	33090004 	andi	$t1,$t8,0x4
  408f00:	1120000f 	beqz	$t1,408f40 <_Psema+0x2a0>
  408f04:	00000000 	nop
  408f08:	1140000d 	beqz	$t2,408f40 <_Psema+0x2a0>
  408f0c:	02002025 	move	$a0,$s0
  408f10:	8fac0044 	lw	$t4,68($sp)
  408f14:	3c0b0020 	lui	$t3,0x20
  408f18:	8d660e00 	lw	$a2,3584($t3)
  408f1c:	afac0010 	sw	$t4,16($sp)
  408f20:	860d000c 	lh	$t5,12($s0)
  408f24:	afa80028 	sw	$t0,40($sp)
  408f28:	24050002 	li	$a1,2
  408f2c:	00003825 	move	$a3,$zero
  408f30:	0c1027b7 	jal	409edc <_usdumpsema+0x174>
  408f34:	afad0014 	sw	$t5,20($sp)
  408f38:	8fa80028 	lw	$t0,40($sp)
  408f3c:	00000000 	nop
  408f40:	8f99aee8 	lw	$t9,-20760($gp)
  408f44:	8e040024 	lw	$a0,36($s0)
  408f48:	0320f809 	jalr	$t9
  408f4c:	afa80028 	sw	$t0,40($sp)
  408f50:	3c0f0020 	lui	$t7,0x20
  408f54:	8de60e00 	lw	$a2,3584($t7)
  408f58:	8fa40034 	lw	$a0,52($sp)
  408f5c:	02002825 	move	$a1,$s0
  408f60:	0c102aa2 	jal	40aa88 <_usblock>
  408f64:	27878850 	addiu	$a3,$gp,-30640
  408f68:	8fa80028 	lw	$t0,40($sp)
  408f6c:	04410003 	bgez	$v0,408f7c <_Psema+0x2dc>
  408f70:	310e0008 	andi	$t6,$t0,0x8
  408f74:	10000065 	b	40910c <_Psema+0x46c>
  408f78:	2402ffff 	li	$v0,-1
  408f7c:	11c00004 	beqz	$t6,408f90 <_Psema+0x2f0>
  408f80:	8fb8002c 	lw	$t8,44($sp)
  408f84:	10000061 	b	40910c <_Psema+0x46c>
  408f88:	00001025 	move	$v0,$zero
  408f8c:	8fb8002c 	lw	$t8,44($sp)
  408f90:	8fa90034 	lw	$t1,52($sp)
  408f94:	13000011 	beqz	$t8,408fdc <_Psema+0x33c>
  408f98:	00000000 	nop
  408f9c:	8d2a0428 	lw	$t2,1064($t1)
  408fa0:	310c0004 	andi	$t4,$t0,0x4
  408fa4:	314b0004 	andi	$t3,$t2,0x4
  408fa8:	1160000c 	beqz	$t3,408fdc <_Psema+0x33c>
  408fac:	00000000 	nop
  408fb0:	1180000a 	beqz	$t4,408fdc <_Psema+0x33c>
  408fb4:	02002025 	move	$a0,$s0
  408fb8:	8fb90044 	lw	$t9,68($sp)
  408fbc:	3c0d0020 	lui	$t5,0x20
  408fc0:	8da60e00 	lw	$a2,3584($t5)
  408fc4:	afb90010 	sw	$t9,16($sp)
  408fc8:	860f000c 	lh	$t7,12($s0)
  408fcc:	24050003 	li	$a1,3
  408fd0:	00003825 	move	$a3,$zero
  408fd4:	0c1027b7 	jal	409edc <_usdumpsema+0x174>
  408fd8:	afaf0014 	sw	$t7,20($sp)
  408fdc:	1000004b 	b	40910c <_Psema+0x46c>
  408fe0:	24020001 	li	$v0,1
  408fe4:	8dd80e00 	lw	$t8,3584($t6)
  408fe8:	306a0007 	andi	$t2,$v1,0x7
  408fec:	a609000e 	sh	$t1,14($s0)
  408ff0:	11400041 	beqz	$t2,4090f8 <_Psema+0x458>
  408ff4:	ae180004 	sw	$t8,4($s0)
  408ff8:	8e020000 	lw	$v0,0($s0)
  408ffc:	8f99aee4 	lw	$t9,-20764($gp)
  409000:	8c440440 	lw	$a0,1088($v0)
  409004:	afa30028 	sw	$v1,40($sp)
  409008:	0320f809 	jalr	$t9
  40900c:	afa20030 	sw	$v0,48($sp)
  409010:	8fa80028 	lw	$t0,40($sp)
  409014:	3c090020 	lui	$t1,0x20
  409018:	310b0001 	andi	$t3,$t0,0x1
  40901c:	1160000d 	beqz	$t3,409054 <_Psema+0x3b4>
  409020:	31180002 	andi	$t8,$t0,0x2
  409024:	8e02001c 	lw	$v0,28($s0)
  409028:	00000000 	nop
  40902c:	8c4c0004 	lw	$t4,4($v0)
  409030:	00000000 	nop
  409034:	258d0001 	addiu	$t5,$t4,1
  409038:	ac4d0004 	sw	$t5,4($v0)
  40903c:	8e02001c 	lw	$v0,28($s0)
  409040:	00000000 	nop
  409044:	8c4f0000 	lw	$t7,0($v0)
  409048:	00000000 	nop
  40904c:	25ee0001 	addiu	$t6,$t7,1
  409050:	ac4e0000 	sw	$t6,0($v0)
  409054:	13000012 	beqz	$t8,4090a0 <_Psema+0x400>
  409058:	8faa0030 	lw	$t2,48($sp)
  40905c:	8d2a0e00 	lw	$t2,3584($t1)
  409060:	8e190020 	lw	$t9,32($s0)
  409064:	3c0d0020 	lui	$t5,0x20
  409068:	af2a0000 	sw	$t2,0($t9)
  40906c:	8e0c0020 	lw	$t4,32($s0)
  409070:	8fab0044 	lw	$t3,68($sp)
  409074:	00000000 	nop
  409078:	ad8b0004 	sw	$t3,4($t4)
  40907c:	8e0e0020 	lw	$t6,32($s0)
  409080:	8daf0e00 	lw	$t7,3584($t5)
  409084:	00000000 	nop
  409088:	adcf0008 	sw	$t7,8($t6)
  40908c:	8e090020 	lw	$t1,32($s0)
  409090:	8fb80044 	lw	$t8,68($sp)
  409094:	00000000 	nop
  409098:	ad38000c 	sw	$t8,12($t1)
  40909c:	8faa0030 	lw	$t2,48($sp)
  4090a0:	8f99aee8 	lw	$t9,-20760($gp)
  4090a4:	8d440440 	lw	$a0,1088($t2)
  4090a8:	0320f809 	jalr	$t9
  4090ac:	afa80028 	sw	$t0,40($sp)
  4090b0:	8fab0030 	lw	$t3,48($sp)
  4090b4:	8fa80028 	lw	$t0,40($sp)
  4090b8:	8d6c0428 	lw	$t4,1064($t3)
  4090bc:	310f0004 	andi	$t7,$t0,0x4
  4090c0:	318d0004 	andi	$t5,$t4,0x4
  4090c4:	11a0000c 	beqz	$t5,4090f8 <_Psema+0x458>
  4090c8:	00000000 	nop
  4090cc:	11e0000a 	beqz	$t7,4090f8 <_Psema+0x458>
  4090d0:	02002025 	move	$a0,$s0
  4090d4:	8fb80044 	lw	$t8,68($sp)
  4090d8:	3c0e0020 	lui	$t6,0x20
  4090dc:	8dc60e00 	lw	$a2,3584($t6)
  4090e0:	afb80010 	sw	$t8,16($sp)
  4090e4:	8609000c 	lh	$t1,12($s0)
  4090e8:	24050001 	li	$a1,1
  4090ec:	00003825 	move	$a3,$zero
  4090f0:	0c1027b7 	jal	409edc <_usdumpsema+0x174>
  4090f4:	afa90014 	sw	$t1,20($sp)
  4090f8:	8f99aee8 	lw	$t9,-20760($gp)
  4090fc:	8e040024 	lw	$a0,36($s0)
  409100:	0320f809 	jalr	$t9
  409104:	00000000 	nop
  409108:	24020001 	li	$v0,1
  40910c:	8fbf0024 	lw	$ra,36($sp)
  409110:	8fb00020 	lw	$s0,32($sp)
  409114:	03e00008 	jr	$ra
  409118:	27bd0040 	addiu	$sp,$sp,64

0040911c <_CPsema>:
  40911c:	27bdffc0 	addiu	$sp,$sp,-64
  409120:	afbf0024 	sw	$ra,36($sp)
  409124:	afb00020 	sw	$s0,32($sp)
  409128:	afa50044 	sw	$a1,68($sp)
  40912c:	94820016 	lhu	$v0,22($a0)
  409130:	8f99aee4 	lw	$t9,-20764($gp)
  409134:	00808025 	move	$s0,$a0
  409138:	8c840024 	lw	$a0,36($a0)
  40913c:	0320f809 	jalr	$t9
  409140:	a7a2003e 	sh	$v0,62($sp)
  409144:	8604000c 	lh	$a0,12($s0)
  409148:	97a2003e 	lhu	$v0,62($sp)
  40914c:	1c800033 	bgtz	$a0,40921c <_CPsema+0x100>
  409150:	3c080020 	lui	$t0,0x20
  409154:	8e050000 	lw	$a1,0($s0)
  409158:	304e0010 	andi	$t6,$v0,0x10
  40915c:	11c00029 	beqz	$t6,409204 <_CPsema+0xe8>
  409160:	3c080020 	lui	$t0,0x20
  409164:	8d0f0e00 	lw	$t7,3584($t0)
  409168:	8e180004 	lw	$t8,4($s0)
  40916c:	00000000 	nop
  409170:	15f80024 	bne	$t7,$t8,409204 <_CPsema+0xe8>
  409174:	00000000 	nop
  409178:	860a000e 	lh	$t2,14($s0)
  40917c:	304c0002 	andi	$t4,$v0,0x2
  409180:	254b0001 	addiu	$t3,$t2,1
  409184:	11800019 	beqz	$t4,4091ec <_CPsema+0xd0>
  409188:	a60b000e 	sh	$t3,14($s0)
  40918c:	8f99aee4 	lw	$t9,-20764($gp)
  409190:	8ca40440 	lw	$a0,1088($a1)
  409194:	0320f809 	jalr	$t9
  409198:	afa50038 	sw	$a1,56($sp)
  40919c:	3c080020 	lui	$t0,0x20
  4091a0:	8d0d0e00 	lw	$t5,3584($t0)
  4091a4:	8e0e0020 	lw	$t6,32($s0)
  4091a8:	8fa50038 	lw	$a1,56($sp)
  4091ac:	8fa90044 	lw	$t1,68($sp)
  4091b0:	adcd0000 	sw	$t5,0($t6)
  4091b4:	8e0f0020 	lw	$t7,32($s0)
  4091b8:	00000000 	nop
  4091bc:	ade90004 	sw	$t1,4($t7)
  4091c0:	8e0a0020 	lw	$t2,32($s0)
  4091c4:	8d180e00 	lw	$t8,3584($t0)
  4091c8:	00000000 	nop
  4091cc:	ad580008 	sw	$t8,8($t2)
  4091d0:	8e0b0020 	lw	$t3,32($s0)
  4091d4:	00000000 	nop
  4091d8:	ad69000c 	sw	$t1,12($t3)
  4091dc:	8f99aee8 	lw	$t9,-20760($gp)
  4091e0:	8ca40440 	lw	$a0,1088($a1)
  4091e4:	0320f809 	jalr	$t9
  4091e8:	00000000 	nop
  4091ec:	8f99aee8 	lw	$t9,-20760($gp)
  4091f0:	8e040024 	lw	$a0,36($s0)
  4091f4:	0320f809 	jalr	$t9
  4091f8:	00000000 	nop
  4091fc:	10000053 	b	40934c <_CPsema+0x230>
  409200:	24020001 	li	$v0,1
  409204:	8f99aee8 	lw	$t9,-20760($gp)
  409208:	8e040024 	lw	$a0,36($s0)
  40920c:	0320f809 	jalr	$t9
  409210:	00000000 	nop
  409214:	1000004d 	b	40934c <_CPsema+0x230>
  409218:	00001025 	move	$v0,$zero
  40921c:	248cffff 	addiu	$t4,$a0,-1
  409220:	a60c000c 	sh	$t4,12($s0)
  409224:	8d0d0e00 	lw	$t5,3584($t0)
  409228:	240e0001 	li	$t6,1
  40922c:	304f0007 	andi	$t7,$v0,0x7
  409230:	a60e000e 	sh	$t6,14($s0)
  409234:	00401825 	move	$v1,$v0
  409238:	11e0003f 	beqz	$t7,409338 <_CPsema+0x21c>
  40923c:	ae0d0004 	sw	$t5,4($s0)
  409240:	8e020000 	lw	$v0,0($s0)
  409244:	8f99aee4 	lw	$t9,-20764($gp)
  409248:	8c440440 	lw	$a0,1088($v0)
  40924c:	afa3002c 	sw	$v1,44($sp)
  409250:	0320f809 	jalr	$t9
  409254:	afa20034 	sw	$v0,52($sp)
  409258:	8fa3002c 	lw	$v1,44($sp)
  40925c:	8fa90044 	lw	$t1,68($sp)
  409260:	30780001 	andi	$t8,$v1,0x1
  409264:	1300000d 	beqz	$t8,40929c <_CPsema+0x180>
  409268:	3c080020 	lui	$t0,0x20
  40926c:	8e02001c 	lw	$v0,28($s0)
  409270:	00000000 	nop
  409274:	8c4a0004 	lw	$t2,4($v0)
  409278:	00000000 	nop
  40927c:	254b0001 	addiu	$t3,$t2,1
  409280:	ac4b0004 	sw	$t3,4($v0)
  409284:	8e02001c 	lw	$v0,28($s0)
  409288:	00000000 	nop
  40928c:	8c4c0000 	lw	$t4,0($v0)
  409290:	00000000 	nop
  409294:	258d0001 	addiu	$t5,$t4,1
  409298:	ac4d0000 	sw	$t5,0($v0)
  40929c:	306e0002 	andi	$t6,$v1,0x2
  4092a0:	11c00010 	beqz	$t6,4092e4 <_CPsema+0x1c8>
  4092a4:	8fad0034 	lw	$t5,52($sp)
  4092a8:	8d0f0e00 	lw	$t7,3584($t0)
  4092ac:	8e190020 	lw	$t9,32($s0)
  4092b0:	00000000 	nop
  4092b4:	af2f0000 	sw	$t7,0($t9)
  4092b8:	8e180020 	lw	$t8,32($s0)
  4092bc:	00000000 	nop
  4092c0:	af090004 	sw	$t1,4($t8)
  4092c4:	8e0b0020 	lw	$t3,32($s0)
  4092c8:	8d0a0e00 	lw	$t2,3584($t0)
  4092cc:	00000000 	nop
  4092d0:	ad6a0008 	sw	$t2,8($t3)
  4092d4:	8e0c0020 	lw	$t4,32($s0)
  4092d8:	00000000 	nop
  4092dc:	ad89000c 	sw	$t1,12($t4)
  4092e0:	8fad0034 	lw	$t5,52($sp)
  4092e4:	8f99aee8 	lw	$t9,-20760($gp)
  4092e8:	8da40440 	lw	$a0,1088($t5)
  4092ec:	0320f809 	jalr	$t9
  4092f0:	afa3002c 	sw	$v1,44($sp)
  4092f4:	8fae0034 	lw	$t6,52($sp)
  4092f8:	8fa3002c 	lw	$v1,44($sp)
  4092fc:	8dcf0428 	lw	$t7,1064($t6)
  409300:	8fa90044 	lw	$t1,68($sp)
  409304:	31f80004 	andi	$t8,$t7,0x4
  409308:	1300000b 	beqz	$t8,409338 <_CPsema+0x21c>
  40930c:	3c080020 	lui	$t0,0x20
  409310:	306a0004 	andi	$t2,$v1,0x4
  409314:	11400008 	beqz	$t2,409338 <_CPsema+0x21c>
  409318:	02002025 	move	$a0,$s0
  40931c:	8d060e00 	lw	$a2,3584($t0)
  409320:	afa90010 	sw	$t1,16($sp)
  409324:	860b000c 	lh	$t3,12($s0)
  409328:	24050001 	li	$a1,1
  40932c:	00003825 	move	$a3,$zero
  409330:	0c1027b7 	jal	409edc <_usdumpsema+0x174>
  409334:	afab0014 	sw	$t3,20($sp)
  409338:	8f99aee8 	lw	$t9,-20760($gp)
  40933c:	8e040024 	lw	$a0,36($s0)
  409340:	0320f809 	jalr	$t9
  409344:	00000000 	nop
  409348:	24020001 	li	$v0,1
  40934c:	8fbf0024 	lw	$ra,36($sp)
  409350:	8fb00020 	lw	$s0,32($sp)
  409354:	03e00008 	jr	$ra
  409358:	27bd0040 	addiu	$sp,$sp,64

0040935c <_Vsema>:
  40935c:	27bdff98 	addiu	$sp,$sp,-104
  409360:	afbf0044 	sw	$ra,68($sp)
  409364:	afbe0040 	sw	$s8,64($sp)
  409368:	afb7003c 	sw	$s7,60($sp)
  40936c:	afb60038 	sw	$s6,56($sp)
  409370:	afb50034 	sw	$s5,52($sp)
  409374:	afb40030 	sw	$s4,48($sp)
  409378:	afb3002c 	sw	$s3,44($sp)
  40937c:	afb20028 	sw	$s2,40($sp)
  409380:	afb10024 	sw	$s1,36($sp)
  409384:	afb00020 	sw	$s0,32($sp)
  409388:	94950016 	lhu	$s5,22($a0)
  40938c:	00808025 	move	$s0,$a0
  409390:	32ae0010 	andi	$t6,$s5,0x10
  409394:	00a0b025 	move	$s6,$a1
  409398:	afae0048 	sw	$t6,72($sp)
  40939c:	24170001 	li	$s7,1
  4093a0:	3c1e0020 	lui	$s8,0x20
  4093a4:	8f99aee4 	lw	$t9,-20764($gp)
  4093a8:	8e040024 	lw	$a0,36($s0)
  4093ac:	0320f809 	jalr	$t9
  4093b0:	00000000 	nop
  4093b4:	8faf0048 	lw	$t7,72($sp)
  4093b8:	00000000 	nop
  4093bc:	11e0000f 	beqz	$t7,4093fc <_Vsema+0xa0>
  4093c0:	00000000 	nop
  4093c4:	8618000e 	lh	$t8,14($s0)
  4093c8:	00000000 	nop
  4093cc:	2708ffff 	addiu	$t0,$t8,-1
  4093d0:	a608000e 	sh	$t0,14($s0)
  4093d4:	8609000e 	lh	$t1,14($s0)
  4093d8:	00000000 	nop
  4093dc:	19200007 	blez	$t1,4093fc <_Vsema+0xa0>
  4093e0:	00000000 	nop
  4093e4:	8f99aee8 	lw	$t9,-20760($gp)
  4093e8:	8e040024 	lw	$a0,36($s0)
  4093ec:	0320f809 	jalr	$t9
  4093f0:	00000000 	nop
  4093f4:	10000096 	b	409650 <_Vsema+0x2f4>
  4093f8:	00001025 	move	$v0,$zero
  4093fc:	860b000c 	lh	$t3,12($s0)
  409400:	240affff 	li	$t2,-1
  409404:	256c0001 	addiu	$t4,$t3,1
  409408:	a60c000c 	sh	$t4,12($s0)
  40940c:	860d000c 	lh	$t5,12($s0)
  409410:	ae0a0004 	sw	$t2,4($s0)
  409414:	1da00053 	bgtz	$t5,409564 <_Vsema+0x208>
  409418:	32a50007 	andi	$a1,$s5,0x7
  40941c:	96020012 	lhu	$v0,18($s0)
  409420:	96040014 	lhu	$a0,20($s0)
  409424:	244e0001 	addiu	$t6,$v0,1
  409428:	00027880 	sll	$t7,$v0,0x2
  40942c:	a60e0012 	sh	$t6,18($s0)
  409430:	020fc021 	addu	$t8,$s0,$t7
  409434:	8e120000 	lw	$s2,0($s0)
  409438:	8f130028 	lw	$s3,40($t8)
  40943c:	14820002 	bne	$a0,$v0,409448 <_Vsema+0xec>
  409440:	32b10002 	andi	$s1,$s5,0x2
  409444:	a6000012 	sh	$zero,18($s0)
  409448:	ae130004 	sw	$s3,4($s0)
  40944c:	10a00034 	beqz	$a1,409520 <_Vsema+0x1c4>
  409450:	a617000e 	sh	$s7,14($s0)
  409454:	8f99aee4 	lw	$t9,-20764($gp)
  409458:	8e440440 	lw	$a0,1088($s2)
  40945c:	0320f809 	jalr	$t9
  409460:	32b40001 	andi	$s4,$s5,0x1
  409464:	1220000e 	beqz	$s1,4094a0 <_Vsema+0x144>
  409468:	00000000 	nop
  40946c:	8e080020 	lw	$t0,32($s0)
  409470:	00000000 	nop
  409474:	ad130000 	sw	$s3,0($t0)
  409478:	8e090020 	lw	$t1,32($s0)
  40947c:	00000000 	nop
  409480:	ad360004 	sw	$s6,4($t1)
  409484:	8e0b0020 	lw	$t3,32($s0)
  409488:	8fca0e00 	lw	$t2,3584($s8)
  40948c:	00000000 	nop
  409490:	ad6a0008 	sw	$t2,8($t3)
  409494:	8e0c0020 	lw	$t4,32($s0)
  409498:	00000000 	nop
  40949c:	ad96000c 	sw	$s6,12($t4)
  4094a0:	1280000d 	beqz	$s4,4094d8 <_Vsema+0x17c>
  4094a4:	00000000 	nop
  4094a8:	8e02001c 	lw	$v0,28($s0)
  4094ac:	00000000 	nop
  4094b0:	8c4d0010 	lw	$t5,16($v0)
  4094b4:	00000000 	nop
  4094b8:	25aeffff 	addiu	$t6,$t5,-1
  4094bc:	ac4e0010 	sw	$t6,16($v0)
  4094c0:	8e02001c 	lw	$v0,28($s0)
  4094c4:	00000000 	nop
  4094c8:	8c4f0008 	lw	$t7,8($v0)
  4094cc:	00000000 	nop
  4094d0:	25f80001 	addiu	$t8,$t7,1
  4094d4:	ac580008 	sw	$t8,8($v0)
  4094d8:	8f99aee8 	lw	$t9,-20760($gp)
  4094dc:	8e440440 	lw	$a0,1088($s2)
  4094e0:	0320f809 	jalr	$t9
  4094e4:	00000000 	nop
  4094e8:	8e480428 	lw	$t0,1064($s2)
  4094ec:	32aa0004 	andi	$t2,$s5,0x4
  4094f0:	31090004 	andi	$t1,$t0,0x4
  4094f4:	1120000a 	beqz	$t1,409520 <_Vsema+0x1c4>
  4094f8:	00000000 	nop
  4094fc:	11400008 	beqz	$t2,409520 <_Vsema+0x1c4>
  409500:	02002025 	move	$a0,$s0
  409504:	8fc60e00 	lw	$a2,3584($s8)
  409508:	afb60010 	sw	$s6,16($sp)
  40950c:	860b000c 	lh	$t3,12($s0)
  409510:	24050005 	li	$a1,5
  409514:	02603825 	move	$a3,$s3
  409518:	0c1027b7 	jal	409edc <_usdumpsema+0x174>
  40951c:	afab0014 	sw	$t3,20($sp)
  409520:	8f99aee8 	lw	$t9,-20760($gp)
  409524:	8e040024 	lw	$a0,36($s0)
  409528:	0320f809 	jalr	$t9
  40952c:	00000000 	nop
  409530:	02402025 	move	$a0,$s2
  409534:	02002825 	move	$a1,$s0
  409538:	02603025 	move	$a2,$s3
  40953c:	0c102af6 	jal	40abd8 <_usunblock>
  409540:	27878858 	addiu	$a3,$gp,-30632
  409544:	04410003 	bgez	$v0,409554 <_Vsema+0x1f8>
  409548:	00000000 	nop
  40954c:	10000040 	b	409650 <_Vsema+0x2f4>
  409550:	2402ffff 	li	$v0,-1
  409554:	1057ff93 	beq	$v0,$s7,4093a4 <_Vsema+0x48>
  409558:	00000000 	nop
  40955c:	1000003c 	b	409650 <_Vsema+0x2f4>
  409560:	00001025 	move	$v0,$zero
  409564:	10a00035 	beqz	$a1,40963c <_Vsema+0x2e0>
  409568:	32b10002 	andi	$s1,$s5,0x2
  40956c:	8e120000 	lw	$s2,0($s0)
  409570:	8f99aee4 	lw	$t9,-20764($gp)
  409574:	8e440440 	lw	$a0,1088($s2)
  409578:	0320f809 	jalr	$t9
  40957c:	32b40001 	andi	$s4,$s5,0x1
  409580:	1220000e 	beqz	$s1,4095bc <_Vsema+0x260>
  409584:	00000000 	nop
  409588:	8e0d0020 	lw	$t5,32($s0)
  40958c:	240cffff 	li	$t4,-1
  409590:	adac0000 	sw	$t4,0($t5)
  409594:	8e0f0020 	lw	$t7,32($s0)
  409598:	240effff 	li	$t6,-1
  40959c:	adee0004 	sw	$t6,4($t7)
  4095a0:	8e080020 	lw	$t0,32($s0)
  4095a4:	8fd80e00 	lw	$t8,3584($s8)
  4095a8:	00000000 	nop
  4095ac:	ad180008 	sw	$t8,8($t0)
  4095b0:	8e090020 	lw	$t1,32($s0)
  4095b4:	00000000 	nop
  4095b8:	ad36000c 	sw	$s6,12($t1)
  4095bc:	1280000d 	beqz	$s4,4095f4 <_Vsema+0x298>
  4095c0:	00000000 	nop
  4095c4:	8e02001c 	lw	$v0,28($s0)
  4095c8:	00000000 	nop
  4095cc:	8c4a000c 	lw	$t2,12($v0)
  4095d0:	00000000 	nop
  4095d4:	254b0001 	addiu	$t3,$t2,1
  4095d8:	ac4b000c 	sw	$t3,12($v0)
  4095dc:	8e02001c 	lw	$v0,28($s0)
  4095e0:	00000000 	nop
  4095e4:	8c590008 	lw	$t9,8($v0)
  4095e8:	00000000 	nop
  4095ec:	272c0001 	addiu	$t4,$t9,1
  4095f0:	ac4c0008 	sw	$t4,8($v0)
  4095f4:	8f99aee8 	lw	$t9,-20760($gp)
  4095f8:	8e440440 	lw	$a0,1088($s2)
  4095fc:	0320f809 	jalr	$t9
  409600:	00000000 	nop
  409604:	8e4d0428 	lw	$t5,1064($s2)
  409608:	32af0004 	andi	$t7,$s5,0x4
  40960c:	31ae0004 	andi	$t6,$t5,0x4
  409610:	11c0000a 	beqz	$t6,40963c <_Vsema+0x2e0>
  409614:	00000000 	nop
  409618:	11e00008 	beqz	$t7,40963c <_Vsema+0x2e0>
  40961c:	02002025 	move	$a0,$s0
  409620:	8fc60e00 	lw	$a2,3584($s8)
  409624:	afb60010 	sw	$s6,16($sp)
  409628:	8618000c 	lh	$t8,12($s0)
  40962c:	24050004 	li	$a1,4
  409630:	00003825 	move	$a3,$zero
  409634:	0c1027b7 	jal	409edc <_usdumpsema+0x174>
  409638:	afb80014 	sw	$t8,20($sp)
  40963c:	8f99aee8 	lw	$t9,-20760($gp)
  409640:	8e040024 	lw	$a0,36($s0)
  409644:	0320f809 	jalr	$t9
  409648:	00000000 	nop
  40964c:	00001025 	move	$v0,$zero
  409650:	8fbf0044 	lw	$ra,68($sp)
  409654:	8fb00020 	lw	$s0,32($sp)
  409658:	8fb10024 	lw	$s1,36($sp)
  40965c:	8fb20028 	lw	$s2,40($sp)
  409660:	8fb3002c 	lw	$s3,44($sp)
  409664:	8fb40030 	lw	$s4,48($sp)
  409668:	8fb50034 	lw	$s5,52($sp)
  40966c:	8fb60038 	lw	$s6,56($sp)
  409670:	8fb7003c 	lw	$s7,60($sp)
  409674:	8fbe0040 	lw	$s8,64($sp)
  409678:	03e00008 	jr	$ra
  40967c:	27bd0068 	addiu	$sp,$sp,104

00409680 <_ustestsema>:
  409680:	8482000c 	lh	$v0,12($a0)
  409684:	03e00008 	jr	$ra
  409688:	00000000 	nop

0040968c <_usinitsema>:
  40968c:	27bdffe8 	addiu	$sp,$sp,-24
  409690:	afbf0014 	sw	$ra,20($sp)
  409694:	04a00004 	bltz	$a1,4096a8 <_usinitsema+0x1c>
  409698:	00803025 	move	$a2,$a0
  40969c:	28a17531 	slti	$at,$a1,30001
  4096a0:	14200005 	bnez	$at,4096b8 <_usinitsema+0x2c>
  4096a4:	2407ffff 	li	$a3,-1
  4096a8:	0c102025 	jal	408094 <_setoserror>
  4096ac:	24040016 	li	$a0,22
  4096b0:	1000003a 	b	40979c <_usinitsema+0x110>
  4096b4:	2402ffff 	li	$v0,-1
  4096b8:	948f0014 	lhu	$t7,20($a0)
  4096bc:	a485000c 	sh	$a1,12($a0)
  4096c0:	a480000e 	sh	$zero,14($a0)
  4096c4:	a4800012 	sh	$zero,18($a0)
  4096c8:	a4800010 	sh	$zero,16($a0)
  4096cc:	ac870004 	sw	$a3,4($a0)
  4096d0:	00001025 	move	$v0,$zero
  4096d4:	05e00007 	bltz	$t7,4096f4 <_usinitsema+0x68>
  4096d8:	24830028 	addiu	$v1,$a0,40
  4096dc:	ac600000 	sw	$zero,0($v1)
  4096e0:	94d80014 	lhu	$t8,20($a2)
  4096e4:	24420001 	addiu	$v0,$v0,1
  4096e8:	0302082a 	slt	$at,$t8,$v0
  4096ec:	1020fffb 	beqz	$at,4096dc <_usinitsema+0x50>
  4096f0:	24630004 	addiu	$v1,$v1,4
  4096f4:	94830016 	lhu	$v1,22($a0)
  4096f8:	00000000 	nop
  4096fc:	10600026 	beqz	$v1,409798 <_usinitsema+0x10c>
  409700:	30790001 	andi	$t9,$v1,0x1
  409704:	13200015 	beqz	$t9,40975c <_usinitsema+0xd0>
  409708:	00601025 	move	$v0,$v1
  40970c:	8c88001c 	lw	$t0,28($a0)
  409710:	00000000 	nop
  409714:	ad000004 	sw	$zero,4($t0)
  409718:	8c89001c 	lw	$t1,28($a0)
  40971c:	00000000 	nop
  409720:	ad200000 	sw	$zero,0($t1)
  409724:	8c8a001c 	lw	$t2,28($a0)
  409728:	00000000 	nop
  40972c:	ad400008 	sw	$zero,8($t2)
  409730:	8c8b001c 	lw	$t3,28($a0)
  409734:	00000000 	nop
  409738:	ad60000c 	sw	$zero,12($t3)
  40973c:	8c8c001c 	lw	$t4,28($a0)
  409740:	00000000 	nop
  409744:	ad800010 	sw	$zero,16($t4)
  409748:	8c8d001c 	lw	$t5,28($a0)
  40974c:	00000000 	nop
  409750:	ada00014 	sw	$zero,20($t5)
  409754:	94820016 	lhu	$v0,22($a0)
  409758:	00000000 	nop
  40975c:	304e0002 	andi	$t6,$v0,0x2
  409760:	11c0000e 	beqz	$t6,40979c <_usinitsema+0x110>
  409764:	00001025 	move	$v0,$zero
  409768:	8c8f0020 	lw	$t7,32($a0)
  40976c:	2402ffff 	li	$v0,-1
  409770:	ade70000 	sw	$a3,0($t7)
  409774:	8c980020 	lw	$t8,32($a0)
  409778:	00000000 	nop
  40977c:	af020004 	sw	$v0,4($t8)
  409780:	8c990020 	lw	$t9,32($a0)
  409784:	00000000 	nop
  409788:	af270008 	sw	$a3,8($t9)
  40978c:	8c880020 	lw	$t0,32($a0)
  409790:	00000000 	nop
  409794:	ad02000c 	sw	$v0,12($t0)
  409798:	00001025 	move	$v0,$zero
  40979c:	8fbf0014 	lw	$ra,20($sp)
  4097a0:	27bd0018 	addiu	$sp,$sp,24
  4097a4:	03e00008 	jr	$ra
  4097a8:	00000000 	nop

004097ac <_usnewsema>:
  4097ac:	27bdffe0 	addiu	$sp,$sp,-32
  4097b0:	afb10018 	sw	$s1,24($sp)
  4097b4:	00808825 	move	$s1,$a0
  4097b8:	afbf001c 	sw	$ra,28($sp)
  4097bc:	afb00014 	sw	$s0,20($sp)
  4097c0:	afa50024 	sw	$a1,36($sp)
  4097c4:	8c840424 	lw	$a0,1060($a0)
  4097c8:	02202825 	move	$a1,$s1
  4097cc:	00047080 	sll	$t6,$a0,0x2
  4097d0:	0c103110 	jal	40c440 <_usmalloc>
  4097d4:	25c40028 	addiu	$a0,$t6,40
  4097d8:	14400005 	bnez	$v0,4097f0 <_usnewsema+0x44>
  4097dc:	00408025 	move	$s0,$v0
  4097e0:	0c102025 	jal	408094 <_setoserror>
  4097e4:	2404000c 	li	$a0,12
  4097e8:	10000025 	b	409880 <_usnewsema+0xd4>
  4097ec:	00001025 	move	$v0,$zero
  4097f0:	8e2f0424 	lw	$t7,1060($s1)
  4097f4:	24090004 	li	$t1,4
  4097f8:	25f8ffff 	addiu	$t8,$t7,-1
  4097fc:	a4580014 	sh	$t8,20($v0)
  409800:	8e390428 	lw	$t9,1064($s1)
  409804:	00000000 	nop
  409808:	33280004 	andi	$t0,$t9,0x4
  40980c:	11000003 	beqz	$t0,40981c <_usnewsema+0x70>
  409810:	00000000 	nop
  409814:	10000002 	b	409820 <_usnewsema+0x74>
  409818:	a4490016 	sh	$t1,22($v0)
  40981c:	a4400016 	sh	$zero,22($v0)
  409820:	ae00001c 	sw	$zero,28($s0)
  409824:	ae000020 	sw	$zero,32($s0)
  409828:	ae000008 	sw	$zero,8($s0)
  40982c:	ae110000 	sw	$s1,0($s0)
  409830:	8f99aeec 	lw	$t9,-20756($gp)
  409834:	02202025 	move	$a0,$s1
  409838:	0320f809 	jalr	$t9
  40983c:	00000000 	nop
  409840:	14400006 	bnez	$v0,40985c <_usnewsema+0xb0>
  409844:	ae020024 	sw	$v0,36($s0)
  409848:	02002025 	move	$a0,$s0
  40984c:	0c102629 	jal	4098a4 <_usfreesema>
  409850:	02202825 	move	$a1,$s1
  409854:	1000000a 	b	409880 <_usnewsema+0xd4>
  409858:	00001025 	move	$v0,$zero
  40985c:	8fa50024 	lw	$a1,36($sp)
  409860:	0c1025a3 	jal	40968c <_usinitsema>
  409864:	02002025 	move	$a0,$s0
  409868:	04410004 	bgez	$v0,40987c <_usnewsema+0xd0>
  40986c:	02002025 	move	$a0,$s0
  409870:	0c102629 	jal	4098a4 <_usfreesema>
  409874:	02202825 	move	$a1,$s1
  409878:	00008025 	move	$s0,$zero
  40987c:	02001025 	move	$v0,$s0
  409880:	8fbf001c 	lw	$ra,28($sp)
  409884:	8fb00014 	lw	$s0,20($sp)
  409888:	8fb10018 	lw	$s1,24($sp)
  40988c:	03e00008 	jr	$ra
  409890:	27bd0020 	addiu	$sp,$sp,32

00409894 <_ussemaspace>:
  409894:	00041880 	sll	$v1,$a0,0x2
  409898:	00631021 	addu	$v0,$v1,$v1
  40989c:	03e00008 	jr	$ra
  4098a0:	2442007c 	addiu	$v0,$v0,124

004098a4 <_usfreesema>:
  4098a4:	27bdffd8 	addiu	$sp,$sp,-40
  4098a8:	8f8e8ab0 	lw	$t6,-30032($gp)
  4098ac:	afbf0024 	sw	$ra,36($sp)
  4098b0:	afb10020 	sw	$s1,32($sp)
  4098b4:	afb0001c 	sw	$s0,28($sp)
  4098b8:	8c910000 	lw	$s1,0($a0)
  4098bc:	11c0000b 	beqz	$t6,4098ec <_usfreesema+0x48>
  4098c0:	00808025 	move	$s0,$a0
  4098c4:	12250009 	beq	$s1,$a1,4098ec <_usfreesema+0x48>
  4098c8:	00002025 	move	$a0,$zero
  4098cc:	3c0f0020 	lui	$t7,0x20
  4098d0:	8df80e00 	lw	$t8,3584($t7)
  4098d4:	3c050042 	lui	$a1,0x42
  4098d8:	24a5a330 	addiu	$a1,$a1,-23760
  4098dc:	02003025 	move	$a2,$s0
  4098e0:	02203825 	move	$a3,$s1
  4098e4:	0c1050fc 	jal	4143f0 <_uprint>
  4098e8:	afb80010 	sw	$t8,16($sp)
  4098ec:	96030016 	lhu	$v1,22($s0)
  4098f0:	00000000 	nop
  4098f4:	1060000e 	beqz	$v1,409930 <_usfreesema+0x8c>
  4098f8:	30790001 	andi	$t9,$v1,0x1
  4098fc:	13200006 	beqz	$t9,409918 <_usfreesema+0x74>
  409900:	00601025 	move	$v0,$v1
  409904:	8e04001c 	lw	$a0,28($s0)
  409908:	0c103119 	jal	40c464 <_usfree>
  40990c:	02202825 	move	$a1,$s1
  409910:	96020016 	lhu	$v0,22($s0)
  409914:	00000000 	nop
  409918:	30480002 	andi	$t0,$v0,0x2
  40991c:	11000004 	beqz	$t0,409930 <_usfreesema+0x8c>
  409920:	00000000 	nop
  409924:	8e040020 	lw	$a0,32($s0)
  409928:	0c103119 	jal	40c464 <_usfree>
  40992c:	02202825 	move	$a1,$s1
  409930:	8e040024 	lw	$a0,36($s0)
  409934:	8f99aef4 	lw	$t9,-20748($gp)
  409938:	10800003 	beqz	$a0,409948 <_usfreesema+0xa4>
  40993c:	00000000 	nop
  409940:	0320f809 	jalr	$t9
  409944:	02202825 	move	$a1,$s1
  409948:	a6000012 	sh	$zero,18($s0)
  40994c:	a6000010 	sh	$zero,16($s0)
  409950:	ae000000 	sw	$zero,0($s0)
  409954:	02002025 	move	$a0,$s0
  409958:	0c103119 	jal	40c464 <_usfree>
  40995c:	02202825 	move	$a1,$s1
  409960:	8fbf0024 	lw	$ra,36($sp)
  409964:	8fb0001c 	lw	$s0,28($sp)
  409968:	8fb10020 	lw	$s1,32($sp)
  40996c:	03e00008 	jr	$ra
  409970:	27bd0028 	addiu	$sp,$sp,40

00409974 <_usctlsema>:
  409974:	27bdffe0 	addiu	$sp,$sp,-32
  409978:	24affff7 	addiu	$t7,$a1,-9
  40997c:	afa60028 	sw	$a2,40($sp)
  409980:	afa7002c 	sw	$a3,44($sp)
  409984:	2de1000c 	sltiu	$at,$t7,12
  409988:	00803025 	move	$a2,$a0
  40998c:	afbf0014 	sw	$ra,20($sp)
  409990:	afa40020 	sw	$a0,32($sp)
  409994:	afa50024 	sw	$a1,36($sp)
  409998:	102000eb 	beqz	$at,409d48 <_usctlsema+0x3d4>
  40999c:	00003825 	move	$a3,$zero
  4099a0:	000f7880 	sll	$t7,$t7,0x2
  4099a4:	3c010042 	lui	$at,0x42
  4099a8:	002f0821 	addu	$at,$at,$t7
  4099ac:	8c2fa794 	lw	$t7,-22636($at)
  4099b0:	00000000 	nop
  4099b4:	01e00008 	jr	$t7
  4099b8:	00000000 	nop
  4099bc:	94d80016 	lhu	$t8,22($a2)
  4099c0:	24040018 	li	$a0,24
  4099c4:	33190001 	andi	$t9,$t8,0x1
  4099c8:	172000e3 	bnez	$t9,409d58 <_usctlsema+0x3e4>
  4099cc:	00e01025 	move	$v0,$a3
  4099d0:	8cc50000 	lw	$a1,0($a2)
  4099d4:	afa70018 	sw	$a3,24($sp)
  4099d8:	0c103110 	jal	40c440 <_usmalloc>
  4099dc:	afa60020 	sw	$a2,32($sp)
  4099e0:	8fa60020 	lw	$a2,32($sp)
  4099e4:	8fa70018 	lw	$a3,24($sp)
  4099e8:	14400005 	bnez	$v0,409a00 <_usctlsema+0x8c>
  4099ec:	acc2001c 	sw	$v0,28($a2)
  4099f0:	0c102025 	jal	408094 <_setoserror>
  4099f4:	2404000c 	li	$a0,12
  4099f8:	100000d7 	b	409d58 <_usctlsema+0x3e4>
  4099fc:	2402ffff 	li	$v0,-1
  409a00:	94c80016 	lhu	$t0,22($a2)
  409a04:	8cca001c 	lw	$t2,28($a2)
  409a08:	35090001 	ori	$t1,$t0,0x1
  409a0c:	a4c90016 	sh	$t1,22($a2)
  409a10:	ad400000 	sw	$zero,0($t2)
  409a14:	8ccb001c 	lw	$t3,28($a2)
  409a18:	00000000 	nop
  409a1c:	ad600004 	sw	$zero,4($t3)
  409a20:	8ccc001c 	lw	$t4,28($a2)
  409a24:	00000000 	nop
  409a28:	ad800008 	sw	$zero,8($t4)
  409a2c:	8ccd001c 	lw	$t5,28($a2)
  409a30:	00000000 	nop
  409a34:	ada0000c 	sw	$zero,12($t5)
  409a38:	8cce001c 	lw	$t6,28($a2)
  409a3c:	00000000 	nop
  409a40:	adc00010 	sw	$zero,16($t6)
  409a44:	8ccf001c 	lw	$t7,28($a2)
  409a48:	100000c2 	b	409d54 <_usctlsema+0x3e0>
  409a4c:	ade00014 	sw	$zero,20($t7)
  409a50:	94c20016 	lhu	$v0,22($a2)
  409a54:	00000000 	nop
  409a58:	30580001 	andi	$t8,$v0,0x1
  409a5c:	130000bd 	beqz	$t8,409d54 <_usctlsema+0x3e0>
  409a60:	3059fffe 	andi	$t9,$v0,0xfffe
  409a64:	a4d90016 	sh	$t9,22($a2)
  409a68:	8cc4001c 	lw	$a0,28($a2)
  409a6c:	8cc50000 	lw	$a1,0($a2)
  409a70:	0c103119 	jal	40c464 <_usfree>
  409a74:	afa70018 	sw	$a3,24($sp)
  409a78:	8fa70018 	lw	$a3,24($sp)
  409a7c:	100000b6 	b	409d58 <_usctlsema+0x3e4>
  409a80:	00e01025 	move	$v0,$a3
  409a84:	94c80016 	lhu	$t0,22($a2)
  409a88:	27a3002b 	addiu	$v1,$sp,43
  409a8c:	31090001 	andi	$t1,$t0,0x1
  409a90:	11200021 	beqz	$t1,409b18 <_usctlsema+0x1a4>
  409a94:	2401fffc 	li	$at,-4
  409a98:	8ccb001c 	lw	$t3,28($a2)
  409a9c:	00615024 	and	$t2,$v1,$at
  409aa0:	25430004 	addiu	$v1,$t2,4
  409aa4:	8c62fffc 	lw	$v0,-4($v1)
  409aa8:	8d6c0004 	lw	$t4,4($t3)
  409aac:	00000000 	nop
  409ab0:	ac4c0004 	sw	$t4,4($v0)
  409ab4:	8ccd001c 	lw	$t5,28($a2)
  409ab8:	00000000 	nop
  409abc:	8dae0000 	lw	$t6,0($t5)
  409ac0:	00000000 	nop
  409ac4:	ac4e0000 	sw	$t6,0($v0)
  409ac8:	8ccf001c 	lw	$t7,28($a2)
  409acc:	00000000 	nop
  409ad0:	8df80008 	lw	$t8,8($t7)
  409ad4:	00000000 	nop
  409ad8:	ac580008 	sw	$t8,8($v0)
  409adc:	8cd9001c 	lw	$t9,28($a2)
  409ae0:	00000000 	nop
  409ae4:	8f28000c 	lw	$t0,12($t9)
  409ae8:	00000000 	nop
  409aec:	ac48000c 	sw	$t0,12($v0)
  409af0:	8cc9001c 	lw	$t1,28($a2)
  409af4:	00000000 	nop
  409af8:	8d2a0010 	lw	$t2,16($t1)
  409afc:	00000000 	nop
  409b00:	ac4a0010 	sw	$t2,16($v0)
  409b04:	8ccb001c 	lw	$t3,28($a2)
  409b08:	00000000 	nop
  409b0c:	8d6c0014 	lw	$t4,20($t3)
  409b10:	10000090 	b	409d54 <_usctlsema+0x3e0>
  409b14:	ac4c0014 	sw	$t4,20($v0)
  409b18:	0c102025 	jal	408094 <_setoserror>
  409b1c:	24040016 	li	$a0,22
  409b20:	1000008c 	b	409d54 <_usctlsema+0x3e0>
  409b24:	2407ffff 	li	$a3,-1
  409b28:	94cd0016 	lhu	$t5,22($a2)
  409b2c:	00000000 	nop
  409b30:	31ae0001 	andi	$t6,$t5,0x1
  409b34:	11c00088 	beqz	$t6,409d58 <_usctlsema+0x3e4>
  409b38:	00e01025 	move	$v0,$a3
  409b3c:	8ccf001c 	lw	$t7,28($a2)
  409b40:	00000000 	nop
  409b44:	ade00004 	sw	$zero,4($t7)
  409b48:	8cd8001c 	lw	$t8,28($a2)
  409b4c:	00000000 	nop
  409b50:	af000000 	sw	$zero,0($t8)
  409b54:	8cd9001c 	lw	$t9,28($a2)
  409b58:	00000000 	nop
  409b5c:	af200008 	sw	$zero,8($t9)
  409b60:	8cc8001c 	lw	$t0,28($a2)
  409b64:	00000000 	nop
  409b68:	ad00000c 	sw	$zero,12($t0)
  409b6c:	8cc9001c 	lw	$t1,28($a2)
  409b70:	00000000 	nop
  409b74:	ad200010 	sw	$zero,16($t1)
  409b78:	8cca001c 	lw	$t2,28($a2)
  409b7c:	10000075 	b	409d54 <_usctlsema+0x3e0>
  409b80:	ad400014 	sw	$zero,20($t2)
  409b84:	94cb0016 	lhu	$t3,22($a2)
  409b88:	24040010 	li	$a0,16
  409b8c:	316c0002 	andi	$t4,$t3,0x2
  409b90:	15800071 	bnez	$t4,409d58 <_usctlsema+0x3e4>
  409b94:	00e01025 	move	$v0,$a3
  409b98:	8cc50000 	lw	$a1,0($a2)
  409b9c:	afa70018 	sw	$a3,24($sp)
  409ba0:	0c103110 	jal	40c440 <_usmalloc>
  409ba4:	afa60020 	sw	$a2,32($sp)
  409ba8:	8fa60020 	lw	$a2,32($sp)
  409bac:	8fa70018 	lw	$a3,24($sp)
  409bb0:	14400005 	bnez	$v0,409bc8 <_usctlsema+0x254>
  409bb4:	acc20020 	sw	$v0,32($a2)
  409bb8:	0c102025 	jal	408094 <_setoserror>
  409bbc:	2404000c 	li	$a0,12
  409bc0:	10000065 	b	409d58 <_usctlsema+0x3e4>
  409bc4:	2402ffff 	li	$v0,-1
  409bc8:	94cd0016 	lhu	$t5,22($a2)
  409bcc:	8ccf0020 	lw	$t7,32($a2)
  409bd0:	35ae0002 	ori	$t6,$t5,0x2
  409bd4:	2402ffff 	li	$v0,-1
  409bd8:	a4ce0016 	sh	$t6,22($a2)
  409bdc:	ade20000 	sw	$v0,0($t7)
  409be0:	8cd80020 	lw	$t8,32($a2)
  409be4:	2403ffff 	li	$v1,-1
  409be8:	af030004 	sw	$v1,4($t8)
  409bec:	8cd90020 	lw	$t9,32($a2)
  409bf0:	00000000 	nop
  409bf4:	af220008 	sw	$v0,8($t9)
  409bf8:	8cc80020 	lw	$t0,32($a2)
  409bfc:	10000055 	b	409d54 <_usctlsema+0x3e0>
  409c00:	ad03000c 	sw	$v1,12($t0)
  409c04:	94c20016 	lhu	$v0,22($a2)
  409c08:	00000000 	nop
  409c0c:	30490002 	andi	$t1,$v0,0x2
  409c10:	11200050 	beqz	$t1,409d54 <_usctlsema+0x3e0>
  409c14:	304afffd 	andi	$t2,$v0,0xfffd
  409c18:	a4ca0016 	sh	$t2,22($a2)
  409c1c:	8cc40020 	lw	$a0,32($a2)
  409c20:	8cc50000 	lw	$a1,0($a2)
  409c24:	0c103119 	jal	40c464 <_usfree>
  409c28:	afa70018 	sw	$a3,24($sp)
  409c2c:	8fa70018 	lw	$a3,24($sp)
  409c30:	10000049 	b	409d58 <_usctlsema+0x3e4>
  409c34:	00e01025 	move	$v0,$a3
  409c38:	94cb0016 	lhu	$t3,22($a2)
  409c3c:	27a3002b 	addiu	$v1,$sp,43
  409c40:	316c0002 	andi	$t4,$t3,0x2
  409c44:	11800017 	beqz	$t4,409ca4 <_usctlsema+0x330>
  409c48:	2401fffc 	li	$at,-4
  409c4c:	8cce0020 	lw	$t6,32($a2)
  409c50:	00616824 	and	$t5,$v1,$at
  409c54:	25a30004 	addiu	$v1,$t5,4
  409c58:	8c62fffc 	lw	$v0,-4($v1)
  409c5c:	8dcf0000 	lw	$t7,0($t6)
  409c60:	00000000 	nop
  409c64:	ac4f0000 	sw	$t7,0($v0)
  409c68:	8cd80020 	lw	$t8,32($a2)
  409c6c:	00000000 	nop
  409c70:	8f190004 	lw	$t9,4($t8)
  409c74:	00000000 	nop
  409c78:	ac590004 	sw	$t9,4($v0)
  409c7c:	8cc80020 	lw	$t0,32($a2)
  409c80:	00000000 	nop
  409c84:	8d090008 	lw	$t1,8($t0)
  409c88:	00000000 	nop
  409c8c:	ac490008 	sw	$t1,8($v0)
  409c90:	8cca0020 	lw	$t2,32($a2)
  409c94:	00000000 	nop
  409c98:	8d4b000c 	lw	$t3,12($t2)
  409c9c:	1000002d 	b	409d54 <_usctlsema+0x3e0>
  409ca0:	ac4b000c 	sw	$t3,12($v0)
  409ca4:	0c102025 	jal	408094 <_setoserror>
  409ca8:	24040016 	li	$a0,22
  409cac:	10000029 	b	409d54 <_usctlsema+0x3e0>
  409cb0:	2407ffff 	li	$a3,-1
  409cb4:	94cc0016 	lhu	$t4,22($a2)
  409cb8:	00000000 	nop
  409cbc:	318d0002 	andi	$t5,$t4,0x2
  409cc0:	11a00025 	beqz	$t5,409d58 <_usctlsema+0x3e4>
  409cc4:	00e01025 	move	$v0,$a3
  409cc8:	8cce0020 	lw	$t6,32($a2)
  409ccc:	2402ffff 	li	$v0,-1
  409cd0:	adc20000 	sw	$v0,0($t6)
  409cd4:	8ccf0020 	lw	$t7,32($a2)
  409cd8:	2403ffff 	li	$v1,-1
  409cdc:	ade30004 	sw	$v1,4($t7)
  409ce0:	8cd80020 	lw	$t8,32($a2)
  409ce4:	00000000 	nop
  409ce8:	af020008 	sw	$v0,8($t8)
  409cec:	8cd90020 	lw	$t9,32($a2)
  409cf0:	10000018 	b	409d54 <_usctlsema+0x3e0>
  409cf4:	af23000c 	sw	$v1,12($t9)
  409cf8:	94c80016 	lhu	$t0,22($a2)
  409cfc:	00000000 	nop
  409d00:	35090004 	ori	$t1,$t0,0x4
  409d04:	10000013 	b	409d54 <_usctlsema+0x3e0>
  409d08:	a4c90016 	sh	$t1,22($a2)
  409d0c:	94ca0016 	lhu	$t2,22($a2)
  409d10:	00000000 	nop
  409d14:	314bfffb 	andi	$t3,$t2,0xfffb
  409d18:	1000000e 	b	409d54 <_usctlsema+0x3e0>
  409d1c:	a4cb0016 	sh	$t3,22($a2)
  409d20:	94cc0016 	lhu	$t4,22($a2)
  409d24:	00000000 	nop
  409d28:	358d0010 	ori	$t5,$t4,0x10
  409d2c:	10000009 	b	409d54 <_usctlsema+0x3e0>
  409d30:	a4cd0016 	sh	$t5,22($a2)
  409d34:	94ce0016 	lhu	$t6,22($a2)
  409d38:	00000000 	nop
  409d3c:	31cfffef 	andi	$t7,$t6,0xffef
  409d40:	10000004 	b	409d54 <_usctlsema+0x3e0>
  409d44:	a4cf0016 	sh	$t7,22($a2)
  409d48:	0c102025 	jal	408094 <_setoserror>
  409d4c:	24040016 	li	$a0,22
  409d50:	2407ffff 	li	$a3,-1
  409d54:	00e01025 	move	$v0,$a3
  409d58:	8fbf0014 	lw	$ra,20($sp)
  409d5c:	27bd0020 	addiu	$sp,$sp,32
  409d60:	03e00008 	jr	$ra
  409d64:	00000000 	nop

00409d68 <_usdumpsema>:
  409d68:	27bdffc8 	addiu	$sp,$sp,-56
  409d6c:	afbf0024 	sw	$ra,36($sp)
  409d70:	afb10020 	sw	$s1,32($sp)
  409d74:	afb0001c 	sw	$s0,28($sp)
  409d78:	afa60040 	sw	$a2,64($sp)
  409d7c:	8c8e0000 	lw	$t6,0($a0)
  409d80:	00808025 	move	$s0,$a0
  409d84:	00a08825 	move	$s1,$a1
  409d88:	0c1025a0 	jal	409680 <_ustestsema>
  409d8c:	afae0030 	sw	$t6,48($sp)
  409d90:	8faf0030 	lw	$t7,48($sp)
  409d94:	8f99aee4 	lw	$t9,-20764($gp)
  409d98:	afa2002c 	sw	$v0,44($sp)
  409d9c:	8de40444 	lw	$a0,1092($t7)
  409da0:	0320f809 	jalr	$t9
  409da4:	00000000 	nop
  409da8:	8fb8002c 	lw	$t8,44($sp)
  409dac:	3c050042 	lui	$a1,0x42
  409db0:	8fa60040 	lw	$a2,64($sp)
  409db4:	24a5a364 	addiu	$a1,$a1,-23708
  409db8:	02202025 	move	$a0,$s1
  409dbc:	02003825 	move	$a3,$s0
  409dc0:	0c103cb8 	jal	40f2e0 <fprintf>
  409dc4:	afb80010 	sw	$t8,16($sp)
  409dc8:	96080016 	lhu	$t0,22($s0)
  409dcc:	3c050042 	lui	$a1,0x42
  409dd0:	31090008 	andi	$t1,$t0,0x8
  409dd4:	11200007 	beqz	$t1,409df4 <_usdumpsema+0x8c>
  409dd8:	02202025 	move	$a0,$s1
  409ddc:	8e060018 	lw	$a2,24($s0)
  409de0:	02202025 	move	$a0,$s1
  409de4:	0c103cb8 	jal	40f2e0 <fprintf>
  409de8:	24a5a384 	addiu	$a1,$a1,-23676
  409dec:	10000004 	b	409e00 <_usdumpsema+0x98>
  409df0:	96030016 	lhu	$v1,22($s0)
  409df4:	0c103cb8 	jal	40f2e0 <fprintf>
  409df8:	27858860 	addiu	$a1,$gp,-30624
  409dfc:	96030016 	lhu	$v1,22($s0)
  409e00:	00000000 	nop
  409e04:	306a0001 	andi	$t2,$v1,0x1
  409e08:	1140001a 	beqz	$t2,409e74 <_usdumpsema+0x10c>
  409e0c:	306e0002 	andi	$t6,$v1,0x2
  409e10:	0c1025a0 	jal	409680 <_ustestsema>
  409e14:	02002025 	move	$a0,$s0
  409e18:	8e03001c 	lw	$v1,28($s0)
  409e1c:	3c050042 	lui	$a1,0x42
  409e20:	8c6b0014 	lw	$t3,20($v1)
  409e24:	8c670010 	lw	$a3,16($v1)
  409e28:	24a5a398 	addiu	$a1,$a1,-23656
  409e2c:	02202025 	move	$a0,$s1
  409e30:	00403025 	move	$a2,$v0
  409e34:	0c103cb8 	jal	40f2e0 <fprintf>
  409e38:	afab0010 	sw	$t3,16($sp)
  409e3c:	8e03001c 	lw	$v1,28($s0)
  409e40:	3c050042 	lui	$a1,0x42
  409e44:	8c6c0008 	lw	$t4,8($v1)
  409e48:	8c660004 	lw	$a2,4($v1)
  409e4c:	8c670000 	lw	$a3,0($v1)
  409e50:	afac0010 	sw	$t4,16($sp)
  409e54:	8c6d000c 	lw	$t5,12($v1)
  409e58:	24a5a3cc 	addiu	$a1,$a1,-23604
  409e5c:	02202025 	move	$a0,$s1
  409e60:	0c103cb8 	jal	40f2e0 <fprintf>
  409e64:	afad0014 	sw	$t5,20($sp)
  409e68:	96030016 	lhu	$v1,22($s0)
  409e6c:	00000000 	nop
  409e70:	306e0002 	andi	$t6,$v1,0x2
  409e74:	11c0000e 	beqz	$t6,409eb0 <_usdumpsema+0x148>
  409e78:	02202025 	move	$a0,$s1
  409e7c:	8e030020 	lw	$v1,32($s0)
  409e80:	3c050042 	lui	$a1,0x42
  409e84:	8c660000 	lw	$a2,0($v1)
  409e88:	8c670004 	lw	$a3,4($v1)
  409e8c:	0c103cb8 	jal	40f2e0 <fprintf>
  409e90:	24a5a408 	addiu	$a1,$a1,-23544
  409e94:	8e030020 	lw	$v1,32($s0)
  409e98:	3c050042 	lui	$a1,0x42
  409e9c:	8c660008 	lw	$a2,8($v1)
  409ea0:	8c67000c 	lw	$a3,12($v1)
  409ea4:	24a5a43c 	addiu	$a1,$a1,-23492
  409ea8:	0c103cb8 	jal	40f2e0 <fprintf>
  409eac:	02202025 	move	$a0,$s1
  409eb0:	8faf0030 	lw	$t7,48($sp)
  409eb4:	8f99aee8 	lw	$t9,-20760($gp)
  409eb8:	8de40444 	lw	$a0,1092($t7)
  409ebc:	0320f809 	jalr	$t9
  409ec0:	00000000 	nop
  409ec4:	8fbf0024 	lw	$ra,36($sp)
  409ec8:	8fb0001c 	lw	$s0,28($sp)
  409ecc:	8fb10020 	lw	$s1,32($sp)
  409ed0:	27bd0038 	addiu	$sp,$sp,56
  409ed4:	03e00008 	jr	$ra
  409ed8:	00001025 	move	$v0,$zero
  409edc:	27bdffd8 	addiu	$sp,$sp,-40
  409ee0:	afbf001c 	sw	$ra,28($sp)
  409ee4:	afb00018 	sw	$s0,24($sp)
  409ee8:	afa40028 	sw	$a0,40($sp)
  409eec:	afa5002c 	sw	$a1,44($sp)
  409ef0:	afa60030 	sw	$a2,48($sp)
  409ef4:	afa70034 	sw	$a3,52($sp)
  409ef8:	8c900000 	lw	$s0,0($a0)
  409efc:	24040020 	li	$a0,32
  409f00:	8e02043c 	lw	$v0,1084($s0)
  409f04:	00000000 	nop
  409f08:	10400006 	beqz	$v0,409f24 <_usdumpsema+0x1bc>
  409f0c:	00000000 	nop
  409f10:	8e0f0434 	lw	$t7,1076($s0)
  409f14:	00000000 	nop
  409f18:	004f082b 	sltu	$at,$v0,$t7
  409f1c:	14200005 	bnez	$at,409f34 <_usdumpsema+0x1cc>
  409f20:	00000000 	nop
  409f24:	0c103110 	jal	40c440 <_usmalloc>
  409f28:	02002825 	move	$a1,$s0
  409f2c:	1440001c 	bnez	$v0,409fa0 <_usdumpsema+0x238>
  409f30:	00401825 	move	$v1,$v0
  409f34:	8f99aee4 	lw	$t9,-20764($gp)
  409f38:	8e040440 	lw	$a0,1088($s0)
  409f3c:	0320f809 	jalr	$t9
  409f40:	00000000 	nop
  409f44:	8e180438 	lw	$t8,1080($s0)
  409f48:	8e090434 	lw	$t1,1076($s0)
  409f4c:	27080001 	addiu	$t0,$t8,1
  409f50:	15200007 	bnez	$t1,409f70 <_usdumpsema+0x208>
  409f54:	ae080438 	sw	$t0,1080($s0)
  409f58:	8f99aee8 	lw	$t9,-20760($gp)
  409f5c:	8e040440 	lw	$a0,1088($s0)
  409f60:	0320f809 	jalr	$t9
  409f64:	00000000 	nop
  409f68:	1000003b 	b	40a058 <_usdumpsema+0x2f0>
  409f6c:	8fbf001c 	lw	$ra,28($sp)
  409f70:	8e03042c 	lw	$v1,1068($s0)
  409f74:	00000000 	nop
  409f78:	8c620018 	lw	$v0,24($v1)
  409f7c:	00000000 	nop
  409f80:	10400003 	beqz	$v0,409f90 <_usdumpsema+0x228>
  409f84:	00000000 	nop
  409f88:	10000002 	b	409f94 <_usdumpsema+0x22c>
  409f8c:	ac40001c 	sw	$zero,28($v0)
  409f90:	ae000430 	sw	$zero,1072($s0)
  409f94:	8c6a0018 	lw	$t2,24($v1)
  409f98:	10000009 	b	409fc0 <_usdumpsema+0x258>
  409f9c:	ae0a042c 	sw	$t2,1068($s0)
  409fa0:	8f99aee4 	lw	$t9,-20764($gp)
  409fa4:	8e040440 	lw	$a0,1088($s0)
  409fa8:	0320f809 	jalr	$t9
  409fac:	afa30020 	sw	$v1,32($sp)
  409fb0:	8e0b0434 	lw	$t3,1076($s0)
  409fb4:	8fa30020 	lw	$v1,32($sp)
  409fb8:	256c0001 	addiu	$t4,$t3,1
  409fbc:	ae0c0434 	sw	$t4,1076($s0)
  409fc0:	8fad0028 	lw	$t5,40($sp)
  409fc4:	00000000 	nop
  409fc8:	ac6d0000 	sw	$t5,0($v1)
  409fcc:	8fae002c 	lw	$t6,44($sp)
  409fd0:	00000000 	nop
  409fd4:	ac6e0004 	sw	$t6,4($v1)
  409fd8:	8faf0030 	lw	$t7,48($sp)
  409fdc:	00000000 	nop
  409fe0:	ac6f0008 	sw	$t7,8($v1)
  409fe4:	8fb8003c 	lw	$t8,60($sp)
  409fe8:	00000000 	nop
  409fec:	ac78000c 	sw	$t8,12($v1)
  409ff0:	8fa80034 	lw	$t0,52($sp)
  409ff4:	00000000 	nop
  409ff8:	ac680010 	sw	$t0,16($v1)
  409ffc:	8fa90038 	lw	$t1,56($sp)
  40a000:	ac600018 	sw	$zero,24($v1)
  40a004:	ac690014 	sw	$t1,20($v1)
  40a008:	8e0a042c 	lw	$t2,1068($s0)
  40a00c:	00000000 	nop
  40a010:	15400005 	bnez	$t2,40a028 <_usdumpsema+0x2c0>
  40a014:	00000000 	nop
  40a018:	ae03042c 	sw	$v1,1068($s0)
  40a01c:	ae030430 	sw	$v1,1072($s0)
  40a020:	10000008 	b	40a044 <_usdumpsema+0x2dc>
  40a024:	ac60001c 	sw	$zero,28($v1)
  40a028:	8e190430 	lw	$t9,1072($s0)
  40a02c:	00000000 	nop
  40a030:	af230018 	sw	$v1,24($t9)
  40a034:	8e0b0430 	lw	$t3,1072($s0)
  40a038:	00000000 	nop
  40a03c:	ac6b001c 	sw	$t3,28($v1)
  40a040:	ae030430 	sw	$v1,1072($s0)
  40a044:	8f99aee8 	lw	$t9,-20760($gp)
  40a048:	8e040440 	lw	$a0,1088($s0)
  40a04c:	0320f809 	jalr	$t9
  40a050:	00000000 	nop
  40a054:	8fbf001c 	lw	$ra,28($sp)
  40a058:	8fb00018 	lw	$s0,24($sp)
  40a05c:	03e00008 	jr	$ra
  40a060:	27bd0028 	addiu	$sp,$sp,40

0040a064 <_usdumphist>:
  40a064:	27bdffa0 	addiu	$sp,$sp,-96
  40a068:	afbf003c 	sw	$ra,60($sp)
  40a06c:	afb40038 	sw	$s4,56($sp)
  40a070:	afb30034 	sw	$s3,52($sp)
  40a074:	afb20030 	sw	$s2,48($sp)
  40a078:	afb1002c 	sw	$s1,44($sp)
  40a07c:	afb00028 	sw	$s0,40($sp)
  40a080:	8c870000 	lw	$a3,0($a0)
  40a084:	00808825 	move	$s1,$a0
  40a088:	14a00003 	bnez	$a1,40a098 <_usdumphist+0x34>
  40a08c:	00a09825 	move	$s3,$a1
  40a090:	3c130042 	lui	$s3,0x42
  40a094:	2673ddc4 	addiu	$s3,$s3,-8764
  40a098:	24040007 	li	$a0,7
  40a09c:	00e02825 	move	$a1,$a3
  40a0a0:	0c1051cc 	jal	414730 <_usconfig>
  40a0a4:	27a6004c 	addiu	$a2,$sp,76
  40a0a8:	14400053 	bnez	$v0,40a1f8 <_usdumphist+0x194>
  40a0ac:	02602025 	move	$a0,$s3
  40a0b0:	8fae0054 	lw	$t6,84($sp)
  40a0b4:	8fa6004c 	lw	$a2,76($sp)
  40a0b8:	3c050042 	lui	$a1,0x42
  40a0bc:	8fa70050 	lw	$a3,80($sp)
  40a0c0:	24a5a470 	addiu	$a1,$a1,-23440
  40a0c4:	0c103cb8 	jal	40f2e0 <fprintf>
  40a0c8:	afae0010 	sw	$t6,16($sp)
  40a0cc:	3c050042 	lui	$a1,0x42
  40a0d0:	24a5a49c 	addiu	$a1,$a1,-23396
  40a0d4:	0c103cb8 	jal	40f2e0 <fprintf>
  40a0d8:	02602025 	move	$a0,$s3
  40a0dc:	8fb0004c 	lw	$s0,76($sp)
  40a0e0:	00001825 	move	$v1,$zero
  40a0e4:	1200001f 	beqz	$s0,40a164 <_usdumphist+0x100>
  40a0e8:	3c140042 	lui	$s4,0x42
  40a0ec:	3c120042 	lui	$s2,0x42
  40a0f0:	2652d620 	addiu	$s2,$s2,-10720
  40a0f4:	2694a4b0 	addiu	$s4,$s4,-23376
  40a0f8:	12200005 	beqz	$s1,40a110 <_usdumphist+0xac>
  40a0fc:	00000000 	nop
  40a100:	8e0f0000 	lw	$t7,0($s0)
  40a104:	00000000 	nop
  40a108:	162f0012 	bne	$s1,$t7,40a154 <_usdumphist+0xf0>
  40a10c:	00000000 	nop
  40a110:	8e180004 	lw	$t8,4($s0)
  40a114:	8e090008 	lw	$t1,8($s0)
  40a118:	0018c880 	sll	$t9,$t8,0x2
  40a11c:	02594021 	addu	$t0,$s2,$t9
  40a120:	8d060000 	lw	$a2,0($t0)
  40a124:	8e070000 	lw	$a3,0($s0)
  40a128:	afa90010 	sw	$t1,16($sp)
  40a12c:	8e0a0010 	lw	$t2,16($s0)
  40a130:	02602025 	move	$a0,$s3
  40a134:	afaa0014 	sw	$t2,20($sp)
  40a138:	8e0b0014 	lw	$t3,20($s0)
  40a13c:	02802825 	move	$a1,$s4
  40a140:	afab0018 	sw	$t3,24($sp)
  40a144:	8e0c000c 	lw	$t4,12($s0)
  40a148:	0c103cb8 	jal	40f2e0 <fprintf>
  40a14c:	afac001c 	sw	$t4,28($sp)
  40a150:	02001825 	move	$v1,$s0
  40a154:	8e10001c 	lw	$s0,28($s0)
  40a158:	00000000 	nop
  40a15c:	1600ffe6 	bnez	$s0,40a0f8 <_usdumphist+0x94>
  40a160:	00000000 	nop
  40a164:	3c120042 	lui	$s2,0x42
  40a168:	3c050042 	lui	$a1,0x42
  40a16c:	2652d620 	addiu	$s2,$s2,-10720
  40a170:	24a5a4e0 	addiu	$a1,$a1,-23328
  40a174:	02602025 	move	$a0,$s3
  40a178:	0c103cb8 	jal	40f2e0 <fprintf>
  40a17c:	afa30058 	sw	$v1,88($sp)
  40a180:	8fb00058 	lw	$s0,88($sp)
  40a184:	3c140042 	lui	$s4,0x42
  40a188:	1200001b 	beqz	$s0,40a1f8 <_usdumphist+0x194>
  40a18c:	2694a4f4 	addiu	$s4,$s4,-23308
  40a190:	12200005 	beqz	$s1,40a1a8 <_usdumphist+0x144>
  40a194:	00000000 	nop
  40a198:	8e0d0000 	lw	$t5,0($s0)
  40a19c:	00000000 	nop
  40a1a0:	162d0011 	bne	$s1,$t5,40a1e8 <_usdumphist+0x184>
  40a1a4:	00000000 	nop
  40a1a8:	8e0e0004 	lw	$t6,4($s0)
  40a1ac:	8e190008 	lw	$t9,8($s0)
  40a1b0:	000e7880 	sll	$t7,$t6,0x2
  40a1b4:	024fc021 	addu	$t8,$s2,$t7
  40a1b8:	8f060000 	lw	$a2,0($t8)
  40a1bc:	8e070000 	lw	$a3,0($s0)
  40a1c0:	afb90010 	sw	$t9,16($sp)
  40a1c4:	8e080010 	lw	$t0,16($s0)
  40a1c8:	02602025 	move	$a0,$s3
  40a1cc:	afa80014 	sw	$t0,20($sp)
  40a1d0:	8e090014 	lw	$t1,20($s0)
  40a1d4:	02802825 	move	$a1,$s4
  40a1d8:	afa90018 	sw	$t1,24($sp)
  40a1dc:	8e0a000c 	lw	$t2,12($s0)
  40a1e0:	0c103cb8 	jal	40f2e0 <fprintf>
  40a1e4:	afaa001c 	sw	$t2,28($sp)
  40a1e8:	8e100018 	lw	$s0,24($s0)
  40a1ec:	00000000 	nop
  40a1f0:	1600ffe7 	bnez	$s0,40a190 <_usdumphist+0x12c>
  40a1f4:	00000000 	nop
  40a1f8:	8fbf003c 	lw	$ra,60($sp)
  40a1fc:	8fb00028 	lw	$s0,40($sp)
  40a200:	8fb1002c 	lw	$s1,44($sp)
  40a204:	8fb20030 	lw	$s2,48($sp)
  40a208:	8fb30034 	lw	$s3,52($sp)
  40a20c:	8fb40038 	lw	$s4,56($sp)
  40a210:	03e00008 	jr	$ra
  40a214:	27bd0060 	addiu	$sp,$sp,96

0040a218 <_usnewpollsema>:
  40a218:	27bdffd0 	addiu	$sp,$sp,-48
  40a21c:	afbf001c 	sw	$ra,28($sp)
  40a220:	afb00018 	sw	$s0,24($sp)
  40a224:	00808025 	move	$s0,$a0
  40a228:	0c1025eb 	jal	4097ac <_usnewsema>
  40a22c:	afa40024 	sw	$a0,36($sp)
  40a230:	8fa70024 	lw	$a3,36($sp)
  40a234:	14400003 	bnez	$v0,40a244 <_usnewpollsema+0x2c>
  40a238:	00403025 	move	$a2,$v0
  40a23c:	10000026 	b	40a2d8 <_usnewpollsema+0xc0>
  40a240:	00001025 	move	$v0,$zero
  40a244:	94ce0016 	lhu	$t6,22($a2)
  40a248:	acc00018 	sw	$zero,24($a2)
  40a24c:	35cf0008 	ori	$t7,$t6,0x8
  40a250:	a4cf0016 	sh	$t7,22($a2)
  40a254:	8e040424 	lw	$a0,1060($s0)
  40a258:	afa70024 	sw	$a3,36($sp)
  40a25c:	0004c040 	sll	$t8,$a0,0x1
  40a260:	03002025 	move	$a0,$t8
  40a264:	afa6002c 	sw	$a2,44($sp)
  40a268:	0c103110 	jal	40c440 <_usmalloc>
  40a26c:	02002825 	move	$a1,$s0
  40a270:	8fa6002c 	lw	$a2,44($sp)
  40a274:	8fa70024 	lw	$a3,36($sp)
  40a278:	14400008 	bnez	$v0,40a29c <_usnewpollsema+0x84>
  40a27c:	acc20008 	sw	$v0,8($a2)
  40a280:	00c02025 	move	$a0,$a2
  40a284:	0c102629 	jal	4098a4 <_usfreesema>
  40a288:	02002825 	move	$a1,$s0
  40a28c:	0c102025 	jal	408094 <_setoserror>
  40a290:	2404000c 	li	$a0,12
  40a294:	10000010 	b	40a2d8 <_usnewpollsema+0xc0>
  40a298:	00001025 	move	$v0,$zero
  40a29c:	8e190424 	lw	$t9,1060($s0)
  40a2a0:	00001025 	move	$v0,$zero
  40a2a4:	1b20000b 	blez	$t9,40a2d4 <_usnewpollsema+0xbc>
  40a2a8:	00001825 	move	$v1,$zero
  40a2ac:	2404ffff 	li	$a0,-1
  40a2b0:	8cc80008 	lw	$t0,8($a2)
  40a2b4:	24420001 	addiu	$v0,$v0,1
  40a2b8:	01034821 	addu	$t1,$t0,$v1
  40a2bc:	a5240000 	sh	$a0,0($t1)
  40a2c0:	8cea0424 	lw	$t2,1060($a3)
  40a2c4:	24630002 	addiu	$v1,$v1,2
  40a2c8:	004a082a 	slt	$at,$v0,$t2
  40a2cc:	1420fff8 	bnez	$at,40a2b0 <_usnewpollsema+0x98>
  40a2d0:	00000000 	nop
  40a2d4:	00c01025 	move	$v0,$a2
  40a2d8:	8fbf001c 	lw	$ra,28($sp)
  40a2dc:	8fb00018 	lw	$s0,24($sp)
  40a2e0:	03e00008 	jr	$ra
  40a2e4:	27bd0030 	addiu	$sp,$sp,48

0040a2e8 <_usfreepollsema>:
  40a2e8:	27bdffe8 	addiu	$sp,$sp,-24
  40a2ec:	afbf0014 	sw	$ra,20($sp)
  40a2f0:	afa40018 	sw	$a0,24($sp)
  40a2f4:	afa5001c 	sw	$a1,28($sp)
  40a2f8:	8c840008 	lw	$a0,8($a0)
  40a2fc:	0c103119 	jal	40c464 <_usfree>
  40a300:	00000000 	nop
  40a304:	8fa40018 	lw	$a0,24($sp)
  40a308:	8fa5001c 	lw	$a1,28($sp)
  40a30c:	0c102629 	jal	4098a4 <_usfreesema>
  40a310:	00000000 	nop
  40a314:	8fbf0014 	lw	$ra,20($sp)
  40a318:	27bd0018 	addiu	$sp,$sp,24
  40a31c:	03e00008 	jr	$ra
  40a320:	00001025 	move	$v0,$zero

0040a324 <_usopenpollsema>:
  40a324:	27bdff18 	addiu	$sp,$sp,-232
  40a328:	afbf0034 	sw	$ra,52($sp)
  40a32c:	afb40030 	sw	$s4,48($sp)
  40a330:	afb3002c 	sw	$s3,44($sp)
  40a334:	afb20028 	sw	$s2,40($sp)
  40a338:	afb10024 	sw	$s1,36($sp)
  40a33c:	afb00020 	sw	$s0,32($sp)
  40a340:	afa500ec 	sw	$a1,236($sp)
  40a344:	8c940000 	lw	$s4,0($a0)
  40a348:	00809825 	move	$s3,$a0
  40a34c:	0c104f39 	jal	413ce4 <__usfastadd>
  40a350:	02802025 	move	$a0,$s4
  40a354:	2412ffff 	li	$s2,-1
  40a358:	14520003 	bne	$v0,$s2,40a368 <_usopenpollsema+0x44>
  40a35c:	a7a200ce 	sh	$v0,206($sp)
  40a360:	100000b9 	b	40a648 <_usopenpollsema+0x324>
  40a364:	2402ffff 	li	$v0,-1
  40a368:	0c104a0a 	jal	412828 <_usclean_tidmap>
  40a36c:	02802025 	move	$a0,$s4
  40a370:	8e840a64 	lw	$a0,2660($s4)
  40a374:	0c102034 	jal	4080d0 <_uspsema>
  40a378:	00000000 	nop
  40a37c:	04410003 	bgez	$v0,40a38c <_usopenpollsema+0x68>
  40a380:	00000000 	nop
  40a384:	100000b0 	b	40a648 <_usopenpollsema+0x324>
  40a388:	2402ffff 	li	$v0,-1
  40a38c:	8e620018 	lw	$v0,24($s3)
  40a390:	00000000 	nop
  40a394:	10400029 	beqz	$v0,40a43c <_usopenpollsema+0x118>
  40a398:	00000000 	nop
  40a39c:	8e8e0424 	lw	$t6,1060($s4)
  40a3a0:	00008025 	move	$s0,$zero
  40a3a4:	19c00025 	blez	$t6,40a43c <_usopenpollsema+0x118>
  40a3a8:	00102c00 	sll	$a1,$s0,0x10
  40a3ac:	00057c03 	sra	$t7,$a1,0x10
  40a3b0:	01e02825 	move	$a1,$t7
  40a3b4:	0c104990 	jal	412640 <_usget_pid>
  40a3b8:	02802025 	move	$a0,$s4
  40a3bc:	10520018 	beq	$v0,$s2,40a420 <_usopenpollsema+0xfc>
  40a3c0:	00000000 	nop
  40a3c4:	8e780008 	lw	$t8,8($s3)
  40a3c8:	0010c840 	sll	$t9,$s0,0x1
  40a3cc:	03194021 	addu	$t0,$t8,$t9
  40a3d0:	85110000 	lh	$s1,0($t0)
  40a3d4:	00000000 	nop
  40a3d8:	12320011 	beq	$s1,$s2,40a420 <_usopenpollsema+0xfc>
  40a3dc:	02202025 	move	$a0,$s1
  40a3e0:	0c104154 	jal	410550 <_fstat>
  40a3e4:	27a50044 	addiu	$a1,$sp,68
  40a3e8:	1440000d 	bnez	$v0,40a420 <_usopenpollsema+0xfc>
  40a3ec:	00000000 	nop
  40a3f0:	8fa90058 	lw	$t1,88($sp)
  40a3f4:	24012000 	li	$at,8192
  40a3f8:	312af000 	andi	$t2,$t1,0xf000
  40a3fc:	15410008 	bne	$t2,$at,40a420 <_usopenpollsema+0xfc>
  40a400:	00000000 	nop
  40a404:	8fab0068 	lw	$t3,104($sp)
  40a408:	8e6c0018 	lw	$t4,24($s3)
  40a40c:	00000000 	nop
  40a410:	156c0003 	bne	$t3,$t4,40a420 <_usopenpollsema+0xfc>
  40a414:	00000000 	nop
  40a418:	1000007b 	b	40a608 <_usopenpollsema+0x2e4>
  40a41c:	02208025 	move	$s0,$s1
  40a420:	8e8d0424 	lw	$t5,1060($s4)
  40a424:	26100001 	addiu	$s0,$s0,1
  40a428:	020d082a 	slt	$at,$s0,$t5
  40a42c:	1420ffdf 	bnez	$at,40a3ac <_usopenpollsema+0x88>
  40a430:	00102c00 	sll	$a1,$s0,0x10
  40a434:	8e620018 	lw	$v0,24($s3)
  40a438:	00000000 	nop
  40a43c:	1440003b 	bnez	$v0,40a52c <_usopenpollsema+0x208>
  40a440:	3c040042 	lui	$a0,0x42
  40a444:	3c040042 	lui	$a0,0x42
  40a448:	2484a524 	addiu	$a0,$a0,-23260
  40a44c:	0c10411c 	jal	410470 <_open>
  40a450:	24050002 	li	$a1,2
  40a454:	0441000e 	bgez	$v0,40a490 <_usopenpollsema+0x16c>
  40a458:	00408025 	move	$s0,$v0
  40a45c:	0c102020 	jal	408080 <_oserror>
  40a460:	00000000 	nop
  40a464:	8f8e8ab0 	lw	$t6,-30032($gp)
  40a468:	00409025 	move	$s2,$v0
  40a46c:	11c00070 	beqz	$t6,40a630 <_usopenpollsema+0x30c>
  40a470:	24040001 	li	$a0,1
  40a474:	3c0f0020 	lui	$t7,0x20
  40a478:	8de60e00 	lw	$a2,3584($t7)
  40a47c:	3c050042 	lui	$a1,0x42
  40a480:	0c1050fc 	jal	4143f0 <_uprint>
  40a484:	24a5a534 	addiu	$a1,$a1,-23244
  40a488:	1000006a 	b	40a634 <_usopenpollsema+0x310>
  40a48c:	8e840a64 	lw	$a0,2660($s4)
  40a490:	02002025 	move	$a0,$s0
  40a494:	0c104154 	jal	410550 <_fstat>
  40a498:	27a50044 	addiu	$a1,$sp,68
  40a49c:	14400006 	bnez	$v0,40a4b8 <_usopenpollsema+0x194>
  40a4a0:	00000000 	nop
  40a4a4:	8fa500ec 	lw	$a1,236($sp)
  40a4a8:	0c1040e0 	jal	410380 <_fchmod>
  40a4ac:	02002025 	move	$a0,$s0
  40a4b0:	04410010 	bgez	$v0,40a4f4 <_usopenpollsema+0x1d0>
  40a4b4:	00000000 	nop
  40a4b8:	0c102020 	jal	408080 <_oserror>
  40a4bc:	00000000 	nop
  40a4c0:	00409025 	move	$s2,$v0
  40a4c4:	0c101ae0 	jal	406b80 <_close>
  40a4c8:	02002025 	move	$a0,$s0
  40a4cc:	8f988ab0 	lw	$t8,-30032($gp)
  40a4d0:	24040001 	li	$a0,1
  40a4d4:	13000056 	beqz	$t8,40a630 <_usopenpollsema+0x30c>
  40a4d8:	3c050042 	lui	$a1,0x42
  40a4dc:	3c190020 	lui	$t9,0x20
  40a4e0:	8f260e00 	lw	$a2,3584($t9)
  40a4e4:	0c1050fc 	jal	4143f0 <_uprint>
  40a4e8:	24a5a568 	addiu	$a1,$a1,-23192
  40a4ec:	10000051 	b	40a634 <_usopenpollsema+0x310>
  40a4f0:	8e840a64 	lw	$a0,2660($s4)
  40a4f4:	8f88af30 	lw	$t0,-20688($gp)
  40a4f8:	00002025 	move	$a0,$zero
  40a4fc:	11000008 	beqz	$t0,40a520 <_usopenpollsema+0x1fc>
  40a500:	3c050042 	lui	$a1,0x42
  40a504:	8fa90068 	lw	$t1,104($sp)
  40a508:	87a600ce 	lh	$a2,206($sp)
  40a50c:	24a5a5a4 	addiu	$a1,$a1,-23132
  40a510:	02603825 	move	$a3,$s3
  40a514:	afb00014 	sw	$s0,20($sp)
  40a518:	0c1050fc 	jal	4143f0 <_uprint>
  40a51c:	afa90010 	sw	$t1,16($sp)
  40a520:	8faa0068 	lw	$t2,104($sp)
  40a524:	10000034 	b	40a5f8 <_usopenpollsema+0x2d4>
  40a528:	ae6a0018 	sw	$t2,24($s3)
  40a52c:	2484a5ec 	addiu	$a0,$a0,-23060
  40a530:	0c10411c 	jal	410470 <_open>
  40a534:	24050002 	li	$a1,2
  40a538:	04410005 	bgez	$v0,40a550 <_usopenpollsema+0x22c>
  40a53c:	00408825 	move	$s1,$v0
  40a540:	0c102020 	jal	408080 <_oserror>
  40a544:	00000000 	nop
  40a548:	10000039 	b	40a630 <_usopenpollsema+0x30c>
  40a54c:	00409025 	move	$s2,$v0
  40a550:	8e6b0018 	lw	$t3,24($s3)
  40a554:	3c050075 	lui	$a1,0x75
  40a558:	afb30040 	sw	$s3,64($sp)
  40a55c:	34a57302 	ori	$a1,$a1,0x7302
  40a560:	02202025 	move	$a0,$s1
  40a564:	27a6003c 	addiu	$a2,$sp,60
  40a568:	0c1040f8 	jal	4103e0 <_ioctl>
  40a56c:	afab003c 	sw	$t3,60($sp)
  40a570:	04410014 	bgez	$v0,40a5c4 <_usopenpollsema+0x2a0>
  40a574:	00408025 	move	$s0,$v0
  40a578:	0c102020 	jal	408080 <_oserror>
  40a57c:	00000000 	nop
  40a580:	00409025 	move	$s2,$v0
  40a584:	0c101ae0 	jal	406b80 <_close>
  40a588:	02202025 	move	$a0,$s1
  40a58c:	24010016 	li	$at,22
  40a590:	16410003 	bne	$s2,$at,40a5a0 <_usopenpollsema+0x27c>
  40a594:	00000000 	nop
  40a598:	1000ffaa 	b	40a444 <_usopenpollsema+0x120>
  40a59c:	ae600018 	sw	$zero,24($s3)
  40a5a0:	8f8c8ab0 	lw	$t4,-30032($gp)
  40a5a4:	24040001 	li	$a0,1
  40a5a8:	11800021 	beqz	$t4,40a630 <_usopenpollsema+0x30c>
  40a5ac:	3c050042 	lui	$a1,0x42
  40a5b0:	8e660018 	lw	$a2,24($s3)
  40a5b4:	0c1050fc 	jal	4143f0 <_uprint>
  40a5b8:	24a5a5f8 	addiu	$a1,$a1,-23048
  40a5bc:	1000001d 	b	40a634 <_usopenpollsema+0x310>
  40a5c0:	8e840a64 	lw	$a0,2660($s4)
  40a5c4:	8f8daf30 	lw	$t5,-20688($gp)
  40a5c8:	00002025 	move	$a0,$zero
  40a5cc:	11a00008 	beqz	$t5,40a5f0 <_usopenpollsema+0x2cc>
  40a5d0:	3c050042 	lui	$a1,0x42
  40a5d4:	8e6e0018 	lw	$t6,24($s3)
  40a5d8:	87a600ce 	lh	$a2,206($sp)
  40a5dc:	afb00014 	sw	$s0,20($sp)
  40a5e0:	24a5a634 	addiu	$a1,$a1,-22988
  40a5e4:	02603825 	move	$a3,$s3
  40a5e8:	0c1050fc 	jal	4143f0 <_uprint>
  40a5ec:	afae0010 	sw	$t6,16($sp)
  40a5f0:	0c101ae0 	jal	406b80 <_close>
  40a5f4:	02202025 	move	$a0,$s1
  40a5f8:	02002025 	move	$a0,$s0
  40a5fc:	24050002 	li	$a1,2
  40a600:	0c1040ec 	jal	4103b0 <_fcntl>
  40a604:	24060001 	li	$a2,1
  40a608:	8e840a64 	lw	$a0,2660($s4)
  40a60c:	0c10203c 	jal	4080f0 <_usvsema>
  40a610:	00000000 	nop
  40a614:	87b800ce 	lh	$t8,206($sp)
  40a618:	8e6f0008 	lw	$t7,8($s3)
  40a61c:	0018c840 	sll	$t9,$t8,0x1
  40a620:	01f94021 	addu	$t0,$t7,$t9
  40a624:	a5100000 	sh	$s0,0($t0)
  40a628:	10000007 	b	40a648 <_usopenpollsema+0x324>
  40a62c:	02001025 	move	$v0,$s0
  40a630:	8e840a64 	lw	$a0,2660($s4)
  40a634:	0c10203c 	jal	4080f0 <_usvsema>
  40a638:	00000000 	nop
  40a63c:	0c102025 	jal	408094 <_setoserror>
  40a640:	02402025 	move	$a0,$s2
  40a644:	2402ffff 	li	$v0,-1
  40a648:	8fbf0034 	lw	$ra,52($sp)
  40a64c:	8fb00020 	lw	$s0,32($sp)
  40a650:	8fb10024 	lw	$s1,36($sp)
  40a654:	8fb20028 	lw	$s2,40($sp)
  40a658:	8fb3002c 	lw	$s3,44($sp)
  40a65c:	8fb40030 	lw	$s4,48($sp)
  40a660:	03e00008 	jr	$ra
  40a664:	27bd00e8 	addiu	$sp,$sp,232

0040a668 <_usclosepollsema>:
  40a668:	27bdff20 	addiu	$sp,$sp,-224
  40a66c:	afbf002c 	sw	$ra,44($sp)
  40a670:	afb50028 	sw	$s5,40($sp)
  40a674:	afb40024 	sw	$s4,36($sp)
  40a678:	afb30020 	sw	$s3,32($sp)
  40a67c:	afb2001c 	sw	$s2,28($sp)
  40a680:	afb10018 	sw	$s1,24($sp)
  40a684:	afb00014 	sw	$s0,20($sp)
  40a688:	8c950000 	lw	$s5,0($a0)
  40a68c:	00808825 	move	$s1,$a0
  40a690:	00009025 	move	$s2,$zero
  40a694:	0c104999 	jal	412664 <_usgettid>
  40a698:	02a02025 	move	$a0,$s5
  40a69c:	2414ffff 	li	$s4,-1
  40a6a0:	14540005 	bne	$v0,$s4,40a6b8 <_usclosepollsema+0x50>
  40a6a4:	00409825 	move	$s3,$v0
  40a6a8:	0c102025 	jal	408094 <_setoserror>
  40a6ac:	24040016 	li	$a0,22
  40a6b0:	1000007b 	b	40a8a0 <_usclosepollsema+0x238>
  40a6b4:	2402ffff 	li	$v0,-1
  40a6b8:	0c104a0a 	jal	412828 <_usclean_tidmap>
  40a6bc:	02a02025 	move	$a0,$s5
  40a6c0:	8e2e0008 	lw	$t6,8($s1)
  40a6c4:	00138040 	sll	$s0,$s3,0x1
  40a6c8:	01d07821 	addu	$t7,$t6,$s0
  40a6cc:	85e40000 	lh	$a0,0($t7)
  40a6d0:	00000000 	nop
  40a6d4:	1284000b 	beq	$s4,$a0,40a704 <_usclosepollsema+0x9c>
  40a6d8:	00000000 	nop
  40a6dc:	0c101ae0 	jal	406b80 <_close>
  40a6e0:	00000000 	nop
  40a6e4:	10400003 	beqz	$v0,40a6f4 <_usclosepollsema+0x8c>
  40a6e8:	00000000 	nop
  40a6ec:	1000006c 	b	40a8a0 <_usclosepollsema+0x238>
  40a6f0:	2402ffff 	li	$v0,-1
  40a6f4:	8e380008 	lw	$t8,8($s1)
  40a6f8:	24120001 	li	$s2,1
  40a6fc:	0310c821 	addu	$t9,$t8,$s0
  40a700:	a7340000 	sh	$s4,0($t9)
  40a704:	2404000d 	li	$a0,13
  40a708:	0c1015dc 	jal	405770 <_prctl>
  40a70c:	00002825 	move	$a1,$zero
  40a710:	04410003 	bgez	$v0,40a720 <_usclosepollsema+0xb8>
  40a714:	00000000 	nop
  40a718:	10000061 	b	40a8a0 <_usclosepollsema+0x238>
  40a71c:	00001025 	move	$v0,$zero
  40a720:	8ea40a64 	lw	$a0,2660($s5)
  40a724:	0c102034 	jal	4080d0 <_uspsema>
  40a728:	00000000 	nop
  40a72c:	04410003 	bgez	$v0,40a73c <_usclosepollsema+0xd4>
  40a730:	00000000 	nop
  40a734:	1000005a 	b	40a8a0 <_usclosepollsema+0x238>
  40a738:	2402ffff 	li	$v0,-1
  40a73c:	8ea20424 	lw	$v0,1060($s5)
  40a740:	00009825 	move	$s3,$zero
  40a744:	1840004d 	blez	$v0,40a87c <_usclosepollsema+0x214>
  40a748:	00008025 	move	$s0,$zero
  40a74c:	8e280008 	lw	$t0,8($s1)
  40a750:	00132c00 	sll	$a1,$s3,0x10
  40a754:	01104821 	addu	$t1,$t0,$s0
  40a758:	852a0000 	lh	$t2,0($t1)
  40a75c:	00055c03 	sra	$t3,$a1,0x10
  40a760:	128a0042 	beq	$s4,$t2,40a86c <_usclosepollsema+0x204>
  40a764:	02a02025 	move	$a0,$s5
  40a768:	0c104990 	jal	412640 <_usget_pid>
  40a76c:	01602825 	move	$a1,$t3
  40a770:	2404000d 	li	$a0,13
  40a774:	0c1015dc 	jal	405770 <_prctl>
  40a778:	00402825 	move	$a1,$v0
  40a77c:	04400014 	bltz	$v0,40a7d0 <_usclosepollsema+0x168>
  40a780:	304c0002 	andi	$t4,$v0,0x2
  40a784:	15800004 	bnez	$t4,40a798 <_usclosepollsema+0x130>
  40a788:	00000000 	nop
  40a78c:	8ea20424 	lw	$v0,1060($s5)
  40a790:	10000037 	b	40a870 <_usclosepollsema+0x208>
  40a794:	26730001 	addiu	$s3,$s3,1
  40a798:	16400009 	bnez	$s2,40a7c0 <_usclosepollsema+0x158>
  40a79c:	00000000 	nop
  40a7a0:	8e2d0008 	lw	$t5,8($s1)
  40a7a4:	00000000 	nop
  40a7a8:	01b07021 	addu	$t6,$t5,$s0
  40a7ac:	85c40000 	lh	$a0,0($t6)
  40a7b0:	0c101ae0 	jal	406b80 <_close>
  40a7b4:	00000000 	nop
  40a7b8:	14400035 	bnez	$v0,40a890 <_usclosepollsema+0x228>
  40a7bc:	26520001 	addiu	$s2,$s2,1
  40a7c0:	8e2f0008 	lw	$t7,8($s1)
  40a7c4:	00000000 	nop
  40a7c8:	01f0c021 	addu	$t8,$t7,$s0
  40a7cc:	a7140000 	sh	$s4,0($t8)
  40a7d0:	0c102020 	jal	408080 <_oserror>
  40a7d4:	00000000 	nop
  40a7d8:	24010003 	li	$at,3
  40a7dc:	14410021 	bne	$v0,$at,40a864 <_usclosepollsema+0x1fc>
  40a7e0:	00000000 	nop
  40a7e4:	1640001b 	bnez	$s2,40a854 <_usclosepollsema+0x1ec>
  40a7e8:	00000000 	nop
  40a7ec:	8e390008 	lw	$t9,8($s1)
  40a7f0:	27a50040 	addiu	$a1,$sp,64
  40a7f4:	03304021 	addu	$t0,$t9,$s0
  40a7f8:	85040000 	lh	$a0,0($t0)
  40a7fc:	0c104154 	jal	410550 <_fstat>
  40a800:	00000000 	nop
  40a804:	14400013 	bnez	$v0,40a854 <_usclosepollsema+0x1ec>
  40a808:	00000000 	nop
  40a80c:	8fa90054 	lw	$t1,84($sp)
  40a810:	24012000 	li	$at,8192
  40a814:	312af000 	andi	$t2,$t1,0xf000
  40a818:	1541000e 	bne	$t2,$at,40a854 <_usclosepollsema+0x1ec>
  40a81c:	00000000 	nop
  40a820:	8fab0064 	lw	$t3,100($sp)
  40a824:	8e2c0018 	lw	$t4,24($s1)
  40a828:	00000000 	nop
  40a82c:	156c0009 	bne	$t3,$t4,40a854 <_usclosepollsema+0x1ec>
  40a830:	00000000 	nop
  40a834:	8e2d0008 	lw	$t5,8($s1)
  40a838:	00000000 	nop
  40a83c:	01b07021 	addu	$t6,$t5,$s0
  40a840:	85c40000 	lh	$a0,0($t6)
  40a844:	0c101ae0 	jal	406b80 <_close>
  40a848:	00000000 	nop
  40a84c:	14400010 	bnez	$v0,40a890 <_usclosepollsema+0x228>
  40a850:	26520001 	addiu	$s2,$s2,1
  40a854:	8e2f0008 	lw	$t7,8($s1)
  40a858:	00000000 	nop
  40a85c:	01f0c021 	addu	$t8,$t7,$s0
  40a860:	a7140000 	sh	$s4,0($t8)
  40a864:	8ea20424 	lw	$v0,1060($s5)
  40a868:	00000000 	nop
  40a86c:	26730001 	addiu	$s3,$s3,1
  40a870:	0262082a 	slt	$at,$s3,$v0
  40a874:	1420ffb5 	bnez	$at,40a74c <_usclosepollsema+0xe4>
  40a878:	26100002 	addiu	$s0,$s0,2
  40a87c:	8ea40a64 	lw	$a0,2660($s5)
  40a880:	0c10203c 	jal	4080f0 <_usvsema>
  40a884:	00000000 	nop
  40a888:	10000005 	b	40a8a0 <_usclosepollsema+0x238>
  40a88c:	00001025 	move	$v0,$zero
  40a890:	8ea40a64 	lw	$a0,2660($s5)
  40a894:	0c10203c 	jal	4080f0 <_usvsema>
  40a898:	00000000 	nop
  40a89c:	2402ffff 	li	$v0,-1
  40a8a0:	8fbf002c 	lw	$ra,44($sp)
  40a8a4:	8fb00014 	lw	$s0,20($sp)
  40a8a8:	8fb10018 	lw	$s1,24($sp)
  40a8ac:	8fb2001c 	lw	$s2,28($sp)
  40a8b0:	8fb30020 	lw	$s3,32($sp)
  40a8b4:	8fb40024 	lw	$s4,36($sp)
  40a8b8:	8fb50028 	lw	$s5,40($sp)
  40a8bc:	03e00008 	jr	$ra
  40a8c0:	27bd00e0 	addiu	$sp,$sp,224
  40a8c4:	27bdff18 	addiu	$sp,$sp,-232
  40a8c8:	afb60038 	sw	$s6,56($sp)
  40a8cc:	afbf003c 	sw	$ra,60($sp)
  40a8d0:	afb50034 	sw	$s5,52($sp)
  40a8d4:	afb40030 	sw	$s4,48($sp)
  40a8d8:	afb3002c 	sw	$s3,44($sp)
  40a8dc:	afb20028 	sw	$s2,40($sp)
  40a8e0:	afb10024 	sw	$s1,36($sp)
  40a8e4:	afb00020 	sw	$s0,32($sp)
  40a8e8:	afa500ec 	sw	$a1,236($sp)
  40a8ec:	0080b025 	move	$s6,$a0
  40a8f0:	8c920000 	lw	$s2,0($a0)
  40a8f4:	2404000d 	li	$a0,13
  40a8f8:	0c1015dc 	jal	405770 <_prctl>
  40a8fc:	00002825 	move	$a1,$zero
  40a900:	04410003 	bgez	$v0,40a910 <_usclosepollsema+0x2a8>
  40a904:	00000000 	nop
  40a908:	10000055 	b	40aa60 <_usclosepollsema+0x3f8>
  40a90c:	2402ffff 	li	$v0,-1
  40a910:	8e420424 	lw	$v0,1060($s2)
  40a914:	00008025 	move	$s0,$zero
  40a918:	18400050 	blez	$v0,40aa5c <_usclosepollsema+0x3f4>
  40a91c:	00008825 	move	$s1,$zero
  40a920:	2415ffff 	li	$s5,-1
  40a924:	8ece0008 	lw	$t6,8($s6)
  40a928:	00109c00 	sll	$s3,$s0,0x10
  40a92c:	01d17821 	addu	$t7,$t6,$s1
  40a930:	85f40000 	lh	$s4,0($t7)
  40a934:	0013c403 	sra	$t8,$s3,0x10
  40a938:	12950044 	beq	$s4,$s5,40aa4c <_usclosepollsema+0x3e4>
  40a93c:	02402025 	move	$a0,$s2
  40a940:	00182c00 	sll	$a1,$t8,0x10
  40a944:	0005cc03 	sra	$t9,$a1,0x10
  40a948:	03202825 	move	$a1,$t9
  40a94c:	0c104990 	jal	412640 <_usget_pid>
  40a950:	03009825 	move	$s3,$t8
  40a954:	2404000d 	li	$a0,13
  40a958:	0c1015dc 	jal	405770 <_prctl>
  40a95c:	00402825 	move	$a1,$v0
  40a960:	04410004 	bgez	$v0,40a974 <_usclosepollsema+0x30c>
  40a964:	30480002 	andi	$t0,$v0,0x2
  40a968:	8e420424 	lw	$v0,1060($s2)
  40a96c:	10000038 	b	40aa50 <_usclosepollsema+0x3e8>
  40a970:	26100001 	addiu	$s0,$s0,1
  40a974:	15000005 	bnez	$t0,40a98c <_usclosepollsema+0x324>
  40a978:	87aa00ee 	lh	$t2,238($sp)
  40a97c:	8e420424 	lw	$v0,1060($s2)
  40a980:	10000033 	b	40aa50 <_usclosepollsema+0x3e8>
  40a984:	26100001 	addiu	$s0,$s0,1
  40a988:	87aa00ee 	lh	$t2,238($sp)
  40a98c:	8ec90008 	lw	$t1,8($s6)
  40a990:	000a5840 	sll	$t3,$t2,0x1
  40a994:	012b6021 	addu	$t4,$t1,$t3
  40a998:	a5940000 	sh	$s4,0($t4)
  40a99c:	8f8daf30 	lw	$t5,-20688($gp)
  40a9a0:	02802025 	move	$a0,$s4
  40a9a4:	11a0001c 	beqz	$t5,40aa18 <_usclosepollsema+0x3b0>
  40a9a8:	00000000 	nop
  40a9ac:	0c104154 	jal	410550 <_fstat>
  40a9b0:	27a50050 	addiu	$a1,$sp,80
  40a9b4:	1440000a 	bnez	$v0,40a9e0 <_usclosepollsema+0x378>
  40a9b8:	02402025 	move	$a0,$s2
  40a9bc:	8fae0064 	lw	$t6,100($sp)
  40a9c0:	24012000 	li	$at,8192
  40a9c4:	31cff000 	andi	$t7,$t6,0xf000
  40a9c8:	15e10006 	bne	$t7,$at,40a9e4 <_usclosepollsema+0x37c>
  40a9cc:	00132c00 	sll	$a1,$s3,0x10
  40a9d0:	8fb80074 	lw	$t8,116($sp)
  40a9d4:	8ed90018 	lw	$t9,24($s6)
  40a9d8:	00000000 	nop
  40a9dc:	1319000e 	beq	$t8,$t9,40aa18 <_usclosepollsema+0x3b0>
  40a9e0:	00132c00 	sll	$a1,$s3,0x10
  40a9e4:	00054403 	sra	$t0,$a1,0x10
  40a9e8:	0c104990 	jal	412640 <_usget_pid>
  40a9ec:	01002825 	move	$a1,$t0
  40a9f0:	3c0a0020 	lui	$t2,0x20
  40a9f4:	8d460e00 	lw	$a2,3584($t2)
  40a9f8:	3c050042 	lui	$a1,0x42
  40a9fc:	24a5a67c 	addiu	$a1,$a1,-22916
  40aa00:	afb40010 	sw	$s4,16($sp)
  40aa04:	00002025 	move	$a0,$zero
  40aa08:	0c1050fc 	jal	4143f0 <_uprint>
  40aa0c:	00403825 	move	$a3,$v0
  40aa10:	10000013 	b	40aa60 <_usclosepollsema+0x3f8>
  40aa14:	2402ffff 	li	$v0,-1
  40aa18:	8f89af30 	lw	$t1,-20688($gp)
  40aa1c:	00002025 	move	$a0,$zero
  40aa20:	11200006 	beqz	$t1,40aa3c <_usclosepollsema+0x3d4>
  40aa24:	3c050042 	lui	$a1,0x42
  40aa28:	87a600ee 	lh	$a2,238($sp)
  40aa2c:	24a5a6c8 	addiu	$a1,$a1,-22840
  40aa30:	02c03825 	move	$a3,$s6
  40aa34:	0c1050fc 	jal	4143f0 <_uprint>
  40aa38:	afb40010 	sw	$s4,16($sp)
  40aa3c:	00141400 	sll	$v0,$s4,0x10
  40aa40:	00025c03 	sra	$t3,$v0,0x10
  40aa44:	10000006 	b	40aa60 <_usclosepollsema+0x3f8>
  40aa48:	01601025 	move	$v0,$t3
  40aa4c:	26100001 	addiu	$s0,$s0,1
  40aa50:	0202082a 	slt	$at,$s0,$v0
  40aa54:	1420ffb3 	bnez	$at,40a924 <_usclosepollsema+0x2bc>
  40aa58:	26310002 	addiu	$s1,$s1,2
  40aa5c:	2402ffff 	li	$v0,-1
  40aa60:	8fbf003c 	lw	$ra,60($sp)
  40aa64:	8fb00020 	lw	$s0,32($sp)
  40aa68:	8fb10024 	lw	$s1,36($sp)
  40aa6c:	8fb20028 	lw	$s2,40($sp)
  40aa70:	8fb3002c 	lw	$s3,44($sp)
  40aa74:	8fb40030 	lw	$s4,48($sp)
  40aa78:	8fb50034 	lw	$s5,52($sp)
  40aa7c:	8fb60038 	lw	$s6,56($sp)
  40aa80:	03e00008 	jr	$ra
  40aa84:	27bd00e8 	addiu	$sp,$sp,232

0040aa88 <_usblock>:
  40aa88:	27bdffc8 	addiu	$sp,$sp,-56
  40aa8c:	afbf002c 	sw	$ra,44($sp)
  40aa90:	afb00020 	sw	$s0,32($sp)
  40aa94:	00a08025 	move	$s0,$a1
  40aa98:	afb20028 	sw	$s2,40($sp)
  40aa9c:	afb10024 	sw	$s1,36($sp)
  40aaa0:	afa40038 	sw	$a0,56($sp)
  40aaa4:	afa60040 	sw	$a2,64($sp)
  40aaa8:	0c104f39 	jal	413ce4 <__usfastadd>
  40aaac:	afa70044 	sw	$a3,68($sp)
  40aab0:	2403ffff 	li	$v1,-1
  40aab4:	1443000c 	bne	$v0,$v1,40aae8 <_usblock+0x60>
  40aab8:	a7a20032 	sh	$v0,50($sp)
  40aabc:	8f8e8ab0 	lw	$t6,-30032($gp)
  40aac0:	00002025 	move	$a0,$zero
  40aac4:	11c00006 	beqz	$t6,40aae0 <_usblock+0x58>
  40aac8:	3c050042 	lui	$a1,0x42
  40aacc:	3c0f0020 	lui	$t7,0x20
  40aad0:	8de70e00 	lw	$a3,3584($t7)
  40aad4:	8fa60044 	lw	$a2,68($sp)
  40aad8:	0c1050fc 	jal	4143f0 <_uprint>
  40aadc:	24a5a708 	addiu	$a1,$a1,-22776
  40aae0:	10000037 	b	40abc0 <_usblock+0x138>
  40aae4:	2402ffff 	li	$v0,-1
  40aae8:	12000016 	beqz	$s0,40ab44 <_usblock+0xbc>
  40aaec:	8fac0038 	lw	$t4,56($sp)
  40aaf0:	96180016 	lhu	$t8,22($s0)
  40aaf4:	00000000 	nop
  40aaf8:	33190008 	andi	$t9,$t8,0x8
  40aafc:	13200011 	beqz	$t9,40ab44 <_usblock+0xbc>
  40ab00:	8fac0038 	lw	$t4,56($sp)
  40ab04:	8e080008 	lw	$t0,8($s0)
  40ab08:	00024840 	sll	$t1,$v0,0x1
  40ab0c:	01095021 	addu	$t2,$t0,$t1
  40ab10:	85520000 	lh	$s2,0($t2)
  40ab14:	87a50032 	lh	$a1,50($sp)
  40ab18:	16430007 	bne	$s2,$v1,40ab38 <_usblock+0xb0>
  40ab1c:	3c110075 	lui	$s1,0x75
  40ab20:	0c102a31 	jal	40a8c4 <_usclosepollsema+0x25c>
  40ab24:	02002025 	move	$a0,$s0
  40ab28:	00029400 	sll	$s2,$v0,0x10
  40ab2c:	00125c03 	sra	$t3,$s2,0x10
  40ab30:	01609025 	move	$s2,$t3
  40ab34:	3c110075 	lui	$s1,0x75
  40ab38:	10000008 	b	40ab5c <_usblock+0xd4>
  40ab3c:	36317304 	ori	$s1,$s1,0x7304
  40ab40:	8fac0038 	lw	$t4,56($sp)
  40ab44:	000270c0 	sll	$t6,$v0,0x3
  40ab48:	8d8d000c 	lw	$t5,12($t4)
  40ab4c:	3c110075 	lui	$s1,0x75
  40ab50:	01ae7821 	addu	$t7,$t5,$t6
  40ab54:	85f20006 	lh	$s2,6($t7)
  40ab58:	36317303 	ori	$s1,$s1,0x7303
  40ab5c:	24100004 	li	$s0,4
  40ab60:	02402025 	move	$a0,$s2
  40ab64:	0c1040f8 	jal	4103e0 <_ioctl>
  40ab68:	02202825 	move	$a1,$s1
  40ab6c:	10400014 	beqz	$v0,40abc0 <_usblock+0x138>
  40ab70:	00001025 	move	$v0,$zero
  40ab74:	0c102020 	jal	408080 <_oserror>
  40ab78:	00000000 	nop
  40ab7c:	1050fff9 	beq	$v0,$s0,40ab64 <_usblock+0xdc>
  40ab80:	02402025 	move	$a0,$s2
  40ab84:	8f988ab0 	lw	$t8,-30032($gp)
  40ab88:	24040001 	li	$a0,1
  40ab8c:	13000009 	beqz	$t8,40abb4 <_usblock+0x12c>
  40ab90:	3c050042 	lui	$a1,0x42
  40ab94:	3c190020 	lui	$t9,0x20
  40ab98:	87a80032 	lh	$t0,50($sp)
  40ab9c:	8f270e00 	lw	$a3,3584($t9)
  40aba0:	8fa60044 	lw	$a2,68($sp)
  40aba4:	afb20014 	sw	$s2,20($sp)
  40aba8:	24a5a728 	addiu	$a1,$a1,-22744
  40abac:	0c1050fc 	jal	4143f0 <_uprint>
  40abb0:	afa80010 	sw	$t0,16($sp)
  40abb4:	10000002 	b	40abc0 <_usblock+0x138>
  40abb8:	2402ffff 	li	$v0,-1
  40abbc:	00001025 	move	$v0,$zero
  40abc0:	8fbf002c 	lw	$ra,44($sp)
  40abc4:	8fb00020 	lw	$s0,32($sp)
  40abc8:	8fb10024 	lw	$s1,36($sp)
  40abcc:	8fb20028 	lw	$s2,40($sp)
  40abd0:	03e00008 	jr	$ra
  40abd4:	27bd0038 	addiu	$sp,$sp,56

0040abd8 <_usunblock>:
  40abd8:	27bdffd0 	addiu	$sp,$sp,-48
  40abdc:	afbf0024 	sw	$ra,36($sp)
  40abe0:	afb00020 	sw	$s0,32($sp)
  40abe4:	afa40030 	sw	$a0,48($sp)
  40abe8:	afa50034 	sw	$a1,52($sp)
  40abec:	afa60038 	sw	$a2,56($sp)
  40abf0:	0c104f39 	jal	413ce4 <__usfastadd>
  40abf4:	afa7003c 	sw	$a3,60($sp)
  40abf8:	2403ffff 	li	$v1,-1
  40abfc:	8fa40034 	lw	$a0,52($sp)
  40ac00:	1443000c 	bne	$v0,$v1,40ac34 <_usunblock+0x5c>
  40ac04:	a7a2002a 	sh	$v0,42($sp)
  40ac08:	8f8e8ab0 	lw	$t6,-30032($gp)
  40ac0c:	00002025 	move	$a0,$zero
  40ac10:	11c00006 	beqz	$t6,40ac2c <_usunblock+0x54>
  40ac14:	3c050042 	lui	$a1,0x42
  40ac18:	3c0f0020 	lui	$t7,0x20
  40ac1c:	8de70e00 	lw	$a3,3584($t7)
  40ac20:	8fa6003c 	lw	$a2,60($sp)
  40ac24:	0c1050fc 	jal	4143f0 <_uprint>
  40ac28:	24a5a74c 	addiu	$a1,$a1,-22708
  40ac2c:	10000039 	b	40ad14 <_usunblock+0x13c>
  40ac30:	2402ffff 	li	$v0,-1
  40ac34:	10800016 	beqz	$a0,40ac90 <_usunblock+0xb8>
  40ac38:	8fac0030 	lw	$t4,48($sp)
  40ac3c:	94980016 	lhu	$t8,22($a0)
  40ac40:	00000000 	nop
  40ac44:	33190008 	andi	$t9,$t8,0x8
  40ac48:	13200011 	beqz	$t9,40ac90 <_usunblock+0xb8>
  40ac4c:	8fac0030 	lw	$t4,48($sp)
  40ac50:	8c880008 	lw	$t0,8($a0)
  40ac54:	00024840 	sll	$t1,$v0,0x1
  40ac58:	01095021 	addu	$t2,$t0,$t1
  40ac5c:	85500000 	lh	$s0,0($t2)
  40ac60:	87a5002a 	lh	$a1,42($sp)
  40ac64:	16030006 	bne	$s0,$v1,40ac80 <_usunblock+0xa8>
  40ac68:	00000000 	nop
  40ac6c:	0c102a31 	jal	40a8c4 <_usclosepollsema+0x25c>
  40ac70:	00000000 	nop
  40ac74:	00028400 	sll	$s0,$v0,0x10
  40ac78:	00105c03 	sra	$t3,$s0,0x10
  40ac7c:	01608025 	move	$s0,$t3
  40ac80:	3c050075 	lui	$a1,0x75
  40ac84:	10000008 	b	40aca8 <_usunblock+0xd0>
  40ac88:	34a57307 	ori	$a1,$a1,0x7307
  40ac8c:	8fac0030 	lw	$t4,48($sp)
  40ac90:	000270c0 	sll	$t6,$v0,0x3
  40ac94:	8d8d000c 	lw	$t5,12($t4)
  40ac98:	3c050075 	lui	$a1,0x75
  40ac9c:	01ae7821 	addu	$t7,$t5,$t6
  40aca0:	85f00006 	lh	$s0,6($t7)
  40aca4:	34a57306 	ori	$a1,$a1,0x7306
  40aca8:	8fa60038 	lw	$a2,56($sp)
  40acac:	0c1040f8 	jal	4103e0 <_ioctl>
  40acb0:	02002025 	move	$a0,$s0
  40acb4:	10400017 	beqz	$v0,40ad14 <_usunblock+0x13c>
  40acb8:	00001025 	move	$v0,$zero
  40acbc:	0c102020 	jal	408080 <_oserror>
  40acc0:	00000000 	nop
  40acc4:	24010003 	li	$at,3
  40acc8:	14410003 	bne	$v0,$at,40acd8 <_usunblock+0x100>
  40accc:	00000000 	nop
  40acd0:	10000010 	b	40ad14 <_usunblock+0x13c>
  40acd4:	24020001 	li	$v0,1
  40acd8:	8f988ab0 	lw	$t8,-30032($gp)
  40acdc:	24040001 	li	$a0,1
  40ace0:	13000009 	beqz	$t8,40ad08 <_usunblock+0x130>
  40ace4:	3c050042 	lui	$a1,0x42
  40ace8:	3c190020 	lui	$t9,0x20
  40acec:	87a8002a 	lh	$t0,42($sp)
  40acf0:	8f270e00 	lw	$a3,3584($t9)
  40acf4:	8fa6003c 	lw	$a2,60($sp)
  40acf8:	afb00014 	sw	$s0,20($sp)
  40acfc:	24a5a76c 	addiu	$a1,$a1,-22676
  40ad00:	0c1050fc 	jal	4143f0 <_uprint>
  40ad04:	afa80010 	sw	$t0,16($sp)
  40ad08:	10000002 	b	40ad14 <_usunblock+0x13c>
  40ad0c:	2402ffff 	li	$v0,-1
  40ad10:	00001025 	move	$v0,$zero
  40ad14:	8fbf0024 	lw	$ra,36($sp)
  40ad18:	8fb00020 	lw	$s0,32($sp)
  40ad1c:	03e00008 	jr	$ra
  40ad20:	27bd0030 	addiu	$sp,$sp,48
	...

0040ad30 <_seminit>:
  40ad30:	8f8eaee0 	lw	$t6,-20768($gp)
  40ad34:	27bdffc0 	addiu	$sp,$sp,-64
  40ad38:	afbf001c 	sw	$ra,28($sp)
  40ad3c:	afb10018 	sw	$s1,24($sp)
  40ad40:	11c0000c 	beqz	$t6,40ad74 <_seminit+0x44>
  40ad44:	afb00014 	sw	$s0,20($sp)
  40ad48:	8f8faedc 	lw	$t7,-20772($gp)
  40ad4c:	00000000 	nop
  40ad50:	8de40404 	lw	$a0,1028($t7)
  40ad54:	0c104a69 	jal	4129a4 <_usany_tids_left>
  40ad58:	00000000 	nop
  40ad5c:	04410003 	bgez	$v0,40ad6c <_seminit+0x3c>
  40ad60:	00000000 	nop
  40ad64:	1000009e 	b	40afe0 <_seminit+0x2b0>
  40ad68:	2402ffff 	li	$v0,-1
  40ad6c:	1000009c 	b	40afe0 <_seminit+0x2b0>
  40ad70:	00001025 	move	$v0,$zero
  40ad74:	8f98aedc 	lw	$t8,-20772($gp)
  40ad78:	24040001 	li	$a0,1
  40ad7c:	17000007 	bnez	$t8,40ad9c <_seminit+0x6c>
  40ad80:	00000000 	nop
  40ad84:	0c1041bc 	jal	4106f0 <_calloc>
  40ad88:	24050408 	li	$a1,1032
  40ad8c:	14400003 	bnez	$v0,40ad9c <_seminit+0x6c>
  40ad90:	af82aedc 	sw	$v0,-20772($gp)
  40ad94:	10000092 	b	40afe0 <_seminit+0x2b0>
  40ad98:	2402ffff 	li	$v0,-1
  40ad9c:	3c040042 	lui	$a0,0x42
  40ada0:	0c1041e0 	jal	410780 <getenv>
  40ada4:	2484a7d0 	addiu	$a0,$a0,-22576
  40ada8:	10400007 	beqz	$v0,40adc8 <_seminit+0x98>
  40adac:	00002025 	move	$a0,$zero
  40adb0:	8f88aedc 	lw	$t0,-20772($gp)
  40adb4:	3c190042 	lui	$t9,0x42
  40adb8:	2739a7e4 	addiu	$t9,$t9,-22556
  40adbc:	10000007 	b	40addc <_seminit+0xac>
  40adc0:	ad190400 	sw	$t9,1024($t0)
  40adc4:	00002025 	move	$a0,$zero
  40adc8:	0c103e20 	jal	40f880 <_tempnam>
  40adcc:	278588a0 	addiu	$a1,$gp,-30560
  40add0:	8f89aedc 	lw	$t1,-20772($gp)
  40add4:	00000000 	nop
  40add8:	ad220400 	sw	$v0,1024($t1)
  40addc:	24040001 	li	$a0,1
  40ade0:	0c1051cc 	jal	414730 <_usconfig>
  40ade4:	24050008 	li	$a1,8
  40ade8:	00408025 	move	$s0,$v0
  40adec:	24040001 	li	$a0,1
  40adf0:	0c1051cc 	jal	414730 <_usconfig>
  40adf4:	00402825 	move	$a1,$v0
  40adf8:	0c102625 	jal	409894 <_ussemaspace>
  40adfc:	02002025 	move	$a0,$s0
  40ae00:	00022940 	sll	$a1,$v0,0x5
  40ae04:	00a22821 	addu	$a1,$a1,$v0
  40ae08:	00052880 	sll	$a1,$a1,0x2
  40ae0c:	00a22823 	subu	$a1,$a1,$v0
  40ae10:	00052840 	sll	$a1,$a1,0x1
  40ae14:	3401b240 	li	$at,0xb240
  40ae18:	00a12821 	addu	$a1,$a1,$at
  40ae1c:	0c1051cc 	jal	414730 <_usconfig>
  40ae20:	24040002 	li	$a0,2
  40ae24:	00408025 	move	$s0,$v0
  40ae28:	24040010 	li	$a0,16
  40ae2c:	0c1051cc 	jal	414730 <_usconfig>
  40ae30:	24050001 	li	$a1,1
  40ae34:	afa20024 	sw	$v0,36($sp)
  40ae38:	24040014 	li	$a0,20
  40ae3c:	0c1051cc 	jal	414730 <_usconfig>
  40ae40:	00002825 	move	$a1,$zero
  40ae44:	afa20034 	sw	$v0,52($sp)
  40ae48:	24040015 	li	$a0,21
  40ae4c:	0c1051cc 	jal	414730 <_usconfig>
  40ae50:	00002825 	move	$a1,$zero
  40ae54:	8f8aaedc 	lw	$t2,-20772($gp)
  40ae58:	afa20030 	sw	$v0,48($sp)
  40ae5c:	8d440400 	lw	$a0,1024($t2)
  40ae60:	0c104c16 	jal	413058 <_usinit>
  40ae64:	00000000 	nop
  40ae68:	00408825 	move	$s1,$v0
  40ae6c:	24040002 	li	$a0,2
  40ae70:	0c1051cc 	jal	414730 <_usconfig>
  40ae74:	02002825 	move	$a1,$s0
  40ae78:	8fa50024 	lw	$a1,36($sp)
  40ae7c:	0c1051cc 	jal	414730 <_usconfig>
  40ae80:	24040010 	li	$a0,16
  40ae84:	8fa50034 	lw	$a1,52($sp)
  40ae88:	0c1051cc 	jal	414730 <_usconfig>
  40ae8c:	24040014 	li	$a0,20
  40ae90:	8fa50030 	lw	$a1,48($sp)
  40ae94:	0c1051cc 	jal	414730 <_usconfig>
  40ae98:	24040015 	li	$a0,21
  40ae9c:	16200003 	bnez	$s1,40aeac <_seminit+0x17c>
  40aea0:	00000000 	nop
  40aea4:	1000004e 	b	40afe0 <_seminit+0x2b0>
  40aea8:	2402ffff 	li	$v0,-1
  40aeac:	8f99aeec 	lw	$t9,-20756($gp)
  40aeb0:	02202025 	move	$a0,$s1
  40aeb4:	0320f809 	jalr	$t9
  40aeb8:	00000000 	nop
  40aebc:	10400045 	beqz	$v0,40afd4 <_seminit+0x2a4>
  40aec0:	af82aec8 	sw	$v0,-20792($gp)
  40aec4:	8f99aeec 	lw	$t9,-20756($gp)
  40aec8:	02202025 	move	$a0,$s1
  40aecc:	0320f809 	jalr	$t9
  40aed0:	00000000 	nop
  40aed4:	1040003f 	beqz	$v0,40afd4 <_seminit+0x2a4>
  40aed8:	af82aec4 	sw	$v0,-20796($gp)
  40aedc:	8f99aeec 	lw	$t9,-20756($gp)
  40aee0:	02202025 	move	$a0,$s1
  40aee4:	0320f809 	jalr	$t9
  40aee8:	00000000 	nop
  40aeec:	10400039 	beqz	$v0,40afd4 <_seminit+0x2a4>
  40aef0:	af82aec0 	sw	$v0,-20800($gp)
  40aef4:	02202025 	move	$a0,$s1
  40aef8:	0c1025eb 	jal	4097ac <_usnewsema>
  40aefc:	24050001 	li	$a1,1
  40af00:	10400034 	beqz	$v0,40afd4 <_seminit+0x2a4>
  40af04:	af82aecc 	sw	$v0,-20788($gp)
  40af08:	00402025 	move	$a0,$v0
  40af0c:	0c10265d 	jal	409974 <_usctlsema>
  40af10:	24050013 	li	$a1,19
  40af14:	02202025 	move	$a0,$s1
  40af18:	0c1025eb 	jal	4097ac <_usnewsema>
  40af1c:	24050001 	li	$a1,1
  40af20:	1040002c 	beqz	$v0,40afd4 <_seminit+0x2a4>
  40af24:	af82aed8 	sw	$v0,-20776($gp)
  40af28:	00402025 	move	$a0,$v0
  40af2c:	0c10265d 	jal	409974 <_usctlsema>
  40af30:	24050013 	li	$a1,19
  40af34:	02202025 	move	$a0,$s1
  40af38:	0c1025eb 	jal	4097ac <_usnewsema>
  40af3c:	24050001 	li	$a1,1
  40af40:	10400024 	beqz	$v0,40afd4 <_seminit+0x2a4>
  40af44:	af82aed4 	sw	$v0,-20780($gp)
  40af48:	02202025 	move	$a0,$s1
  40af4c:	0c1025eb 	jal	4097ac <_usnewsema>
  40af50:	24050001 	li	$a1,1
  40af54:	1040001f 	beqz	$v0,40afd4 <_seminit+0x2a4>
  40af58:	af82aed0 	sw	$v0,-20784($gp)
  40af5c:	00402025 	move	$a0,$v0
  40af60:	0c10265d 	jal	409974 <_usctlsema>
  40af64:	24050013 	li	$a1,19
  40af68:	00008025 	move	$s0,$zero
  40af6c:	02202025 	move	$a0,$s1
  40af70:	0c1025eb 	jal	4097ac <_usnewsema>
  40af74:	24050001 	li	$a1,1
  40af78:	8f8baedc 	lw	$t3,-20772($gp)
  40af7c:	00402025 	move	$a0,$v0
  40af80:	01701821 	addu	$v1,$t3,$s0
  40af84:	10400013 	beqz	$v0,40afd4 <_seminit+0x2a4>
  40af88:	ac620000 	sw	$v0,0($v1)
  40af8c:	0c10265d 	jal	409974 <_usctlsema>
  40af90:	24050013 	li	$a1,19
  40af94:	26100004 	addiu	$s0,$s0,4
  40af98:	24010400 	li	$at,1024
  40af9c:	1601fff4 	bne	$s0,$at,40af70 <_seminit+0x240>
  40afa0:	02202025 	move	$a0,$s1
  40afa4:	8f8caedc 	lw	$t4,-20772($gp)
  40afa8:	240d0001 	li	$t5,1
  40afac:	ad910404 	sw	$s1,1028($t4)
  40afb0:	8f8e88b0 	lw	$t6,-30544($gp)
  40afb4:	8f8f88b8 	lw	$t7,-30536($gp)
  40afb8:	8f9888c0 	lw	$t8,-30528($gp)
  40afbc:	af8daee0 	sw	$t5,-20768($gp)
  40afc0:	00001025 	move	$v0,$zero
  40afc4:	af8e88b4 	sw	$t6,-30540($gp)
  40afc8:	af8f88bc 	sw	$t7,-30532($gp)
  40afcc:	10000004 	b	40afe0 <_seminit+0x2b0>
  40afd0:	af9888c4 	sw	$t8,-30524($gp)
  40afd4:	0c105133 	jal	4144cc <__usdetach>
  40afd8:	02202025 	move	$a0,$s1
  40afdc:	2402ffff 	li	$v0,-1
  40afe0:	8fbf001c 	lw	$ra,28($sp)
  40afe4:	8fb00014 	lw	$s0,20($sp)
  40afe8:	8fb10018 	lw	$s1,24($sp)
  40afec:	03e00008 	jr	$ra
  40aff0:	27bd0040 	addiu	$sp,$sp,64

0040aff4 <_semadd>:
  40aff4:	27bdfed8 	addiu	$sp,$sp,-296
  40aff8:	8f8eaedc 	lw	$t6,-20772($gp)
  40affc:	afbf001c 	sw	$ra,28($sp)
  40b000:	afb00018 	sw	$s0,24($sp)
  40b004:	8dc40404 	lw	$a0,1028($t6)
  40b008:	0c104f02 	jal	413c08 <_usadd>
  40b00c:	00000000 	nop
  40b010:	10400024 	beqz	$v0,40b0a4 <_semadd+0xb0>
  40b014:	8fbf001c 	lw	$ra,28($sp)
  40b018:	0c102020 	jal	408080 <_oserror>
  40b01c:	00000000 	nop
  40b020:	0c104024 	jal	410090 <strerror>
  40b024:	00402025 	move	$a0,$v0
  40b028:	3c0f0020 	lui	$t7,0x20
  40b02c:	8de60e00 	lw	$a2,3584($t7)
  40b030:	27b00028 	addiu	$s0,$sp,40
  40b034:	3c050042 	lui	$a1,0x42
  40b038:	24a5a7f0 	addiu	$a1,$a1,-22544
  40b03c:	02002025 	move	$a0,$s0
  40b040:	0c103cf4 	jal	40f3d0 <sprintf>
  40b044:	00403825 	move	$a3,$v0
  40b048:	0c101ad0 	jal	406b40 <strlen>
  40b04c:	02002025 	move	$a0,$s0
  40b050:	24040002 	li	$a0,2
  40b054:	02002825 	move	$a1,$s0
  40b058:	0c101af8 	jal	406be0 <_write>
  40b05c:	00403025 	move	$a2,$v0
  40b060:	0c102020 	jal	408080 <_oserror>
  40b064:	00000000 	nop
  40b068:	2401001c 	li	$at,28
  40b06c:	1441000a 	bne	$v0,$at,40b098 <_semadd+0xa4>
  40b070:	02002025 	move	$a0,$s0
  40b074:	3c050042 	lui	$a1,0x42
  40b078:	0c103cf4 	jal	40f3d0 <sprintf>
  40b07c:	24a5a820 	addiu	$a1,$a1,-22496
  40b080:	0c101ad0 	jal	406b40 <strlen>
  40b084:	02002025 	move	$a0,$s0
  40b088:	24040002 	li	$a0,2
  40b08c:	02002825 	move	$a1,$s0
  40b090:	0c101af8 	jal	406be0 <_write>
  40b094:	00403025 	move	$a2,$v0
  40b098:	0c1015d0 	jal	405740 <__exit>
  40b09c:	2404ffff 	li	$a0,-1
  40b0a0:	8fbf001c 	lw	$ra,28($sp)
  40b0a4:	8fb00018 	lw	$s0,24($sp)
  40b0a8:	03e00008 	jr	$ra
  40b0ac:	27bd0128 	addiu	$sp,$sp,296

0040b0b0 <_flockfile>:
  40b0b0:	8f82aedc 	lw	$v0,-20772($gp)
  40b0b4:	27bdffe8 	addiu	$sp,$sp,-24
  40b0b8:	1040000b 	beqz	$v0,40b0e8 <_flockfile+0x38>
  40b0bc:	afbf0014 	sw	$ra,20($sp)
  40b0c0:	908e000d 	lbu	$t6,13($a0)
  40b0c4:	00000000 	nop
  40b0c8:	000e7880 	sll	$t7,$t6,0x2
  40b0cc:	004fc021 	addu	$t8,$v0,$t7
  40b0d0:	8f040000 	lw	$a0,0($t8)
  40b0d4:	00000000 	nop
  40b0d8:	10800004 	beqz	$a0,40b0ec <_flockfile+0x3c>
  40b0dc:	8fbf0014 	lw	$ra,20($sp)
  40b0e0:	0c102034 	jal	4080d0 <_uspsema>
  40b0e4:	00000000 	nop
  40b0e8:	8fbf0014 	lw	$ra,20($sp)
  40b0ec:	27bd0018 	addiu	$sp,$sp,24
  40b0f0:	03e00008 	jr	$ra
  40b0f4:	00000000 	nop

0040b0f8 <_ftrylockfile>:
  40b0f8:	8f82aedc 	lw	$v0,-20772($gp)
  40b0fc:	27bdffe0 	addiu	$sp,$sp,-32
  40b100:	afbf0014 	sw	$ra,20($sp)
  40b104:	1040000f 	beqz	$v0,40b144 <_ftrylockfile+0x4c>
  40b108:	00001825 	move	$v1,$zero
  40b10c:	908e000d 	lbu	$t6,13($a0)
  40b110:	00000000 	nop
  40b114:	000e7880 	sll	$t7,$t6,0x2
  40b118:	004fc021 	addu	$t8,$v0,$t7
  40b11c:	8f040000 	lw	$a0,0($t8)
  40b120:	00000000 	nop
  40b124:	10800008 	beqz	$a0,40b148 <_ftrylockfile+0x50>
  40b128:	8fbf0014 	lw	$ra,20($sp)
  40b12c:	0c102038 	jal	4080e0 <_uscpsema>
  40b130:	afa00018 	sw	$zero,24($sp)
  40b134:	8fa30018 	lw	$v1,24($sp)
  40b138:	14400003 	bnez	$v0,40b148 <_ftrylockfile+0x50>
  40b13c:	8fbf0014 	lw	$ra,20($sp)
  40b140:	24030001 	li	$v1,1
  40b144:	8fbf0014 	lw	$ra,20($sp)
  40b148:	27bd0020 	addiu	$sp,$sp,32
  40b14c:	03e00008 	jr	$ra
  40b150:	00601025 	move	$v0,$v1

0040b154 <_funlockfile>:
  40b154:	8f82aedc 	lw	$v0,-20772($gp)
  40b158:	27bdffe8 	addiu	$sp,$sp,-24
  40b15c:	1040000b 	beqz	$v0,40b18c <_funlockfile+0x38>
  40b160:	afbf0014 	sw	$ra,20($sp)
  40b164:	908e000d 	lbu	$t6,13($a0)
  40b168:	00000000 	nop
  40b16c:	000e7880 	sll	$t7,$t6,0x2
  40b170:	004fc021 	addu	$t8,$v0,$t7
  40b174:	8f040000 	lw	$a0,0($t8)
  40b178:	00000000 	nop
  40b17c:	10800004 	beqz	$a0,40b190 <_funlockfile+0x3c>
  40b180:	8fbf0014 	lw	$ra,20($sp)
  40b184:	0c10203c 	jal	4080f0 <_usvsema>
  40b188:	00000000 	nop
  40b18c:	8fbf0014 	lw	$ra,20($sp)
  40b190:	27bd0018 	addiu	$sp,$sp,24
  40b194:	03e00008 	jr	$ra
  40b198:	00000000 	nop

0040b19c <__fislockfile>:
  40b19c:	8f82aedc 	lw	$v0,-20772($gp)
  40b1a0:	27bdffe0 	addiu	$sp,$sp,-32
  40b1a4:	10400016 	beqz	$v0,40b200 <__fislockfile+0x64>
  40b1a8:	afbf0014 	sw	$ra,20($sp)
  40b1ac:	908e000d 	lbu	$t6,13($a0)
  40b1b0:	00000000 	nop
  40b1b4:	000e7880 	sll	$t7,$t6,0x2
  40b1b8:	004fc021 	addu	$t8,$v0,$t7
  40b1bc:	8f040000 	lw	$a0,0($t8)
  40b1c0:	00000000 	nop
  40b1c4:	1080000f 	beqz	$a0,40b204 <__fislockfile+0x68>
  40b1c8:	24020001 	li	$v0,1
  40b1cc:	0c1025a0 	jal	409680 <_ustestsema>
  40b1d0:	afa4001c 	sw	$a0,28($sp)
  40b1d4:	8fa4001c 	lw	$a0,28($sp)
  40b1d8:	28590001 	slti	$t9,$v0,1
  40b1dc:	13200009 	beqz	$t9,40b204 <__fislockfile+0x68>
  40b1e0:	03201025 	move	$v0,$t9
  40b1e4:	3c080020 	lui	$t0,0x20
  40b1e8:	8d090e00 	lw	$t1,3584($t0)
  40b1ec:	8c8a0004 	lw	$t2,4($a0)
  40b1f0:	00000000 	nop
  40b1f4:	012a1026 	xor	$v0,$t1,$t2
  40b1f8:	10000002 	b	40b204 <__fislockfile+0x68>
  40b1fc:	2c420001 	sltiu	$v0,$v0,1
  40b200:	24020001 	li	$v0,1
  40b204:	8fbf0014 	lw	$ra,20($sp)
  40b208:	27bd0020 	addiu	$sp,$sp,32
  40b20c:	03e00008 	jr	$ra
	...
  40b220:	24020030 	li	$v0,48
  40b224:	28a10064 	slti	$at,$a1,100
  40b228:	14200007 	bnez	$at,40b248 <__fislockfile+0xac>
  40b22c:	a082000d 	sb	$v0,13($a0)
  40b230:	908e000d 	lbu	$t6,13($a0)
  40b234:	24a5ff9c 	addiu	$a1,$a1,-100
  40b238:	28a10064 	slti	$at,$a1,100
  40b23c:	25cf0001 	addiu	$t7,$t6,1
  40b240:	1020fffb 	beqz	$at,40b230 <__fislockfile+0x94>
  40b244:	a08f000d 	sb	$t7,13($a0)
  40b248:	28a1000a 	slti	$at,$a1,10
  40b24c:	14200007 	bnez	$at,40b26c <__fislockfile+0xd0>
  40b250:	a082000e 	sb	$v0,14($a0)
  40b254:	9098000e 	lbu	$t8,14($a0)
  40b258:	24a5fff6 	addiu	$a1,$a1,-10
  40b25c:	28a1000a 	slti	$at,$a1,10
  40b260:	27190001 	addiu	$t9,$t8,1
  40b264:	1020fffb 	beqz	$at,40b254 <__fislockfile+0xb8>
  40b268:	a099000e 	sb	$t9,14($a0)
  40b26c:	24a80030 	addiu	$t0,$a1,48
  40b270:	03e00008 	jr	$ra
  40b274:	a088000f 	sb	$t0,15($a0)

0040b278 <_ushardlock_create>:
  40b278:	27bdffa8 	addiu	$sp,$sp,-88
  40b27c:	afb00020 	sw	$s0,32($sp)
  40b280:	afa5005c 	sw	$a1,92($sp)
  40b284:	afa60060 	sw	$a2,96($sp)
  40b288:	afbf0024 	sw	$ra,36($sp)
  40b28c:	afa70064 	sw	$a3,100($sp)
  40b290:	3c0f0042 	lui	$t7,0x42
  40b294:	25efa850 	addiu	$t7,$t7,-22448
  40b298:	8de10000 	lw	$at,0($t7)
  40b29c:	27ae0044 	addiu	$t6,$sp,68
  40b2a0:	adc10000 	sw	$at,0($t6)
  40b2a4:	8de10008 	lw	$at,8($t7)
  40b2a8:	8de80004 	lw	$t0,4($t7)
  40b2ac:	adc10008 	sw	$at,8($t6)
  40b2b0:	adc80004 	sw	$t0,4($t6)
  40b2b4:	8de8000c 	lw	$t0,12($t7)
  40b2b8:	91e10010 	lbu	$at,16($t7)
  40b2bc:	00808025 	move	$s0,$a0
  40b2c0:	00a03025 	move	$a2,$a1
  40b2c4:	00a02025 	move	$a0,$a1
  40b2c8:	3c05686c 	lui	$a1,0x686c
  40b2cc:	adc8000c 	sw	$t0,12($t6)
  40b2d0:	a1c10010 	sb	$at,16($t6)
  40b2d4:	afa00034 	sw	$zero,52($sp)
  40b2d8:	afa6005c 	sw	$a2,92($sp)
  40b2dc:	0c1040f8 	jal	4103e0 <_ioctl>
  40b2e0:	34a56167 	ori	$a1,$a1,0x6167
  40b2e4:	1c400009 	bgtz	$v0,40b30c <_ushardlock_create+0x94>
  40b2e8:	00403825 	move	$a3,$v0
  40b2ec:	8f898ab0 	lw	$t1,-30032($gp)
  40b2f0:	24040001 	li	$a0,1
  40b2f4:	11200003 	beqz	$t1,40b304 <_ushardlock_create+0x8c>
  40b2f8:	3c050042 	lui	$a1,0x42
  40b2fc:	0c1050fc 	jal	4143f0 <_uprint>
  40b300:	24a5a864 	addiu	$a1,$a1,-22428
  40b304:	10000089 	b	40b52c <_ushardlock_create+0x2b4>
  40b308:	00001025 	move	$v0,$zero
  40b30c:	8f8aaf30 	lw	$t2,-20688($gp)
  40b310:	00002025 	move	$a0,$zero
  40b314:	11400008 	beqz	$t2,40b338 <_ushardlock_create+0xc0>
  40b318:	3c050042 	lui	$a1,0x42
  40b31c:	3c0b0020 	lui	$t3,0x20
  40b320:	8d660e00 	lw	$a2,3584($t3)
  40b324:	afa70040 	sw	$a3,64($sp)
  40b328:	0c1050fc 	jal	4143f0 <_uprint>
  40b32c:	24a5a880 	addiu	$a1,$a1,-22400
  40b330:	8fa70040 	lw	$a3,64($sp)
  40b334:	00000000 	nop
  40b338:	27a40044 	addiu	$a0,$sp,68
  40b33c:	0c102c88 	jal	40b220 <__fislockfile+0x84>
  40b340:	00e02825 	move	$a1,$a3
  40b344:	26040454 	addiu	$a0,$s0,1108
  40b348:	0c101aa4 	jal	406a90 <strcpy>
  40b34c:	27a50044 	addiu	$a1,$sp,68
  40b350:	8fa4005c 	lw	$a0,92($sp)
  40b354:	3c05686c 	lui	$a1,0x686c
  40b358:	34a57372 	ori	$a1,$a1,0x7372
  40b35c:	0c1040f8 	jal	4103e0 <_ioctl>
  40b360:	00003025 	move	$a2,$zero
  40b364:	1c400009 	bgtz	$v0,40b38c <_ushardlock_create+0x114>
  40b368:	00402825 	move	$a1,$v0
  40b36c:	8f8c8ab0 	lw	$t4,-30032($gp)
  40b370:	24040001 	li	$a0,1
  40b374:	11800003 	beqz	$t4,40b384 <_ushardlock_create+0x10c>
  40b378:	3c050042 	lui	$a1,0x42
  40b37c:	0c1050fc 	jal	4143f0 <_uprint>
  40b380:	24a5a8b0 	addiu	$a1,$a1,-22352
  40b384:	10000069 	b	40b52c <_ushardlock_create+0x2b4>
  40b388:	00001025 	move	$v0,$zero
  40b38c:	8fa40060 	lw	$a0,96($sp)
  40b390:	24060003 	li	$a2,3
  40b394:	1080000a 	beqz	$a0,40b3c0 <_ushardlock_create+0x148>
  40b398:	24070001 	li	$a3,1
  40b39c:	8fb90064 	lw	$t9,100($sp)
  40b3a0:	3c01003f 	lui	$at,0x3f
  40b3a4:	3421ffff 	ori	$at,$at,0xffff
  40b3a8:	00992021 	addu	$a0,$a0,$t9
  40b3ac:	00812021 	addu	$a0,$a0,$at
  40b3b0:	240d0001 	li	$t5,1
  40b3b4:	00047d82 	srl	$t7,$a0,0x16
  40b3b8:	afad0034 	sw	$t5,52($sp)
  40b3bc:	000f2580 	sll	$a0,$t7,0x16
  40b3c0:	8fa9005c 	lw	$t1,92($sp)
  40b3c4:	afa00014 	sw	$zero,20($sp)
  40b3c8:	afa40060 	sw	$a0,96($sp)
  40b3cc:	afa5003c 	sw	$a1,60($sp)
  40b3d0:	0c104104 	jal	410410 <_mmap>
  40b3d4:	afa90010 	sw	$t1,16($sp)
  40b3d8:	2401ffff 	li	$at,-1
  40b3dc:	1441000a 	bne	$v0,$at,40b408 <_ushardlock_create+0x190>
  40b3e0:	ae020854 	sw	$v0,2132($s0)
  40b3e4:	8f8a8ab0 	lw	$t2,-30032($gp)
  40b3e8:	24040001 	li	$a0,1
  40b3ec:	11400004 	beqz	$t2,40b400 <_ushardlock_create+0x188>
  40b3f0:	3c050042 	lui	$a1,0x42
  40b3f4:	8fa60060 	lw	$a2,96($sp)
  40b3f8:	0c1050fc 	jal	4143f0 <_uprint>
  40b3fc:	24a5a8cc 	addiu	$a1,$a1,-22324
  40b400:	1000004a 	b	40b52c <_ushardlock_create+0x2b4>
  40b404:	00001025 	move	$v0,$zero
  40b408:	8fab0034 	lw	$t3,52($sp)
  40b40c:	8fac0060 	lw	$t4,96($sp)
  40b410:	11600014 	beqz	$t3,40b464 <_ushardlock_create+0x1ec>
  40b414:	00000000 	nop
  40b418:	8e040854 	lw	$a0,2132($s0)
  40b41c:	8fa5003c 	lw	$a1,60($sp)
  40b420:	11840010 	beq	$t4,$a0,40b464 <_ushardlock_create+0x1ec>
  40b424:	00000000 	nop
  40b428:	0c104110 	jal	410440 <_munmap>
  40b42c:	00000000 	nop
  40b430:	8f8d8ab0 	lw	$t5,-30032($gp)
  40b434:	00002025 	move	$a0,$zero
  40b438:	11a00006 	beqz	$t5,40b454 <_ushardlock_create+0x1dc>
  40b43c:	3c050042 	lui	$a1,0x42
  40b440:	3c190020 	lui	$t9,0x20
  40b444:	8f270e00 	lw	$a3,3584($t9)
  40b448:	8fa60060 	lw	$a2,96($sp)
  40b44c:	0c1050fc 	jal	4143f0 <_uprint>
  40b450:	24a5a8f8 	addiu	$a1,$a1,-22280
  40b454:	0c102025 	jal	408094 <_setoserror>
  40b458:	24040010 	li	$a0,16
  40b45c:	10000033 	b	40b52c <_ushardlock_create+0x2b4>
  40b460:	00001025 	move	$v0,$zero
  40b464:	8f98af30 	lw	$t8,-20688($gp)
  40b468:	00002025 	move	$a0,$zero
  40b46c:	13000006 	beqz	$t8,40b488 <_ushardlock_create+0x210>
  40b470:	3c050042 	lui	$a1,0x42
  40b474:	3c0e0020 	lui	$t6,0x20
  40b478:	8dc60e00 	lw	$a2,3584($t6)
  40b47c:	8e070854 	lw	$a3,2132($s0)
  40b480:	0c1050fc 	jal	4143f0 <_uprint>
  40b484:	24a5a954 	addiu	$a1,$a1,-22188
  40b488:	8fa4005c 	lw	$a0,92($sp)
  40b48c:	3c05686c 	lui	$a1,0x686c
  40b490:	34a5616c 	ori	$a1,$a1,0x616c
  40b494:	0c1040f8 	jal	4103e0 <_ioctl>
  40b498:	27a60038 	addiu	$a2,$sp,56
  40b49c:	2401ffff 	li	$at,-1
  40b4a0:	1441000f 	bne	$v0,$at,40b4e0 <_ushardlock_create+0x268>
  40b4a4:	26040858 	addiu	$a0,$s0,2136
  40b4a8:	8f8f8ab0 	lw	$t7,-30032($gp)
  40b4ac:	24040001 	li	$a0,1
  40b4b0:	11e00003 	beqz	$t7,40b4c0 <_ushardlock_create+0x248>
  40b4b4:	3c050042 	lui	$a1,0x42
  40b4b8:	0c1050fc 	jal	4143f0 <_uprint>
  40b4bc:	24a5a980 	addiu	$a1,$a1,-22144
  40b4c0:	8e040854 	lw	$a0,2132($s0)
  40b4c4:	8fa5003c 	lw	$a1,60($sp)
  40b4c8:	0c104110 	jal	410440 <_munmap>
  40b4cc:	00000000 	nop
  40b4d0:	2408ffff 	li	$t0,-1
  40b4d4:	ae080854 	sw	$t0,2132($s0)
  40b4d8:	10000014 	b	40b52c <_ushardlock_create+0x2b4>
  40b4dc:	00001025 	move	$v0,$zero
  40b4e0:	8fa90038 	lw	$t1,56($sp)
  40b4e4:	00002825 	move	$a1,$zero
  40b4e8:	ae090450 	sw	$t1,1104($s0)
  40b4ec:	afa4002c 	sw	$a0,44($sp)
  40b4f0:	0c104248 	jal	410920 <_bfclr>
  40b4f4:	24061000 	li	$a2,4096
  40b4f8:	8fa4002c 	lw	$a0,44($sp)
  40b4fc:	0c10421c 	jal	410870 <_bset>
  40b500:	00002825 	move	$a1,$zero
  40b504:	8e0a0854 	lw	$t2,2132($s0)
  40b508:	24050001 	li	$a1,1
  40b50c:	ae0a0a58 	sw	$t2,2648($s0)
  40b510:	8fa4002c 	lw	$a0,44($sp)
  40b514:	0c10421c 	jal	410870 <_bset>
  40b518:	00000000 	nop
  40b51c:	8e0b0854 	lw	$t3,2132($s0)
  40b520:	24020001 	li	$v0,1
  40b524:	256c0004 	addiu	$t4,$t3,4
  40b528:	ae0c0000 	sw	$t4,0($s0)
  40b52c:	8fbf0024 	lw	$ra,36($sp)
  40b530:	8fb00020 	lw	$s0,32($sp)
  40b534:	03e00008 	jr	$ra
  40b538:	27bd0058 	addiu	$sp,$sp,88

0040b53c <_ushardlock_attach>:
  40b53c:	27bdffd0 	addiu	$sp,$sp,-48
  40b540:	8f8eaf30 	lw	$t6,-20688($gp)
  40b544:	afbf001c 	sw	$ra,28($sp)
  40b548:	afa40030 	sw	$a0,48($sp)
  40b54c:	afa50034 	sw	$a1,52($sp)
  40b550:	11c00008 	beqz	$t6,40b574 <_ushardlock_attach+0x38>
  40b554:	afa00024 	sw	$zero,36($sp)
  40b558:	3c0f0020 	lui	$t7,0x20
  40b55c:	8de60e00 	lw	$a2,3584($t7)
  40b560:	3c050042 	lui	$a1,0x42
  40b564:	8fa70030 	lw	$a3,48($sp)
  40b568:	24a5a9a4 	addiu	$a1,$a1,-22108
  40b56c:	0c1050fc 	jal	4143f0 <_uprint>
  40b570:	00002025 	move	$a0,$zero
  40b574:	8fa40030 	lw	$a0,48($sp)
  40b578:	0c10411c 	jal	410470 <_open>
  40b57c:	24050002 	li	$a1,2
  40b580:	0441000a 	bgez	$v0,40b5ac <_ushardlock_attach+0x70>
  40b584:	00402025 	move	$a0,$v0
  40b588:	8f988ab0 	lw	$t8,-30032($gp)
  40b58c:	24040001 	li	$a0,1
  40b590:	13000004 	beqz	$t8,40b5a4 <_ushardlock_attach+0x68>
  40b594:	3c050042 	lui	$a1,0x42
  40b598:	8fa60030 	lw	$a2,48($sp)
  40b59c:	0c1050fc 	jal	4143f0 <_uprint>
  40b5a0:	24a5a9d8 	addiu	$a1,$a1,-22056
  40b5a4:	1000005d 	b	40b71c <_ushardlock_attach+0x1e0>
  40b5a8:	2402ffff 	li	$v0,-1
  40b5ac:	24050002 	li	$a1,2
  40b5b0:	24060001 	li	$a2,1
  40b5b4:	0c1040ec 	jal	4103b0 <_fcntl>
  40b5b8:	afa4002c 	sw	$a0,44($sp)
  40b5bc:	8fa4002c 	lw	$a0,44($sp)
  40b5c0:	3c05686c 	lui	$a1,0x686c
  40b5c4:	34a57372 	ori	$a1,$a1,0x7372
  40b5c8:	0c1040f8 	jal	4103e0 <_ioctl>
  40b5cc:	00003025 	move	$a2,$zero
  40b5d0:	1c40000c 	bgtz	$v0,40b604 <_ushardlock_attach+0xc8>
  40b5d4:	00402825 	move	$a1,$v0
  40b5d8:	8f998ab0 	lw	$t9,-30032($gp)
  40b5dc:	24040001 	li	$a0,1
  40b5e0:	13200003 	beqz	$t9,40b5f0 <_ushardlock_attach+0xb4>
  40b5e4:	3c050042 	lui	$a1,0x42
  40b5e8:	0c1050fc 	jal	4143f0 <_uprint>
  40b5ec:	24a5aa00 	addiu	$a1,$a1,-22016
  40b5f0:	8fa4002c 	lw	$a0,44($sp)
  40b5f4:	0c101ae0 	jal	406b80 <_close>
  40b5f8:	00000000 	nop
  40b5fc:	10000047 	b	40b71c <_ushardlock_attach+0x1e0>
  40b600:	2402ffff 	li	$v0,-1
  40b604:	8fa80034 	lw	$t0,52($sp)
  40b608:	2401ffff 	li	$at,-1
  40b60c:	8d040000 	lw	$a0,0($t0)
  40b610:	24060003 	li	$a2,3
  40b614:	10810005 	beq	$a0,$at,40b62c <_ushardlock_attach+0xf0>
  40b618:	24070001 	li	$a3,1
  40b61c:	24090001 	li	$t1,1
  40b620:	afa90024 	sw	$t1,36($sp)
  40b624:	10000002 	b	40b630 <_ushardlock_attach+0xf4>
  40b628:	afa40020 	sw	$a0,32($sp)
  40b62c:	afa00020 	sw	$zero,32($sp)
  40b630:	8faa002c 	lw	$t2,44($sp)
  40b634:	8fa40020 	lw	$a0,32($sp)
  40b638:	afa00014 	sw	$zero,20($sp)
  40b63c:	afa50028 	sw	$a1,40($sp)
  40b640:	0c104104 	jal	410410 <_mmap>
  40b644:	afaa0010 	sw	$t2,16($sp)
  40b648:	8fab0034 	lw	$t3,52($sp)
  40b64c:	8fa50028 	lw	$a1,40($sp)
  40b650:	2401ffff 	li	$at,-1
  40b654:	1441000c 	bne	$v0,$at,40b688 <_ushardlock_attach+0x14c>
  40b658:	ad620000 	sw	$v0,0($t3)
  40b65c:	8f8c8ab0 	lw	$t4,-30032($gp)
  40b660:	24040001 	li	$a0,1
  40b664:	11800003 	beqz	$t4,40b674 <_ushardlock_attach+0x138>
  40b668:	3c050042 	lui	$a1,0x42
  40b66c:	0c1050fc 	jal	4143f0 <_uprint>
  40b670:	24a5aa1c 	addiu	$a1,$a1,-21988
  40b674:	8fa4002c 	lw	$a0,44($sp)
  40b678:	0c101ae0 	jal	406b80 <_close>
  40b67c:	00000000 	nop
  40b680:	10000026 	b	40b71c <_ushardlock_attach+0x1e0>
  40b684:	2402ffff 	li	$v0,-1
  40b688:	8fad0024 	lw	$t5,36($sp)
  40b68c:	8fae0034 	lw	$t6,52($sp)
  40b690:	11a00016 	beqz	$t5,40b6ec <_ushardlock_attach+0x1b0>
  40b694:	00000000 	nop
  40b698:	8dc40000 	lw	$a0,0($t6)
  40b69c:	8faf0020 	lw	$t7,32($sp)
  40b6a0:	00000000 	nop
  40b6a4:	11e40011 	beq	$t7,$a0,40b6ec <_ushardlock_attach+0x1b0>
  40b6a8:	00000000 	nop
  40b6ac:	0c104110 	jal	410440 <_munmap>
  40b6b0:	00000000 	nop
  40b6b4:	8f988ab0 	lw	$t8,-30032($gp)
  40b6b8:	00002025 	move	$a0,$zero
  40b6bc:	13000004 	beqz	$t8,40b6d0 <_ushardlock_attach+0x194>
  40b6c0:	3c050042 	lui	$a1,0x42
  40b6c4:	8fa60020 	lw	$a2,32($sp)
  40b6c8:	0c1050fc 	jal	4143f0 <_uprint>
  40b6cc:	24a5aa40 	addiu	$a1,$a1,-21952
  40b6d0:	8fa4002c 	lw	$a0,44($sp)
  40b6d4:	0c101ae0 	jal	406b80 <_close>
  40b6d8:	00000000 	nop
  40b6dc:	0c102025 	jal	408094 <_setoserror>
  40b6e0:	24040010 	li	$a0,16
  40b6e4:	1000000d 	b	40b71c <_ushardlock_attach+0x1e0>
  40b6e8:	2402ffff 	li	$v0,-1
  40b6ec:	8f99af30 	lw	$t9,-20688($gp)
  40b6f0:	00002025 	move	$a0,$zero
  40b6f4:	13200007 	beqz	$t9,40b714 <_ushardlock_attach+0x1d8>
  40b6f8:	3c050042 	lui	$a1,0x42
  40b6fc:	8fa90034 	lw	$t1,52($sp)
  40b700:	3c080020 	lui	$t0,0x20
  40b704:	8d060e00 	lw	$a2,3584($t0)
  40b708:	8d270000 	lw	$a3,0($t1)
  40b70c:	0c1050fc 	jal	4143f0 <_uprint>
  40b710:	24a5aa84 	addiu	$a1,$a1,-21884
  40b714:	8fa2002c 	lw	$v0,44($sp)
  40b718:	00000000 	nop
  40b71c:	8fbf001c 	lw	$ra,28($sp)
  40b720:	27bd0030 	addiu	$sp,$sp,48
  40b724:	03e00008 	jr	$ra
  40b728:	00000000 	nop

0040b72c <_ushardlock_detach>:
  40b72c:	27bdffd8 	addiu	$sp,$sp,-40
  40b730:	8f8faf30 	lw	$t7,-20688($gp)
  40b734:	240e0001 	li	$t6,1
  40b738:	afbf0014 	sw	$ra,20($sp)
  40b73c:	afa40028 	sw	$a0,40($sp)
  40b740:	afa5002c 	sw	$a1,44($sp)
  40b744:	afa60030 	sw	$a2,48($sp)
  40b748:	11e00008 	beqz	$t7,40b76c <_ushardlock_detach+0x40>
  40b74c:	afae001c 	sw	$t6,28($sp)
  40b750:	3c180020 	lui	$t8,0x20
  40b754:	8f060e00 	lw	$a2,3584($t8)
  40b758:	3c050042 	lui	$a1,0x42
  40b75c:	8fa70028 	lw	$a3,40($sp)
  40b760:	24a5aab0 	addiu	$a1,$a1,-21840
  40b764:	0c1050fc 	jal	4143f0 <_uprint>
  40b768:	00002025 	move	$a0,$zero
  40b76c:	8fb90030 	lw	$t9,48($sp)
  40b770:	8fa90030 	lw	$t1,48($sp)
  40b774:	0721000e 	bgez	$t9,40b7b0 <_ushardlock_detach+0x84>
  40b778:	00000000 	nop
  40b77c:	8fa40028 	lw	$a0,40($sp)
  40b780:	0c10411c 	jal	410470 <_open>
  40b784:	24050002 	li	$a1,2
  40b788:	0441000a 	bgez	$v0,40b7b4 <_ushardlock_detach+0x88>
  40b78c:	afa20024 	sw	$v0,36($sp)
  40b790:	8f888ab0 	lw	$t0,-30032($gp)
  40b794:	24040001 	li	$a0,1
  40b798:	11000003 	beqz	$t0,40b7a8 <_ushardlock_detach+0x7c>
  40b79c:	3c050042 	lui	$a1,0x42
  40b7a0:	0c1050fc 	jal	4143f0 <_uprint>
  40b7a4:	24a5aae4 	addiu	$a1,$a1,-21788
  40b7a8:	10000026 	b	40b844 <_ushardlock_detach+0x118>
  40b7ac:	00001025 	move	$v0,$zero
  40b7b0:	afa90024 	sw	$t1,36($sp)
  40b7b4:	8fa40024 	lw	$a0,36($sp)
  40b7b8:	3c05686c 	lui	$a1,0x686c
  40b7bc:	34a57372 	ori	$a1,$a1,0x7372
  40b7c0:	0c1040f8 	jal	4103e0 <_ioctl>
  40b7c4:	00003025 	move	$a2,$zero
  40b7c8:	1c400009 	bgtz	$v0,40b7f0 <_ushardlock_detach+0xc4>
  40b7cc:	00402825 	move	$a1,$v0
  40b7d0:	8f8a8ab0 	lw	$t2,-30032($gp)
  40b7d4:	24040001 	li	$a0,1
  40b7d8:	11400003 	beqz	$t2,40b7e8 <_ushardlock_detach+0xbc>
  40b7dc:	3c050042 	lui	$a1,0x42
  40b7e0:	0c1050fc 	jal	4143f0 <_uprint>
  40b7e4:	24a5ab0c 	addiu	$a1,$a1,-21748
  40b7e8:	1000000e 	b	40b824 <_ushardlock_detach+0xf8>
  40b7ec:	afa0001c 	sw	$zero,28($sp)
  40b7f0:	8fa4002c 	lw	$a0,44($sp)
  40b7f4:	0c104110 	jal	410440 <_munmap>
  40b7f8:	00000000 	nop
  40b7fc:	2401ffff 	li	$at,-1
  40b800:	14410009 	bne	$v0,$at,40b828 <_ushardlock_detach+0xfc>
  40b804:	8fac0030 	lw	$t4,48($sp)
  40b808:	8f8b8ab0 	lw	$t3,-30032($gp)
  40b80c:	24040001 	li	$a0,1
  40b810:	11600003 	beqz	$t3,40b820 <_ushardlock_detach+0xf4>
  40b814:	3c050042 	lui	$a1,0x42
  40b818:	0c1050fc 	jal	4143f0 <_uprint>
  40b81c:	24a5ab2c 	addiu	$a1,$a1,-21716
  40b820:	afa0001c 	sw	$zero,28($sp)
  40b824:	8fac0030 	lw	$t4,48($sp)
  40b828:	8fa40024 	lw	$a0,36($sp)
  40b82c:	05810004 	bgez	$t4,40b840 <_ushardlock_detach+0x114>
  40b830:	8fa2001c 	lw	$v0,28($sp)
  40b834:	0c101ae0 	jal	406b80 <_close>
  40b838:	00000000 	nop
  40b83c:	8fa2001c 	lw	$v0,28($sp)
  40b840:	00000000 	nop
  40b844:	8fbf0014 	lw	$ra,20($sp)
  40b848:	27bd0028 	addiu	$sp,$sp,40
  40b84c:	03e00008 	jr	$ra
  40b850:	00000000 	nop
  40b854:	27bdffd8 	addiu	$sp,$sp,-40
  40b858:	afbf0014 	sw	$ra,20($sp)
  40b85c:	8c8e0450 	lw	$t6,1104($a0)
  40b860:	00803825 	move	$a3,$a0
  40b864:	29c11000 	slti	$at,$t6,4096
  40b868:	1420000b 	bnez	$at,40b898 <_ushardlock_detach+0x16c>
  40b86c:	24e60454 	addiu	$a2,$a3,1108
  40b870:	0c102025 	jal	408094 <_setoserror>
  40b874:	2404001c 	li	$a0,28
  40b878:	8f8f8ab0 	lw	$t7,-30032($gp)
  40b87c:	00002025 	move	$a0,$zero
  40b880:	11e00003 	beqz	$t7,40b890 <_ushardlock_detach+0x164>
  40b884:	3c050042 	lui	$a1,0x42
  40b888:	0c1050fc 	jal	4143f0 <_uprint>
  40b88c:	24a5ab54 	addiu	$a1,$a1,-21676
  40b890:	10000030 	b	40b954 <_ushardlock_detach+0x228>
  40b894:	00001025 	move	$v0,$zero
  40b898:	00c02025 	move	$a0,$a2
  40b89c:	24050002 	li	$a1,2
  40b8a0:	afa60018 	sw	$a2,24($sp)
  40b8a4:	0c10411c 	jal	410470 <_open>
  40b8a8:	afa70028 	sw	$a3,40($sp)
  40b8ac:	8fa60018 	lw	$a2,24($sp)
  40b8b0:	8fa70028 	lw	$a3,40($sp)
  40b8b4:	04410009 	bgez	$v0,40b8dc <_ushardlock_detach+0x1b0>
  40b8b8:	00402025 	move	$a0,$v0
  40b8bc:	8f988ab0 	lw	$t8,-30032($gp)
  40b8c0:	24040001 	li	$a0,1
  40b8c4:	13000003 	beqz	$t8,40b8d4 <_ushardlock_detach+0x1a8>
  40b8c8:	3c050042 	lui	$a1,0x42
  40b8cc:	0c1050fc 	jal	4143f0 <_uprint>
  40b8d0:	24a5ab78 	addiu	$a1,$a1,-21640
  40b8d4:	1000001f 	b	40b954 <_ushardlock_detach+0x228>
  40b8d8:	00001025 	move	$v0,$zero
  40b8dc:	3c05686c 	lui	$a1,0x686c
  40b8e0:	34a5616c 	ori	$a1,$a1,0x616c
  40b8e4:	27a6001c 	addiu	$a2,$sp,28
  40b8e8:	afa40024 	sw	$a0,36($sp)
  40b8ec:	0c1040f8 	jal	4103e0 <_ioctl>
  40b8f0:	afa70028 	sw	$a3,40($sp)
  40b8f4:	8fa70028 	lw	$a3,40($sp)
  40b8f8:	2401ffff 	li	$at,-1
  40b8fc:	1441000c 	bne	$v0,$at,40b930 <_ushardlock_detach+0x204>
  40b900:	00000000 	nop
  40b904:	8f998ab0 	lw	$t9,-30032($gp)
  40b908:	24040001 	li	$a0,1
  40b90c:	13200003 	beqz	$t9,40b91c <_ushardlock_detach+0x1f0>
  40b910:	3c050042 	lui	$a1,0x42
  40b914:	0c1050fc 	jal	4143f0 <_uprint>
  40b918:	24a5ab9c 	addiu	$a1,$a1,-21604
  40b91c:	8fa40024 	lw	$a0,36($sp)
  40b920:	0c101ae0 	jal	406b80 <_close>
  40b924:	00000000 	nop
  40b928:	1000000a 	b	40b954 <_ushardlock_detach+0x228>
  40b92c:	00001025 	move	$v0,$zero
  40b930:	8ce80450 	lw	$t0,1104($a3)
  40b934:	8fa9001c 	lw	$t1,28($sp)
  40b938:	00000000 	nop
  40b93c:	01095021 	addu	$t2,$t0,$t1
  40b940:	acea0450 	sw	$t2,1104($a3)
  40b944:	8fa40024 	lw	$a0,36($sp)
  40b948:	0c101ae0 	jal	406b80 <_close>
  40b94c:	00000000 	nop
  40b950:	24020001 	li	$v0,1
  40b954:	8fbf0014 	lw	$ra,20($sp)
  40b958:	27bd0028 	addiu	$sp,$sp,40
  40b95c:	03e00008 	jr	$ra
  40b960:	00000000 	nop
  40b964:	27bdffd0 	addiu	$sp,$sp,-48
  40b968:	afb00018 	sw	$s0,24($sp)
  40b96c:	00808025 	move	$s0,$a0
  40b970:	afbf001c 	sw	$ra,28($sp)
  40b974:	8c840a58 	lw	$a0,2648($a0)
  40b978:	0c102ee6 	jal	40bb98 <_ushardlock_detach+0x46c>
  40b97c:	00000000 	nop
  40b980:	26040858 	addiu	$a0,$s0,2136
  40b984:	8e060450 	lw	$a2,1104($s0)
  40b988:	afa40024 	sw	$a0,36($sp)
  40b98c:	0c10425a 	jal	410968 <_bftstset>
  40b990:	00002825 	move	$a1,$zero
  40b994:	afa20028 	sw	$v0,40($sp)
  40b998:	8e0e0450 	lw	$t6,1104($s0)
  40b99c:	00000000 	nop
  40b9a0:	004e082a 	slt	$at,$v0,$t6
  40b9a4:	1420000b 	bnez	$at,40b9d4 <_ushardlock_detach+0x2a8>
  40b9a8:	8fa40024 	lw	$a0,36($sp)
  40b9ac:	0c102e15 	jal	40b854 <_ushardlock_detach+0x128>
  40b9b0:	02002025 	move	$a0,$s0
  40b9b4:	14400007 	bnez	$v0,40b9d4 <_ushardlock_detach+0x2a8>
  40b9b8:	8fa40024 	lw	$a0,36($sp)
  40b9bc:	8e040a58 	lw	$a0,2648($s0)
  40b9c0:	0c102f0a 	jal	40bc28 <_ushardlock_detach+0x4fc>
  40b9c4:	00000000 	nop
  40b9c8:	10000017 	b	40ba28 <_ushardlock_detach+0x2fc>
  40b9cc:	00001025 	move	$v0,$zero
  40b9d0:	8fa40024 	lw	$a0,36($sp)
  40b9d4:	8fa50028 	lw	$a1,40($sp)
  40b9d8:	0c10421c 	jal	410870 <_bset>
  40b9dc:	00000000 	nop
  40b9e0:	8e040a58 	lw	$a0,2648($s0)
  40b9e4:	0c102f0a 	jal	40bc28 <_ushardlock_detach+0x4fc>
  40b9e8:	00000000 	nop
  40b9ec:	8fb80028 	lw	$t8,40($sp)
  40b9f0:	8e0f0854 	lw	$t7,2132($s0)
  40b9f4:	07010003 	bgez	$t8,40ba04 <_ushardlock_detach+0x2d8>
  40b9f8:	0018c983 	sra	$t9,$t8,0x6
  40b9fc:	2701003f 	addiu	$at,$t8,63
  40ba00:	0001c983 	sra	$t9,$at,0x6
  40ba04:	00194340 	sll	$t0,$t9,0xd
  40ba08:	01e84821 	addu	$t1,$t7,$t0
  40ba0c:	07010004 	bgez	$t8,40ba20 <_ushardlock_detach+0x2f4>
  40ba10:	330a003f 	andi	$t2,$t8,0x3f
  40ba14:	11400002 	beqz	$t2,40ba20 <_ushardlock_detach+0x2f4>
  40ba18:	00000000 	nop
  40ba1c:	254affc0 	addiu	$t2,$t2,-64
  40ba20:	000a5880 	sll	$t3,$t2,0x2
  40ba24:	012b1021 	addu	$v0,$t1,$t3
  40ba28:	8fbf001c 	lw	$ra,28($sp)
  40ba2c:	8fb00018 	lw	$s0,24($sp)
  40ba30:	03e00008 	jr	$ra
  40ba34:	27bd0030 	addiu	$sp,$sp,48
  40ba38:	ac800000 	sw	$zero,0($a0)
  40ba3c:	03e00008 	jr	$ra
  40ba40:	00001025 	move	$v0,$zero
  40ba44:	27bdffe8 	addiu	$sp,$sp,-24
  40ba48:	afbf0014 	sw	$ra,20($sp)
  40ba4c:	afa40018 	sw	$a0,24($sp)
  40ba50:	0c102f0a 	jal	40bc28 <_ushardlock_detach+0x4fc>
  40ba54:	afa5001c 	sw	$a1,28($sp)
  40ba58:	8fae001c 	lw	$t6,28($sp)
  40ba5c:	00000000 	nop
  40ba60:	8dc40a58 	lw	$a0,2648($t6)
  40ba64:	0c102ee6 	jal	40bb98 <_ushardlock_detach+0x46c>
  40ba68:	00000000 	nop
  40ba6c:	8fa3001c 	lw	$v1,28($sp)
  40ba70:	8faf0018 	lw	$t7,24($sp)
  40ba74:	8c780854 	lw	$t8,2132($v1)
  40ba78:	24640858 	addiu	$a0,$v1,2136
  40ba7c:	01f81023 	subu	$v0,$t7,$t8
  40ba80:	00024883 	sra	$t1,$v0,0x2
  40ba84:	04410003 	bgez	$v0,40ba94 <_ushardlock_detach+0x368>
  40ba88:	0002cb43 	sra	$t9,$v0,0xd
  40ba8c:	24411fff 	addiu	$at,$v0,8191
  40ba90:	0001cb43 	sra	$t9,$at,0xd
  40ba94:	00194180 	sll	$t0,$t9,0x6
  40ba98:	05210004 	bgez	$t1,40baac <_ushardlock_detach+0x380>
  40ba9c:	312a003f 	andi	$t2,$t1,0x3f
  40baa0:	11400002 	beqz	$t2,40baac <_ushardlock_detach+0x380>
  40baa4:	00000000 	nop
  40baa8:	254affc0 	addiu	$t2,$t2,-64
  40baac:	0c104225 	jal	410894 <_bclr>
  40bab0:	010a2821 	addu	$a1,$t0,$t2
  40bab4:	8fab001c 	lw	$t3,28($sp)
  40bab8:	00000000 	nop
  40babc:	8d640a58 	lw	$a0,2648($t3)
  40bac0:	0c102f0a 	jal	40bc28 <_ushardlock_detach+0x4fc>
  40bac4:	00000000 	nop
  40bac8:	8fbf0014 	lw	$ra,20($sp)
  40bacc:	27bd0018 	addiu	$sp,$sp,24
  40bad0:	03e00008 	jr	$ra
  40bad4:	00000000 	nop
  40bad8:	27bdffe0 	addiu	$sp,$sp,-32
  40badc:	afb10018 	sw	$s1,24($sp)
  40bae0:	afb00014 	sw	$s0,20($sp)
  40bae4:	00808025 	move	$s0,$a0
  40bae8:	00a08825 	move	$s1,$a1
  40baec:	afbf001c 	sw	$ra,28($sp)
  40baf0:	02002025 	move	$a0,$s0
  40baf4:	0c102ecc 	jal	40bb30 <_ushardlock_detach+0x404>
  40baf8:	02202825 	move	$a1,$s1
  40bafc:	10400003 	beqz	$v0,40bb0c <_ushardlock_detach+0x3e0>
  40bb00:	00000000 	nop
  40bb04:	10000005 	b	40bb1c <_ushardlock_detach+0x3f0>
  40bb08:	24020001 	li	$v0,1
  40bb0c:	0c104148 	jal	410520 <_sginap>
  40bb10:	00002025 	move	$a0,$zero
  40bb14:	1000fff7 	b	40baf4 <_ushardlock_detach+0x3c8>
  40bb18:	02002025 	move	$a0,$s0
  40bb1c:	8fbf001c 	lw	$ra,28($sp)
  40bb20:	8fb00014 	lw	$s0,20($sp)
  40bb24:	8fb10018 	lw	$s1,24($sp)
  40bb28:	03e00008 	jr	$ra
  40bb2c:	27bd0020 	addiu	$sp,$sp,32
  40bb30:	8c8e0000 	lw	$t6,0($a0)
  40bb34:	24020001 	li	$v0,1
  40bb38:	31cf0001 	andi	$t7,$t6,0x1
  40bb3c:	11e0000a 	beqz	$t7,40bb68 <_ushardlock_detach+0x43c>
  40bb40:	24a5ffff 	addiu	$a1,$a1,-1
  40bb44:	14a00003 	bnez	$a1,40bb54 <_ushardlock_detach+0x428>
  40bb48:	00000000 	nop
  40bb4c:	03e00008 	jr	$ra
  40bb50:	00001025 	move	$v0,$zero
  40bb54:	8c980000 	lw	$t8,0($a0)
  40bb58:	00000000 	nop
  40bb5c:	33190001 	andi	$t9,$t8,0x1
  40bb60:	1720fff8 	bnez	$t9,40bb44 <_ushardlock_detach+0x418>
  40bb64:	24a5ffff 	addiu	$a1,$a1,-1
  40bb68:	03e00008 	jr	$ra
  40bb6c:	00000000 	nop
  40bb70:	8c8e0000 	lw	$t6,0($a0)
  40bb74:	24020001 	li	$v0,1
  40bb78:	31cf0001 	andi	$t7,$t6,0x1
  40bb7c:	15e00004 	bnez	$t7,40bb90 <_ushardlock_detach+0x464>
  40bb80:	00000000 	nop
  40bb84:	ac800000 	sw	$zero,0($a0)
  40bb88:	03e00008 	jr	$ra
  40bb8c:	00001025 	move	$v0,$zero
  40bb90:	03e00008 	jr	$ra
  40bb94:	00000000 	nop
  40bb98:	27bdffe0 	addiu	$sp,$sp,-32
  40bb9c:	afb10018 	sw	$s1,24($sp)
  40bba0:	00808825 	move	$s1,$a0
  40bba4:	afbf001c 	sw	$ra,28($sp)
  40bba8:	afb00014 	sw	$s0,20($sp)
  40bbac:	8e2e0000 	lw	$t6,0($s1)
  40bbb0:	8f9088d4 	lw	$s0,-30508($gp)
  40bbb4:	8f8288d0 	lw	$v0,-30512($gp)
  40bbb8:	31cf0001 	andi	$t7,$t6,0x1
  40bbbc:	11e00014 	beqz	$t7,40bc10 <_ushardlock_detach+0x4e4>
  40bbc0:	2442ffff 	addiu	$v0,$v0,-1
  40bbc4:	1440000d 	bnez	$v0,40bbfc <_ushardlock_detach+0x4d0>
  40bbc8:	00000000 	nop
  40bbcc:	2610ffff 	addiu	$s0,$s0,-1
  40bbd0:	16000006 	bnez	$s0,40bbec <_ushardlock_detach+0x4c0>
  40bbd4:	00000000 	nop
  40bbd8:	0c104148 	jal	410520 <_sginap>
  40bbdc:	24040001 	li	$a0,1
  40bbe0:	8f9088d4 	lw	$s0,-30508($gp)
  40bbe4:	10000003 	b	40bbf4 <_ushardlock_detach+0x4c8>
  40bbe8:	00000000 	nop
  40bbec:	0c104148 	jal	410520 <_sginap>
  40bbf0:	00002025 	move	$a0,$zero
  40bbf4:	8f8288d0 	lw	$v0,-30512($gp)
  40bbf8:	00000000 	nop
  40bbfc:	8e380000 	lw	$t8,0($s1)
  40bc00:	00000000 	nop
  40bc04:	33190001 	andi	$t9,$t8,0x1
  40bc08:	1720ffee 	bnez	$t9,40bbc4 <_ushardlock_detach+0x498>
  40bc0c:	2442ffff 	addiu	$v0,$v0,-1
  40bc10:	8fbf001c 	lw	$ra,28($sp)
  40bc14:	8fb00014 	lw	$s0,20($sp)
  40bc18:	8fb10018 	lw	$s1,24($sp)
  40bc1c:	27bd0020 	addiu	$sp,$sp,32
  40bc20:	03e00008 	jr	$ra
  40bc24:	24020001 	li	$v0,1
  40bc28:	ac800000 	sw	$zero,0($a0)
  40bc2c:	03e00008 	jr	$ra
  40bc30:	00001025 	move	$v0,$zero
  40bc34:	afa40000 	sw	$a0,0($sp)
  40bc38:	afa50004 	sw	$a1,4($sp)
  40bc3c:	afa60008 	sw	$a2,8($sp)
  40bc40:	03e00008 	jr	$ra
  40bc44:	00001025 	move	$v0,$zero
  40bc48:	27bdffe0 	addiu	$sp,$sp,-32
  40bc4c:	afbf0014 	sw	$ra,20($sp)
  40bc50:	afa40020 	sw	$a0,32($sp)
  40bc54:	afa50024 	sw	$a1,36($sp)
  40bc58:	afa60028 	sw	$a2,40($sp)
  40bc5c:	afa7002c 	sw	$a3,44($sp)
  40bc60:	0c102025 	jal	408094 <_setoserror>
  40bc64:	24040016 	li	$a0,22
  40bc68:	8fbf0014 	lw	$ra,20($sp)
  40bc6c:	27bd0020 	addiu	$sp,$sp,32
  40bc70:	03e00008 	jr	$ra
  40bc74:	2402ffff 	li	$v0,-1
  40bc78:	27bdffe0 	addiu	$sp,$sp,-32
  40bc7c:	afb10018 	sw	$s1,24($sp)
  40bc80:	00808825 	move	$s1,$a0
  40bc84:	afbf001c 	sw	$ra,28($sp)
  40bc88:	afb00014 	sw	$s0,20($sp)
  40bc8c:	02202825 	move	$a1,$s1
  40bc90:	0c103110 	jal	40c440 <_usmalloc>
  40bc94:	2404001c 	li	$a0,28
  40bc98:	14400005 	bnez	$v0,40bcb0 <_ushardlock_detach+0x584>
  40bc9c:	00408025 	move	$s0,$v0
  40bca0:	0c102025 	jal	408094 <_setoserror>
  40bca4:	2404000c 	li	$a0,12
  40bca8:	10000040 	b	40bdac <_ushardlock_detach+0x680>
  40bcac:	00001025 	move	$v0,$zero
  40bcb0:	a4400012 	sh	$zero,18($v0)
  40bcb4:	ac510000 	sw	$s1,0($v0)
  40bcb8:	ac400014 	sw	$zero,20($v0)
  40bcbc:	ac400018 	sw	$zero,24($v0)
  40bcc0:	ac400004 	sw	$zero,4($v0)
  40bcc4:	8e2e044c 	lw	$t6,1100($s1)
  40bcc8:	24040004 	li	$a0,4
  40bccc:	11c0001f 	beqz	$t6,40bd4c <_ushardlock_detach+0x620>
  40bcd0:	00000000 	nop
  40bcd4:	0c103110 	jal	40c440 <_usmalloc>
  40bcd8:	02202825 	move	$a1,$s1
  40bcdc:	14400008 	bnez	$v0,40bd00 <_ushardlock_detach+0x5d4>
  40bce0:	ae020018 	sw	$v0,24($s0)
  40bce4:	02002025 	move	$a0,$s0
  40bce8:	0c103119 	jal	40c464 <_usfree>
  40bcec:	02202825 	move	$a1,$s1
  40bcf0:	0c102025 	jal	408094 <_setoserror>
  40bcf4:	2404000c 	li	$a0,12
  40bcf8:	1000002c 	b	40bdac <_ushardlock_detach+0x680>
  40bcfc:	00001025 	move	$v0,$zero
  40bd00:	2404000c 	li	$a0,12
  40bd04:	0c103110 	jal	40c440 <_usmalloc>
  40bd08:	02202825 	move	$a1,$s1
  40bd0c:	1440000b 	bnez	$v0,40bd3c <_ushardlock_detach+0x610>
  40bd10:	ae020014 	sw	$v0,20($s0)
  40bd14:	8e040018 	lw	$a0,24($s0)
  40bd18:	0c103119 	jal	40c464 <_usfree>
  40bd1c:	02202825 	move	$a1,$s1
  40bd20:	02002025 	move	$a0,$s0
  40bd24:	0c103119 	jal	40c464 <_usfree>
  40bd28:	02202825 	move	$a1,$s1
  40bd2c:	0c102025 	jal	408094 <_setoserror>
  40bd30:	2404000c 	li	$a0,12
  40bd34:	1000001d 	b	40bdac <_ushardlock_detach+0x680>
  40bd38:	00001025 	move	$v0,$zero
  40bd3c:	960f0012 	lhu	$t7,18($s0)
  40bd40:	00000000 	nop
  40bd44:	35f80003 	ori	$t8,$t7,0x3
  40bd48:	a6180012 	sh	$t8,18($s0)
  40bd4c:	0c102e59 	jal	40b964 <_ushardlock_detach+0x238>
  40bd50:	02202025 	move	$a0,$s1
  40bd54:	14400012 	bnez	$v0,40bda0 <_ushardlock_detach+0x674>
  40bd58:	ae020008 	sw	$v0,8($s0)
  40bd5c:	8e040018 	lw	$a0,24($s0)
  40bd60:	00000000 	nop
  40bd64:	10800003 	beqz	$a0,40bd74 <_ushardlock_detach+0x648>
  40bd68:	00000000 	nop
  40bd6c:	0c103119 	jal	40c464 <_usfree>
  40bd70:	02202825 	move	$a1,$s1
  40bd74:	8e040014 	lw	$a0,20($s0)
  40bd78:	00000000 	nop
  40bd7c:	10800003 	beqz	$a0,40bd8c <_ushardlock_detach+0x660>
  40bd80:	00000000 	nop
  40bd84:	0c103119 	jal	40c464 <_usfree>
  40bd88:	02202825 	move	$a1,$s1
  40bd8c:	02002025 	move	$a0,$s0
  40bd90:	0c103119 	jal	40c464 <_usfree>
  40bd94:	02202825 	move	$a1,$s1
  40bd98:	10000004 	b	40bdac <_ushardlock_detach+0x680>
  40bd9c:	00001025 	move	$v0,$zero
  40bda0:	0c102f70 	jal	40bdc0 <_ushardlock_detach+0x694>
  40bda4:	02002025 	move	$a0,$s0
  40bda8:	02001025 	move	$v0,$s0
  40bdac:	8fbf001c 	lw	$ra,28($sp)
  40bdb0:	8fb00014 	lw	$s0,20($sp)
  40bdb4:	8fb10018 	lw	$s1,24($sp)
  40bdb8:	03e00008 	jr	$ra
  40bdbc:	27bd0020 	addiu	$sp,$sp,32
  40bdc0:	8c8e0008 	lw	$t6,8($a0)
  40bdc4:	ac800004 	sw	$zero,4($a0)
  40bdc8:	adc00000 	sw	$zero,0($t6)
  40bdcc:	94820012 	lhu	$v0,18($a0)
  40bdd0:	00000000 	nop
  40bdd4:	10400014 	beqz	$v0,40be28 <_ushardlock_detach+0x6fc>
  40bdd8:	304f0001 	andi	$t7,$v0,0x1
  40bddc:	11e0000c 	beqz	$t7,40be10 <_ushardlock_detach+0x6e4>
  40bde0:	00401825 	move	$v1,$v0
  40bde4:	8c980014 	lw	$t8,20($a0)
  40bde8:	00000000 	nop
  40bdec:	af000000 	sw	$zero,0($t8)
  40bdf0:	8c990014 	lw	$t9,20($a0)
  40bdf4:	00000000 	nop
  40bdf8:	af200004 	sw	$zero,4($t9)
  40bdfc:	8c880014 	lw	$t0,20($a0)
  40be00:	00000000 	nop
  40be04:	ad000008 	sw	$zero,8($t0)
  40be08:	94830012 	lhu	$v1,18($a0)
  40be0c:	00000000 	nop
  40be10:	30690002 	andi	$t1,$v1,0x2
  40be14:	11200004 	beqz	$t1,40be28 <_ushardlock_detach+0x6fc>
  40be18:	00000000 	nop
  40be1c:	8c8b0018 	lw	$t3,24($a0)
  40be20:	240affff 	li	$t2,-1
  40be24:	ad6a0000 	sw	$t2,0($t3)
  40be28:	03e00008 	jr	$ra
  40be2c:	00001025 	move	$v0,$zero
  40be30:	27bdffe0 	addiu	$sp,$sp,-32
  40be34:	afbf001c 	sw	$ra,28($sp)
  40be38:	afb00018 	sw	$s0,24($sp)
  40be3c:	afa50024 	sw	$a1,36($sp)
  40be40:	94830012 	lhu	$v1,18($a0)
  40be44:	00808025 	move	$s0,$a0
  40be48:	10600010 	beqz	$v1,40be8c <_ushardlock_detach+0x760>
  40be4c:	306e0001 	andi	$t6,$v1,0x1
  40be50:	11c00007 	beqz	$t6,40be70 <_ushardlock_detach+0x744>
  40be54:	00601025 	move	$v0,$v1
  40be58:	8c840014 	lw	$a0,20($a0)
  40be5c:	8e050000 	lw	$a1,0($s0)
  40be60:	0c103119 	jal	40c464 <_usfree>
  40be64:	00000000 	nop
  40be68:	96020012 	lhu	$v0,18($s0)
  40be6c:	00000000 	nop
  40be70:	304f0002 	andi	$t7,$v0,0x2
  40be74:	11e00005 	beqz	$t7,40be8c <_ushardlock_detach+0x760>
  40be78:	00000000 	nop
  40be7c:	8e040018 	lw	$a0,24($s0)
  40be80:	8e050000 	lw	$a1,0($s0)
  40be84:	0c103119 	jal	40c464 <_usfree>
  40be88:	00000000 	nop
  40be8c:	8e040008 	lw	$a0,8($s0)
  40be90:	8fa50024 	lw	$a1,36($sp)
  40be94:	0c102e91 	jal	40ba44 <_ushardlock_detach+0x318>
  40be98:	00000000 	nop
  40be9c:	8e050000 	lw	$a1,0($s0)
  40bea0:	0c103119 	jal	40c464 <_usfree>
  40bea4:	02002025 	move	$a0,$s0
  40bea8:	8fbf001c 	lw	$ra,28($sp)
  40beac:	8fb00018 	lw	$s0,24($sp)
  40beb0:	03e00008 	jr	$ra
  40beb4:	27bd0020 	addiu	$sp,$sp,32

0040beb8 <_dhwsetlock>:
  40beb8:	27bdffd8 	addiu	$sp,$sp,-40
  40bebc:	afbf0024 	sw	$ra,36($sp)
  40bec0:	afb10020 	sw	$s1,32($sp)
  40bec4:	afb0001c 	sw	$s0,28($sp)
  40bec8:	afa60030 	sw	$a2,48($sp)
  40becc:	3c0e0020 	lui	$t6,0x20
  40bed0:	8dc70e00 	lw	$a3,3584($t6)
  40bed4:	8c8f0004 	lw	$t7,4($a0)
  40bed8:	8c820000 	lw	$v0,0($a0)
  40bedc:	00808025 	move	$s0,$a0
  40bee0:	14ef000b 	bne	$a3,$t7,40bf10 <_dhwsetlock+0x58>
  40bee4:	00a08825 	move	$s1,$a1
  40bee8:	8c58044c 	lw	$t8,1100($v0)
  40beec:	24010002 	li	$at,2
  40bef0:	17010007 	bne	$t8,$at,40bf10 <_dhwsetlock+0x58>
  40bef4:	00002025 	move	$a0,$zero
  40bef8:	8fb90030 	lw	$t9,48($sp)
  40befc:	3c050042 	lui	$a1,0x42
  40bf00:	24a5abbc 	addiu	$a1,$a1,-21572
  40bf04:	02003025 	move	$a2,$s0
  40bf08:	0c1050fc 	jal	4143f0 <_uprint>
  40bf0c:	afb90010 	sw	$t9,16($sp)
  40bf10:	02002025 	move	$a0,$s0
  40bf14:	02202825 	move	$a1,$s1
  40bf18:	0c102fd8 	jal	40bf60 <_dhwsetlock+0xa8>
  40bf1c:	00003025 	move	$a2,$zero
  40bf20:	1440000a 	bnez	$v0,40bf4c <_dhwsetlock+0x94>
  40bf24:	8fbf0024 	lw	$ra,36($sp)
  40bf28:	0c104148 	jal	410520 <_sginap>
  40bf2c:	00002025 	move	$a0,$zero
  40bf30:	02002025 	move	$a0,$s0
  40bf34:	02202825 	move	$a1,$s1
  40bf38:	0c102fd8 	jal	40bf60 <_dhwsetlock+0xa8>
  40bf3c:	24060001 	li	$a2,1
  40bf40:	1040fff9 	beqz	$v0,40bf28 <_dhwsetlock+0x70>
  40bf44:	00000000 	nop
  40bf48:	8fbf0024 	lw	$ra,36($sp)
  40bf4c:	8fb0001c 	lw	$s0,28($sp)
  40bf50:	8fb10020 	lw	$s1,32($sp)
  40bf54:	27bd0028 	addiu	$sp,$sp,40
  40bf58:	03e00008 	jr	$ra
  40bf5c:	24020001 	li	$v0,1
  40bf60:	27bdffd8 	addiu	$sp,$sp,-40
  40bf64:	afb00018 	sw	$s0,24($sp)
  40bf68:	00a08025 	move	$s0,$a1
  40bf6c:	afb20020 	sw	$s2,32($sp)
  40bf70:	afb1001c 	sw	$s1,28($sp)
  40bf74:	00808825 	move	$s1,$a0
  40bf78:	00c09025 	move	$s2,$a2
  40bf7c:	afbf0024 	sw	$ra,36($sp)
  40bf80:	00a01025 	move	$v0,$a1
  40bf84:	12000030 	beqz	$s0,40c048 <_dhwsetlock+0x190>
  40bf88:	2610ffff 	addiu	$s0,$s0,-1
  40bf8c:	8f99af14 	lw	$t9,-20716($gp)
  40bf90:	02202025 	move	$a0,$s1
  40bf94:	0320f809 	jalr	$t9
  40bf98:	00000000 	nop
  40bf9c:	14400026 	bnez	$v0,40c038 <_dhwsetlock+0x180>
  40bfa0:	3c040020 	lui	$a0,0x20
  40bfa4:	8c8e0e00 	lw	$t6,3584($a0)
  40bfa8:	96230012 	lhu	$v1,18($s1)
  40bfac:	ae2e0004 	sw	$t6,4($s1)
  40bfb0:	1060001f 	beqz	$v1,40c030 <_dhwsetlock+0x178>
  40bfb4:	306f0002 	andi	$t7,$v1,0x2
  40bfb8:	11e00007 	beqz	$t7,40bfd8 <_dhwsetlock+0x120>
  40bfbc:	00601025 	move	$v0,$v1
  40bfc0:	8c980e00 	lw	$t8,3584($a0)
  40bfc4:	8e280018 	lw	$t0,24($s1)
  40bfc8:	00000000 	nop
  40bfcc:	ad180000 	sw	$t8,0($t0)
  40bfd0:	96220012 	lhu	$v0,18($s1)
  40bfd4:	00000000 	nop
  40bfd8:	30490001 	andi	$t1,$v0,0x1
  40bfdc:	11200014 	beqz	$t1,40c030 <_dhwsetlock+0x178>
  40bfe0:	00000000 	nop
  40bfe4:	8e220014 	lw	$v0,20($s1)
  40bfe8:	00000000 	nop
  40bfec:	8c4a0004 	lw	$t2,4($v0)
  40bff0:	00000000 	nop
  40bff4:	254b0001 	addiu	$t3,$t2,1
  40bff8:	ac4b0004 	sw	$t3,4($v0)
  40bffc:	8e220014 	lw	$v0,20($s1)
  40c000:	00000000 	nop
  40c004:	8c4c0008 	lw	$t4,8($v0)
  40c008:	00000000 	nop
  40c00c:	258d0001 	addiu	$t5,$t4,1
  40c010:	12400007 	beqz	$s2,40c030 <_dhwsetlock+0x178>
  40c014:	ac4d0008 	sw	$t5,8($v0)
  40c018:	8e220014 	lw	$v0,20($s1)
  40c01c:	00000000 	nop
  40c020:	8c590000 	lw	$t9,0($v0)
  40c024:	00000000 	nop
  40c028:	272e0001 	addiu	$t6,$t9,1
  40c02c:	ac4e0000 	sw	$t6,0($v0)
  40c030:	10000006 	b	40c04c <_dhwsetlock+0x194>
  40c034:	24020001 	li	$v0,1
  40c038:	02001025 	move	$v0,$s0
  40c03c:	24120001 	li	$s2,1
  40c040:	1600ffd2 	bnez	$s0,40bf8c <_dhwsetlock+0xd4>
  40c044:	2610ffff 	addiu	$s0,$s0,-1
  40c048:	00001025 	move	$v0,$zero
  40c04c:	8fbf0024 	lw	$ra,36($sp)
  40c050:	8fb00018 	lw	$s0,24($sp)
  40c054:	8fb1001c 	lw	$s1,28($sp)
  40c058:	8fb20020 	lw	$s2,32($sp)
  40c05c:	03e00008 	jr	$ra
  40c060:	27bd0028 	addiu	$sp,$sp,40

0040c064 <_dhcsetlock>:
  40c064:	27bdffe8 	addiu	$sp,$sp,-24
  40c068:	afbf0014 	sw	$ra,20($sp)
  40c06c:	afa40018 	sw	$a0,24($sp)
  40c070:	0c102fd8 	jal	40bf60 <_dhwsetlock+0xa8>
  40c074:	00003025 	move	$a2,$zero
  40c078:	8fa40018 	lw	$a0,24($sp)
  40c07c:	14400015 	bnez	$v0,40c0d4 <_dhcsetlock+0x70>
  40c080:	24020001 	li	$v0,1
  40c084:	948e0012 	lhu	$t6,18($a0)
  40c088:	00000000 	nop
  40c08c:	31cf0001 	andi	$t7,$t6,0x1
  40c090:	11e0000d 	beqz	$t7,40c0c8 <_dhcsetlock+0x64>
  40c094:	00000000 	nop
  40c098:	8c820014 	lw	$v0,20($a0)
  40c09c:	00000000 	nop
  40c0a0:	8c580004 	lw	$t8,4($v0)
  40c0a4:	00000000 	nop
  40c0a8:	27190001 	addiu	$t9,$t8,1
  40c0ac:	ac590004 	sw	$t9,4($v0)
  40c0b0:	8c820014 	lw	$v0,20($a0)
  40c0b4:	00000000 	nop
  40c0b8:	8c480000 	lw	$t0,0($v0)
  40c0bc:	00000000 	nop
  40c0c0:	25090001 	addiu	$t1,$t0,1
  40c0c4:	ac490000 	sw	$t1,0($v0)
  40c0c8:	10000002 	b	40c0d4 <_dhcsetlock+0x70>
  40c0cc:	00001025 	move	$v0,$zero
  40c0d0:	24020001 	li	$v0,1
  40c0d4:	8fbf0014 	lw	$ra,20($sp)
  40c0d8:	27bd0018 	addiu	$sp,$sp,24
  40c0dc:	03e00008 	jr	$ra
  40c0e0:	00000000 	nop

0040c0e4 <_dhsetlock>:
  40c0e4:	27bdffd0 	addiu	$sp,$sp,-48
  40c0e8:	afb20028 	sw	$s2,40($sp)
  40c0ec:	afb00020 	sw	$s0,32($sp)
  40c0f0:	afbf002c 	sw	$ra,44($sp)
  40c0f4:	afb10024 	sw	$s1,36($sp)
  40c0f8:	afa50034 	sw	$a1,52($sp)
  40c0fc:	3c0e0020 	lui	$t6,0x20
  40c100:	8dc70e00 	lw	$a3,3584($t6)
  40c104:	8c8f0004 	lw	$t7,4($a0)
  40c108:	8c820000 	lw	$v0,0($a0)
  40c10c:	8f9088d4 	lw	$s0,-30508($gp)
  40c110:	8f9288d0 	lw	$s2,-30512($gp)
  40c114:	14ef000b 	bne	$a3,$t7,40c144 <_dhsetlock+0x60>
  40c118:	00808825 	move	$s1,$a0
  40c11c:	8c58044c 	lw	$t8,1100($v0)
  40c120:	24010002 	li	$at,2
  40c124:	17010007 	bne	$t8,$at,40c144 <_dhsetlock+0x60>
  40c128:	00002025 	move	$a0,$zero
  40c12c:	8fb90034 	lw	$t9,52($sp)
  40c130:	3c050042 	lui	$a1,0x42
  40c134:	24a5abf8 	addiu	$a1,$a1,-21512
  40c138:	02203025 	move	$a2,$s1
  40c13c:	0c1050fc 	jal	4143f0 <_uprint>
  40c140:	afb90010 	sw	$t9,16($sp)
  40c144:	02202025 	move	$a0,$s1
  40c148:	02402825 	move	$a1,$s2
  40c14c:	0c102fd8 	jal	40bf60 <_dhwsetlock+0xa8>
  40c150:	00003025 	move	$a2,$zero
  40c154:	14400010 	bnez	$v0,40c198 <_dhsetlock+0xb4>
  40c158:	2610ffff 	addiu	$s0,$s0,-1
  40c15c:	16000006 	bnez	$s0,40c178 <_dhsetlock+0x94>
  40c160:	00000000 	nop
  40c164:	0c104148 	jal	410520 <_sginap>
  40c168:	24040001 	li	$a0,1
  40c16c:	8f9088d4 	lw	$s0,-30508($gp)
  40c170:	10000004 	b	40c184 <_dhsetlock+0xa0>
  40c174:	02202025 	move	$a0,$s1
  40c178:	0c104148 	jal	410520 <_sginap>
  40c17c:	00002025 	move	$a0,$zero
  40c180:	02202025 	move	$a0,$s1
  40c184:	02402825 	move	$a1,$s2
  40c188:	0c102fd8 	jal	40bf60 <_dhwsetlock+0xa8>
  40c18c:	24060001 	li	$a2,1
  40c190:	1040fff2 	beqz	$v0,40c15c <_dhsetlock+0x78>
  40c194:	2610ffff 	addiu	$s0,$s0,-1
  40c198:	8fbf002c 	lw	$ra,44($sp)
  40c19c:	8fb00020 	lw	$s0,32($sp)
  40c1a0:	8fb10024 	lw	$s1,36($sp)
  40c1a4:	8fb20028 	lw	$s2,40($sp)
  40c1a8:	27bd0030 	addiu	$sp,$sp,48
  40c1ac:	03e00008 	jr	$ra
  40c1b0:	24020001 	li	$v0,1
  40c1b4:	8c8e0008 	lw	$t6,8($a0)
  40c1b8:	24020001 	li	$v0,1
  40c1bc:	8dcf0000 	lw	$t7,0($t6)
  40c1c0:	00000000 	nop
  40c1c4:	31f80001 	andi	$t8,$t7,0x1
  40c1c8:	17000005 	bnez	$t8,40c1e0 <_dhsetlock+0xfc>
  40c1cc:	00000000 	nop
  40c1d0:	8c990008 	lw	$t9,8($a0)
  40c1d4:	00001025 	move	$v0,$zero
  40c1d8:	03e00008 	jr	$ra
  40c1dc:	af200000 	sw	$zero,0($t9)
  40c1e0:	03e00008 	jr	$ra
  40c1e4:	00000000 	nop

0040c1e8 <_dhunsetlock>:
  40c1e8:	27bdffe0 	addiu	$sp,$sp,-32
  40c1ec:	afbf001c 	sw	$ra,28($sp)
  40c1f0:	afa50024 	sw	$a1,36($sp)
  40c1f4:	3c0e0020 	lui	$t6,0x20
  40c1f8:	8dc70e00 	lw	$a3,3584($t6)
  40c1fc:	8c820004 	lw	$v0,4($a0)
  40c200:	8c830000 	lw	$v1,0($a0)
  40c204:	10e20019 	beq	$a3,$v0,40c26c <_dhunsetlock+0x84>
  40c208:	00803025 	move	$a2,$a0
  40c20c:	8c6f044c 	lw	$t7,1100($v1)
  40c210:	24010002 	li	$at,2
  40c214:	15e10015 	bne	$t7,$at,40c26c <_dhunsetlock+0x84>
  40c218:	00000000 	nop
  40c21c:	1440000b 	bnez	$v0,40c24c <_dhunsetlock+0x64>
  40c220:	00002025 	move	$a0,$zero
  40c224:	8fb80024 	lw	$t8,36($sp)
  40c228:	3c050042 	lui	$a1,0x42
  40c22c:	24a5ac34 	addiu	$a1,$a1,-21452
  40c230:	00002025 	move	$a0,$zero
  40c234:	afa60020 	sw	$a2,32($sp)
  40c238:	0c1050fc 	jal	4143f0 <_uprint>
  40c23c:	afb80010 	sw	$t8,16($sp)
  40c240:	8fa60020 	lw	$a2,32($sp)
  40c244:	1000000a 	b	40c270 <_dhunsetlock+0x88>
  40c248:	94c80012 	lhu	$t0,18($a2)
  40c24c:	8fb90024 	lw	$t9,36($sp)
  40c250:	3c050042 	lui	$a1,0x42
  40c254:	24a5ac7c 	addiu	$a1,$a1,-21380
  40c258:	afa60020 	sw	$a2,32($sp)
  40c25c:	0c1050fc 	jal	4143f0 <_uprint>
  40c260:	afb90010 	sw	$t9,16($sp)
  40c264:	8fa60020 	lw	$a2,32($sp)
  40c268:	00000000 	nop
  40c26c:	94c80012 	lhu	$t0,18($a2)
  40c270:	00000000 	nop
  40c274:	31090002 	andi	$t1,$t0,0x2
  40c278:	11200004 	beqz	$t1,40c28c <_dhunsetlock+0xa4>
  40c27c:	00000000 	nop
  40c280:	8ccb0018 	lw	$t3,24($a2)
  40c284:	240affff 	li	$t2,-1
  40c288:	ad6a0000 	sw	$t2,0($t3)
  40c28c:	acc00004 	sw	$zero,4($a2)
  40c290:	8f99af18 	lw	$t9,-20712($gp)
  40c294:	00c02025 	move	$a0,$a2
  40c298:	0320f809 	jalr	$t9
  40c29c:	00000000 	nop
  40c2a0:	8fbf001c 	lw	$ra,28($sp)
  40c2a4:	27bd0020 	addiu	$sp,$sp,32
  40c2a8:	03e00008 	jr	$ra
  40c2ac:	00001025 	move	$v0,$zero

0040c2b0 <_ushardlocks_init>:
  40c2b0:	24010003 	li	$at,3
  40c2b4:	14810006 	bne	$a0,$at,40c2d0 <_ushardlocks_init+0x20>
  40c2b8:	afa50004 	sw	$a1,4($sp)
  40c2bc:	3c0e0041 	lui	$t6,0x41
  40c2c0:	25ce2348 	addiu	$t6,$t6,9032
  40c2c4:	af8eaf10 	sw	$t6,-20720($gp)
  40c2c8:	03e00008 	jr	$ra
  40c2cc:	00001025 	move	$v0,$zero
  40c2d0:	14800026 	bnez	$a0,40c36c <_ushardlocks_init+0xbc>
  40c2d4:	3c080041 	lui	$t0,0x41
  40c2d8:	8f8faee4 	lw	$t7,-20764($gp)
  40c2dc:	3c180041 	lui	$t8,0x41
  40c2e0:	27188110 	addiu	$t8,$t8,-32496
  40c2e4:	15f80003 	bne	$t7,$t8,40c2f4 <_ushardlocks_init+0x44>
  40c2e8:	3c190041 	lui	$t9,0x41
  40c2ec:	03e00008 	jr	$ra
  40c2f0:	2402ffff 	li	$v0,-1
  40c2f4:	3c080041 	lui	$t0,0x41
  40c2f8:	3c090041 	lui	$t1,0x41
  40c2fc:	3c0a0041 	lui	$t2,0x41
  40c300:	3c0b0041 	lui	$t3,0x41
  40c304:	3c0c0041 	lui	$t4,0x41
  40c308:	3c0d0041 	lui	$t5,0x41
  40c30c:	3c0e0041 	lui	$t6,0x41
  40c310:	3c0f0041 	lui	$t7,0x41
  40c314:	3c180041 	lui	$t8,0x41
  40c318:	2739bb98 	addiu	$t9,$t9,-17512
  40c31c:	2508bc28 	addiu	$t0,$t0,-17368
  40c320:	2529b964 	addiu	$t1,$t1,-18076
  40c324:	254aba38 	addiu	$t2,$t2,-17864
  40c328:	256bba44 	addiu	$t3,$t3,-17852
  40c32c:	258cbad8 	addiu	$t4,$t4,-17704
  40c330:	25adbb30 	addiu	$t5,$t5,-17616
  40c334:	25cebb70 	addiu	$t6,$t6,-17552
  40c338:	25efbc48 	addiu	$t7,$t7,-17336
  40c33c:	2718bc34 	addiu	$t8,$t8,-17356
  40c340:	af99aee4 	sw	$t9,-20764($gp)
  40c344:	af88aee8 	sw	$t0,-20760($gp)
  40c348:	af89aeec 	sw	$t1,-20756($gp)
  40c34c:	af8aaef0 	sw	$t2,-20752($gp)
  40c350:	af8baef4 	sw	$t3,-20748($gp)
  40c354:	af8caef8 	sw	$t4,-20744($gp)
  40c358:	af8daefc 	sw	$t5,-20740($gp)
  40c35c:	af8eaf00 	sw	$t6,-20736($gp)
  40c360:	af8faf04 	sw	$t7,-20732($gp)
  40c364:	10000024 	b	40c3f8 <_ushardlocks_init+0x148>
  40c368:	af98af08 	sw	$t8,-20728($gp)
  40c36c:	8f99aee4 	lw	$t9,-20764($gp)
  40c370:	2508bb98 	addiu	$t0,$t0,-17512
  40c374:	17280003 	bne	$t9,$t0,40c384 <_ushardlocks_init+0xd4>
  40c378:	3c090041 	lui	$t1,0x41
  40c37c:	03e00008 	jr	$ra
  40c380:	2402ffff 	li	$v0,-1
  40c384:	3c0a0041 	lui	$t2,0x41
  40c388:	3c0b0041 	lui	$t3,0x41
  40c38c:	3c0c0041 	lui	$t4,0x41
  40c390:	3c0d0041 	lui	$t5,0x41
  40c394:	3c0e0041 	lui	$t6,0x41
  40c398:	3c0f0041 	lui	$t7,0x41
  40c39c:	3c180041 	lui	$t8,0x41
  40c3a0:	3c190041 	lui	$t9,0x41
  40c3a4:	3c080041 	lui	$t0,0x41
  40c3a8:	25298110 	addiu	$t1,$t1,-32496
  40c3ac:	254a8120 	addiu	$t2,$t2,-32480
  40c3b0:	256bbc78 	addiu	$t3,$t3,-17288
  40c3b4:	258cbdc0 	addiu	$t4,$t4,-16960
  40c3b8:	25adbe30 	addiu	$t5,$t5,-16848
  40c3bc:	25ce8130 	addiu	$t6,$t6,-32464
  40c3c0:	25efc064 	addiu	$t7,$t7,-16284
  40c3c4:	2718c1b4 	addiu	$t8,$t8,-15948
  40c3c8:	273983d0 	addiu	$t9,$t9,-31792
  40c3cc:	25088530 	addiu	$t0,$t0,-31440
  40c3d0:	af89aee4 	sw	$t1,-20764($gp)
  40c3d4:	af8aaee8 	sw	$t2,-20760($gp)
  40c3d8:	af8baeec 	sw	$t3,-20756($gp)
  40c3dc:	af8caef0 	sw	$t4,-20752($gp)
  40c3e0:	af8daef4 	sw	$t5,-20748($gp)
  40c3e4:	af8eaef8 	sw	$t6,-20744($gp)
  40c3e8:	af8faefc 	sw	$t7,-20740($gp)
  40c3ec:	af98af00 	sw	$t8,-20736($gp)
  40c3f0:	af99af04 	sw	$t9,-20732($gp)
  40c3f4:	af88af08 	sw	$t0,-20728($gp)
  40c3f8:	3c090041 	lui	$t1,0x41
  40c3fc:	3c0a0041 	lui	$t2,0x41
  40c400:	3c0b0041 	lui	$t3,0x41
  40c404:	3c0c0041 	lui	$t4,0x41
  40c408:	25292300 	addiu	$t1,$t1,8960
  40c40c:	254a2348 	addiu	$t2,$t2,9032
  40c410:	256b235c 	addiu	$t3,$t3,9052
  40c414:	258c2374 	addiu	$t4,$t4,9076
  40c418:	af89af0c 	sw	$t1,-20724($gp)
  40c41c:	af8aaf10 	sw	$t2,-20720($gp)
  40c420:	af8baf14 	sw	$t3,-20716($gp)
  40c424:	af8caf18 	sw	$t4,-20712($gp)
  40c428:	00001025 	move	$v0,$zero
  40c42c:	03e00008 	jr	$ra
	...

0040c440 <_usmalloc>:
  40c440:	27bdffe8 	addiu	$sp,$sp,-24
  40c444:	afbf0014 	sw	$ra,20($sp)
  40c448:	8ca50018 	lw	$a1,24($a1)
  40c44c:	0c105308 	jal	414c20 <_amalloc>
  40c450:	00000000 	nop
  40c454:	8fbf0014 	lw	$ra,20($sp)
  40c458:	27bd0018 	addiu	$sp,$sp,24
  40c45c:	03e00008 	jr	$ra
  40c460:	00000000 	nop

0040c464 <_usfree>:
  40c464:	27bdffe8 	addiu	$sp,$sp,-24
  40c468:	afbf0014 	sw	$ra,20($sp)
  40c46c:	8ca50018 	lw	$a1,24($a1)
  40c470:	0c10532f 	jal	414cbc <_afree>
  40c474:	00000000 	nop
  40c478:	8fbf0014 	lw	$ra,20($sp)
  40c47c:	27bd0018 	addiu	$sp,$sp,24
  40c480:	03e00008 	jr	$ra
  40c484:	00000000 	nop

0040c488 <_usrealloc>:
  40c488:	27bdffe8 	addiu	$sp,$sp,-24
  40c48c:	afbf0014 	sw	$ra,20($sp)
  40c490:	8cc60018 	lw	$a2,24($a2)
  40c494:	0c1056a3 	jal	415a8c <_arealloc>
  40c498:	00000000 	nop
  40c49c:	8fbf0014 	lw	$ra,20($sp)
  40c4a0:	27bd0018 	addiu	$sp,$sp,24
  40c4a4:	03e00008 	jr	$ra
  40c4a8:	00000000 	nop

0040c4ac <_uscalloc>:
  40c4ac:	27bdffe8 	addiu	$sp,$sp,-24
  40c4b0:	afbf0014 	sw	$ra,20($sp)
  40c4b4:	8cc60018 	lw	$a2,24($a2)
  40c4b8:	0c105776 	jal	415dd8 <_acalloc>
  40c4bc:	00000000 	nop
  40c4c0:	8fbf0014 	lw	$ra,20($sp)
  40c4c4:	27bd0018 	addiu	$sp,$sp,24
  40c4c8:	03e00008 	jr	$ra
  40c4cc:	00000000 	nop

0040c4d0 <_usmallinfo>:
  40c4d0:	27bdffe8 	addiu	$sp,$sp,-24
  40c4d4:	afbf0014 	sw	$ra,20($sp)
  40c4d8:	8ca50018 	lw	$a1,24($a1)
  40c4dc:	0c105816 	jal	416058 <_amallinfo>
  40c4e0:	00000000 	nop
  40c4e4:	8fbf0014 	lw	$ra,20($sp)
  40c4e8:	27bd0018 	addiu	$sp,$sp,24
  40c4ec:	03e00008 	jr	$ra
  40c4f0:	00000000 	nop

0040c4f4 <_usmallopt>:
  40c4f4:	27bdffe8 	addiu	$sp,$sp,-24
  40c4f8:	afbf0014 	sw	$ra,20($sp)
  40c4fc:	8cc60018 	lw	$a2,24($a2)
  40c500:	0c105795 	jal	415e54 <_amallopt>
  40c504:	00000000 	nop
  40c508:	8fbf0014 	lw	$ra,20($sp)
  40c50c:	27bd0018 	addiu	$sp,$sp,24
  40c510:	03e00008 	jr	$ra
  40c514:	00000000 	nop

0040c518 <_usrecalloc>:
  40c518:	27bdffe8 	addiu	$sp,$sp,-24
  40c51c:	afbf0014 	sw	$ra,20($sp)
  40c520:	afa70024 	sw	$a3,36($sp)
  40c524:	8ce70018 	lw	$a3,24($a3)
  40c528:	0c1053ea 	jal	414fa8 <_arecalloc>
  40c52c:	00000000 	nop
  40c530:	8fbf0014 	lw	$ra,20($sp)
  40c534:	27bd0018 	addiu	$sp,$sp,24
  40c538:	03e00008 	jr	$ra
  40c53c:	00000000 	nop

0040c540 <_usmallocblksize>:
  40c540:	27bdffe8 	addiu	$sp,$sp,-24
  40c544:	afbf0014 	sw	$ra,20($sp)
  40c548:	8ca50018 	lw	$a1,24($a1)
  40c54c:	0c10592d 	jal	4164b4 <_amallocblksize>
  40c550:	00000000 	nop
  40c554:	8fbf0014 	lw	$ra,20($sp)
  40c558:	27bd0018 	addiu	$sp,$sp,24
  40c55c:	03e00008 	jr	$ra
  40c560:	00000000 	nop

0040c564 <_usmemalign>:
  40c564:	27bdffe8 	addiu	$sp,$sp,-24
  40c568:	afbf0014 	sw	$ra,20($sp)
  40c56c:	8cc60018 	lw	$a2,24($a2)
  40c570:	0c105976 	jal	4165d8 <_amemalign>
  40c574:	00000000 	nop
  40c578:	8fbf0014 	lw	$ra,20($sp)
  40c57c:	27bd0018 	addiu	$sp,$sp,24
  40c580:	03e00008 	jr	$ra
	...
  40c590:	27bdffc8 	addiu	$sp,$sp,-56
  40c594:	afbf0014 	sw	$ra,20($sp)
  40c598:	afa40038 	sw	$a0,56($sp)
  40c59c:	8c850004 	lw	$a1,4($a0)
  40c5a0:	8c980000 	lw	$t8,0($a0)
  40c5a4:	30a90001 	andi	$t1,$a1,0x1
  40c5a8:	afa90034 	sw	$t1,52($sp)
  40c5ac:	24060000 	li	$a2,0
  40c5b0:	24070001 	li	$a3,1
  40c5b4:	afa5001c 	sw	$a1,28($sp)
  40c5b8:	afb80018 	sw	$t8,24($sp)
  40c5bc:	0c104806 	jal	412018 <__ll_rshift>
  40c5c0:	03002025 	move	$a0,$t8
  40c5c4:	3c017fff 	lui	$at,0x7fff
  40c5c8:	3421ffff 	ori	$at,$at,0xffff
  40c5cc:	00412024 	and	$a0,$v0,$at
  40c5d0:	2401ffff 	li	$at,-1
  40c5d4:	00612824 	and	$a1,$v1,$at
  40c5d8:	afa5001c 	sw	$a1,28($sp)
  40c5dc:	afa5002c 	sw	$a1,44($sp)
  40c5e0:	afa40018 	sw	$a0,24($sp)
  40c5e4:	afa40028 	sw	$a0,40($sp)
  40c5e8:	24060000 	li	$a2,0
  40c5ec:	0c104612 	jal	411848 <__ll_div>
  40c5f0:	24070005 	li	$a3,5
  40c5f4:	8fae0038 	lw	$t6,56($sp)
  40c5f8:	24060000 	li	$a2,0
  40c5fc:	adc20000 	sw	$v0,0($t6)
  40c600:	adc30004 	sw	$v1,4($t6)
  40c604:	8fa5002c 	lw	$a1,44($sp)
  40c608:	8fa40028 	lw	$a0,40($sp)
  40c60c:	0c1046d9 	jal	411b64 <__ll_rem>
  40c610:	24070005 	li	$a3,5
  40c614:	00402025 	move	$a0,$v0
  40c618:	00602825 	move	$a1,$v1
  40c61c:	24060000 	li	$a2,0
  40c620:	0c1044bc 	jal	4112f0 <__ll_mul>
  40c624:	24070002 	li	$a3,2
  40c628:	8fa80034 	lw	$t0,52($sp)
  40c62c:	8fbf0014 	lw	$ra,20($sp)
  40c630:	00685821 	addu	$t3,$v1,$t0
  40c634:	25620030 	addiu	$v0,$t3,48
  40c638:	03e00008 	jr	$ra
  40c63c:	27bd0038 	addiu	$sp,$sp,56
  40c640:	8c850000 	lw	$a1,0($a0)
  40c644:	3c017fff 	lui	$at,0x7fff
  40c648:	3421ffff 	ori	$at,$at,0xffff
  40c64c:	00053043 	sra	$a2,$a1,0x1
  40c650:	24070005 	li	$a3,5
  40c654:	00c17024 	and	$t6,$a2,$at
  40c658:	01c7001a 	div	$zero,$t6,$a3
  40c65c:	01c03025 	move	$a2,$t6
  40c660:	30a30001 	andi	$v1,$a1,0x1
  40c664:	14e00002 	bnez	$a3,40c670 <_usmemalign+0x10c>
  40c668:	00000000 	nop
  40c66c:	0007000d 	break	0x7
  40c670:	2401ffff 	li	$at,-1
  40c674:	14e10004 	bne	$a3,$at,40c688 <_usmemalign+0x124>
  40c678:	3c018000 	lui	$at,0x8000
  40c67c:	14c10002 	bne	$a2,$at,40c688 <_usmemalign+0x124>
  40c680:	00000000 	nop
  40c684:	0006000d 	break	0x6
  40c688:	0000c010 	mfhi	$t8
  40c68c:	0018c840 	sll	$t9,$t8,0x1
  40c690:	00007812 	mflo	$t7
  40c694:	03231021 	addu	$v0,$t9,$v1
  40c698:	ac8f0000 	sw	$t7,0($a0)
  40c69c:	03e00008 	jr	$ra
  40c6a0:	24420030 	addiu	$v0,$v0,48
  40c6a4:	27bdffe0 	addiu	$sp,$sp,-32
  40c6a8:	afbf001c 	sw	$ra,28($sp)
  40c6ac:	afb10018 	sw	$s1,24($sp)
  40c6b0:	afb00014 	sw	$s0,20($sp)
  40c6b4:	afa40020 	sw	$a0,32($sp)
  40c6b8:	afa50024 	sw	$a1,36($sp)
  40c6bc:	90ce000c 	lbu	$t6,12($a2)
  40c6c0:	00c08025 	move	$s0,$a2
  40c6c4:	31cf0001 	andi	$t7,$t6,0x1
  40c6c8:	15e00025 	bnez	$t7,40c760 <_usmemalign+0x1fc>
  40c6cc:	00e08825 	move	$s1,$a3
  40c6d0:	8cf80000 	lw	$t8,0($a3)
  40c6d4:	8cd90004 	lw	$t9,4($a2)
  40c6d8:	8cc90000 	lw	$t1,0($a2)
  40c6dc:	03194023 	subu	$t0,$t8,$t9
  40c6e0:	01285023 	subu	$t2,$t1,$t0
  40c6e4:	90c2000d 	lbu	$v0,13($a2)
  40c6e8:	acca0000 	sw	$t2,0($a2)
  40c6ec:	8ceb0000 	lw	$t3,0($a3)
  40c6f0:	28410064 	slti	$at,$v0,100
  40c6f4:	10200007 	beqz	$at,40c714 <_usmemalign+0x1b0>
  40c6f8:	accb0004 	sw	$t3,4($a2)
  40c6fc:	00026080 	sll	$t4,$v0,0x2
  40c700:	3c050042 	lui	$a1,0x42
  40c704:	00ac2821 	addu	$a1,$a1,$t4
  40c708:	8ca5dc10 	lw	$a1,-9200($a1)
  40c70c:	10000004 	b	40c720 <_usmemalign+0x1bc>
  40c710:	00000000 	nop
  40c714:	0c1016cb 	jal	405b2c <_realbufend>
  40c718:	02002025 	move	$a0,$s0
  40c71c:	00402825 	move	$a1,$v0
  40c720:	0c10182e 	jal	4060b8 <_bufsync>
  40c724:	02002025 	move	$a0,$s0
  40c728:	8fa40020 	lw	$a0,32($sp)
  40c72c:	8fa60024 	lw	$a2,36($sp)
  40c730:	24050001 	li	$a1,1
  40c734:	0c103d0c 	jal	40f430 <fwrite>
  40c738:	02003825 	move	$a3,$s0
  40c73c:	8fad0024 	lw	$t5,36($sp)
  40c740:	00000000 	nop
  40c744:	104d0003 	beq	$v0,$t5,40c754 <_usmemalign+0x1f0>
  40c748:	00000000 	nop
  40c74c:	1000000e 	b	40c788 <_usmemalign+0x224>
  40c750:	00001025 	move	$v0,$zero
  40c754:	8e0e0004 	lw	$t6,4($s0)
  40c758:	1000000a 	b	40c784 <_usmemalign+0x220>
  40c75c:	ae2e0000 	sw	$t6,0($s1)
  40c760:	8e240000 	lw	$a0,0($s1)
  40c764:	8fa50020 	lw	$a1,32($sp)
  40c768:	8fa60024 	lw	$a2,36($sp)
  40c76c:	0c1019e0 	jal	406780 <memcpy>
  40c770:	00000000 	nop
  40c774:	8faf0024 	lw	$t7,36($sp)
  40c778:	00000000 	nop
  40c77c:	004fc021 	addu	$t8,$v0,$t7
  40c780:	ae380000 	sw	$t8,0($s1)
  40c784:	24020001 	li	$v0,1
  40c788:	8fbf001c 	lw	$ra,28($sp)
  40c78c:	8fb00014 	lw	$s0,20($sp)
  40c790:	8fb10018 	lw	$s1,24($sp)
  40c794:	03e00008 	jr	$ra
  40c798:	27bd0020 	addiu	$sp,$sp,32

0040c79c <_doprnt>:
  40c79c:	27bdfba0 	addiu	$sp,$sp,-1120
  40c7a0:	240e0001 	li	$t6,1
  40c7a4:	afbf004c 	sw	$ra,76($sp)
  40c7a8:	afbe0048 	sw	$s8,72($sp)
  40c7ac:	afb70044 	sw	$s7,68($sp)
  40c7b0:	afb60040 	sw	$s6,64($sp)
  40c7b4:	afb5003c 	sw	$s5,60($sp)
  40c7b8:	afb40038 	sw	$s4,56($sp)
  40c7bc:	afb30034 	sw	$s3,52($sp)
  40c7c0:	afb20030 	sw	$s2,48($sp)
  40c7c4:	afb1002c 	sw	$s1,44($sp)
  40c7c8:	afb00028 	sw	$s0,40($sp)
  40c7cc:	e7b50020 	swc1	$f21,32($sp)
  40c7d0:	e7b40024 	swc1	$f20,36($sp)
  40c7d4:	afa50464 	sw	$a1,1124($sp)
  40c7d8:	afa60468 	sw	$a2,1128($sp)
  40c7dc:	afa00454 	sw	$zero,1108($sp)
  40c7e0:	afa0025c 	sw	$zero,604($sp)
  40c7e4:	afa00258 	sw	$zero,600($sp)
  40c7e8:	afa00250 	sw	$zero,592($sp)
  40c7ec:	afa4024c 	sw	$a0,588($sp)
  40c7f0:	afae0248 	sw	$t6,584($sp)
  40c7f4:	afa001c0 	sw	$zero,448($sp)
  40c7f8:	27af0464 	addiu	$t7,$sp,1124
  40c7fc:	8de10000 	lw	$at,0($t7)
  40c800:	27a2008c 	addiu	$v0,$sp,140
  40c804:	27ab0240 	addiu	$t3,$sp,576
  40c808:	ac410000 	sw	$at,0($v0)
  40c80c:	ad610000 	sw	$at,0($t3)
  40c810:	8c410000 	lw	$at,0($v0)
  40c814:	27b90244 	addiu	$t9,$sp,580
  40c818:	af210000 	sw	$at,0($t9)
  40c81c:	8fad0468 	lw	$t5,1128($sp)
  40c820:	00809825 	move	$s3,$a0
  40c824:	8dac0008 	lw	$t4,8($t5)
  40c828:	00000000 	nop
  40c82c:	15800008 	bnez	$t4,40c850 <_doprnt+0xb4>
  40c830:	8fab0468 	lw	$t3,1128($sp)
  40c834:	0c103ee8 	jal	40fba0 <_findbuf>
  40c838:	01a02025 	move	$a0,$t5
  40c83c:	14400004 	bnez	$v0,40c850 <_doprnt+0xb4>
  40c840:	8fab0468 	lw	$t3,1128($sp)
  40c844:	10000841 	b	40e94c <_doprnt+0x21b0>
  40c848:	2402ffff 	li	$v0,-1
  40c84c:	8fab0468 	lw	$t3,1128($sp)
  40c850:	00000000 	nop
  40c854:	8d6e0004 	lw	$t6,4($t3)
  40c858:	00000000 	nop
  40c85c:	afae045c 	sw	$t6,1116($sp)
  40c860:	916f000c 	lbu	$t7,12($t3)
  40c864:	00000000 	nop
  40c868:	31f80001 	andi	$t8,$t7,0x1
  40c86c:	13000005 	beqz	$t8,40c884 <_doprnt+0xe8>
  40c870:	3c017fff 	lui	$at,0x7fff
  40c874:	3421ffff 	ori	$at,$at,0xffff
  40c878:	01c15025 	or	$t2,$t6,$at
  40c87c:	10000012 	b	40c8c8 <_doprnt+0x12c>
  40c880:	afaa0458 	sw	$t2,1112($sp)
  40c884:	8fac0468 	lw	$t4,1128($sp)
  40c888:	00000000 	nop
  40c88c:	9182000d 	lbu	$v0,13($t4)
  40c890:	00000000 	nop
  40c894:	28410064 	slti	$at,$v0,100
  40c898:	10200006 	beqz	$at,40c8b4 <_doprnt+0x118>
  40c89c:	00026880 	sll	$t5,$v0,0x2
  40c8a0:	3c060042 	lui	$a2,0x42
  40c8a4:	00cd3021 	addu	$a2,$a2,$t5
  40c8a8:	8cc6dc10 	lw	$a2,-9200($a2)
  40c8ac:	10000006 	b	40c8c8 <_doprnt+0x12c>
  40c8b0:	afa60458 	sw	$a2,1112($sp)
  40c8b4:	8fa40468 	lw	$a0,1128($sp)
  40c8b8:	0c1016cb 	jal	405b2c <_realbufend>
  40c8bc:	00000000 	nop
  40c8c0:	00403025 	move	$a2,$v0
  40c8c4:	afa60458 	sw	$a2,1112($sp)
  40c8c8:	4480a000 	mtc1	$zero,$f20
  40c8cc:	4480a800 	mtc1	$zero,$f21
  40c8d0:	8fb60444 	lw	$s6,1092($sp)
  40c8d4:	2409fffc 	li	$t1,-4
  40c8d8:	92700000 	lbu	$s0,0($s3)
  40c8dc:	00000000 	nop
  40c8e0:	12000021 	beqz	$s0,40c968 <_doprnt+0x1cc>
  40c8e4:	24010025 	li	$at,37
  40c8e8:	1201001f 	beq	$s0,$at,40c968 <_doprnt+0x1cc>
  40c8ec:	0260b825 	move	$s7,$s3
  40c8f0:	92700001 	lbu	$s0,1($s3)
  40c8f4:	26730001 	addiu	$s3,$s3,1
  40c8f8:	12000003 	beqz	$s0,40c908 <_doprnt+0x16c>
  40c8fc:	24010025 	li	$at,37
  40c900:	1601fffb 	bne	$s0,$at,40c8f0 <_doprnt+0x154>
  40c904:	00000000 	nop
  40c908:	8faf045c 	lw	$t7,1116($sp)
  40c90c:	8fae0454 	lw	$t6,1108($sp)
  40c910:	8fb80458 	lw	$t8,1112($sp)
  40c914:	02778823 	subu	$s1,$s3,$s7
  40c918:	01f19021 	addu	$s2,$t7,$s1
  40c91c:	01d15821 	addu	$t3,$t6,$s1
  40c920:	0312082b 	sltu	$at,$t8,$s2
  40c924:	1020000a 	beqz	$at,40c950 <_doprnt+0x1b4>
  40c928:	afab0454 	sw	$t3,1108($sp)
  40c92c:	8fa60468 	lw	$a2,1128($sp)
  40c930:	02e02025 	move	$a0,$s7
  40c934:	02202825 	move	$a1,$s1
  40c938:	0c1031a9 	jal	40c6a4 <_usmemalign+0x140>
  40c93c:	27a7045c 	addiu	$a3,$sp,1116
  40c940:	14400009 	bnez	$v0,40c968 <_doprnt+0x1cc>
  40c944:	2409fffc 	li	$t1,-4
  40c948:	10000800 	b	40e94c <_doprnt+0x21b0>
  40c94c:	2402ffff 	li	$v0,-1
  40c950:	8fa4045c 	lw	$a0,1116($sp)
  40c954:	02e02825 	move	$a1,$s7
  40c958:	0c1019e0 	jal	406780 <memcpy>
  40c95c:	02203025 	move	$a2,$s1
  40c960:	2409fffc 	li	$t1,-4
  40c964:	afb2045c 	sw	$s2,1116($sp)
  40c968:	1600003a 	bnez	$s0,40ca54 <_doprnt+0x2b8>
  40c96c:	00000000 	nop
  40c970:	8fa70468 	lw	$a3,1128($sp)
  40c974:	8fb9045c 	lw	$t9,1116($sp)
  40c978:	8cea0004 	lw	$t2,4($a3)
  40c97c:	8cec0000 	lw	$t4,0($a3)
  40c980:	032a8023 	subu	$s0,$t9,$t2
  40c984:	8fa50458 	lw	$a1,1112($sp)
  40c988:	01906823 	subu	$t5,$t4,$s0
  40c98c:	aced0000 	sw	$t5,0($a3)
  40c990:	8fae045c 	lw	$t6,1116($sp)
  40c994:	00000000 	nop
  40c998:	acee0004 	sw	$t6,4($a3)
  40c99c:	8faf045c 	lw	$t7,1116($sp)
  40c9a0:	00000000 	nop
  40c9a4:	01afc021 	addu	$t8,$t5,$t7
  40c9a8:	00b8082b 	sltu	$at,$a1,$t8
  40c9ac:	1020000a 	beqz	$at,40c9d8 <_doprnt+0x23c>
  40c9b0:	00000000 	nop
  40c9b4:	90f9000c 	lbu	$t9,12($a3)
  40c9b8:	00000000 	nop
  40c9bc:	332a0001 	andi	$t2,$t9,0x1
  40c9c0:	15400005 	bnez	$t2,40c9d8 <_doprnt+0x23c>
  40c9c4:	00000000 	nop
  40c9c8:	0c10182e 	jal	4060b8 <_bufsync>
  40c9cc:	00e02025 	move	$a0,$a3
  40c9d0:	8fa70468 	lw	$a3,1128($sp)
  40c9d4:	00000000 	nop
  40c9d8:	90e2000c 	lbu	$v0,12($a3)
  40c9dc:	00000000 	nop
  40c9e0:	304c0044 	andi	$t4,$v0,0x44
  40c9e4:	1180000e 	beqz	$t4,40ca20 <_doprnt+0x284>
  40c9e8:	304d0004 	andi	$t5,$v0,0x4
  40c9ec:	15a0000a 	bnez	$t5,40ca18 <_doprnt+0x27c>
  40c9f0:	00000000 	nop
  40c9f4:	8fae045c 	lw	$t6,1116($sp)
  40c9f8:	2405000a 	li	$a1,10
  40c9fc:	02003025 	move	$a2,$s0
  40ca00:	0c103fe4 	jal	40ff90 <memchr>
  40ca04:	01d02023 	subu	$a0,$t6,$s0
  40ca08:	10400006 	beqz	$v0,40ca24 <_doprnt+0x288>
  40ca0c:	8fa70468 	lw	$a3,1128($sp)
  40ca10:	8fa70468 	lw	$a3,1128($sp)
  40ca14:	00000000 	nop
  40ca18:	0c10183e 	jal	4060f8 <_xflsbuf>
  40ca1c:	00e02025 	move	$a0,$a3
  40ca20:	8fa70468 	lw	$a3,1128($sp)
  40ca24:	00000000 	nop
  40ca28:	90eb000c 	lbu	$t3,12($a3)
  40ca2c:	00000000 	nop
  40ca30:	316f0020 	andi	$t7,$t3,0x20
  40ca34:	11e00004 	beqz	$t7,40ca48 <_doprnt+0x2ac>
  40ca38:	8fa60454 	lw	$a2,1108($sp)
  40ca3c:	100007c3 	b	40e94c <_doprnt+0x21b0>
  40ca40:	2402ffff 	li	$v0,-1
  40ca44:	8fa60454 	lw	$a2,1108($sp)
  40ca48:	00000000 	nop
  40ca4c:	100007bf 	b	40e94c <_doprnt+0x21b0>
  40ca50:	00c01025 	move	$v0,$a2
  40ca54:	afa00298 	sw	$zero,664($sp)
  40ca58:	afa00294 	sw	$zero,660($sp)
  40ca5c:	afa0029c 	sw	$zero,668($sp)
  40ca60:	92700001 	lbu	$s0,1($s3)
  40ca64:	00008825 	move	$s1,$zero
  40ca68:	0000a825 	move	$s5,$zero
  40ca6c:	26730001 	addiu	$s3,$s3,1
  40ca70:	2618ffe0 	addiu	$t8,$s0,-32
  40ca74:	2f010059 	sltiu	$at,$t8,89
  40ca78:	26730001 	addiu	$s3,$s3,1
  40ca7c:	1020065d 	beqz	$at,40e3f4 <_doprnt+0x1c58>
  40ca80:	02001825 	move	$v1,$s0
  40ca84:	0018c080 	sll	$t8,$t8,0x2
  40ca88:	3c010042 	lui	$at,0x42
  40ca8c:	00380821 	addu	$at,$at,$t8
  40ca90:	8c38ae1c 	lw	$t8,-20964($at)
  40ca94:	00000000 	nop
  40ca98:	03000008 	jr	$t8
  40ca9c:	00000000 	nop
  40caa0:	36390002 	ori	$t9,$s1,0x2
  40caa4:	92700000 	lbu	$s0,0($s3)
  40caa8:	1000fff1 	b	40ca70 <_doprnt+0x2d4>
  40caac:	03208825 	move	$s1,$t9
  40cab0:	362a0004 	ori	$t2,$s1,0x4
  40cab4:	2401ffdf 	li	$at,-33
  40cab8:	92700000 	lbu	$s0,0($s3)
  40cabc:	1000ffec 	b	40ca70 <_doprnt+0x2d4>
  40cac0:	01418824 	and	$s1,$t2,$at
  40cac4:	362d0008 	ori	$t5,$s1,0x8
  40cac8:	92700000 	lbu	$s0,0($s3)
  40cacc:	1000ffe8 	b	40ca70 <_doprnt+0x2d4>
  40cad0:	01a08825 	move	$s1,$t5
  40cad4:	362e0010 	ori	$t6,$s1,0x10
  40cad8:	92700000 	lbu	$s0,0($s3)
  40cadc:	1000ffe4 	b	40ca70 <_doprnt+0x2d4>
  40cae0:	01c08825 	move	$s1,$t6
  40cae4:	362b0040 	ori	$t3,$s1,0x40
  40cae8:	92700000 	lbu	$s0,0($s3)
  40caec:	01608825 	move	$s1,$t3
  40caf0:	1000ffdf 	b	40ca70 <_doprnt+0x2d4>
  40caf4:	0000b025 	move	$s6,$zero
  40caf8:	926f0000 	lbu	$t7,0($s3)
  40cafc:	3c180042 	lui	$t8,0x42
  40cb00:	030fc021 	addu	$t8,$t8,$t7
  40cb04:	9318d901 	lbu	$t8,-9983($t8)
  40cb08:	00000000 	nop
  40cb0c:	33190004 	andi	$t9,$t8,0x4
  40cb10:	13200009 	beqz	$t9,40cb38 <_doprnt+0x39c>
  40cb14:	322d0040 	andi	$t5,$s1,0x40
  40cb18:	8fac0244 	lw	$t4,580($sp)
  40cb1c:	240a0001 	li	$t2,1
  40cb20:	afaa01c0 	sw	$t2,448($sp)
  40cb24:	afac023c 	sw	$t4,572($sp)
  40cb28:	92700000 	lbu	$s0,0($s3)
  40cb2c:	1000ffd1 	b	40ca74 <_doprnt+0x2d8>
  40cb30:	2618ffe0 	addiu	$t8,$s0,-32
  40cb34:	322d0040 	andi	$t5,$s1,0x40
  40cb38:	15a0000f 	bnez	$t5,40cb78 <_doprnt+0x3dc>
  40cb3c:	8faa0244 	lw	$t2,580($sp)
  40cb40:	8fae0244 	lw	$t6,580($sp)
  40cb44:	00000000 	nop
  40cb48:	25cb0003 	addiu	$t3,$t6,3
  40cb4c:	01697824 	and	$t7,$t3,$t1
  40cb50:	25f80004 	addiu	$t8,$t7,4
  40cb54:	afb80244 	sw	$t8,580($sp)
  40cb58:	8df50000 	lw	$s5,0($t7)
  40cb5c:	00000000 	nop
  40cb60:	06a10011 	bgez	$s5,40cba8 <_doprnt+0x40c>
  40cb64:	36390004 	ori	$t9,$s1,0x4
  40cb68:	0015a823 	negu	$s5,$s5
  40cb6c:	1000000e 	b	40cba8 <_doprnt+0x40c>
  40cb70:	03208825 	move	$s1,$t9
  40cb74:	8faa0244 	lw	$t2,580($sp)
  40cb78:	00000000 	nop
  40cb7c:	254c0003 	addiu	$t4,$t2,3
  40cb80:	01896824 	and	$t5,$t4,$t1
  40cb84:	25ae0004 	addiu	$t6,$t5,4
  40cb88:	afae0244 	sw	$t6,580($sp)
  40cb8c:	8db60000 	lw	$s6,0($t5)
  40cb90:	00000000 	nop
  40cb94:	06c10004 	bgez	$s6,40cba8 <_doprnt+0x40c>
  40cb98:	2401ffbf 	li	$at,-65
  40cb9c:	02215824 	and	$t3,$s1,$at
  40cba0:	0000b025 	move	$s6,$zero
  40cba4:	01608825 	move	$s1,$t3
  40cba8:	92700000 	lbu	$s0,0($s3)
  40cbac:	1000ffb1 	b	40ca74 <_doprnt+0x2d8>
  40cbb0:	2618ffe0 	addiu	$t8,$s0,-32
  40cbb4:	8fb80248 	lw	$t8,584($sp)
  40cbb8:	32340040 	andi	$s4,$s1,0x40
  40cbbc:	13000008 	beqz	$t8,40cbe0 <_doprnt+0x444>
  40cbc0:	00000000 	nop
  40cbc4:	8fa50240 	lw	$a1,576($sp)
  40cbc8:	8fa4024c 	lw	$a0,588($sp)
  40cbcc:	27a601c4 	addiu	$a2,$sp,452
  40cbd0:	afa00248 	sw	$zero,584($sp)
  40cbd4:	0c103a61 	jal	40e984 <_mkarglst>
  40cbd8:	afa50004 	sw	$a1,4($sp)
  40cbdc:	2409fffc 	li	$t1,-4
  40cbe0:	12800003 	beqz	$s4,40cbf0 <_doprnt+0x454>
  40cbe4:	02c03025 	move	$a2,$s6
  40cbe8:	10000003 	b	40cbf8 <_doprnt+0x45c>
  40cbec:	0000b025 	move	$s6,$zero
  40cbf0:	02a03025 	move	$a2,$s5
  40cbf4:	0000a825 	move	$s5,$zero
  40cbf8:	1cc00004 	bgtz	$a2,40cc0c <_doprnt+0x470>
  40cbfc:	28c1001f 	slti	$at,$a2,31
  40cc00:	1000ff35 	b	40c8d8 <_doprnt+0x13c>
  40cc04:	2673ffff 	addiu	$s3,$s3,-1
  40cc08:	28c1001f 	slti	$at,$a2,31
  40cc0c:	10200008 	beqz	$at,40cc30 <_doprnt+0x494>
  40cc10:	00065080 	sll	$t2,$a2,0x2
  40cc14:	254cfffc 	addiu	$t4,$t2,-4
  40cc18:	27ae01c4 	addiu	$t6,$sp,452
  40cc1c:	018e6821 	addu	$t5,$t4,$t6
  40cc20:	8da10000 	lw	$at,0($t5)
  40cc24:	27b90158 	addiu	$t9,$sp,344
  40cc28:	10000007 	b	40cc48 <_doprnt+0x4ac>
  40cc2c:	af210000 	sw	$at,0($t9)
  40cc30:	8faf0238 	lw	$t7,568($sp)
  40cc34:	8fa4024c 	lw	$a0,588($sp)
  40cc38:	27a50158 	addiu	$a1,$sp,344
  40cc3c:	0c103b69 	jal	40eda4 <_getarg>
  40cc40:	afaf0158 	sw	$t7,344($sp)
  40cc44:	2409fffc 	li	$t1,-4
  40cc48:	8faa01c0 	lw	$t2,448($sp)
  40cc4c:	00000000 	nop
  40cc50:	15400005 	bnez	$t2,40cc68 <_doprnt+0x4cc>
  40cc54:	8fae023c 	lw	$t6,572($sp)
  40cc58:	8fac0158 	lw	$t4,344($sp)
  40cc5c:	1000001f 	b	40ccdc <_doprnt+0x540>
  40cc60:	afac0244 	sw	$t4,580($sp)
  40cc64:	8fae023c 	lw	$t6,572($sp)
  40cc68:	afa001c0 	sw	$zero,448($sp)
  40cc6c:	1280000f 	beqz	$s4,40ccac <_doprnt+0x510>
  40cc70:	afae0244 	sw	$t6,580($sp)
  40cc74:	8fab0158 	lw	$t3,344($sp)
  40cc78:	00000000 	nop
  40cc7c:	25790003 	addiu	$t9,$t3,3
  40cc80:	03296824 	and	$t5,$t9,$t1
  40cc84:	25b80004 	addiu	$t8,$t5,4
  40cc88:	afb80158 	sw	$t8,344($sp)
  40cc8c:	8db60000 	lw	$s6,0($t5)
  40cc90:	00000000 	nop
  40cc94:	06c10011 	bgez	$s6,40ccdc <_doprnt+0x540>
  40cc98:	2401ffbf 	li	$at,-65
  40cc9c:	02217824 	and	$t7,$s1,$at
  40cca0:	0000b025 	move	$s6,$zero
  40cca4:	1000000d 	b	40ccdc <_doprnt+0x540>
  40cca8:	01e08825 	move	$s1,$t7
  40ccac:	8faa0158 	lw	$t2,344($sp)
  40ccb0:	00000000 	nop
  40ccb4:	254c0003 	addiu	$t4,$t2,3
  40ccb8:	01897024 	and	$t6,$t4,$t1
  40ccbc:	25cb0004 	addiu	$t3,$t6,4
  40ccc0:	afab0158 	sw	$t3,344($sp)
  40ccc4:	8dd50000 	lw	$s5,0($t6)
  40ccc8:	00000000 	nop
  40cccc:	06a10003 	bgez	$s5,40ccdc <_doprnt+0x540>
  40ccd0:	36390004 	ori	$t9,$s1,0x4
  40ccd4:	0015a823 	negu	$s5,$s5
  40ccd8:	03208825 	move	$s1,$t9
  40ccdc:	92700000 	lbu	$s0,0($s3)
  40cce0:	1000ff64 	b	40ca74 <_doprnt+0x2d8>
  40cce4:	2618ffe0 	addiu	$t8,$s0,-32
  40cce8:	32380044 	andi	$t8,$s1,0x44
  40ccec:	17000002 	bnez	$t8,40ccf8 <_doprnt+0x55c>
  40ccf0:	362d0020 	ori	$t5,$s1,0x20
  40ccf4:	01a08825 	move	$s1,$t5
  40ccf8:	2602ffd0 	addiu	$v0,$s0,-48
  40ccfc:	92700000 	lbu	$s0,0($s3)
  40cd00:	3c0f0042 	lui	$t7,0x42
  40cd04:	01f07821 	addu	$t7,$t7,$s0
  40cd08:	91efd901 	lbu	$t7,-9983($t7)
  40cd0c:	32340040 	andi	$s4,$s1,0x40
  40cd10:	31ea0004 	andi	$t2,$t7,0x4
  40cd14:	1140000f 	beqz	$t2,40cd54 <_doprnt+0x5b8>
  40cd18:	3c030042 	lui	$v1,0x42
  40cd1c:	2463d900 	addiu	$v1,$v1,-9984
  40cd20:	2404000a 	li	$a0,10
  40cd24:	00440019 	multu	$v0,$a0
  40cd28:	26730001 	addiu	$s3,$s3,1
  40cd2c:	00006012 	mflo	$t4
  40cd30:	01901021 	addu	$v0,$t4,$s0
  40cd34:	92700000 	lbu	$s0,0($s3)
  40cd38:	2442ffd0 	addiu	$v0,$v0,-48
  40cd3c:	02035821 	addu	$t3,$s0,$v1
  40cd40:	916e0001 	lbu	$t6,1($t3)
  40cd44:	00000000 	nop
  40cd48:	31d90004 	andi	$t9,$t6,0x4
  40cd4c:	1720fff5 	bnez	$t9,40cd24 <_doprnt+0x588>
  40cd50:	00000000 	nop
  40cd54:	12800003 	beqz	$s4,40cd64 <_doprnt+0x5c8>
  40cd58:	00000000 	nop
  40cd5c:	1000ff44 	b	40ca70 <_doprnt+0x2d4>
  40cd60:	0040b025 	move	$s6,$v0
  40cd64:	1000ff42 	b	40ca70 <_doprnt+0x2d4>
  40cd68:	0040a825 	move	$s5,$v0
  40cd6c:	32380001 	andi	$t8,$s1,0x1
  40cd70:	13000004 	beqz	$t8,40cd84 <_doprnt+0x5e8>
  40cd74:	2401fffe 	li	$at,-2
  40cd78:	02216824 	and	$t5,$s1,$at
  40cd7c:	10000003 	b	40cd8c <_doprnt+0x5f0>
  40cd80:	35b10800 	ori	$s1,$t5,0x800
  40cd84:	362a0001 	ori	$t2,$s1,0x1
  40cd88:	01408825 	move	$s1,$t2
  40cd8c:	92700000 	lbu	$s0,0($s3)
  40cd90:	1000ff38 	b	40ca74 <_doprnt+0x2d8>
  40cd94:	2618ffe0 	addiu	$t8,$s0,-32
  40cd98:	362c0400 	ori	$t4,$s1,0x400
  40cd9c:	92700000 	lbu	$s0,0($s3)
  40cda0:	1000ff33 	b	40ca70 <_doprnt+0x2d4>
  40cda4:	01808825 	move	$s1,$t4
  40cda8:	92700000 	lbu	$s0,0($s3)
  40cdac:	1000ff31 	b	40ca74 <_doprnt+0x2d8>
  40cdb0:	2618ffe0 	addiu	$t8,$s0,-32
  40cdb4:	27a802c6 	addiu	$t0,$sp,710
  40cdb8:	322e0800 	andi	$t6,$s1,0x800
  40cdbc:	00001025 	move	$v0,$zero
  40cdc0:	0100b825 	move	$s7,$t0
  40cdc4:	11c0000c 	beqz	$t6,40cdf8 <_doprnt+0x65c>
  40cdc8:	32340040 	andi	$s4,$s1,0x40
  40cdcc:	8fb90244 	lw	$t9,580($sp)
  40cdd0:	2401fff8 	li	$at,-8
  40cdd4:	27380007 	addiu	$t8,$t9,7
  40cdd8:	03016824 	and	$t5,$t8,$at
  40cddc:	25af0008 	addiu	$t7,$t5,8
  40cde0:	afaf0244 	sw	$t7,580($sp)
  40cde4:	8dab0004 	lw	$t3,4($t5)
  40cde8:	8daa0000 	lw	$t2,0($t5)
  40cdec:	afab028c 	sw	$t3,652($sp)
  40cdf0:	10000016 	b	40ce4c <_doprnt+0x6b0>
  40cdf4:	afaa0288 	sw	$t2,648($sp)
  40cdf8:	322c0001 	andi	$t4,$s1,0x1
  40cdfc:	1180000b 	beqz	$t4,40ce2c <_doprnt+0x690>
  40ce00:	8faa0244 	lw	$t2,580($sp)
  40ce04:	8fae0244 	lw	$t6,580($sp)
  40ce08:	24020001 	li	$v0,1
  40ce0c:	25d90003 	addiu	$t9,$t6,3
  40ce10:	0329c024 	and	$t8,$t9,$t1
  40ce14:	270f0004 	addiu	$t7,$t8,4
  40ce18:	afaf0244 	sw	$t7,580($sp)
  40ce1c:	8f0d0000 	lw	$t5,0($t8)
  40ce20:	1000000a 	b	40ce4c <_doprnt+0x6b0>
  40ce24:	afad0284 	sw	$t5,644($sp)
  40ce28:	8faa0244 	lw	$t2,580($sp)
  40ce2c:	24020001 	li	$v0,1
  40ce30:	254b0003 	addiu	$t3,$t2,3
  40ce34:	01696024 	and	$t4,$t3,$t1
  40ce38:	258e0004 	addiu	$t6,$t4,4
  40ce3c:	afae0244 	sw	$t6,580($sp)
  40ce40:	8d990000 	lw	$t9,0($t4)
  40ce44:	00000000 	nop
  40ce48:	afb90284 	sw	$t9,644($sp)
  40ce4c:	322f0400 	andi	$t7,$s1,0x400
  40ce50:	11e00009 	beqz	$t7,40ce78 <_doprnt+0x6dc>
  40ce54:	322c0020 	andi	$t4,$s1,0x20
  40ce58:	8fb9028c 	lw	$t9,652($sp)
  40ce5c:	00000000 	nop
  40ce60:	00195400 	sll	$t2,$t9,0x10
  40ce64:	000a5c03 	sra	$t3,$t2,0x10
  40ce68:	000b77c3 	sra	$t6,$t3,0x1f
  40ce6c:	afae0288 	sw	$t6,648($sp)
  40ce70:	afab028c 	sw	$t3,652($sp)
  40ce74:	322c0020 	andi	$t4,$s1,0x20
  40ce78:	11800006 	beqz	$t4,40ce94 <_doprnt+0x6f8>
  40ce7c:	00000000 	nop
  40ce80:	12800004 	beqz	$s4,40ce94 <_doprnt+0x6f8>
  40ce84:	2401ffdf 	li	$at,-33
  40ce88:	0221c024 	and	$t8,$s1,$at
  40ce8c:	03008825 	move	$s1,$t8
  40ce90:	33140040 	andi	$s4,$t8,0x40
  40ce94:	10400056 	beqz	$v0,40cff0 <_doprnt+0x854>
  40ce98:	8faa0288 	lw	$t2,648($sp)
  40ce9c:	8fb90284 	lw	$t9,644($sp)
  40cea0:	00000000 	nop
  40cea4:	07210013 	bgez	$t9,40cef4 <_doprnt+0x758>
  40cea8:	278d88fc 	addiu	$t5,$gp,-30468
  40ceac:	240a0001 	li	$t2,1
  40ceb0:	3c018000 	lui	$at,0x8000
  40ceb4:	afad02ac 	sw	$t5,684($sp)
  40ceb8:	13210004 	beq	$t9,$at,40cecc <_doprnt+0x730>
  40cebc:	afaa029c 	sw	$t2,668($sp)
  40cec0:	00195823 	negu	$t3,$t9
  40cec4:	10000008 	b	40cee8 <_doprnt+0x74c>
  40cec8:	afab0284 	sw	$t3,644($sp)
  40cecc:	27b702c5 	addiu	$s7,$sp,709
  40ced0:	27a40284 	addiu	$a0,$sp,644
  40ced4:	0c103190 	jal	40c640 <_usmemalign+0xdc>
  40ced8:	afa8044c 	sw	$t0,1100($sp)
  40cedc:	8fa8044c 	lw	$t0,1100($sp)
  40cee0:	a2e20000 	sb	$v0,0($s7)
  40cee4:	2409fffc 	li	$t1,-4
  40cee8:	8fa60284 	lw	$a2,644($sp)
  40ceec:	10000010 	b	40cf30 <_doprnt+0x794>
  40cef0:	8fb90284 	lw	$t9,644($sp)
  40cef4:	8fa60284 	lw	$a2,644($sp)
  40cef8:	322e0002 	andi	$t6,$s1,0x2
  40cefc:	11c00005 	beqz	$t6,40cf14 <_doprnt+0x778>
  40cf00:	278f8900 	addiu	$t7,$gp,-30464
  40cf04:	240c0001 	li	$t4,1
  40cf08:	afaf02ac 	sw	$t7,684($sp)
  40cf0c:	10000007 	b	40cf2c <_doprnt+0x790>
  40cf10:	afac029c 	sw	$t4,668($sp)
  40cf14:	32380008 	andi	$t8,$s1,0x8
  40cf18:	13000004 	beqz	$t8,40cf2c <_doprnt+0x790>
  40cf1c:	278d8904 	addiu	$t5,$gp,-30460
  40cf20:	240a0001 	li	$t2,1
  40cf24:	afad02ac 	sw	$t5,684($sp)
  40cf28:	afaa029c 	sw	$t2,668($sp)
  40cf2c:	8fb90284 	lw	$t9,644($sp)
  40cf30:	00000000 	nop
  40cf34:	2b21000a 	slti	$at,$t9,10
  40cf38:	10200009 	beqz	$at,40cf60 <_doprnt+0x7c4>
  40cf3c:	00c02025 	move	$a0,$a2
  40cf40:	17200003 	bnez	$t9,40cf50 <_doprnt+0x7b4>
  40cf44:	24cb0030 	addiu	$t3,$a2,48
  40cf48:	168000a8 	bnez	$s4,40d1ec <_doprnt+0xa50>
  40cf4c:	24cb0030 	addiu	$t3,$a2,48
  40cf50:	a2ebffff 	sb	$t3,-1($s7)
  40cf54:	100000a5 	b	40d1ec <_doprnt+0xa50>
  40cf58:	26f7ffff 	addiu	$s7,$s7,-1
  40cf5c:	00c02025 	move	$a0,$a2
  40cf60:	afa6014c 	sw	$a2,332($sp)
  40cf64:	0c103c99 	jal	40f264 <_getarg+0x4c0>
  40cf68:	afa8044c 	sw	$t0,1100($sp)
  40cf6c:	8fa6014c 	lw	$a2,332($sp)
  40cf70:	8fa8044c 	lw	$t0,1100($sp)
  40cf74:	2444fffe 	addiu	$a0,$v0,-2
  40cf78:	2409fffc 	li	$t1,-4
  40cf7c:	04800016 	bltz	$a0,40cfd8 <_doprnt+0x83c>
  40cf80:	02e2b823 	subu	$s7,$s7,$v0
  40cf84:	3c0f0042 	lui	$t7,0x42
  40cf88:	25efad60 	addiu	$t7,$t7,-21152
  40cf8c:	00047080 	sll	$t6,$a0,0x2
  40cf90:	01cf3821 	addu	$a3,$t6,$t7
  40cf94:	8ce40000 	lw	$a0,0($a3)
  40cf98:	00002825 	move	$a1,$zero
  40cf9c:	00c4082a 	slt	$at,$a2,$a0
  40cfa0:	14200005 	bnez	$at,40cfb8 <_doprnt+0x81c>
  40cfa4:	00000000 	nop
  40cfa8:	00c43023 	subu	$a2,$a2,$a0
  40cfac:	00c4082a 	slt	$at,$a2,$a0
  40cfb0:	1020fffd 	beqz	$at,40cfa8 <_doprnt+0x80c>
  40cfb4:	24a50001 	addiu	$a1,$a1,1
  40cfb8:	3c180042 	lui	$t8,0x42
  40cfbc:	2718ad60 	addiu	$t8,$t8,-21152
  40cfc0:	24e7fffc 	addiu	$a3,$a3,-4
  40cfc4:	00f8082b 	sltu	$at,$a3,$t8
  40cfc8:	24ac0030 	addiu	$t4,$a1,48
  40cfcc:	a2ec0000 	sb	$t4,0($s7)
  40cfd0:	1020fff0 	beqz	$at,40cf94 <_doprnt+0x7f8>
  40cfd4:	26f70001 	addiu	$s7,$s7,1
  40cfd8:	24cd0030 	addiu	$t5,$a2,48
  40cfdc:	a2ed0000 	sb	$t5,0($s7)
  40cfe0:	26f70001 	addiu	$s7,$s7,1
  40cfe4:	10000081 	b	40d1ec <_doprnt+0xa50>
  40cfe8:	02e2b823 	subu	$s7,$s7,$v0
  40cfec:	8faa0288 	lw	$t2,648($sp)
  40cff0:	8fab028c 	lw	$t3,652($sp)
  40cff4:	1d400020 	bgtz	$t2,40d078 <_doprnt+0x8dc>
  40cff8:	8fae0288 	lw	$t6,648($sp)
  40cffc:	05400003 	bltz	$t2,40d00c <_doprnt+0x870>
  40d000:	00000000 	nop
  40d004:	1000001c 	b	40d078 <_doprnt+0x8dc>
  40d008:	8fae0288 	lw	$t6,648($sp)
  40d00c:	27998908 	addiu	$t9,$gp,-30456
  40d010:	240e0001 	li	$t6,1
  40d014:	3c018000 	lui	$at,0x8000
  40d018:	afb902ac 	sw	$t9,684($sp)
  40d01c:	15410002 	bne	$t2,$at,40d028 <_doprnt+0x88c>
  40d020:	afae029c 	sw	$t6,668($sp)
  40d024:	11600007 	beqz	$t3,40d044 <_doprnt+0x8a8>
  40d028:	2d610001 	sltiu	$at,$t3,1
  40d02c:	01406027 	nor	$t4,$t2,$zero
  40d030:	01816021 	addu	$t4,$t4,$at
  40d034:	000b6823 	negu	$t5,$t3
  40d038:	afad028c 	sw	$t5,652($sp)
  40d03c:	10000008 	b	40d060 <_doprnt+0x8c4>
  40d040:	afac0288 	sw	$t4,648($sp)
  40d044:	27b702c5 	addiu	$s7,$sp,709
  40d048:	27a40288 	addiu	$a0,$sp,648
  40d04c:	0c103164 	jal	40c590 <_usmemalign+0x2c>
  40d050:	afa8044c 	sw	$t0,1100($sp)
  40d054:	8fa8044c 	lw	$t0,1100($sp)
  40d058:	a2e20000 	sb	$v0,0($s7)
  40d05c:	2409fffc 	li	$t1,-4
  40d060:	8fb80288 	lw	$t8,648($sp)
  40d064:	8fb9028c 	lw	$t9,652($sp)
  40d068:	afb80130 	sw	$t8,304($sp)
  40d06c:	10000012 	b	40d0b8 <_doprnt+0x91c>
  40d070:	afb90134 	sw	$t9,308($sp)
  40d074:	8fae0288 	lw	$t6,648($sp)
  40d078:	8faf028c 	lw	$t7,652($sp)
  40d07c:	322a0002 	andi	$t2,$s1,0x2
  40d080:	afae0130 	sw	$t6,304($sp)
  40d084:	11400006 	beqz	$t2,40d0a0 <_doprnt+0x904>
  40d088:	afaf0134 	sw	$t7,308($sp)
  40d08c:	278b890c 	addiu	$t3,$gp,-30452
  40d090:	240c0001 	li	$t4,1
  40d094:	afab02ac 	sw	$t3,684($sp)
  40d098:	10000007 	b	40d0b8 <_doprnt+0x91c>
  40d09c:	afac029c 	sw	$t4,668($sp)
  40d0a0:	322d0008 	andi	$t5,$s1,0x8
  40d0a4:	11a00004 	beqz	$t5,40d0b8 <_doprnt+0x91c>
  40d0a8:	27988910 	addiu	$t8,$gp,-30448
  40d0ac:	24190001 	li	$t9,1
  40d0b0:	afb802ac 	sw	$t8,684($sp)
  40d0b4:	afb9029c 	sw	$t9,668($sp)
  40d0b8:	8fae0288 	lw	$t6,648($sp)
  40d0bc:	8faf028c 	lw	$t7,652($sp)
  40d0c0:	1dc00011 	bgtz	$t6,40d108 <_doprnt+0x96c>
  40d0c4:	8fa40130 	lw	$a0,304($sp)
  40d0c8:	05c00003 	bltz	$t6,40d0d8 <_doprnt+0x93c>
  40d0cc:	2de1000a 	sltiu	$at,$t7,10
  40d0d0:	1020000d 	beqz	$at,40d108 <_doprnt+0x96c>
  40d0d4:	8fa40130 	lw	$a0,304($sp)
  40d0d8:	15c00006 	bnez	$t6,40d0f4 <_doprnt+0x958>
  40d0dc:	8fab0134 	lw	$t3,308($sp)
  40d0e0:	15e00004 	bnez	$t7,40d0f4 <_doprnt+0x958>
  40d0e4:	8fab0134 	lw	$t3,308($sp)
  40d0e8:	16800040 	bnez	$s4,40d1ec <_doprnt+0xa50>
  40d0ec:	00000000 	nop
  40d0f0:	8fab0134 	lw	$t3,308($sp)
  40d0f4:	26f7ffff 	addiu	$s7,$s7,-1
  40d0f8:	256d0030 	addiu	$t5,$t3,48
  40d0fc:	1000003b 	b	40d1ec <_doprnt+0xa50>
  40d100:	a2ed0000 	sb	$t5,0($s7)
  40d104:	8fa40130 	lw	$a0,304($sp)
  40d108:	8fa50134 	lw	$a1,308($sp)
  40d10c:	0c103c6e 	jal	40f1b8 <_getarg+0x414>
  40d110:	afa8044c 	sw	$t0,1100($sp)
  40d114:	8fa8044c 	lw	$t0,1100($sp)
  40d118:	2444fffe 	addiu	$a0,$v0,-2
  40d11c:	2409fffc 	li	$t1,-4
  40d120:	0480002d 	bltz	$a0,40d1d8 <_doprnt+0xa3c>
  40d124:	02e2b823 	subu	$s7,$s7,$v0
  40d128:	3c0e0042 	lui	$t6,0x42
  40d12c:	25ceacd0 	addiu	$t6,$t6,-21296
  40d130:	0004c8c0 	sll	$t9,$a0,0x3
  40d134:	032e2821 	addu	$a1,$t9,$t6
  40d138:	8caa0000 	lw	$t2,0($a1)
  40d13c:	8fac0130 	lw	$t4,304($sp)
  40d140:	8cab0004 	lw	$t3,4($a1)
  40d144:	8fad0134 	lw	$t5,308($sp)
  40d148:	018a082a 	slt	$at,$t4,$t2
  40d14c:	00002025 	move	$a0,$zero
  40d150:	afaa0128 	sw	$t2,296($sp)
  40d154:	14200018 	bnez	$at,40d1b8 <_doprnt+0xa1c>
  40d158:	afab012c 	sw	$t3,300($sp)
  40d15c:	014c082a 	slt	$at,$t2,$t4
  40d160:	14200003 	bnez	$at,40d170 <_doprnt+0x9d4>
  40d164:	01ab082b 	sltu	$at,$t5,$t3
  40d168:	14200013 	bnez	$at,40d1b8 <_doprnt+0xa1c>
  40d16c:	00000000 	nop
  40d170:	8fae0130 	lw	$t6,304($sp)
  40d174:	8faf0134 	lw	$t7,308($sp)
  40d178:	8faa0128 	lw	$t2,296($sp)
  40d17c:	8fab012c 	lw	$t3,300($sp)
  40d180:	01ca6023 	subu	$t4,$t6,$t2
  40d184:	01eb082b 	sltu	$at,$t7,$t3
  40d188:	01816023 	subu	$t4,$t4,$at
  40d18c:	014c082a 	slt	$at,$t2,$t4
  40d190:	01eb6823 	subu	$t5,$t7,$t3
  40d194:	24840001 	addiu	$a0,$a0,1
  40d198:	afad0134 	sw	$t5,308($sp)
  40d19c:	1420fff4 	bnez	$at,40d170 <_doprnt+0x9d4>
  40d1a0:	afac0130 	sw	$t4,304($sp)
  40d1a4:	018a082a 	slt	$at,$t4,$t2
  40d1a8:	14200003 	bnez	$at,40d1b8 <_doprnt+0xa1c>
  40d1ac:	01ab082b 	sltu	$at,$t5,$t3
  40d1b0:	1020fff0 	beqz	$at,40d174 <_doprnt+0x9d8>
  40d1b4:	8fae0130 	lw	$t6,304($sp)
  40d1b8:	3c190042 	lui	$t9,0x42
  40d1bc:	2739acd0 	addiu	$t9,$t9,-21296
  40d1c0:	24a5fff8 	addiu	$a1,$a1,-8
  40d1c4:	00b9082b 	sltu	$at,$a1,$t9
  40d1c8:	24980030 	addiu	$t8,$a0,48
  40d1cc:	a2f80000 	sb	$t8,0($s7)
  40d1d0:	1020ffd9 	beqz	$at,40d138 <_doprnt+0x99c>
  40d1d4:	26f70001 	addiu	$s7,$s7,1
  40d1d8:	8faf0134 	lw	$t7,308($sp)
  40d1dc:	26f70001 	addiu	$s7,$s7,1
  40d1e0:	25ed0030 	addiu	$t5,$t7,48
  40d1e4:	a2edffff 	sb	$t5,-1($s7)
  40d1e8:	02e2b823 	subu	$s7,$s7,$v0
  40d1ec:	12800483 	beqz	$s4,40e3fc <_doprnt+0x1c60>
  40d1f0:	27ab02c6 	addiu	$t3,$sp,710
  40d1f4:	0177c023 	subu	$t8,$t3,$s7
  40d1f8:	02d81023 	subu	$v0,$s6,$t8
  40d1fc:	1840047f 	blez	$v0,40e3fc <_doprnt+0x1c60>
  40d200:	36390200 	ori	$t9,$s1,0x200
  40d204:	afa2043c 	sw	$v0,1084($sp)
  40d208:	afa20294 	sw	$v0,660($sp)
  40d20c:	1000047b 	b	40e3fc <_doprnt+0x1c60>
  40d210:	03208825 	move	$s1,$t9
  40d214:	27a802c6 	addiu	$t0,$sp,710
  40d218:	322f0800 	andi	$t7,$s1,0x800
  40d21c:	0100b825 	move	$s7,$t0
  40d220:	11e0000c 	beqz	$t7,40d254 <_doprnt+0xab8>
  40d224:	32340040 	andi	$s4,$s1,0x40
  40d228:	8fac0244 	lw	$t4,580($sp)
  40d22c:	2401fff8 	li	$at,-8
  40d230:	258d0007 	addiu	$t5,$t4,7
  40d234:	01a15024 	and	$t2,$t5,$at
  40d238:	254b0008 	addiu	$t3,$t2,8
  40d23c:	afab0244 	sw	$t3,580($sp)
  40d240:	8d590004 	lw	$t9,4($t2)
  40d244:	8d580000 	lw	$t8,0($t2)
  40d248:	afb9028c 	sw	$t9,652($sp)
  40d24c:	10000017 	b	40d2ac <_doprnt+0xb10>
  40d250:	afb80288 	sw	$t8,648($sp)
  40d254:	322e0001 	andi	$t6,$s1,0x1
  40d258:	11c0000c 	beqz	$t6,40d28c <_doprnt+0xaf0>
  40d25c:	8fae0244 	lw	$t6,580($sp)
  40d260:	8faf0244 	lw	$t7,580($sp)
  40d264:	24180000 	li	$t8,0
  40d268:	25ec0003 	addiu	$t4,$t7,3
  40d26c:	01896824 	and	$t5,$t4,$t1
  40d270:	25ab0004 	addiu	$t3,$t5,4
  40d274:	afab0244 	sw	$t3,580($sp)
  40d278:	8daa0000 	lw	$t2,0($t5)
  40d27c:	afb80288 	sw	$t8,648($sp)
  40d280:	1000000a 	b	40d2ac <_doprnt+0xb10>
  40d284:	afaa028c 	sw	$t2,652($sp)
  40d288:	8fae0244 	lw	$t6,580($sp)
  40d28c:	240a0000 	li	$t2,0
  40d290:	25cf0003 	addiu	$t7,$t6,3
  40d294:	01e96024 	and	$t4,$t7,$t1
  40d298:	258b0004 	addiu	$t3,$t4,4
  40d29c:	afab0244 	sw	$t3,580($sp)
  40d2a0:	8d8d0000 	lw	$t5,0($t4)
  40d2a4:	afaa0288 	sw	$t2,648($sp)
  40d2a8:	afad028c 	sw	$t5,652($sp)
  40d2ac:	32380400 	andi	$t8,$s1,0x400
  40d2b0:	13000007 	beqz	$t8,40d2d0 <_doprnt+0xb34>
  40d2b4:	322d0020 	andi	$t5,$s1,0x20
  40d2b8:	8faf028c 	lw	$t7,652($sp)
  40d2bc:	240a0000 	li	$t2,0
  40d2c0:	31ecffff 	andi	$t4,$t7,0xffff
  40d2c4:	afac028c 	sw	$t4,652($sp)
  40d2c8:	afaa0288 	sw	$t2,648($sp)
  40d2cc:	322d0020 	andi	$t5,$s1,0x20
  40d2d0:	11a00007 	beqz	$t5,40d2f0 <_doprnt+0xb54>
  40d2d4:	8fae0288 	lw	$t6,648($sp)
  40d2d8:	12800004 	beqz	$s4,40d2ec <_doprnt+0xb50>
  40d2dc:	2401ffdf 	li	$at,-33
  40d2e0:	0221c024 	and	$t8,$s1,$at
  40d2e4:	03008825 	move	$s1,$t8
  40d2e8:	33140040 	andi	$s4,$t8,0x40
  40d2ec:	8fae0288 	lw	$t6,648($sp)
  40d2f0:	8faf028c 	lw	$t7,652($sp)
  40d2f4:	000e6000 	sll	$t4,$t6,0x0
  40d2f8:	05800003 	bltz	$t4,40d308 <_doprnt+0xb6c>
  40d2fc:	31ed0000 	andi	$t5,$t7,0x0
  40d300:	11a00009 	beqz	$t5,40d328 <_doprnt+0xb8c>
  40d304:	8faa0288 	lw	$t2,648($sp)
  40d308:	27b702c5 	addiu	$s7,$sp,709
  40d30c:	27a40288 	addiu	$a0,$sp,648
  40d310:	0c103164 	jal	40c590 <_usmemalign+0x2c>
  40d314:	afa8044c 	sw	$t0,1100($sp)
  40d318:	8fa8044c 	lw	$t0,1100($sp)
  40d31c:	a2e20000 	sb	$v0,0($s7)
  40d320:	2409fffc 	li	$t1,-4
  40d324:	8faa0288 	lw	$t2,648($sp)
  40d328:	8fab028c 	lw	$t3,652($sp)
  40d32c:	afaa0130 	sw	$t2,304($sp)
  40d330:	1000ff61 	b	40d0b8 <_doprnt+0x91c>
  40d334:	afab0134 	sw	$t3,308($sp)
  40d338:	27a802c6 	addiu	$t0,$sp,710
  40d33c:	24050007 	li	$a1,7
  40d340:	24060002 	li	$a2,2
  40d344:	0100b825 	move	$s7,$t0
  40d348:	10000006 	b	40d364 <_doprnt+0xbc8>
  40d34c:	32340040 	andi	$s4,$s1,0x40
  40d350:	27a802c6 	addiu	$t0,$sp,710
  40d354:	2405000f 	li	$a1,15
  40d358:	24060003 	li	$a2,3
  40d35c:	0100b825 	move	$s7,$t0
  40d360:	32340040 	andi	$s4,$s1,0x40
  40d364:	322e0800 	andi	$t6,$s1,0x800
  40d368:	11c0000d 	beqz	$t6,40d3a0 <_doprnt+0xc04>
  40d36c:	322b0001 	andi	$t3,$s1,0x1
  40d370:	8faf0244 	lw	$t7,580($sp)
  40d374:	2401fff8 	li	$at,-8
  40d378:	25ec0007 	addiu	$t4,$t7,7
  40d37c:	01816824 	and	$t5,$t4,$at
  40d380:	25aa0008 	addiu	$t2,$t5,8
  40d384:	afaa0244 	sw	$t2,580($sp)
  40d388:	8db90004 	lw	$t9,4($t5)
  40d38c:	8db80000 	lw	$t8,0($t5)
  40d390:	afb9028c 	sw	$t9,652($sp)
  40d394:	10000019 	b	40d3fc <_doprnt+0xc60>
  40d398:	afb80288 	sw	$t8,648($sp)
  40d39c:	322b0001 	andi	$t3,$s1,0x1
  40d3a0:	1160000e 	beqz	$t3,40d3dc <_doprnt+0xc40>
  40d3a4:	8fab0244 	lw	$t3,580($sp)
  40d3a8:	8fae0244 	lw	$t6,580($sp)
  40d3ac:	00000000 	nop
  40d3b0:	25cf0003 	addiu	$t7,$t6,3
  40d3b4:	01e96024 	and	$t4,$t7,$t1
  40d3b8:	258a0004 	addiu	$t2,$t4,4
  40d3bc:	afaa0244 	sw	$t2,580($sp)
  40d3c0:	8d8d0000 	lw	$t5,0($t4)
  40d3c4:	00000000 	nop
  40d3c8:	000dc7c3 	sra	$t8,$t5,0x1f
  40d3cc:	afb80288 	sw	$t8,648($sp)
  40d3d0:	1000000a 	b	40d3fc <_doprnt+0xc60>
  40d3d4:	afad028c 	sw	$t5,652($sp)
  40d3d8:	8fab0244 	lw	$t3,580($sp)
  40d3dc:	24180000 	li	$t8,0
  40d3e0:	256e0003 	addiu	$t6,$t3,3
  40d3e4:	01c97824 	and	$t7,$t6,$t1
  40d3e8:	25ea0004 	addiu	$t2,$t7,4
  40d3ec:	afaa0244 	sw	$t2,580($sp)
  40d3f0:	8dec0000 	lw	$t4,0($t7)
  40d3f4:	afb80288 	sw	$t8,648($sp)
  40d3f8:	afac028c 	sw	$t4,652($sp)
  40d3fc:	322d0400 	andi	$t5,$s1,0x400
  40d400:	11a00007 	beqz	$t5,40d420 <_doprnt+0xc84>
  40d404:	32380020 	andi	$t8,$s1,0x20
  40d408:	8faf028c 	lw	$t7,652($sp)
  40d40c:	240c0000 	li	$t4,0
  40d410:	31eaffff 	andi	$t2,$t7,0xffff
  40d414:	afaa028c 	sw	$t2,652($sp)
  40d418:	afac0288 	sw	$t4,648($sp)
  40d41c:	32380020 	andi	$t8,$s1,0x20
  40d420:	13000007 	beqz	$t8,40d440 <_doprnt+0xca4>
  40d424:	24010058 	li	$at,88
  40d428:	12800004 	beqz	$s4,40d43c <_doprnt+0xca0>
  40d42c:	2401ffdf 	li	$at,-33
  40d430:	0221c824 	and	$t9,$s1,$at
  40d434:	03208825 	move	$s1,$t9
  40d438:	33340040 	andi	$s4,$t9,0x40
  40d43c:	24010058 	li	$at,88
  40d440:	16010004 	bne	$s0,$at,40d454 <_doprnt+0xcb8>
  40d444:	32220001 	andi	$v0,$s1,0x1
  40d448:	3c120042 	lui	$s2,0x42
  40d44c:	10000003 	b	40d45c <_doprnt+0xcc0>
  40d450:	2652adb4 	addiu	$s2,$s2,-21068
  40d454:	3c120042 	lui	$s2,0x42
  40d458:	2652adc8 	addiu	$s2,$s2,-21048
  40d45c:	8fae0288 	lw	$t6,648($sp)
  40d460:	8faf028c 	lw	$t7,652($sp)
  40d464:	afae0110 	sw	$t6,272($sp)
  40d468:	10400004 	beqz	$v0,40d47c <_doprnt+0xce0>
  40d46c:	afaf0114 	sw	$t7,276($sp)
  40d470:	240a0000 	li	$t2,0
  40d474:	afaa0110 	sw	$t2,272($sp)
  40d478:	afaf0114 	sw	$t7,276($sp)
  40d47c:	8fac0110 	lw	$t4,272($sp)
  40d480:	8fad0114 	lw	$t5,276($sp)
  40d484:	1580000d 	bnez	$t4,40d4bc <_doprnt+0xd20>
  40d488:	000557c3 	sra	$t2,$a1,0x1f
  40d48c:	15a0000b 	bnez	$t5,40d4bc <_doprnt+0xd20>
  40d490:	000557c3 	sra	$t2,$a1,0x1f
  40d494:	1680002a 	bnez	$s4,40d540 <_doprnt+0xda4>
  40d498:	24180001 	li	$t8,1
  40d49c:	24190001 	li	$t9,1
  40d4a0:	362e0200 	ori	$t6,$s1,0x200
  40d4a4:	afb90294 	sw	$t9,660($sp)
  40d4a8:	afb8043c 	sw	$t8,1084($sp)
  40d4ac:	01c08825 	move	$s1,$t6
  40d4b0:	10000023 	b	40d540 <_doprnt+0xda4>
  40d4b4:	31d40040 	andi	$s4,$t6,0x40
  40d4b8:	000557c3 	sra	$t2,$a1,0x1f
  40d4bc:	000667c3 	sra	$t4,$a2,0x1f
  40d4c0:	afac0060 	sw	$t4,96($sp)
  40d4c4:	afaa0068 	sw	$t2,104($sp)
  40d4c8:	afa5006c 	sw	$a1,108($sp)
  40d4cc:	afa60064 	sw	$a2,100($sp)
  40d4d0:	8fb9006c 	lw	$t9,108($sp)
  40d4d4:	8faf0114 	lw	$t7,276($sp)
  40d4d8:	26f7ffff 	addiu	$s7,$s7,-1
  40d4dc:	032f5824 	and	$t3,$t9,$t7
  40d4e0:	01726821 	addu	$t5,$t3,$s2
  40d4e4:	91b80000 	lbu	$t8,0($t5)
  40d4e8:	24060000 	li	$a2,0
  40d4ec:	a2f80000 	sb	$t8,0($s7)
  40d4f0:	8fa50114 	lw	$a1,276($sp)
  40d4f4:	8fa40110 	lw	$a0,272($sp)
  40d4f8:	afa8044c 	sw	$t0,1100($sp)
  40d4fc:	0c104806 	jal	412018 <__ll_rshift>
  40d500:	24070001 	li	$a3,1
  40d504:	3c017fff 	lui	$at,0x7fff
  40d508:	3421ffff 	ori	$at,$at,0xffff
  40d50c:	00412024 	and	$a0,$v0,$at
  40d510:	2401ffff 	li	$at,-1
  40d514:	8fa60060 	lw	$a2,96($sp)
  40d518:	8fa70064 	lw	$a3,100($sp)
  40d51c:	0c104806 	jal	412018 <__ll_rshift>
  40d520:	00612824 	and	$a1,$v1,$at
  40d524:	8fa8044c 	lw	$t0,1100($sp)
  40d528:	2409fffc 	li	$t1,-4
  40d52c:	afa20110 	sw	$v0,272($sp)
  40d530:	1440ffe7 	bnez	$v0,40d4d0 <_doprnt+0xd34>
  40d534:	afa30114 	sw	$v1,276($sp)
  40d538:	1460ffe6 	bnez	$v1,40d4d4 <_doprnt+0xd38>
  40d53c:	8fb9006c 	lw	$t9,108($sp)
  40d540:	12800008 	beqz	$s4,40d564 <_doprnt+0xdc8>
  40d544:	27b902c6 	addiu	$t9,$sp,710
  40d548:	03377023 	subu	$t6,$t9,$s7
  40d54c:	02ce1023 	subu	$v0,$s6,$t6
  40d550:	18400004 	blez	$v0,40d564 <_doprnt+0xdc8>
  40d554:	362f0200 	ori	$t7,$s1,0x200
  40d558:	afa2043c 	sw	$v0,1084($sp)
  40d55c:	afa20294 	sw	$v0,660($sp)
  40d560:	01e08825 	move	$s1,$t7
  40d564:	322a0010 	andi	$t2,$s1,0x10
  40d568:	114003a5 	beqz	$t2,40e400 <_doprnt+0x1c64>
  40d56c:	8fb9025c 	lw	$t9,604($sp)
  40d570:	8fac0288 	lw	$t4,648($sp)
  40d574:	8fad028c 	lw	$t5,652($sp)
  40d578:	15800003 	bnez	$t4,40d588 <_doprnt+0xdec>
  40d57c:	24010058 	li	$at,88
  40d580:	11a0039e 	beqz	$t5,40e3fc <_doprnt+0x1c60>
  40d584:	24010058 	li	$at,88
  40d588:	12010015 	beq	$s0,$at,40d5e0 <_doprnt+0xe44>
  40d58c:	2401006f 	li	$at,111
  40d590:	12010005 	beq	$s0,$at,40d5a8 <_doprnt+0xe0c>
  40d594:	24010078 	li	$at,120
  40d598:	1201000c 	beq	$s0,$at,40d5cc <_doprnt+0xe30>
  40d59c:	00000000 	nop
  40d5a0:	10000397 	b	40e400 <_doprnt+0x1c64>
  40d5a4:	8fb9025c 	lw	$t9,604($sp)
  40d5a8:	322b0200 	andi	$t3,$s1,0x200
  40d5ac:	15600393 	bnez	$t3,40e3fc <_doprnt+0x1c60>
  40d5b0:	24180001 	li	$t8,1
  40d5b4:	24190001 	li	$t9,1
  40d5b8:	362e0200 	ori	$t6,$s1,0x200
  40d5bc:	afb90294 	sw	$t9,660($sp)
  40d5c0:	afb8043c 	sw	$t8,1084($sp)
  40d5c4:	1000038d 	b	40e3fc <_doprnt+0x1c60>
  40d5c8:	01c08825 	move	$s1,$t6
  40d5cc:	278f8914 	addiu	$t7,$gp,-30444
  40d5d0:	240a0002 	li	$t2,2
  40d5d4:	afaf02ac 	sw	$t7,684($sp)
  40d5d8:	10000388 	b	40e3fc <_doprnt+0x1c60>
  40d5dc:	afaa029c 	sw	$t2,668($sp)
  40d5e0:	278c8918 	addiu	$t4,$gp,-30440
  40d5e4:	240d0002 	li	$t5,2
  40d5e8:	afac02ac 	sw	$t4,684($sp)
  40d5ec:	10000383 	b	40e3fc <_doprnt+0x1c60>
  40d5f0:	afad029c 	sw	$t5,668($sp)
  40d5f4:	322b0040 	andi	$t3,$s1,0x40
  40d5f8:	15600003 	bnez	$t3,40d608 <_doprnt+0xe6c>
  40d5fc:	8fb80244 	lw	$t8,580($sp)
  40d600:	24160006 	li	$s6,6
  40d604:	8fb80244 	lw	$t8,580($sp)
  40d608:	00000000 	nop
  40d60c:	33190001 	andi	$t9,$t8,0x1
  40d610:	13200008 	beqz	$t9,40d634 <_doprnt+0xe98>
  40d614:	8faa0244 	lw	$t2,580($sp)
  40d618:	8fae0244 	lw	$t6,580($sp)
  40d61c:	00000000 	nop
  40d620:	25cf0007 	addiu	$t7,$t6,7
  40d624:	afaf0244 	sw	$t7,580($sp)
  40d628:	10000013 	b	40d678 <_doprnt+0xedc>
  40d62c:	25e6ffea 	addiu	$a2,$t7,-22
  40d630:	8faa0244 	lw	$t2,580($sp)
  40d634:	00000000 	nop
  40d638:	314c0002 	andi	$t4,$t2,0x2
  40d63c:	11800008 	beqz	$t4,40d660 <_doprnt+0xec4>
  40d640:	8fb80244 	lw	$t8,580($sp)
  40d644:	8fad0244 	lw	$t5,580($sp)
  40d648:	00000000 	nop
  40d64c:	25ab000a 	addiu	$t3,$t5,10
  40d650:	afab0244 	sw	$t3,580($sp)
  40d654:	10000007 	b	40d674 <_doprnt+0xed8>
  40d658:	2562ffd8 	addiu	$v0,$t3,-40
  40d65c:	8fb80244 	lw	$t8,580($sp)
  40d660:	2401fff8 	li	$at,-8
  40d664:	27190007 	addiu	$t9,$t8,7
  40d668:	03217024 	and	$t6,$t9,$at
  40d66c:	25c20008 	addiu	$v0,$t6,8
  40d670:	afa20244 	sw	$v0,580($sp)
  40d674:	00403025 	move	$a2,$v0
  40d678:	c4c5fff8 	lwc1	$f5,-8($a2)
  40d67c:	c4c4fffc 	lwc1	$f4,-4($a2)
  40d680:	e7a50278 	swc1	$f5,632($sp)
  40d684:	8fa20278 	lw	$v0,632($sp)
  40d688:	240107ff 	li	$at,2047
  40d68c:	00025040 	sll	$t2,$v0,0x1
  40d690:	000a6542 	srl	$t4,$t2,0x15
  40d694:	15810022 	bne	$t4,$at,40d720 <_doprnt+0xf84>
  40d698:	e7a4027c 	swc1	$f4,636($sp)
  40d69c:	240d0001 	li	$t5,1
  40d6a0:	00025b00 	sll	$t3,$v0,0xc
  40d6a4:	15600011 	bnez	$t3,40d6ec <_doprnt+0xf50>
  40d6a8:	afad025c 	sw	$t5,604($sp)
  40d6ac:	8fb8027c 	lw	$t8,636($sp)
  40d6b0:	00000000 	nop
  40d6b4:	1700000d 	bnez	$t8,40d6ec <_doprnt+0xf50>
  40d6b8:	0002cfc2 	srl	$t9,$v0,0x1f
  40d6bc:	24010001 	li	$at,1
  40d6c0:	17210002 	bne	$t9,$at,40d6cc <_doprnt+0xf30>
  40d6c4:	240e0001 	li	$t6,1
  40d6c8:	afae0250 	sw	$t6,592($sp)
  40d6cc:	24010045 	li	$at,69
  40d6d0:	14610003 	bne	$v1,$at,40d6e0 <_doprnt+0xf44>
  40d6d4:	279788f4 	addiu	$s7,$gp,-30476
  40d6d8:	10000348 	b	40e3fc <_doprnt+0x1c60>
  40d6dc:	26e80003 	addiu	$t0,$s7,3
  40d6e0:	279788f0 	addiu	$s7,$gp,-30480
  40d6e4:	10000345 	b	40e3fc <_doprnt+0x1c60>
  40d6e8:	26e80003 	addiu	$t0,$s7,3
  40d6ec:	00027fc2 	srl	$t7,$v0,0x1f
  40d6f0:	24010001 	li	$at,1
  40d6f4:	15e10002 	bne	$t7,$at,40d700 <_doprnt+0xf64>
  40d6f8:	240a0001 	li	$t2,1
  40d6fc:	afaa0250 	sw	$t2,592($sp)
  40d700:	24010045 	li	$at,69
  40d704:	14610003 	bne	$v1,$at,40d714 <_doprnt+0xf78>
  40d708:	279788e8 	addiu	$s7,$gp,-30488
  40d70c:	1000033b 	b	40e3fc <_doprnt+0x1c60>
  40d710:	26e80003 	addiu	$t0,$s7,3
  40d714:	279788e0 	addiu	$s7,$gp,-30496
  40d718:	10000338 	b	40e3fc <_doprnt+0x1c60>
  40d71c:	26e80003 	addiu	$t0,$s7,3
  40d720:	26c20001 	addiu	$v0,$s6,1
  40d724:	28410011 	slti	$at,$v0,17
  40d728:	10200003 	beqz	$at,40d738 <_doprnt+0xf9c>
  40d72c:	02c0a025 	move	$s4,$s6
  40d730:	10000002 	b	40d73c <_doprnt+0xfa0>
  40d734:	00403025 	move	$a2,$v0
  40d738:	24060011 	li	$a2,17
  40d73c:	c7ad0278 	lwc1	$f13,632($sp)
  40d740:	c7ac027c 	lwc1	$f12,636($sp)
  40d744:	27ac0270 	addiu	$t4,$sp,624
  40d748:	27ad016c 	addiu	$t5,$sp,364
  40d74c:	afad0014 	sw	$t5,20($sp)
  40d750:	afac0010 	sw	$t4,16($sp)
  40d754:	0c104520 	jal	411480 <_ecvt_r>
  40d758:	27a70274 	addiu	$a3,$sp,628
  40d75c:	2409fffc 	li	$t1,-4
  40d760:	0040b825 	move	$s7,$v0
  40d764:	8fab0270 	lw	$t3,624($sp)
  40d768:	00000000 	nop
  40d76c:	11600006 	beqz	$t3,40d788 <_doprnt+0xfec>
  40d770:	00000000 	nop
  40d774:	2798891c 	addiu	$t8,$gp,-30436
  40d778:	24190001 	li	$t9,1
  40d77c:	afb802ac 	sw	$t8,684($sp)
  40d780:	10000010 	b	40d7c4 <_doprnt+0x1028>
  40d784:	afb9029c 	sw	$t9,668($sp)
  40d788:	322e0002 	andi	$t6,$s1,0x2
  40d78c:	11c00006 	beqz	$t6,40d7a8 <_doprnt+0x100c>
  40d790:	00000000 	nop
  40d794:	278f8920 	addiu	$t7,$gp,-30432
  40d798:	240a0001 	li	$t2,1
  40d79c:	afaf02ac 	sw	$t7,684($sp)
  40d7a0:	10000008 	b	40d7c4 <_doprnt+0x1028>
  40d7a4:	afaa029c 	sw	$t2,668($sp)
  40d7a8:	322c0008 	andi	$t4,$s1,0x8
  40d7ac:	11800005 	beqz	$t4,40d7c4 <_doprnt+0x1028>
  40d7b0:	00000000 	nop
  40d7b4:	278d8924 	addiu	$t5,$gp,-30428
  40d7b8:	240b0001 	li	$t3,1
  40d7bc:	afad02ac 	sw	$t5,684($sp)
  40d7c0:	afab029c 	sw	$t3,668($sp)
  40d7c4:	92e20000 	lbu	$v0,0($s7)
  40d7c8:	00000000 	nop
  40d7cc:	10400004 	beqz	$v0,40d7e0 <_doprnt+0x1044>
  40d7d0:	00000000 	nop
  40d7d4:	a3a202b0 	sb	$v0,688($sp)
  40d7d8:	10000003 	b	40d7e8 <_doprnt+0x104c>
  40d7dc:	26f70001 	addiu	$s7,$s7,1
  40d7e0:	24180030 	li	$t8,48
  40d7e4:	a3b802b0 	sb	$t8,688($sp)
  40d7e8:	16c00004 	bnez	$s6,40d7fc <_doprnt+0x1060>
  40d7ec:	27a802b1 	addiu	$t0,$sp,689
  40d7f0:	32390010 	andi	$t9,$s1,0x10
  40d7f4:	13200004 	beqz	$t9,40d808 <_doprnt+0x106c>
  40d7f8:	00000000 	nop
  40d7fc:	938e8a90 	lbu	$t6,-30064($gp)
  40d800:	25080001 	addiu	$t0,$t0,1
  40d804:	a10effff 	sb	$t6,-1($t0)
  40d808:	1ac0000e 	blez	$s6,40d844 <_doprnt+0x10a8>
  40d80c:	00000000 	nop
  40d810:	92e20000 	lbu	$v0,0($s7)
  40d814:	00000000 	nop
  40d818:	1040000a 	beqz	$v0,40d844 <_doprnt+0x10a8>
  40d81c:	00000000 	nop
  40d820:	2694ffff 	addiu	$s4,$s4,-1
  40d824:	a1020000 	sb	$v0,0($t0)
  40d828:	25080001 	addiu	$t0,$t0,1
  40d82c:	1a800005 	blez	$s4,40d844 <_doprnt+0x10a8>
  40d830:	26f70001 	addiu	$s7,$s7,1
  40d834:	92e20000 	lbu	$v0,0($s7)
  40d838:	00000000 	nop
  40d83c:	1440fff8 	bnez	$v0,40d820 <_doprnt+0x1084>
  40d840:	00000000 	nop
  40d844:	1a800005 	blez	$s4,40d85c <_doprnt+0x10c0>
  40d848:	00000000 	nop
  40d84c:	362f0100 	ori	$t7,$s1,0x100
  40d850:	afb40438 	sw	$s4,1080($sp)
  40d854:	afb40294 	sw	$s4,660($sp)
  40d858:	01e08825 	move	$s1,$t7
  40d85c:	c7a70278 	lwc1	$f7,632($sp)
  40d860:	c7a6027c 	lwc1	$f6,636($sp)
  40d864:	27aa02a5 	addiu	$t2,$sp,677
  40d868:	46343032 	c.eq.d	$f6,$f20
  40d86c:	27b702b0 	addiu	$s7,$sp,688
  40d870:	afaa02a8 	sw	$t2,680($sp)
  40d874:	45010023 	bc1t	40d904 <_doprnt+0x1168>
  40d878:	a3a002a5 	sb	$zero,677($sp)
  40d87c:	8fa30274 	lw	$v1,628($sp)
  40d880:	00000000 	nop
  40d884:	2463ffff 	addiu	$v1,$v1,-1
  40d888:	04610002 	bgez	$v1,40d894 <_doprnt+0x10f8>
  40d88c:	00601025 	move	$v0,$v1
  40d890:	00031023 	negu	$v0,$v1
  40d894:	2841000a 	slti	$at,$v0,10
  40d898:	14200016 	bnez	$at,40d8f4 <_doprnt+0x1158>
  40d89c:	8fa302a8 	lw	$v1,680($sp)
  40d8a0:	8fa402a8 	lw	$a0,680($sp)
  40d8a4:	2403000a 	li	$v1,10
  40d8a8:	0043001a 	div	$zero,$v0,$v1
  40d8ac:	2484ffff 	addiu	$a0,$a0,-1
  40d8b0:	14600002 	bnez	$v1,40d8bc <_doprnt+0x1120>
  40d8b4:	00000000 	nop
  40d8b8:	0007000d 	break	0x7
  40d8bc:	2401ffff 	li	$at,-1
  40d8c0:	14610004 	bne	$v1,$at,40d8d4 <_doprnt+0x1138>
  40d8c4:	3c018000 	lui	$at,0x8000
  40d8c8:	14410002 	bne	$v0,$at,40d8d4 <_doprnt+0x1138>
  40d8cc:	00000000 	nop
  40d8d0:	0006000d 	break	0x6
  40d8d4:	00001012 	mflo	$v0
  40d8d8:	00006010 	mfhi	$t4
  40d8dc:	2841000a 	slti	$at,$v0,10
  40d8e0:	258d0030 	addiu	$t5,$t4,48
  40d8e4:	1020fff0 	beqz	$at,40d8a8 <_doprnt+0x110c>
  40d8e8:	a08d0000 	sb	$t5,0($a0)
  40d8ec:	afa402a8 	sw	$a0,680($sp)
  40d8f0:	8fa302a8 	lw	$v1,680($sp)
  40d8f4:	244b0030 	addiu	$t3,$v0,48
  40d8f8:	a06bffff 	sb	$t3,-1($v1)
  40d8fc:	2463ffff 	addiu	$v1,$v1,-1
  40d900:	afa302a8 	sw	$v1,680($sp)
  40d904:	8fb902a8 	lw	$t9,680($sp)
  40d908:	27b802a3 	addiu	$t8,$sp,675
  40d90c:	0319082b 	sltu	$at,$t8,$t9
  40d910:	10200008 	beqz	$at,40d934 <_doprnt+0x1198>
  40d914:	27a402a3 	addiu	$a0,$sp,675
  40d918:	24030030 	li	$v1,48
  40d91c:	03201025 	move	$v0,$t9
  40d920:	2442ffff 	addiu	$v0,$v0,-1
  40d924:	0082082b 	sltu	$at,$a0,$v0
  40d928:	1420fffd 	bnez	$at,40d920 <_doprnt+0x1184>
  40d92c:	a0430000 	sb	$v1,0($v0)
  40d930:	afa202a8 	sw	$v0,680($sp)
  40d934:	8fae02a8 	lw	$t6,680($sp)
  40d938:	8faa0274 	lw	$t2,628($sp)
  40d93c:	25cfffff 	addiu	$t7,$t6,-1
  40d940:	1d400008 	bgtz	$t2,40d964 <_doprnt+0x11c8>
  40d944:	afaf02a8 	sw	$t7,680($sp)
  40d948:	c7a90278 	lwc1	$f9,632($sp)
  40d94c:	c7a8027c 	lwc1	$f8,636($sp)
  40d950:	00000000 	nop
  40d954:	46344032 	c.eq.d	$f8,$f20
  40d958:	00000000 	nop
  40d95c:	45000006 	bc1f	40d978 <_doprnt+0x11dc>
  40d960:	8fb802a8 	lw	$t8,680($sp)
  40d964:	8fad02a8 	lw	$t5,680($sp)
  40d968:	240c002b 	li	$t4,43
  40d96c:	10000004 	b	40d980 <_doprnt+0x11e4>
  40d970:	a1ac0000 	sb	$t4,0($t5)
  40d974:	8fb802a8 	lw	$t8,680($sp)
  40d978:	240b002d 	li	$t3,45
  40d97c:	a30b0000 	sb	$t3,0($t8)
  40d980:	3c0f0042 	lui	$t7,0x42
  40d984:	01f07821 	addu	$t7,$t7,$s0
  40d988:	91efd901 	lbu	$t7,-9983($t7)
  40d98c:	8fb902a8 	lw	$t9,680($sp)
  40d990:	31ea0001 	andi	$t2,$t7,0x1
  40d994:	272effff 	addiu	$t6,$t9,-1
  40d998:	11400004 	beqz	$t2,40d9ac <_doprnt+0x1210>
  40d99c:	afae02a8 	sw	$t6,680($sp)
  40d9a0:	240c0045 	li	$t4,69
  40d9a4:	10000004 	b	40d9b8 <_doprnt+0x121c>
  40d9a8:	a1cc0000 	sb	$t4,0($t6)
  40d9ac:	8fab02a8 	lw	$t3,680($sp)
  40d9b0:	240d0065 	li	$t5,101
  40d9b4:	a16d0000 	sb	$t5,0($t3)
  40d9b8:	8fb802a8 	lw	$t8,680($sp)
  40d9bc:	27b902a0 	addiu	$t9,$sp,672
  40d9c0:	8faf0294 	lw	$t7,660($sp)
  40d9c4:	03381023 	subu	$v0,$t9,$t8
  40d9c8:	24420005 	addiu	$v0,$v0,5
  40d9cc:	362c0080 	ori	$t4,$s1,0x80
  40d9d0:	01e25021 	addu	$t2,$t7,$v0
  40d9d4:	afaa0294 	sw	$t2,660($sp)
  40d9d8:	afa20298 	sw	$v0,664($sp)
  40d9dc:	10000287 	b	40e3fc <_doprnt+0x1c60>
  40d9e0:	01808825 	move	$s1,$t4
  40d9e4:	32340040 	andi	$s4,$s1,0x40
  40d9e8:	16800003 	bnez	$s4,40d9f8 <_doprnt+0x125c>
  40d9ec:	8fae0244 	lw	$t6,580($sp)
  40d9f0:	24160006 	li	$s6,6
  40d9f4:	8fae0244 	lw	$t6,580($sp)
  40d9f8:	00000000 	nop
  40d9fc:	31cd0001 	andi	$t5,$t6,0x1
  40da00:	11a00008 	beqz	$t5,40da24 <_doprnt+0x1288>
  40da04:	8fb80244 	lw	$t8,580($sp)
  40da08:	8fab0244 	lw	$t3,580($sp)
  40da0c:	00000000 	nop
  40da10:	25790007 	addiu	$t9,$t3,7
  40da14:	afb90244 	sw	$t9,580($sp)
  40da18:	10000013 	b	40da68 <_doprnt+0x12cc>
  40da1c:	2726ffea 	addiu	$a2,$t9,-22
  40da20:	8fb80244 	lw	$t8,580($sp)
  40da24:	00000000 	nop
  40da28:	330f0002 	andi	$t7,$t8,0x2
  40da2c:	11e00008 	beqz	$t7,40da50 <_doprnt+0x12b4>
  40da30:	8fae0244 	lw	$t6,580($sp)
  40da34:	8faa0244 	lw	$t2,580($sp)
  40da38:	00000000 	nop
  40da3c:	254c000a 	addiu	$t4,$t2,10
  40da40:	afac0244 	sw	$t4,580($sp)
  40da44:	10000007 	b	40da64 <_doprnt+0x12c8>
  40da48:	2582ffd8 	addiu	$v0,$t4,-40
  40da4c:	8fae0244 	lw	$t6,580($sp)
  40da50:	2401fff8 	li	$at,-8
  40da54:	25cd0007 	addiu	$t5,$t6,7
  40da58:	01a15824 	and	$t3,$t5,$at
  40da5c:	25620008 	addiu	$v0,$t3,8
  40da60:	afa20244 	sw	$v0,580($sp)
  40da64:	00403025 	move	$a2,$v0
  40da68:	c4cbfff8 	lwc1	$f11,-8($a2)
  40da6c:	c4cafffc 	lwc1	$f10,-4($a2)
  40da70:	e7ab0278 	swc1	$f11,632($sp)
  40da74:	8fa20278 	lw	$v0,632($sp)
  40da78:	240107ff 	li	$at,2047
  40da7c:	0002c040 	sll	$t8,$v0,0x1
  40da80:	00187d42 	srl	$t7,$t8,0x15
  40da84:	15e1002a 	bne	$t7,$at,40db30 <_doprnt+0x1394>
  40da88:	e7aa027c 	swc1	$f10,636($sp)
  40da8c:	3c01000f 	lui	$at,0xf
  40da90:	3421ffff 	ori	$at,$at,0xffff
  40da94:	00412024 	and	$a0,$v0,$at
  40da98:	240a0001 	li	$t2,1
  40da9c:	1480000c 	bnez	$a0,40dad0 <_doprnt+0x1334>
  40daa0:	afaa025c 	sw	$t2,604($sp)
  40daa4:	8fac027c 	lw	$t4,636($sp)
  40daa8:	00000000 	nop
  40daac:	15800008 	bnez	$t4,40dad0 <_doprnt+0x1334>
  40dab0:	000277c2 	srl	$t6,$v0,0x1f
  40dab4:	24010001 	li	$at,1
  40dab8:	279788f0 	addiu	$s7,$gp,-30480
  40dabc:	15c1024f 	bne	$t6,$at,40e3fc <_doprnt+0x1c60>
  40dac0:	278888f3 	addiu	$t0,$gp,-30477
  40dac4:	240d0001 	li	$t5,1
  40dac8:	1000024c 	b	40e3fc <_doprnt+0x1c60>
  40dacc:	afad0250 	sw	$t5,592($sp)
  40dad0:	27a802c6 	addiu	$t0,$sp,710
  40dad4:	3c120042 	lui	$s2,0x42
  40dad8:	8fa3027c 	lw	$v1,636($sp)
  40dadc:	24190005 	li	$t9,5
  40dae0:	279888e0 	addiu	$t8,$gp,-30496
  40dae4:	00027fc2 	srl	$t7,$v0,0x1f
  40dae8:	24010001 	li	$at,1
  40daec:	afb80254 	sw	$t8,596($sp)
  40daf0:	afb90258 	sw	$t9,600($sp)
  40daf4:	2652adc8 	addiu	$s2,$s2,-21048
  40daf8:	0100b825 	move	$s7,$t0
  40dafc:	2405000f 	li	$a1,15
  40db00:	15e10003 	bne	$t7,$at,40db10 <_doprnt+0x1374>
  40db04:	24060003 	li	$a2,3
  40db08:	240a0001 	li	$t2,1
  40db0c:	afaa0250 	sw	$t2,592($sp)
  40db10:	00046300 	sll	$t4,$a0,0xc
  40db14:	00037502 	srl	$t6,$v1,0x14
  40db18:	018e6825 	or	$t5,$t4,$t6
  40db1c:	24180000 	li	$t8,0
  40db20:	afb80288 	sw	$t8,648($sp)
  40db24:	afad028c 	sw	$t5,652($sp)
  40db28:	1000fe4c 	b	40d45c <_doprnt+0xcc0>
  40db2c:	32220001 	andi	$v0,$s1,0x1
  40db30:	2ac1003c 	slti	$at,$s6,60
  40db34:	10200004 	beqz	$at,40db48 <_doprnt+0x13ac>
  40db38:	2406003c 	li	$a2,60
  40db3c:	10000002 	b	40db48 <_doprnt+0x13ac>
  40db40:	02c03025 	move	$a2,$s6
  40db44:	2406003c 	li	$a2,60
  40db48:	c7ad0278 	lwc1	$f13,632($sp)
  40db4c:	c7ac027c 	lwc1	$f12,636($sp)
  40db50:	27ab0270 	addiu	$t3,$sp,624
  40db54:	27af016c 	addiu	$t7,$sp,364
  40db58:	afaf0014 	sw	$t7,20($sp)
  40db5c:	afab0010 	sw	$t3,16($sp)
  40db60:	0c10457c 	jal	4115f0 <_fcvt_r>
  40db64:	27a70274 	addiu	$a3,$sp,628
  40db68:	2409fffc 	li	$t1,-4
  40db6c:	0040b825 	move	$s7,$v0
  40db70:	323e0010 	andi	$s8,$s1,0x10
  40db74:	8faa0270 	lw	$t2,624($sp)
  40db78:	00000000 	nop
  40db7c:	1140000f 	beqz	$t2,40dbbc <_doprnt+0x1420>
  40db80:	322b0002 	andi	$t3,$s1,0x2
  40db84:	8fae0274 	lw	$t6,628($sp)
  40db88:	00166023 	negu	$t4,$s6
  40db8c:	018e082a 	slt	$at,$t4,$t6
  40db90:	1020000a 	beqz	$at,40dbbc <_doprnt+0x1420>
  40db94:	322b0002 	andi	$t3,$s1,0x2
  40db98:	92ed0000 	lbu	$t5,0($s7)
  40db9c:	24010030 	li	$at,48
  40dba0:	11a10005 	beq	$t5,$at,40dbb8 <_doprnt+0x141c>
  40dba4:	27988928 	addiu	$t8,$gp,-30424
  40dba8:	24190001 	li	$t9,1
  40dbac:	afb802ac 	sw	$t8,684($sp)
  40dbb0:	1000000e 	b	40dbec <_doprnt+0x1450>
  40dbb4:	afb9029c 	sw	$t9,668($sp)
  40dbb8:	322b0002 	andi	$t3,$s1,0x2
  40dbbc:	11600005 	beqz	$t3,40dbd4 <_doprnt+0x1438>
  40dbc0:	278f892c 	addiu	$t7,$gp,-30420
  40dbc4:	240a0001 	li	$t2,1
  40dbc8:	afaf02ac 	sw	$t7,684($sp)
  40dbcc:	10000007 	b	40dbec <_doprnt+0x1450>
  40dbd0:	afaa029c 	sw	$t2,668($sp)
  40dbd4:	322c0008 	andi	$t4,$s1,0x8
  40dbd8:	11800004 	beqz	$t4,40dbec <_doprnt+0x1450>
  40dbdc:	278e8930 	addiu	$t6,$gp,-30416
  40dbe0:	240d0001 	li	$t5,1
  40dbe4:	afae02ac 	sw	$t6,684($sp)
  40dbe8:	afad029c 	sw	$t5,668($sp)
  40dbec:	8fa30274 	lw	$v1,628($sp)
  40dbf0:	27a802b0 	addiu	$t0,$sp,688
  40dbf4:	0000a025 	move	$s4,$zero
  40dbf8:	18600007 	blez	$v1,40dc18 <_doprnt+0x147c>
  40dbfc:	24180030 	li	$t8,48
  40dc00:	92e20000 	lbu	$v0,0($s7)
  40dc04:	00000000 	nop
  40dc08:	10400002 	beqz	$v0,40dc14 <_doprnt+0x1478>
  40dc0c:	2a810011 	slti	$at,$s4,17
  40dc10:	14200003 	bnez	$at,40dc20 <_doprnt+0x1484>
  40dc14:	24180030 	li	$t8,48
  40dc18:	10000004 	b	40dc2c <_doprnt+0x1490>
  40dc1c:	a1180000 	sb	$t8,0($t0)
  40dc20:	26940001 	addiu	$s4,$s4,1
  40dc24:	a1020000 	sb	$v0,0($t0)
  40dc28:	26f70001 	addiu	$s7,$s7,1
  40dc2c:	2463ffff 	addiu	$v1,$v1,-1
  40dc30:	1c60fff1 	bgtz	$v1,40dbf8 <_doprnt+0x145c>
  40dc34:	25080001 	addiu	$t0,$t0,1
  40dc38:	17c00003 	bnez	$s8,40dc48 <_doprnt+0x14ac>
  40dc3c:	00000000 	nop
  40dc40:	1ac00005 	blez	$s6,40dc58 <_doprnt+0x14bc>
  40dc44:	2ac1003c 	slti	$at,$s6,60
  40dc48:	93998a90 	lbu	$t9,-30064($gp)
  40dc4c:	25080001 	addiu	$t0,$t0,1
  40dc50:	a119ffff 	sb	$t9,-1($t0)
  40dc54:	2ac1003c 	slti	$at,$s6,60
  40dc58:	10200004 	beqz	$at,40dc6c <_doprnt+0x14d0>
  40dc5c:	2403003c 	li	$v1,60
  40dc60:	10000002 	b	40dc6c <_doprnt+0x14d0>
  40dc64:	02c01825 	move	$v1,$s6
  40dc68:	2403003c 	li	$v1,60
  40dc6c:	0076082a 	slt	$at,$v1,$s6
  40dc70:	10200005 	beqz	$at,40dc88 <_doprnt+0x14ec>
  40dc74:	02c31023 	subu	$v0,$s6,$v1
  40dc78:	362b0100 	ori	$t3,$s1,0x100
  40dc7c:	01608825 	move	$s1,$t3
  40dc80:	afa20438 	sw	$v0,1080($sp)
  40dc84:	afa20294 	sw	$v0,660($sp)
  40dc88:	2463ffff 	addiu	$v1,$v1,-1
  40dc8c:	04600014 	bltz	$v1,40dce0 <_doprnt+0x1544>
  40dc90:	00000000 	nop
  40dc94:	8faf0274 	lw	$t7,628($sp)
  40dc98:	00000000 	nop
  40dc9c:	25ea0001 	addiu	$t2,$t7,1
  40dca0:	19400006 	blez	$t2,40dcbc <_doprnt+0x1520>
  40dca4:	afaa0274 	sw	$t2,628($sp)
  40dca8:	92e20000 	lbu	$v0,0($s7)
  40dcac:	00000000 	nop
  40dcb0:	10400002 	beqz	$v0,40dcbc <_doprnt+0x1520>
  40dcb4:	2a810011 	slti	$at,$s4,17
  40dcb8:	14200003 	bnez	$at,40dcc8 <_doprnt+0x152c>
  40dcbc:	240c0030 	li	$t4,48
  40dcc0:	10000004 	b	40dcd4 <_doprnt+0x1538>
  40dcc4:	a10c0000 	sb	$t4,0($t0)
  40dcc8:	26940001 	addiu	$s4,$s4,1
  40dccc:	a1020000 	sb	$v0,0($t0)
  40dcd0:	26f70001 	addiu	$s7,$s7,1
  40dcd4:	2463ffff 	addiu	$v1,$v1,-1
  40dcd8:	0461ffee 	bgez	$v1,40dc94 <_doprnt+0x14f8>
  40dcdc:	25080001 	addiu	$t0,$t0,1
  40dce0:	100001c6 	b	40e3fc <_doprnt+0x1c60>
  40dce4:	27b702b0 	addiu	$s7,$sp,688
  40dce8:	32340040 	andi	$s4,$s1,0x40
  40dcec:	16800003 	bnez	$s4,40dcfc <_doprnt+0x1560>
  40dcf0:	00000000 	nop
  40dcf4:	10000004 	b	40dd08 <_doprnt+0x156c>
  40dcf8:	24160006 	li	$s6,6
  40dcfc:	16c00003 	bnez	$s6,40dd0c <_doprnt+0x1570>
  40dd00:	8fae0244 	lw	$t6,580($sp)
  40dd04:	24160001 	li	$s6,1
  40dd08:	8fae0244 	lw	$t6,580($sp)
  40dd0c:	00000000 	nop
  40dd10:	31cd0001 	andi	$t5,$t6,0x1
  40dd14:	11a00008 	beqz	$t5,40dd38 <_doprnt+0x159c>
  40dd18:	8fab0244 	lw	$t3,580($sp)
  40dd1c:	8fb80244 	lw	$t8,580($sp)
  40dd20:	00000000 	nop
  40dd24:	27190007 	addiu	$t9,$t8,7
  40dd28:	afb90244 	sw	$t9,580($sp)
  40dd2c:	10000013 	b	40dd7c <_doprnt+0x15e0>
  40dd30:	2726ffea 	addiu	$a2,$t9,-22
  40dd34:	8fab0244 	lw	$t3,580($sp)
  40dd38:	00000000 	nop
  40dd3c:	316f0002 	andi	$t7,$t3,0x2
  40dd40:	11e00008 	beqz	$t7,40dd64 <_doprnt+0x15c8>
  40dd44:	8fae0244 	lw	$t6,580($sp)
  40dd48:	8faa0244 	lw	$t2,580($sp)
  40dd4c:	00000000 	nop
  40dd50:	254c000a 	addiu	$t4,$t2,10
  40dd54:	afac0244 	sw	$t4,580($sp)
  40dd58:	10000007 	b	40dd78 <_doprnt+0x15dc>
  40dd5c:	2582ffd8 	addiu	$v0,$t4,-40
  40dd60:	8fae0244 	lw	$t6,580($sp)
  40dd64:	2401fff8 	li	$at,-8
  40dd68:	25cd0007 	addiu	$t5,$t6,7
  40dd6c:	01a1c024 	and	$t8,$t5,$at
  40dd70:	27020008 	addiu	$v0,$t8,8
  40dd74:	afa20244 	sw	$v0,580($sp)
  40dd78:	00403025 	move	$a2,$v0
  40dd7c:	c4d1fff8 	lwc1	$f17,-8($a2)
  40dd80:	c4d0fffc 	lwc1	$f16,-4($a2)
  40dd84:	e7b10278 	swc1	$f17,632($sp)
  40dd88:	8fa20278 	lw	$v0,632($sp)
  40dd8c:	240107ff 	li	$at,2047
  40dd90:	00025840 	sll	$t3,$v0,0x1
  40dd94:	000b7d42 	srl	$t7,$t3,0x15
  40dd98:	15e10037 	bne	$t7,$at,40de78 <_doprnt+0x16dc>
  40dd9c:	e7b0027c 	swc1	$f16,636($sp)
  40dda0:	3c01000f 	lui	$at,0xf
  40dda4:	3421ffff 	ori	$at,$at,0xffff
  40dda8:	00412024 	and	$a0,$v0,$at
  40ddac:	240a0001 	li	$t2,1
  40ddb0:	14800011 	bnez	$a0,40ddf8 <_doprnt+0x165c>
  40ddb4:	afaa025c 	sw	$t2,604($sp)
  40ddb8:	8fac027c 	lw	$t4,636($sp)
  40ddbc:	00000000 	nop
  40ddc0:	1580000d 	bnez	$t4,40ddf8 <_doprnt+0x165c>
  40ddc4:	000277c2 	srl	$t6,$v0,0x1f
  40ddc8:	24010001 	li	$at,1
  40ddcc:	15c10002 	bne	$t6,$at,40ddd8 <_doprnt+0x163c>
  40ddd0:	240d0001 	li	$t5,1
  40ddd4:	afad0250 	sw	$t5,592($sp)
  40ddd8:	24010047 	li	$at,71
  40dddc:	14610003 	bne	$v1,$at,40ddec <_doprnt+0x1650>
  40dde0:	279788f4 	addiu	$s7,$gp,-30476
  40dde4:	10000185 	b	40e3fc <_doprnt+0x1c60>
  40dde8:	26e80003 	addiu	$t0,$s7,3
  40ddec:	279788f0 	addiu	$s7,$gp,-30480
  40ddf0:	10000182 	b	40e3fc <_doprnt+0x1c60>
  40ddf4:	26e80003 	addiu	$t0,$s7,3
  40ddf8:	27a802c6 	addiu	$t0,$sp,710
  40ddfc:	8fa3027c 	lw	$v1,636($sp)
  40de00:	24190005 	li	$t9,5
  40de04:	00025fc2 	srl	$t3,$v0,0x1f
  40de08:	24010001 	li	$at,1
  40de0c:	afb90258 	sw	$t9,600($sp)
  40de10:	0100b825 	move	$s7,$t0
  40de14:	2405000f 	li	$a1,15
  40de18:	15610003 	bne	$t3,$at,40de28 <_doprnt+0x168c>
  40de1c:	24060003 	li	$a2,3
  40de20:	240f0001 	li	$t7,1
  40de24:	afaf0250 	sw	$t7,592($sp)
  40de28:	00045300 	sll	$t2,$a0,0xc
  40de2c:	00036502 	srl	$t4,$v1,0x14
  40de30:	014c7025 	or	$t6,$t2,$t4
  40de34:	24180000 	li	$t8,0
  40de38:	24010047 	li	$at,71
  40de3c:	afb80288 	sw	$t8,648($sp)
  40de40:	16010007 	bne	$s0,$at,40de60 <_doprnt+0x16c4>
  40de44:	afae028c 	sw	$t6,652($sp)
  40de48:	278d88e8 	addiu	$t5,$gp,-30488
  40de4c:	3c120042 	lui	$s2,0x42
  40de50:	afad0254 	sw	$t5,596($sp)
  40de54:	2652adb4 	addiu	$s2,$s2,-21068
  40de58:	1000fd80 	b	40d45c <_doprnt+0xcc0>
  40de5c:	32220001 	andi	$v0,$s1,0x1
  40de60:	278b88e0 	addiu	$t3,$gp,-30496
  40de64:	3c120042 	lui	$s2,0x42
  40de68:	afab0254 	sw	$t3,596($sp)
  40de6c:	2652adc8 	addiu	$s2,$s2,-21048
  40de70:	1000fd7a 	b	40d45c <_doprnt+0xcc0>
  40de74:	32220001 	andi	$v0,$s1,0x1
  40de78:	2ac10011 	slti	$at,$s6,17
  40de7c:	10200004 	beqz	$at,40de90 <_doprnt+0x16f4>
  40de80:	24060011 	li	$a2,17
  40de84:	10000002 	b	40de90 <_doprnt+0x16f4>
  40de88:	02c03025 	move	$a2,$s6
  40de8c:	24060011 	li	$a2,17
  40de90:	c7ad0278 	lwc1	$f13,632($sp)
  40de94:	c7ac027c 	lwc1	$f12,636($sp)
  40de98:	27af0270 	addiu	$t7,$sp,624
  40de9c:	27aa016c 	addiu	$t2,$sp,364
  40dea0:	afaa0014 	sw	$t2,20($sp)
  40dea4:	afaf0010 	sw	$t7,16($sp)
  40dea8:	0c104520 	jal	411480 <_ecvt_r>
  40deac:	27a70274 	addiu	$a3,$sp,628
  40deb0:	c7b30278 	lwc1	$f19,632($sp)
  40deb4:	c7b2027c 	lwc1	$f18,636($sp)
  40deb8:	2409fffc 	li	$t1,-4
  40debc:	46349032 	c.eq.d	$f18,$f20
  40dec0:	0040b825 	move	$s7,$v0
  40dec4:	45000004 	bc1f	40ded8 <_doprnt+0x173c>
  40dec8:	323e0010 	andi	$s8,$s1,0x10
  40decc:	240c0001 	li	$t4,1
  40ded0:	afac0274 	sw	$t4,628($sp)
  40ded4:	323e0010 	andi	$s8,$s1,0x10
  40ded8:	17c00014 	bnez	$s8,40df2c <_doprnt+0x1790>
  40dedc:	02c09025 	move	$s2,$s6
  40dee0:	0c101ad0 	jal	406b40 <strlen>
  40dee4:	02e02025 	move	$a0,$s7
  40dee8:	0056082a 	slt	$at,$v0,$s6
  40deec:	10200002 	beqz	$at,40def8 <_doprnt+0x175c>
  40def0:	2409fffc 	li	$t1,-4
  40def4:	00409025 	move	$s2,$v0
  40def8:	1a40000c 	blez	$s2,40df2c <_doprnt+0x1790>
  40defc:	02571021 	addu	$v0,$s2,$s7
  40df00:	904effff 	lbu	$t6,-1($v0)
  40df04:	24010030 	li	$at,48
  40df08:	15c10009 	bne	$t6,$at,40df30 <_doprnt+0x1794>
  40df0c:	8fb90274 	lw	$t9,628($sp)
  40df10:	2652ffff 	addiu	$s2,$s2,-1
  40df14:	1a400005 	blez	$s2,40df2c <_doprnt+0x1790>
  40df18:	2442ffff 	addiu	$v0,$v0,-1
  40df1c:	9058ffff 	lbu	$t8,-1($v0)
  40df20:	24010030 	li	$at,48
  40df24:	1301fffa 	beq	$t8,$at,40df10 <_doprnt+0x1774>
  40df28:	00000000 	nop
  40df2c:	8fb90274 	lw	$t9,628($sp)
  40df30:	00000000 	nop
  40df34:	2b21fffd 	slti	$at,$t9,-3
  40df38:	14200002 	bnez	$at,40df44 <_doprnt+0x17a8>
  40df3c:	02d9082a 	slt	$at,$s6,$t9
  40df40:	10200003 	beqz	$at,40df50 <_doprnt+0x17b4>
  40df44:	2656ffff 	addiu	$s6,$s2,-1
  40df48:	1000fe06 	b	40d764 <_doprnt+0xfc8>
  40df4c:	02c0a025 	move	$s4,$s6
  40df50:	8fad0274 	lw	$t5,628($sp)
  40df54:	1000ff07 	b	40db74 <_doprnt+0x13d8>
  40df58:	024db023 	subu	$s6,$s2,$t5
  40df5c:	a3b002b0 	sb	$s0,688($sp)
  40df60:	27b702b0 	addiu	$s7,$sp,688
  40df64:	10000125 	b	40e3fc <_doprnt+0x1c60>
  40df68:	27a802b1 	addiu	$t0,$sp,689
  40df6c:	8fab0244 	lw	$t3,580($sp)
  40df70:	27b702b0 	addiu	$s7,$sp,688
  40df74:	256f0003 	addiu	$t7,$t3,3
  40df78:	01e95024 	and	$t2,$t7,$t1
  40df7c:	254c0004 	addiu	$t4,$t2,4
  40df80:	afac0244 	sw	$t4,580($sp)
  40df84:	8d4e0000 	lw	$t6,0($t2)
  40df88:	27a802b1 	addiu	$t0,$sp,689
  40df8c:	1000011b 	b	40e3fc <_doprnt+0x1c60>
  40df90:	a3ae02b0 	sb	$t6,688($sp)
  40df94:	8fb80244 	lw	$t8,580($sp)
  40df98:	27b702b0 	addiu	$s7,$sp,688
  40df9c:	27190003 	addiu	$t9,$t8,3
  40dfa0:	03296824 	and	$t5,$t9,$t1
  40dfa4:	25ab0004 	addiu	$t3,$t5,4
  40dfa8:	afab0244 	sw	$t3,580($sp)
  40dfac:	8da50000 	lw	$a1,0($t5)
  40dfb0:	0c104078 	jal	4101e0 <wctomb>
  40dfb4:	27a402b0 	addiu	$a0,$sp,688
  40dfb8:	2409fffc 	li	$t1,-4
  40dfbc:	04410002 	bgez	$v0,40dfc8 <_doprnt+0x182c>
  40dfc0:	0040a025 	move	$s4,$v0
  40dfc4:	0000a025 	move	$s4,$zero
  40dfc8:	27af02b0 	addiu	$t7,$sp,688
  40dfcc:	1000010b 	b	40e3fc <_doprnt+0x1c60>
  40dfd0:	028f4021 	addu	$t0,$s4,$t7
  40dfd4:	8fac0244 	lw	$t4,580($sp)
  40dfd8:	00000000 	nop
  40dfdc:	258a0003 	addiu	$t2,$t4,3
  40dfe0:	01497024 	and	$t6,$t2,$t1
  40dfe4:	25d80004 	addiu	$t8,$t6,4
  40dfe8:	afb80244 	sw	$t8,580($sp)
  40dfec:	8dd70000 	lw	$s7,0($t6)
  40dff0:	00000000 	nop
  40dff4:	16e00004 	bnez	$s7,40e008 <_doprnt+0x186c>
  40dff8:	2401ffbf 	li	$at,-65
  40dffc:	0221c824 	and	$t9,$s1,$at
  40e000:	27978934 	addiu	$s7,$gp,-30412
  40e004:	03208825 	move	$s1,$t9
  40e008:	322b0040 	andi	$t3,$s1,0x40
  40e00c:	15600006 	bnez	$t3,40e028 <_doprnt+0x188c>
  40e010:	00000000 	nop
  40e014:	0c101ad0 	jal	406b40 <strlen>
  40e018:	02e02025 	move	$a0,$s7
  40e01c:	2409fffc 	li	$t1,-4
  40e020:	100000f6 	b	40e3fc <_doprnt+0x1c60>
  40e024:	00574021 	addu	$t0,$v0,$s7
  40e028:	92e60000 	lbu	$a2,0($s7)
  40e02c:	26e20001 	addiu	$v0,$s7,1
  40e030:	0006682b 	sltu	$t5,$zero,$a2
  40e034:	11a0000c 	beqz	$t5,40e068 <_doprnt+0x18cc>
  40e038:	00000000 	nop
  40e03c:	26d6ffff 	addiu	$s6,$s6,-1
  40e040:	06c00009 	bltz	$s6,40e068 <_doprnt+0x18cc>
  40e044:	00000000 	nop
  40e048:	90460000 	lbu	$a2,0($v0)
  40e04c:	24420001 	addiu	$v0,$v0,1
  40e050:	0006782b 	sltu	$t7,$zero,$a2
  40e054:	11e00004 	beqz	$t7,40e068 <_doprnt+0x18cc>
  40e058:	00000000 	nop
  40e05c:	26d6ffff 	addiu	$s6,$s6,-1
  40e060:	06c1fff9 	bgez	$s6,40e048 <_doprnt+0x18ac>
  40e064:	00000000 	nop
  40e068:	100000e4 	b	40e3fc <_doprnt+0x1c60>
  40e06c:	2448ffff 	addiu	$t0,$v0,-1
  40e070:	8fac0244 	lw	$t4,580($sp)
  40e074:	00000000 	nop
  40e078:	258a0003 	addiu	$t2,$t4,3
  40e07c:	0149c024 	and	$t8,$t2,$t1
  40e080:	270e0004 	addiu	$t6,$t8,4
  40e084:	afae0244 	sw	$t6,580($sp)
  40e088:	8f140000 	lw	$s4,0($t8)
  40e08c:	00000000 	nop
  40e090:	16800002 	bnez	$s4,40e09c <_doprnt+0x1900>
  40e094:	00000000 	nop
  40e098:	279488f8 	addiu	$s4,$gp,-30472
  40e09c:	12a00049 	beqz	$s5,40e1c4 <_doprnt+0x1a28>
  40e0a0:	32390004 	andi	$t9,$s1,0x4
  40e0a4:	17200047 	bnez	$t9,40e1c4 <_doprnt+0x1a28>
  40e0a8:	00000000 	nop
  40e0ac:	8e8b0000 	lw	$t3,0($s4)
  40e0b0:	00008025 	move	$s0,$zero
  40e0b4:	11600013 	beqz	$t3,40e104 <_doprnt+0x1968>
  40e0b8:	02809025 	move	$s2,$s4
  40e0bc:	8e450000 	lw	$a1,0($s2)
  40e0c0:	00000000 	nop
  40e0c4:	0c104078 	jal	4101e0 <wctomb>
  40e0c8:	27a402b0 	addiu	$a0,$sp,688
  40e0cc:	18400009 	blez	$v0,40e0f4 <_doprnt+0x1958>
  40e0d0:	2409fffc 	li	$t1,-4
  40e0d4:	322d0040 	andi	$t5,$s1,0x40
  40e0d8:	11a00006 	beqz	$t5,40e0f4 <_doprnt+0x1958>
  40e0dc:	02028021 	addu	$s0,$s0,$v0
  40e0e0:	02d0082a 	slt	$at,$s6,$s0
  40e0e4:	10200003 	beqz	$at,40e0f4 <_doprnt+0x1958>
  40e0e8:	00000000 	nop
  40e0ec:	10000005 	b	40e104 <_doprnt+0x1968>
  40e0f0:	02028023 	subu	$s0,$s0,$v0
  40e0f4:	8e450004 	lw	$a1,4($s2)
  40e0f8:	26520004 	addiu	$s2,$s2,4
  40e0fc:	14a0fff1 	bnez	$a1,40e0c4 <_doprnt+0x1928>
  40e100:	00000000 	nop
  40e104:	0215082a 	slt	$at,$s0,$s5
  40e108:	1020002e 	beqz	$at,40e1c4 <_doprnt+0x1a28>
  40e10c:	00000000 	nop
  40e110:	8faf0454 	lw	$t7,1108($sp)
  40e114:	02b09023 	subu	$s2,$s5,$s0
  40e118:	2a410015 	slti	$at,$s2,21
  40e11c:	01f26021 	addu	$t4,$t7,$s2
  40e120:	1420000f 	bnez	$at,40e160 <_doprnt+0x19c4>
  40e124:	afac0454 	sw	$t4,1108($sp)
  40e128:	3c040042 	lui	$a0,0x42
  40e12c:	8fa60468 	lw	$a2,1128($sp)
  40e130:	2484ad84 	addiu	$a0,$a0,-21116
  40e134:	24050014 	li	$a1,20
  40e138:	0c1031a9 	jal	40c6a4 <_usmemalign+0x140>
  40e13c:	27a7045c 	addiu	$a3,$sp,1116
  40e140:	14400004 	bnez	$v0,40e154 <_doprnt+0x19b8>
  40e144:	2652ffec 	addiu	$s2,$s2,-20
  40e148:	10000200 	b	40e94c <_doprnt+0x21b0>
  40e14c:	2402ffff 	li	$v0,-1
  40e150:	2652ffec 	addiu	$s2,$s2,-20
  40e154:	2a410015 	slti	$at,$s2,21
  40e158:	1020fff3 	beqz	$at,40e128 <_doprnt+0x198c>
  40e15c:	00000000 	nop
  40e160:	8faa045c 	lw	$t2,1116($sp)
  40e164:	8fae0458 	lw	$t6,1112($sp)
  40e168:	01528021 	addu	$s0,$t2,$s2
  40e16c:	01d0082b 	sltu	$at,$t6,$s0
  40e170:	1020000c 	beqz	$at,40e1a4 <_doprnt+0x1a08>
  40e174:	3c040042 	lui	$a0,0x42
  40e178:	8fa60468 	lw	$a2,1128($sp)
  40e17c:	2484ad84 	addiu	$a0,$a0,-21116
  40e180:	02402825 	move	$a1,$s2
  40e184:	0c1031a9 	jal	40c6a4 <_usmemalign+0x140>
  40e188:	27a7045c 	addiu	$a3,$sp,1116
  40e18c:	14400003 	bnez	$v0,40e19c <_doprnt+0x1a00>
  40e190:	2409fffc 	li	$t1,-4
  40e194:	100001ed 	b	40e94c <_doprnt+0x21b0>
  40e198:	2402ffff 	li	$v0,-1
  40e19c:	10000009 	b	40e1c4 <_doprnt+0x1a28>
  40e1a0:	0000a825 	move	$s5,$zero
  40e1a4:	8fa4045c 	lw	$a0,1116($sp)
  40e1a8:	3c050042 	lui	$a1,0x42
  40e1ac:	24a5ad84 	addiu	$a1,$a1,-21116
  40e1b0:	02403025 	move	$a2,$s2
  40e1b4:	0c1019e0 	jal	406780 <memcpy>
  40e1b8:	0000a825 	move	$s5,$zero
  40e1bc:	2409fffc 	li	$t1,-4
  40e1c0:	afb0045c 	sw	$s0,1116($sp)
  40e1c4:	8e820000 	lw	$v0,0($s4)
  40e1c8:	32380040 	andi	$t8,$s1,0x40
  40e1cc:	02809025 	move	$s2,$s4
  40e1d0:	17000003 	bnez	$t8,40e1e0 <_doprnt+0x1a44>
  40e1d4:	0000b825 	move	$s7,$zero
  40e1d8:	3c167fff 	lui	$s6,0x7fff
  40e1dc:	36d6ffff 	ori	$s6,$s6,0xffff
  40e1e0:	10400027 	beqz	$v0,40e280 <_doprnt+0x1ae4>
  40e1e4:	8fad0454 	lw	$t5,1108($sp)
  40e1e8:	8e450000 	lw	$a1,0($s2)
  40e1ec:	00000000 	nop
  40e1f0:	27a402b0 	addiu	$a0,$sp,688
  40e1f4:	0c104078 	jal	4101e0 <wctomb>
  40e1f8:	26520004 	addiu	$s2,$s2,4
  40e1fc:	2409fffc 	li	$t1,-4
  40e200:	1840001a 	blez	$v0,40e26c <_doprnt+0x1ad0>
  40e204:	0040a025 	move	$s4,$v0
  40e208:	02c2b023 	subu	$s6,$s6,$v0
  40e20c:	06c0001c 	bltz	$s6,40e280 <_doprnt+0x1ae4>
  40e210:	8fad0454 	lw	$t5,1108($sp)
  40e214:	8fb9045c 	lw	$t9,1116($sp)
  40e218:	8fab0458 	lw	$t3,1112($sp)
  40e21c:	03228021 	addu	$s0,$t9,$v0
  40e220:	0170082b 	sltu	$at,$t3,$s0
  40e224:	1020000b 	beqz	$at,40e254 <_doprnt+0x1ab8>
  40e228:	8fa4045c 	lw	$a0,1116($sp)
  40e22c:	8fa60468 	lw	$a2,1128($sp)
  40e230:	27a402b0 	addiu	$a0,$sp,688
  40e234:	00402825 	move	$a1,$v0
  40e238:	0c1031a9 	jal	40c6a4 <_usmemalign+0x140>
  40e23c:	27a7045c 	addiu	$a3,$sp,1116
  40e240:	14400009 	bnez	$v0,40e268 <_doprnt+0x1acc>
  40e244:	2409fffc 	li	$t1,-4
  40e248:	100001c0 	b	40e94c <_doprnt+0x21b0>
  40e24c:	2402ffff 	li	$v0,-1
  40e250:	8fa4045c 	lw	$a0,1116($sp)
  40e254:	27a502b0 	addiu	$a1,$sp,688
  40e258:	0c1019e0 	jal	406780 <memcpy>
  40e25c:	02803025 	move	$a2,$s4
  40e260:	2409fffc 	li	$t1,-4
  40e264:	afb0045c 	sw	$s0,1116($sp)
  40e268:	02f4b821 	addu	$s7,$s7,$s4
  40e26c:	8e450000 	lw	$a1,0($s2)
  40e270:	00000000 	nop
  40e274:	14a0ffdf 	bnez	$a1,40e1f4 <_doprnt+0x1a58>
  40e278:	27a402b0 	addiu	$a0,$sp,688
  40e27c:	8fad0454 	lw	$t5,1108($sp)
  40e280:	02f5082a 	slt	$at,$s7,$s5
  40e284:	01b77821 	addu	$t7,$t5,$s7
  40e288:	1020f993 	beqz	$at,40c8d8 <_doprnt+0x13c>
  40e28c:	afaf0454 	sw	$t7,1108($sp)
  40e290:	02b78023 	subu	$s0,$s5,$s7
  40e294:	01f06021 	addu	$t4,$t7,$s0
  40e298:	2a010015 	slti	$at,$s0,21
  40e29c:	1420000f 	bnez	$at,40e2dc <_doprnt+0x1b40>
  40e2a0:	afac0454 	sw	$t4,1108($sp)
  40e2a4:	3c040042 	lui	$a0,0x42
  40e2a8:	8fa60468 	lw	$a2,1128($sp)
  40e2ac:	2484ad84 	addiu	$a0,$a0,-21116
  40e2b0:	24050014 	li	$a1,20
  40e2b4:	0c1031a9 	jal	40c6a4 <_usmemalign+0x140>
  40e2b8:	27a7045c 	addiu	$a3,$sp,1116
  40e2bc:	14400004 	bnez	$v0,40e2d0 <_doprnt+0x1b34>
  40e2c0:	2610ffec 	addiu	$s0,$s0,-20
  40e2c4:	100001a1 	b	40e94c <_doprnt+0x21b0>
  40e2c8:	2402ffff 	li	$v0,-1
  40e2cc:	2610ffec 	addiu	$s0,$s0,-20
  40e2d0:	2a010015 	slti	$at,$s0,21
  40e2d4:	1020fff3 	beqz	$at,40e2a4 <_doprnt+0x1b08>
  40e2d8:	00000000 	nop
  40e2dc:	8faa045c 	lw	$t2,1116($sp)
  40e2e0:	8fae0458 	lw	$t6,1112($sp)
  40e2e4:	01508821 	addu	$s1,$t2,$s0
  40e2e8:	01d1082b 	sltu	$at,$t6,$s1
  40e2ec:	1020000a 	beqz	$at,40e318 <_doprnt+0x1b7c>
  40e2f0:	3c040042 	lui	$a0,0x42
  40e2f4:	8fa60468 	lw	$a2,1128($sp)
  40e2f8:	2484ad84 	addiu	$a0,$a0,-21116
  40e2fc:	02002825 	move	$a1,$s0
  40e300:	0c1031a9 	jal	40c6a4 <_usmemalign+0x140>
  40e304:	27a7045c 	addiu	$a3,$sp,1116
  40e308:	1440f973 	bnez	$v0,40c8d8 <_doprnt+0x13c>
  40e30c:	2409fffc 	li	$t1,-4
  40e310:	1000018e 	b	40e94c <_doprnt+0x21b0>
  40e314:	2402ffff 	li	$v0,-1
  40e318:	8fa4045c 	lw	$a0,1116($sp)
  40e31c:	3c050042 	lui	$a1,0x42
  40e320:	24a5ad84 	addiu	$a1,$a1,-21116
  40e324:	0c1019e0 	jal	406780 <memcpy>
  40e328:	02003025 	move	$a2,$s0
  40e32c:	2409fffc 	li	$t1,-4
  40e330:	1000f969 	b	40c8d8 <_doprnt+0x13c>
  40e334:	afb1045c 	sw	$s1,1116($sp)
  40e338:	32380800 	andi	$t8,$s1,0x800
  40e33c:	1300000d 	beqz	$t8,40e374 <_doprnt+0x1bd8>
  40e340:	322e0001 	andi	$t6,$s1,0x1
  40e344:	8fb90244 	lw	$t9,580($sp)
  40e348:	8fac0454 	lw	$t4,1108($sp)
  40e34c:	272b0003 	addiu	$t3,$t9,3
  40e350:	01696824 	and	$t5,$t3,$t1
  40e354:	25af0004 	addiu	$t7,$t5,4
  40e358:	afaf0244 	sw	$t7,580($sp)
  40e35c:	8da20000 	lw	$v0,0($t5)
  40e360:	000c57c3 	sra	$t2,$t4,0x1f
  40e364:	ac4a0000 	sw	$t2,0($v0)
  40e368:	1000f95b 	b	40c8d8 <_doprnt+0x13c>
  40e36c:	ac4c0004 	sw	$t4,4($v0)
  40e370:	322e0001 	andi	$t6,$s1,0x1
  40e374:	11c0000b 	beqz	$t6,40e3a4 <_doprnt+0x1c08>
  40e378:	322a0400 	andi	$t2,$s1,0x400
  40e37c:	8fb80244 	lw	$t8,580($sp)
  40e380:	8fac0454 	lw	$t4,1108($sp)
  40e384:	27190003 	addiu	$t9,$t8,3
  40e388:	03297824 	and	$t7,$t9,$t1
  40e38c:	25ed0004 	addiu	$t5,$t7,4
  40e390:	afad0244 	sw	$t5,580($sp)
  40e394:	8de20000 	lw	$v0,0($t7)
  40e398:	1000f94f 	b	40c8d8 <_doprnt+0x13c>
  40e39c:	ac4c0000 	sw	$t4,0($v0)
  40e3a0:	322a0400 	andi	$t2,$s1,0x400
  40e3a4:	1140000b 	beqz	$t2,40e3d4 <_doprnt+0x1c38>
  40e3a8:	8faf0244 	lw	$t7,580($sp)
  40e3ac:	8fab0244 	lw	$t3,580($sp)
  40e3b0:	8fad0454 	lw	$t5,1108($sp)
  40e3b4:	256e0003 	addiu	$t6,$t3,3
  40e3b8:	01c9c024 	and	$t8,$t6,$t1
  40e3bc:	27190004 	addiu	$t9,$t8,4
  40e3c0:	afb90244 	sw	$t9,580($sp)
  40e3c4:	8f020000 	lw	$v0,0($t8)
  40e3c8:	1000f943 	b	40c8d8 <_doprnt+0x13c>
  40e3cc:	a44d0000 	sh	$t5,0($v0)
  40e3d0:	8faf0244 	lw	$t7,580($sp)
  40e3d4:	8fae0454 	lw	$t6,1108($sp)
  40e3d8:	25ec0003 	addiu	$t4,$t7,3
  40e3dc:	01895024 	and	$t2,$t4,$t1
  40e3e0:	254b0004 	addiu	$t3,$t2,4
  40e3e4:	afab0244 	sw	$t3,580($sp)
  40e3e8:	8d420000 	lw	$v0,0($t2)
  40e3ec:	1000f93a 	b	40c8d8 <_doprnt+0x13c>
  40e3f0:	ac4e0000 	sw	$t6,0($v0)
  40e3f4:	1000f938 	b	40c8d8 <_doprnt+0x13c>
  40e3f8:	2673ffff 	addiu	$s3,$s3,-1
  40e3fc:	8fb9025c 	lw	$t9,604($sp)
  40e400:	00000000 	nop
  40e404:	13200018 	beqz	$t9,40e468 <_doprnt+0x1ccc>
  40e408:	8fad029c 	lw	$t5,668($sp)
  40e40c:	8fb80250 	lw	$t8,592($sp)
  40e410:	afa0025c 	sw	$zero,604($sp)
  40e414:	13000006 	beqz	$t8,40e430 <_doprnt+0x1c94>
  40e418:	278d893c 	addiu	$t5,$gp,-30404
  40e41c:	240f0001 	li	$t7,1
  40e420:	afad02ac 	sw	$t5,684($sp)
  40e424:	afaf029c 	sw	$t7,668($sp)
  40e428:	1000000e 	b	40e464 <_doprnt+0x1cc8>
  40e42c:	afa00250 	sw	$zero,592($sp)
  40e430:	322c0002 	andi	$t4,$s1,0x2
  40e434:	11800005 	beqz	$t4,40e44c <_doprnt+0x1cb0>
  40e438:	278b8940 	addiu	$t3,$gp,-30400
  40e43c:	240a0001 	li	$t2,1
  40e440:	afab02ac 	sw	$t3,684($sp)
  40e444:	10000007 	b	40e464 <_doprnt+0x1cc8>
  40e448:	afaa029c 	sw	$t2,668($sp)
  40e44c:	322e0008 	andi	$t6,$s1,0x8
  40e450:	11c00004 	beqz	$t6,40e464 <_doprnt+0x1cc8>
  40e454:	27998944 	addiu	$t9,$gp,-30396
  40e458:	24180001 	li	$t8,1
  40e45c:	afb902ac 	sw	$t9,684($sp)
  40e460:	afb8029c 	sw	$t8,668($sp)
  40e464:	8fad029c 	lw	$t5,668($sp)
  40e468:	8fac0294 	lw	$t4,660($sp)
  40e46c:	0117f023 	subu	$s8,$t0,$s7
  40e470:	8faa0258 	lw	$t2,600($sp)
  40e474:	03cd7821 	addu	$t7,$s8,$t5
  40e478:	01ec5821 	addu	$t3,$t7,$t4
  40e47c:	016a1821 	addu	$v1,$t3,$t2
  40e480:	0075082a 	slt	$at,$v1,$s5
  40e484:	14200006 	bnez	$at,40e4a0 <_doprnt+0x1d04>
  40e488:	0060a025 	move	$s4,$v1
  40e48c:	8fae0454 	lw	$t6,1108($sp)
  40e490:	00000000 	nop
  40e494:	01c3c821 	addu	$t9,$t6,$v1
  40e498:	1000003e 	b	40e594 <_doprnt+0x1df8>
  40e49c:	afb90454 	sw	$t9,1108($sp)
  40e4a0:	8fb80454 	lw	$t8,1108($sp)
  40e4a4:	322f0020 	andi	$t7,$s1,0x20
  40e4a8:	03156821 	addu	$t5,$t8,$s5
  40e4ac:	11e00010 	beqz	$t7,40e4f0 <_doprnt+0x1d54>
  40e4b0:	afad0454 	sw	$t5,1108($sp)
  40e4b4:	322c0200 	andi	$t4,$s1,0x200
  40e4b8:	15800006 	bnez	$t4,40e4d4 <_doprnt+0x1d38>
  40e4bc:	362b0200 	ori	$t3,$s1,0x200
  40e4c0:	02a35023 	subu	$t2,$s5,$v1
  40e4c4:	01608825 	move	$s1,$t3
  40e4c8:	afaa043c 	sw	$t2,1084($sp)
  40e4cc:	10000031 	b	40e594 <_doprnt+0x1df8>
  40e4d0:	02a0a025 	move	$s4,$s5
  40e4d4:	8fae043c 	lw	$t6,1084($sp)
  40e4d8:	00000000 	nop
  40e4dc:	01d5c821 	addu	$t9,$t6,$s5
  40e4e0:	0323c023 	subu	$t8,$t9,$v1
  40e4e4:	afb8043c 	sw	$t8,1084($sp)
  40e4e8:	1000002a 	b	40e594 <_doprnt+0x1df8>
  40e4ec:	02a0a025 	move	$s4,$s5
  40e4f0:	322d0004 	andi	$t5,$s1,0x4
  40e4f4:	15a00027 	bnez	$t5,40e594 <_doprnt+0x1df8>
  40e4f8:	02a38023 	subu	$s0,$s5,$v1
  40e4fc:	2a010015 	slti	$at,$s0,21
  40e500:	1420000e 	bnez	$at,40e53c <_doprnt+0x1da0>
  40e504:	3c040042 	lui	$a0,0x42
  40e508:	8fa60468 	lw	$a2,1128($sp)
  40e50c:	2484ad84 	addiu	$a0,$a0,-21116
  40e510:	24050014 	li	$a1,20
  40e514:	0c1031a9 	jal	40c6a4 <_usmemalign+0x140>
  40e518:	27a7045c 	addiu	$a3,$sp,1116
  40e51c:	14400004 	bnez	$v0,40e530 <_doprnt+0x1d94>
  40e520:	2610ffec 	addiu	$s0,$s0,-20
  40e524:	10000109 	b	40e94c <_doprnt+0x21b0>
  40e528:	2402ffff 	li	$v0,-1
  40e52c:	2610ffec 	addiu	$s0,$s0,-20
  40e530:	2a010015 	slti	$at,$s0,21
  40e534:	1020fff3 	beqz	$at,40e504 <_doprnt+0x1d68>
  40e538:	00000000 	nop
  40e53c:	8faf045c 	lw	$t7,1116($sp)
  40e540:	8fac0458 	lw	$t4,1112($sp)
  40e544:	01f09021 	addu	$s2,$t7,$s0
  40e548:	0192082b 	sltu	$at,$t4,$s2
  40e54c:	1020000a 	beqz	$at,40e578 <_doprnt+0x1ddc>
  40e550:	3c040042 	lui	$a0,0x42
  40e554:	8fa60468 	lw	$a2,1128($sp)
  40e558:	2484ad84 	addiu	$a0,$a0,-21116
  40e55c:	02002825 	move	$a1,$s0
  40e560:	0c1031a9 	jal	40c6a4 <_usmemalign+0x140>
  40e564:	27a7045c 	addiu	$a3,$sp,1116
  40e568:	1440000a 	bnez	$v0,40e594 <_doprnt+0x1df8>
  40e56c:	2409fffc 	li	$t1,-4
  40e570:	100000f6 	b	40e94c <_doprnt+0x21b0>
  40e574:	2402ffff 	li	$v0,-1
  40e578:	8fa4045c 	lw	$a0,1116($sp)
  40e57c:	3c050042 	lui	$a1,0x42
  40e580:	24a5ad84 	addiu	$a1,$a1,-21116
  40e584:	0c1019e0 	jal	406780 <memcpy>
  40e588:	02003025 	move	$a2,$s0
  40e58c:	2409fffc 	li	$t1,-4
  40e590:	afb2045c 	sw	$s2,1116($sp)
  40e594:	8fab029c 	lw	$t3,668($sp)
  40e598:	00000000 	nop
  40e59c:	11600018 	beqz	$t3,40e600 <_doprnt+0x1e64>
  40e5a0:	8fb80258 	lw	$t8,600($sp)
  40e5a4:	8faa045c 	lw	$t2,1116($sp)
  40e5a8:	8fb90458 	lw	$t9,1112($sp)
  40e5ac:	014b8021 	addu	$s0,$t2,$t3
  40e5b0:	0330082b 	sltu	$at,$t9,$s0
  40e5b4:	1020000b 	beqz	$at,40e5e4 <_doprnt+0x1e48>
  40e5b8:	8fa4045c 	lw	$a0,1116($sp)
  40e5bc:	8fa402ac 	lw	$a0,684($sp)
  40e5c0:	8fa60468 	lw	$a2,1128($sp)
  40e5c4:	01602825 	move	$a1,$t3
  40e5c8:	0c1031a9 	jal	40c6a4 <_usmemalign+0x140>
  40e5cc:	27a7045c 	addiu	$a3,$sp,1116
  40e5d0:	1440000a 	bnez	$v0,40e5fc <_doprnt+0x1e60>
  40e5d4:	2409fffc 	li	$t1,-4
  40e5d8:	100000dc 	b	40e94c <_doprnt+0x21b0>
  40e5dc:	2402ffff 	li	$v0,-1
  40e5e0:	8fa4045c 	lw	$a0,1116($sp)
  40e5e4:	8fa502ac 	lw	$a1,684($sp)
  40e5e8:	8fa6029c 	lw	$a2,668($sp)
  40e5ec:	0c1019e0 	jal	406780 <memcpy>
  40e5f0:	00000000 	nop
  40e5f4:	2409fffc 	li	$t1,-4
  40e5f8:	afb0045c 	sw	$s0,1116($sp)
  40e5fc:	8fb80258 	lw	$t8,600($sp)
  40e600:	00000000 	nop
  40e604:	1300001a 	beqz	$t8,40e670 <_doprnt+0x1ed4>
  40e608:	322f0200 	andi	$t7,$s1,0x200
  40e60c:	8fa2045c 	lw	$v0,1116($sp)
  40e610:	8fad0458 	lw	$t5,1112($sp)
  40e614:	24500005 	addiu	$s0,$v0,5
  40e618:	01b0082b 	sltu	$at,$t5,$s0
  40e61c:	1020000d 	beqz	$at,40e654 <_doprnt+0x1eb8>
  40e620:	8fa4045c 	lw	$a0,1116($sp)
  40e624:	8fa40254 	lw	$a0,596($sp)
  40e628:	8fa60468 	lw	$a2,1128($sp)
  40e62c:	24050005 	li	$a1,5
  40e630:	0c1031a9 	jal	40c6a4 <_usmemalign+0x140>
  40e634:	27a7045c 	addiu	$a3,$sp,1116
  40e638:	14400003 	bnez	$v0,40e648 <_doprnt+0x1eac>
  40e63c:	2409fffc 	li	$t1,-4
  40e640:	100000c2 	b	40e94c <_doprnt+0x21b0>
  40e644:	2402ffff 	li	$v0,-1
  40e648:	10000008 	b	40e66c <_doprnt+0x1ed0>
  40e64c:	afa00258 	sw	$zero,600($sp)
  40e650:	8fa4045c 	lw	$a0,1116($sp)
  40e654:	8fa50254 	lw	$a1,596($sp)
  40e658:	24060005 	li	$a2,5
  40e65c:	0c1019e0 	jal	406780 <memcpy>
  40e660:	afa00258 	sw	$zero,600($sp)
  40e664:	2409fffc 	li	$t1,-4
  40e668:	afb0045c 	sw	$s0,1116($sp)
  40e66c:	322f0200 	andi	$t7,$s1,0x200
  40e670:	11e00029 	beqz	$t7,40e718 <_doprnt+0x1f7c>
  40e674:	00000000 	nop
  40e678:	8fb0043c 	lw	$s0,1084($sp)
  40e67c:	00000000 	nop
  40e680:	2a010015 	slti	$at,$s0,21
  40e684:	1420000e 	bnez	$at,40e6c0 <_doprnt+0x1f24>
  40e688:	3c040042 	lui	$a0,0x42
  40e68c:	8fa60468 	lw	$a2,1128($sp)
  40e690:	2484ad9c 	addiu	$a0,$a0,-21092
  40e694:	24050014 	li	$a1,20
  40e698:	0c1031a9 	jal	40c6a4 <_usmemalign+0x140>
  40e69c:	27a7045c 	addiu	$a3,$sp,1116
  40e6a0:	14400004 	bnez	$v0,40e6b4 <_doprnt+0x1f18>
  40e6a4:	2610ffec 	addiu	$s0,$s0,-20
  40e6a8:	100000a8 	b	40e94c <_doprnt+0x21b0>
  40e6ac:	2402ffff 	li	$v0,-1
  40e6b0:	2610ffec 	addiu	$s0,$s0,-20
  40e6b4:	2a010015 	slti	$at,$s0,21
  40e6b8:	1020fff3 	beqz	$at,40e688 <_doprnt+0x1eec>
  40e6bc:	00000000 	nop
  40e6c0:	8faa045c 	lw	$t2,1116($sp)
  40e6c4:	8fae0458 	lw	$t6,1112($sp)
  40e6c8:	01509021 	addu	$s2,$t2,$s0
  40e6cc:	01d2082b 	sltu	$at,$t6,$s2
  40e6d0:	1020000a 	beqz	$at,40e6fc <_doprnt+0x1f60>
  40e6d4:	3c040042 	lui	$a0,0x42
  40e6d8:	8fa60468 	lw	$a2,1128($sp)
  40e6dc:	2484ad9c 	addiu	$a0,$a0,-21092
  40e6e0:	02002825 	move	$a1,$s0
  40e6e4:	0c1031a9 	jal	40c6a4 <_usmemalign+0x140>
  40e6e8:	27a7045c 	addiu	$a3,$sp,1116
  40e6ec:	1440000a 	bnez	$v0,40e718 <_doprnt+0x1f7c>
  40e6f0:	2409fffc 	li	$t1,-4
  40e6f4:	10000095 	b	40e94c <_doprnt+0x21b0>
  40e6f8:	2402ffff 	li	$v0,-1
  40e6fc:	8fa4045c 	lw	$a0,1116($sp)
  40e700:	3c050042 	lui	$a1,0x42
  40e704:	24a5ad9c 	addiu	$a1,$a1,-21092
  40e708:	0c1019e0 	jal	406780 <memcpy>
  40e70c:	02003025 	move	$a2,$s0
  40e710:	2409fffc 	li	$t1,-4
  40e714:	afb2045c 	sw	$s2,1116($sp)
  40e718:	1bc00017 	blez	$s8,40e778 <_doprnt+0x1fdc>
  40e71c:	32380184 	andi	$t8,$s1,0x184
  40e720:	8fb9045c 	lw	$t9,1116($sp)
  40e724:	8fab0458 	lw	$t3,1112($sp)
  40e728:	033e8021 	addu	$s0,$t9,$s8
  40e72c:	0170082b 	sltu	$at,$t3,$s0
  40e730:	1020000b 	beqz	$at,40e760 <_doprnt+0x1fc4>
  40e734:	8fa4045c 	lw	$a0,1116($sp)
  40e738:	8fa60468 	lw	$a2,1128($sp)
  40e73c:	02e02025 	move	$a0,$s7
  40e740:	03c02825 	move	$a1,$s8
  40e744:	0c1031a9 	jal	40c6a4 <_usmemalign+0x140>
  40e748:	27a7045c 	addiu	$a3,$sp,1116
  40e74c:	14400009 	bnez	$v0,40e774 <_doprnt+0x1fd8>
  40e750:	2409fffc 	li	$t1,-4
  40e754:	1000007d 	b	40e94c <_doprnt+0x21b0>
  40e758:	2402ffff 	li	$v0,-1
  40e75c:	8fa4045c 	lw	$a0,1116($sp)
  40e760:	02e02825 	move	$a1,$s7
  40e764:	0c1019e0 	jal	406780 <memcpy>
  40e768:	03c03025 	move	$a2,$s8
  40e76c:	2409fffc 	li	$t1,-4
  40e770:	afb0045c 	sw	$s0,1116($sp)
  40e774:	32380184 	andi	$t8,$s1,0x184
  40e778:	1300f857 	beqz	$t8,40c8d8 <_doprnt+0x13c>
  40e77c:	00000000 	nop
  40e780:	322d0100 	andi	$t5,$s1,0x100
  40e784:	11a0002a 	beqz	$t5,40e830 <_doprnt+0x2094>
  40e788:	322e0080 	andi	$t6,$s1,0x80
  40e78c:	8fb00438 	lw	$s0,1080($sp)
  40e790:	00000000 	nop
  40e794:	2a010015 	slti	$at,$s0,21
  40e798:	1420000e 	bnez	$at,40e7d4 <_doprnt+0x2038>
  40e79c:	3c040042 	lui	$a0,0x42
  40e7a0:	8fa60468 	lw	$a2,1128($sp)
  40e7a4:	2484ad9c 	addiu	$a0,$a0,-21092
  40e7a8:	24050014 	li	$a1,20
  40e7ac:	0c1031a9 	jal	40c6a4 <_usmemalign+0x140>
  40e7b0:	27a7045c 	addiu	$a3,$sp,1116
  40e7b4:	14400004 	bnez	$v0,40e7c8 <_doprnt+0x202c>
  40e7b8:	2610ffec 	addiu	$s0,$s0,-20
  40e7bc:	10000063 	b	40e94c <_doprnt+0x21b0>
  40e7c0:	2402ffff 	li	$v0,-1
  40e7c4:	2610ffec 	addiu	$s0,$s0,-20
  40e7c8:	2a010015 	slti	$at,$s0,21
  40e7cc:	1020fff3 	beqz	$at,40e79c <_doprnt+0x2000>
  40e7d0:	00000000 	nop
  40e7d4:	8fac045c 	lw	$t4,1116($sp)
  40e7d8:	8faa0458 	lw	$t2,1112($sp)
  40e7dc:	01909021 	addu	$s2,$t4,$s0
  40e7e0:	0152082b 	sltu	$at,$t2,$s2
  40e7e4:	1020000a 	beqz	$at,40e810 <_doprnt+0x2074>
  40e7e8:	3c040042 	lui	$a0,0x42
  40e7ec:	8fa60468 	lw	$a2,1128($sp)
  40e7f0:	2484ad9c 	addiu	$a0,$a0,-21092
  40e7f4:	02002825 	move	$a1,$s0
  40e7f8:	0c1031a9 	jal	40c6a4 <_usmemalign+0x140>
  40e7fc:	27a7045c 	addiu	$a3,$sp,1116
  40e800:	1440000a 	bnez	$v0,40e82c <_doprnt+0x2090>
  40e804:	2409fffc 	li	$t1,-4
  40e808:	10000050 	b	40e94c <_doprnt+0x21b0>
  40e80c:	2402ffff 	li	$v0,-1
  40e810:	8fa4045c 	lw	$a0,1116($sp)
  40e814:	3c050042 	lui	$a1,0x42
  40e818:	24a5ad9c 	addiu	$a1,$a1,-21092
  40e81c:	0c1019e0 	jal	406780 <memcpy>
  40e820:	02003025 	move	$a2,$s0
  40e824:	2409fffc 	li	$t1,-4
  40e828:	afb2045c 	sw	$s2,1116($sp)
  40e82c:	322e0080 	andi	$t6,$s1,0x80
  40e830:	11c00019 	beqz	$t6,40e898 <_doprnt+0x20fc>
  40e834:	322d0004 	andi	$t5,$s1,0x4
  40e838:	8fb9045c 	lw	$t9,1116($sp)
  40e83c:	8fab0298 	lw	$t3,664($sp)
  40e840:	8fb80458 	lw	$t8,1112($sp)
  40e844:	032b8021 	addu	$s0,$t9,$t3
  40e848:	0310082b 	sltu	$at,$t8,$s0
  40e84c:	1020000b 	beqz	$at,40e87c <_doprnt+0x20e0>
  40e850:	8fa4045c 	lw	$a0,1116($sp)
  40e854:	8fa402a8 	lw	$a0,680($sp)
  40e858:	8fa50298 	lw	$a1,664($sp)
  40e85c:	8fa60468 	lw	$a2,1128($sp)
  40e860:	0c1031a9 	jal	40c6a4 <_usmemalign+0x140>
  40e864:	27a7045c 	addiu	$a3,$sp,1116
  40e868:	1440000a 	bnez	$v0,40e894 <_doprnt+0x20f8>
  40e86c:	2409fffc 	li	$t1,-4
  40e870:	10000036 	b	40e94c <_doprnt+0x21b0>
  40e874:	2402ffff 	li	$v0,-1
  40e878:	8fa4045c 	lw	$a0,1116($sp)
  40e87c:	8fa502a8 	lw	$a1,680($sp)
  40e880:	8fa60298 	lw	$a2,664($sp)
  40e884:	0c1019e0 	jal	406780 <memcpy>
  40e888:	00000000 	nop
  40e88c:	2409fffc 	li	$t1,-4
  40e890:	afb0045c 	sw	$s0,1116($sp)
  40e894:	322d0004 	andi	$t5,$s1,0x4
  40e898:	11a0f80f 	beqz	$t5,40c8d8 <_doprnt+0x13c>
  40e89c:	00000000 	nop
  40e8a0:	0295082a 	slt	$at,$s4,$s5
  40e8a4:	1020f80c 	beqz	$at,40c8d8 <_doprnt+0x13c>
  40e8a8:	00000000 	nop
  40e8ac:	02b48023 	subu	$s0,$s5,$s4
  40e8b0:	2a010015 	slti	$at,$s0,21
  40e8b4:	1420000e 	bnez	$at,40e8f0 <_doprnt+0x2154>
  40e8b8:	3c040042 	lui	$a0,0x42
  40e8bc:	8fa60468 	lw	$a2,1128($sp)
  40e8c0:	2484ad84 	addiu	$a0,$a0,-21116
  40e8c4:	24050014 	li	$a1,20
  40e8c8:	0c1031a9 	jal	40c6a4 <_usmemalign+0x140>
  40e8cc:	27a7045c 	addiu	$a3,$sp,1116
  40e8d0:	14400004 	bnez	$v0,40e8e4 <_doprnt+0x2148>
  40e8d4:	2610ffec 	addiu	$s0,$s0,-20
  40e8d8:	1000001c 	b	40e94c <_doprnt+0x21b0>
  40e8dc:	2402ffff 	li	$v0,-1
  40e8e0:	2610ffec 	addiu	$s0,$s0,-20
  40e8e4:	2a010015 	slti	$at,$s0,21
  40e8e8:	1020fff3 	beqz	$at,40e8b8 <_doprnt+0x211c>
  40e8ec:	00000000 	nop
  40e8f0:	8faf045c 	lw	$t7,1116($sp)
  40e8f4:	8fac0458 	lw	$t4,1112($sp)
  40e8f8:	01f08821 	addu	$s1,$t7,$s0
  40e8fc:	0191082b 	sltu	$at,$t4,$s1
  40e900:	1020000a 	beqz	$at,40e92c <_doprnt+0x2190>
  40e904:	3c040042 	lui	$a0,0x42
  40e908:	8fa60468 	lw	$a2,1128($sp)
  40e90c:	2484ad84 	addiu	$a0,$a0,-21116
  40e910:	02002825 	move	$a1,$s0
  40e914:	0c1031a9 	jal	40c6a4 <_usmemalign+0x140>
  40e918:	27a7045c 	addiu	$a3,$sp,1116
  40e91c:	1440f7ee 	bnez	$v0,40c8d8 <_doprnt+0x13c>
  40e920:	2409fffc 	li	$t1,-4
  40e924:	10000009 	b	40e94c <_doprnt+0x21b0>
  40e928:	2402ffff 	li	$v0,-1
  40e92c:	8fa4045c 	lw	$a0,1116($sp)
  40e930:	3c050042 	lui	$a1,0x42
  40e934:	24a5ad84 	addiu	$a1,$a1,-21116
  40e938:	0c1019e0 	jal	406780 <memcpy>
  40e93c:	02003025 	move	$a2,$s0
  40e940:	2409fffc 	li	$t1,-4
  40e944:	1000f7e4 	b	40c8d8 <_doprnt+0x13c>
  40e948:	afb1045c 	sw	$s1,1116($sp)
  40e94c:	8fbf004c 	lw	$ra,76($sp)
  40e950:	c7b50020 	lwc1	$f21,32($sp)
  40e954:	c7b40024 	lwc1	$f20,36($sp)
  40e958:	8fb00028 	lw	$s0,40($sp)
  40e95c:	8fb1002c 	lw	$s1,44($sp)
  40e960:	8fb20030 	lw	$s2,48($sp)
  40e964:	8fb30034 	lw	$s3,52($sp)
  40e968:	8fb40038 	lw	$s4,56($sp)
  40e96c:	8fb5003c 	lw	$s5,60($sp)
  40e970:	8fb60040 	lw	$s6,64($sp)
  40e974:	8fb70044 	lw	$s7,68($sp)
  40e978:	8fbe0048 	lw	$s8,72($sp)
  40e97c:	03e00008 	jr	$ra
  40e980:	27bd0460 	addiu	$sp,$sp,1120

0040e984 <_mkarglst>:
  40e984:	27bdff18 	addiu	$sp,$sp,-232
  40e988:	afb5002c 	sw	$s5,44($sp)
  40e98c:	afb20020 	sw	$s2,32($sp)
  40e990:	00809025 	move	$s2,$a0
  40e994:	27b50070 	addiu	$s5,$sp,112
  40e998:	afbf003c 	sw	$ra,60($sp)
  40e99c:	afa500ec 	sw	$a1,236($sp)
  40e9a0:	afa600f0 	sw	$a2,240($sp)
  40e9a4:	afbe0038 	sw	$s8,56($sp)
  40e9a8:	afb70034 	sw	$s7,52($sp)
  40e9ac:	afb60030 	sw	$s6,48($sp)
  40e9b0:	afb40028 	sw	$s4,40($sp)
  40e9b4:	afb30024 	sw	$s3,36($sp)
  40e9b8:	afb1001c 	sw	$s1,28($sp)
  40e9bc:	afb00018 	sw	$s0,24($sp)
  40e9c0:	24060078 	li	$a2,120
  40e9c4:	00002825 	move	$a1,$zero
  40e9c8:	0c1019bc 	jal	4066f0 <memset>
  40e9cc:	02a02025 	move	$a0,$s5
  40e9d0:	2414ffff 	li	$s4,-1
  40e9d4:	00009825 	move	$s3,$zero
  40e9d8:	02402025 	move	$a0,$s2
  40e9dc:	0c104018 	jal	410060 <strchr>
  40e9e0:	24050025 	li	$a1,37
  40e9e4:	10400082 	beqz	$v0,40ebf0 <_mkarglst+0x26c>
  40e9e8:	00409025 	move	$s2,$v0
  40e9ec:	3c1e0042 	lui	$s8,0x42
  40e9f0:	3c160042 	lui	$s6,0x42
  40e9f4:	26d6addc 	addiu	$s6,$s6,-21028
  40e9f8:	27deade8 	addiu	$s8,$s8,-21016
  40e9fc:	24170024 	li	$s7,36
  40ea00:	26520001 	addiu	$s2,$s2,1
  40ea04:	02402025 	move	$a0,$s2
  40ea08:	0c10405c 	jal	410170 <strspn>
  40ea0c:	02c02825 	move	$a1,$s6
  40ea10:	00527021 	addu	$t6,$v0,$s2
  40ea14:	91cf0000 	lbu	$t7,0($t6)
  40ea18:	00408025 	move	$s0,$v0
  40ea1c:	16ef0008 	bne	$s7,$t7,40ea40 <_mkarglst+0xbc>
  40ea20:	00000000 	nop
  40ea24:	0c1044cc 	jal	411330 <atoi>
  40ea28:	02402025 	move	$a0,$s2
  40ea2c:	2453ffff 	addiu	$s3,$v0,-1
  40ea30:	0660006b 	bltz	$s3,40ebe0 <_mkarglst+0x25c>
  40ea34:	02402025 	move	$a0,$s2
  40ea38:	02509021 	addu	$s2,$s2,$s0
  40ea3c:	26520001 	addiu	$s2,$s2,1
  40ea40:	00008825 	move	$s1,$zero
  40ea44:	02402025 	move	$a0,$s2
  40ea48:	0c10405c 	jal	410170 <strspn>
  40ea4c:	03c02825 	move	$a1,$s8
  40ea50:	02429021 	addu	$s2,$s2,$v0
  40ea54:	92430000 	lbu	$v1,0($s2)
  40ea58:	26520001 	addiu	$s2,$s2,1
  40ea5c:	2478ffdb 	addiu	$t8,$v1,-37
  40ea60:	2f01004f 	sltiu	$at,$t8,79
  40ea64:	10200045 	beqz	$at,40eb7c <_mkarglst+0x1f8>
  40ea68:	0018c080 	sll	$t8,$t8,0x2
  40ea6c:	3c010042 	lui	$at,0x42
  40ea70:	00380821 	addu	$at,$at,$t8
  40ea74:	8c38af80 	lw	$t8,-20608($at)
  40ea78:	00000000 	nop
  40ea7c:	03000008 	jr	$t8
  40ea80:	00000000 	nop
  40ea84:	32390001 	andi	$t9,$s1,0x1
  40ea88:	13200004 	beqz	$t9,40ea9c <_mkarglst+0x118>
  40ea8c:	362d0001 	ori	$t5,$s1,0x1
  40ea90:	3a2b0001 	xori	$t3,$s1,0x1
  40ea94:	1000ffeb 	b	40ea44 <_mkarglst+0xc0>
  40ea98:	35710004 	ori	$s1,$t3,0x4
  40ea9c:	1000ffe9 	b	40ea44 <_mkarglst+0xc0>
  40eaa0:	01a08825 	move	$s1,$t5
  40eaa4:	924e0000 	lbu	$t6,0($s2)
  40eaa8:	3c0f0042 	lui	$t7,0x42
  40eaac:	01ee7821 	addu	$t7,$t7,$t6
  40eab0:	91efd901 	lbu	$t7,-9983($t7)
  40eab4:	362e0002 	ori	$t6,$s1,0x2
  40eab8:	31f80004 	andi	$t8,$t7,0x4
  40eabc:	13000018 	beqz	$t8,40eb20 <_mkarglst+0x19c>
  40eac0:	24020001 	li	$v0,1
  40eac4:	0c1044cc 	jal	411330 <atoi>
  40eac8:	02402025 	move	$a0,$s2
  40eacc:	2450ffff 	addiu	$s0,$v0,-1
  40ead0:	02402025 	move	$a0,$s2
  40ead4:	0c10405c 	jal	410170 <strspn>
  40ead8:	02c02825 	move	$a1,$s6
  40eadc:	02429021 	addu	$s2,$s2,$v0
  40eae0:	92590000 	lbu	$t9,0($s2)
  40eae4:	2a01001e 	slti	$at,$s0,30
  40eae8:	16f90002 	bne	$s7,$t9,40eaf4 <_mkarglst+0x170>
  40eaec:	00000000 	nop
  40eaf0:	26520001 	addiu	$s2,$s2,1
  40eaf4:	0600ffd4 	bltz	$s0,40ea48 <_mkarglst+0xc4>
  40eaf8:	02402025 	move	$a0,$s2
  40eafc:	1020ffd1 	beqz	$at,40ea44 <_mkarglst+0xc0>
  40eb00:	240b0001 	li	$t3,1
  40eb04:	00106080 	sll	$t4,$s0,0x2
  40eb08:	02ac6821 	addu	$t5,$s5,$t4
  40eb0c:	0290082a 	slt	$at,$s4,$s0
  40eb10:	1020ffcc 	beqz	$at,40ea44 <_mkarglst+0xc0>
  40eb14:	adab0000 	sw	$t3,0($t5)
  40eb18:	1000ffca 	b	40ea44 <_mkarglst+0xc0>
  40eb1c:	0200a025 	move	$s4,$s0
  40eb20:	1000001f 	b	40eba0 <_mkarglst+0x21c>
  40eb24:	01c08825 	move	$s1,$t6
  40eb28:	1000001d 	b	40eba0 <_mkarglst+0x21c>
  40eb2c:	24020004 	li	$v0,4
  40eb30:	1000001b 	b	40eba0 <_mkarglst+0x21c>
  40eb34:	24020003 	li	$v0,3
  40eb38:	10000019 	b	40eba0 <_mkarglst+0x21c>
  40eb3c:	24020006 	li	$v0,6
  40eb40:	322f0004 	andi	$t7,$s1,0x4
  40eb44:	11e00003 	beqz	$t7,40eb54 <_mkarglst+0x1d0>
  40eb48:	32380001 	andi	$t8,$s1,0x1
  40eb4c:	10000014 	b	40eba0 <_mkarglst+0x21c>
  40eb50:	24020009 	li	$v0,9
  40eb54:	13000003 	beqz	$t8,40eb64 <_mkarglst+0x1e0>
  40eb58:	00000000 	nop
  40eb5c:	10000010 	b	40eba0 <_mkarglst+0x21c>
  40eb60:	24020007 	li	$v0,7
  40eb64:	1000000e 	b	40eba0 <_mkarglst+0x21c>
  40eb68:	24020008 	li	$v0,8
  40eb6c:	1000000c 	b	40eba0 <_mkarglst+0x21c>
  40eb70:	2402000b 	li	$v0,11
  40eb74:	1000000a 	b	40eba0 <_mkarglst+0x21c>
  40eb78:	2402000c 	li	$v0,12
  40eb7c:	32390004 	andi	$t9,$s1,0x4
  40eb80:	13200003 	beqz	$t9,40eb90 <_mkarglst+0x20c>
  40eb84:	322c0001 	andi	$t4,$s1,0x1
  40eb88:	10000005 	b	40eba0 <_mkarglst+0x21c>
  40eb8c:	2402000a 	li	$v0,10
  40eb90:	11800003 	beqz	$t4,40eba0 <_mkarglst+0x21c>
  40eb94:	24020001 	li	$v0,1
  40eb98:	10000001 	b	40eba0 <_mkarglst+0x21c>
  40eb9c:	24020002 	li	$v0,2
  40eba0:	06600009 	bltz	$s3,40ebc8 <_mkarglst+0x244>
  40eba4:	322e0002 	andi	$t6,$s1,0x2
  40eba8:	2a61001e 	slti	$at,$s3,30
  40ebac:	10200006 	beqz	$at,40ebc8 <_mkarglst+0x244>
  40ebb0:	00135880 	sll	$t3,$s3,0x2
  40ebb4:	02ab6821 	addu	$t5,$s5,$t3
  40ebb8:	0293082a 	slt	$at,$s4,$s3
  40ebbc:	10200002 	beqz	$at,40ebc8 <_mkarglst+0x244>
  40ebc0:	ada20000 	sw	$v0,0($t5)
  40ebc4:	0260a025 	move	$s4,$s3
  40ebc8:	11c00004 	beqz	$t6,40ebdc <_mkarglst+0x258>
  40ebcc:	26730001 	addiu	$s3,$s3,1
  40ebd0:	3a2f0002 	xori	$t7,$s1,0x2
  40ebd4:	1000ff9b 	b	40ea44 <_mkarglst+0xc0>
  40ebd8:	01e08825 	move	$s1,$t7
  40ebdc:	02402025 	move	$a0,$s2
  40ebe0:	0c104018 	jal	410060 <strchr>
  40ebe4:	24050025 	li	$a1,37
  40ebe8:	1440ff85 	bnez	$v0,40ea00 <_mkarglst+0x7c>
  40ebec:	00409025 	move	$s2,$v0
  40ebf0:	06800060 	bltz	$s4,40ed74 <_mkarglst+0x3f0>
  40ebf4:	27a50070 	addiu	$a1,$sp,112
  40ebf8:	0014c880 	sll	$t9,$s4,0x2
  40ebfc:	272c0004 	addiu	$t4,$t9,4
  40ec00:	8fa600f0 	lw	$a2,240($sp)
  40ec04:	01854021 	addu	$t0,$t4,$a1
  40ec08:	240a0001 	li	$t2,1
  40ec0c:	27a900ec 	addiu	$t1,$sp,236
  40ec10:	2407fff8 	li	$a3,-8
  40ec14:	2404fffc 	li	$a0,-4
  40ec18:	8d210000 	lw	$at,0($t1)
  40ec1c:	00000000 	nop
  40ec20:	acc10000 	sw	$at,0($a2)
  40ec24:	8ca30000 	lw	$v1,0($a1)
  40ec28:	00000000 	nop
  40ec2c:	14600004 	bnez	$v1,40ec40 <_mkarglst+0x2bc>
  40ec30:	246effff 	addiu	$t6,$v1,-1
  40ec34:	acaa0000 	sw	$t2,0($a1)
  40ec38:	01401825 	move	$v1,$t2
  40ec3c:	246effff 	addiu	$t6,$v1,-1
  40ec40:	8fa200ec 	lw	$v0,236($sp)
  40ec44:	2dc1000c 	sltiu	$at,$t6,12
  40ec48:	10200046 	beqz	$at,40ed64 <_mkarglst+0x3e0>
  40ec4c:	000e7080 	sll	$t6,$t6,0x2
  40ec50:	3c010042 	lui	$at,0x42
  40ec54:	002e0821 	addu	$at,$at,$t6
  40ec58:	8c2eb0bc 	lw	$t6,-20292($at)
  40ec5c:	00000000 	nop
  40ec60:	01c00008 	jr	$t6
  40ec64:	00000000 	nop
  40ec68:	244f0003 	addiu	$t7,$v0,3
  40ec6c:	01e41024 	and	$v0,$t7,$a0
  40ec70:	1000003c 	b	40ed64 <_mkarglst+0x3e0>
  40ec74:	24420004 	addiu	$v0,$v0,4
  40ec78:	24590003 	addiu	$t9,$v0,3
  40ec7c:	03241024 	and	$v0,$t9,$a0
  40ec80:	10000038 	b	40ed64 <_mkarglst+0x3e0>
  40ec84:	24420004 	addiu	$v0,$v0,4
  40ec88:	244c0003 	addiu	$t4,$v0,3
  40ec8c:	01841024 	and	$v0,$t4,$a0
  40ec90:	10000034 	b	40ed64 <_mkarglst+0x3e0>
  40ec94:	24420004 	addiu	$v0,$v0,4
  40ec98:	24580003 	addiu	$t8,$v0,3
  40ec9c:	03041024 	and	$v0,$t8,$a0
  40eca0:	10000030 	b	40ed64 <_mkarglst+0x3e0>
  40eca4:	24420004 	addiu	$v0,$v0,4
  40eca8:	244b0003 	addiu	$t3,$v0,3
  40ecac:	01641024 	and	$v0,$t3,$a0
  40ecb0:	1000002c 	b	40ed64 <_mkarglst+0x3e0>
  40ecb4:	24420004 	addiu	$v0,$v0,4
  40ecb8:	304d0001 	andi	$t5,$v0,0x1
  40ecbc:	11a00003 	beqz	$t5,40eccc <_mkarglst+0x348>
  40ecc0:	304e0002 	andi	$t6,$v0,0x2
  40ecc4:	10000027 	b	40ed64 <_mkarglst+0x3e0>
  40ecc8:	24420007 	addiu	$v0,$v0,7
  40eccc:	11c00003 	beqz	$t6,40ecdc <_mkarglst+0x358>
  40ecd0:	244f0007 	addiu	$t7,$v0,7
  40ecd4:	10000023 	b	40ed64 <_mkarglst+0x3e0>
  40ecd8:	2442000a 	addiu	$v0,$v0,10
  40ecdc:	01e71024 	and	$v0,$t7,$a3
  40ece0:	10000020 	b	40ed64 <_mkarglst+0x3e0>
  40ece4:	24420008 	addiu	$v0,$v0,8
  40ece8:	30590001 	andi	$t9,$v0,0x1
  40ecec:	13200003 	beqz	$t9,40ecfc <_mkarglst+0x378>
  40ecf0:	304c0002 	andi	$t4,$v0,0x2
  40ecf4:	1000001b 	b	40ed64 <_mkarglst+0x3e0>
  40ecf8:	24420007 	addiu	$v0,$v0,7
  40ecfc:	11800003 	beqz	$t4,40ed0c <_mkarglst+0x388>
  40ed00:	24580007 	addiu	$t8,$v0,7
  40ed04:	10000017 	b	40ed64 <_mkarglst+0x3e0>
  40ed08:	2442000a 	addiu	$v0,$v0,10
  40ed0c:	03071024 	and	$v0,$t8,$a3
  40ed10:	10000014 	b	40ed64 <_mkarglst+0x3e0>
  40ed14:	24420008 	addiu	$v0,$v0,8
  40ed18:	244b0003 	addiu	$t3,$v0,3
  40ed1c:	01641024 	and	$v0,$t3,$a0
  40ed20:	10000010 	b	40ed64 <_mkarglst+0x3e0>
  40ed24:	24420004 	addiu	$v0,$v0,4
  40ed28:	244d0003 	addiu	$t5,$v0,3
  40ed2c:	01a41024 	and	$v0,$t5,$a0
  40ed30:	1000000c 	b	40ed64 <_mkarglst+0x3e0>
  40ed34:	24420004 	addiu	$v0,$v0,4
  40ed38:	244e0003 	addiu	$t6,$v0,3
  40ed3c:	01c41024 	and	$v0,$t6,$a0
  40ed40:	10000008 	b	40ed64 <_mkarglst+0x3e0>
  40ed44:	24420004 	addiu	$v0,$v0,4
  40ed48:	244f0007 	addiu	$t7,$v0,7
  40ed4c:	01e71024 	and	$v0,$t7,$a3
  40ed50:	10000004 	b	40ed64 <_mkarglst+0x3e0>
  40ed54:	24420008 	addiu	$v0,$v0,8
  40ed58:	24590003 	addiu	$t9,$v0,3
  40ed5c:	03241024 	and	$v0,$t9,$a0
  40ed60:	24420004 	addiu	$v0,$v0,4
  40ed64:	24a50004 	addiu	$a1,$a1,4
  40ed68:	24c60004 	addiu	$a2,$a2,4
  40ed6c:	1505ffaa 	bne	$t0,$a1,40ec18 <_mkarglst+0x294>
  40ed70:	afa200ec 	sw	$v0,236($sp)
  40ed74:	8fbf003c 	lw	$ra,60($sp)
  40ed78:	8fb00018 	lw	$s0,24($sp)
  40ed7c:	8fb1001c 	lw	$s1,28($sp)
  40ed80:	8fb20020 	lw	$s2,32($sp)
  40ed84:	8fb30024 	lw	$s3,36($sp)
  40ed88:	8fb40028 	lw	$s4,40($sp)
  40ed8c:	8fb5002c 	lw	$s5,44($sp)
  40ed90:	8fb60030 	lw	$s6,48($sp)
  40ed94:	8fb70034 	lw	$s7,52($sp)
  40ed98:	8fbe0038 	lw	$s8,56($sp)
  40ed9c:	03e00008 	jr	$ra
  40eda0:	27bd00e8 	addiu	$sp,$sp,232

0040eda4 <_getarg>:
  40eda4:	27bdffa8 	addiu	$sp,$sp,-88
  40eda8:	afb70034 	sw	$s7,52($sp)
  40edac:	afbe0038 	sw	$s8,56($sp)
  40edb0:	afb60030 	sw	$s6,48($sp)
  40edb4:	afb5002c 	sw	$s5,44($sp)
  40edb8:	afb40028 	sw	$s4,40($sp)
  40edbc:	afb30024 	sw	$s3,36($sp)
  40edc0:	afb00018 	sw	$s0,24($sp)
  40edc4:	3c170042 	lui	$s7,0x42
  40edc8:	00a08025 	move	$s0,$a1
  40edcc:	afbf003c 	sw	$ra,60($sp)
  40edd0:	afb20020 	sw	$s2,32($sp)
  40edd4:	afb1001c 	sw	$s1,28($sp)
  40edd8:	afa60060 	sw	$a2,96($sp)
  40eddc:	afa40044 	sw	$a0,68($sp)
  40ede0:	2416001e 	li	$s6,30
  40ede4:	24150001 	li	$s5,1
  40ede8:	26f7adfc 	addiu	$s7,$s7,-20996
  40edec:	2413fffc 	li	$s3,-4
  40edf0:	2414fff8 	li	$s4,-8
  40edf4:	241e0024 	li	$s8,36
  40edf8:	8fae0060 	lw	$t6,96($sp)
  40edfc:	8fa40044 	lw	$a0,68($sp)
  40ee00:	12ce00d1 	beq	$s6,$t6,40f148 <_getarg+0x3a4>
  40ee04:	afa00040 	sw	$zero,64($sp)
  40ee08:	24050025 	li	$a1,37
  40ee0c:	0c104018 	jal	410060 <strchr>
  40ee10:	afa00040 	sw	$zero,64($sp)
  40ee14:	104000cc 	beqz	$v0,40f148 <_getarg+0x3a4>
  40ee18:	00409025 	move	$s2,$v0
  40ee1c:	26520001 	addiu	$s2,$s2,1
  40ee20:	02402025 	move	$a0,$s2
  40ee24:	0c10405c 	jal	410170 <strspn>
  40ee28:	02e02825 	move	$a1,$s7
  40ee2c:	00527821 	addu	$t7,$v0,$s2
  40ee30:	91f80000 	lbu	$t8,0($t7)
  40ee34:	00408825 	move	$s1,$v0
  40ee38:	17d80007 	bne	$s8,$t8,40ee58 <_getarg+0xb4>
  40ee3c:	00000000 	nop
  40ee40:	0c1044cc 	jal	411330 <atoi>
  40ee44:	02402025 	move	$a0,$s2
  40ee48:	184000b7 	blez	$v0,40f128 <_getarg+0x384>
  40ee4c:	0040a825 	move	$s5,$v0
  40ee50:	02519021 	addu	$s2,$s2,$s1
  40ee54:	26520001 	addiu	$s2,$s2,1
  40ee58:	12d50003 	beq	$s6,$s5,40ee68 <_getarg+0xc4>
  40ee5c:	24190001 	li	$t9,1
  40ee60:	100000b1 	b	40f128 <_getarg+0x384>
  40ee64:	26b50001 	addiu	$s5,$s5,1
  40ee68:	afb90040 	sw	$t9,64($sp)
  40ee6c:	00008825 	move	$s1,$zero
  40ee70:	3c050042 	lui	$a1,0x42
  40ee74:	24a5ae08 	addiu	$a1,$a1,-20984
  40ee78:	0c10405c 	jal	410170 <strspn>
  40ee7c:	02402025 	move	$a0,$s2
  40ee80:	02429021 	addu	$s2,$s2,$v0
  40ee84:	92430000 	lbu	$v1,0($s2)
  40ee88:	26520001 	addiu	$s2,$s2,1
  40ee8c:	2468ffdb 	addiu	$t0,$v1,-37
  40ee90:	2d01004f 	sltiu	$at,$t0,79
  40ee94:	10200084 	beqz	$at,40f0a8 <_getarg+0x304>
  40ee98:	00084080 	sll	$t0,$t0,0x2
  40ee9c:	3c010042 	lui	$at,0x42
  40eea0:	00280821 	addu	$at,$at,$t0
  40eea4:	8c28b0ec 	lw	$t0,-20244($at)
  40eea8:	00000000 	nop
  40eeac:	01000008 	jr	$t0
  40eeb0:	00000000 	nop
  40eeb4:	32290001 	andi	$t1,$s1,0x1
  40eeb8:	11200004 	beqz	$t1,40eecc <_getarg+0x128>
  40eebc:	362c0001 	ori	$t4,$s1,0x1
  40eec0:	3a2a0001 	xori	$t2,$s1,0x1
  40eec4:	1000ffea 	b	40ee70 <_getarg+0xcc>
  40eec8:	35510004 	ori	$s1,$t2,0x4
  40eecc:	1000ffe8 	b	40ee70 <_getarg+0xcc>
  40eed0:	01808825 	move	$s1,$t4
  40eed4:	924d0000 	lbu	$t5,0($s2)
  40eed8:	3c0e0042 	lui	$t6,0x42
  40eedc:	01cd7021 	addu	$t6,$t6,$t5
  40eee0:	91ced901 	lbu	$t6,-9983($t6)
  40eee4:	02402025 	move	$a0,$s2
  40eee8:	31cf0004 	andi	$t7,$t6,0x4
  40eeec:	11e0000a 	beqz	$t7,40ef18 <_getarg+0x174>
  40eef0:	36390002 	ori	$t9,$s1,0x2
  40eef4:	0c10405c 	jal	410170 <strspn>
  40eef8:	02e02825 	move	$a1,$s7
  40eefc:	02429021 	addu	$s2,$s2,$v0
  40ef00:	92580000 	lbu	$t8,0($s2)
  40ef04:	00000000 	nop
  40ef08:	17d8ffd9 	bne	$s8,$t8,40ee70 <_getarg+0xcc>
  40ef0c:	00000000 	nop
  40ef10:	1000ffd7 	b	40ee70 <_getarg+0xcc>
  40ef14:	26520001 	addiu	$s2,$s2,1
  40ef18:	8e080000 	lw	$t0,0($s0)
  40ef1c:	03208825 	move	$s1,$t9
  40ef20:	25090003 	addiu	$t1,$t0,3
  40ef24:	01335024 	and	$t2,$t1,$s3
  40ef28:	254b0004 	addiu	$t3,$t2,4
  40ef2c:	10000077 	b	40f10c <_getarg+0x368>
  40ef30:	ae0b0000 	sw	$t3,0($s0)
  40ef34:	322c0001 	andi	$t4,$s1,0x1
  40ef38:	11800013 	beqz	$t4,40ef88 <_getarg+0x1e4>
  40ef3c:	00000000 	nop
  40ef40:	8e030000 	lw	$v1,0($s0)
  40ef44:	00000000 	nop
  40ef48:	306d0001 	andi	$t5,$v1,0x1
  40ef4c:	11a00004 	beqz	$t5,40ef60 <_getarg+0x1bc>
  40ef50:	00601025 	move	$v0,$v1
  40ef54:	244e0007 	addiu	$t6,$v0,7
  40ef58:	1000006c 	b	40f10c <_getarg+0x368>
  40ef5c:	ae0e0000 	sw	$t6,0($s0)
  40ef60:	304f0002 	andi	$t7,$v0,0x2
  40ef64:	11e00004 	beqz	$t7,40ef78 <_getarg+0x1d4>
  40ef68:	24790007 	addiu	$t9,$v1,7
  40ef6c:	2458000a 	addiu	$t8,$v0,10
  40ef70:	10000066 	b	40f10c <_getarg+0x368>
  40ef74:	ae180000 	sw	$t8,0($s0)
  40ef78:	03344024 	and	$t0,$t9,$s4
  40ef7c:	25090008 	addiu	$t1,$t0,8
  40ef80:	10000062 	b	40f10c <_getarg+0x368>
  40ef84:	ae090000 	sw	$t1,0($s0)
  40ef88:	8e030000 	lw	$v1,0($s0)
  40ef8c:	00000000 	nop
  40ef90:	306a0001 	andi	$t2,$v1,0x1
  40ef94:	11400004 	beqz	$t2,40efa8 <_getarg+0x204>
  40ef98:	00601025 	move	$v0,$v1
  40ef9c:	244b0007 	addiu	$t3,$v0,7
  40efa0:	1000005a 	b	40f10c <_getarg+0x368>
  40efa4:	ae0b0000 	sw	$t3,0($s0)
  40efa8:	304c0002 	andi	$t4,$v0,0x2
  40efac:	11800004 	beqz	$t4,40efc0 <_getarg+0x21c>
  40efb0:	246e0007 	addiu	$t6,$v1,7
  40efb4:	244d000a 	addiu	$t5,$v0,10
  40efb8:	10000054 	b	40f10c <_getarg+0x368>
  40efbc:	ae0d0000 	sw	$t5,0($s0)
  40efc0:	01d47824 	and	$t7,$t6,$s4
  40efc4:	25f80008 	addiu	$t8,$t7,8
  40efc8:	10000050 	b	40f10c <_getarg+0x368>
  40efcc:	ae180000 	sw	$t8,0($s0)
  40efd0:	8e190000 	lw	$t9,0($s0)
  40efd4:	00000000 	nop
  40efd8:	27280003 	addiu	$t0,$t9,3
  40efdc:	01134824 	and	$t1,$t0,$s3
  40efe0:	252a0004 	addiu	$t2,$t1,4
  40efe4:	10000049 	b	40f10c <_getarg+0x368>
  40efe8:	ae0a0000 	sw	$t2,0($s0)
  40efec:	8e0b0000 	lw	$t3,0($s0)
  40eff0:	00000000 	nop
  40eff4:	256c0003 	addiu	$t4,$t3,3
  40eff8:	01936824 	and	$t5,$t4,$s3
  40effc:	25ae0004 	addiu	$t6,$t5,4
  40f000:	10000042 	b	40f10c <_getarg+0x368>
  40f004:	ae0e0000 	sw	$t6,0($s0)
  40f008:	322f0004 	andi	$t7,$s1,0x4
  40f00c:	11e00008 	beqz	$t7,40f030 <_getarg+0x28c>
  40f010:	322a0001 	andi	$t2,$s1,0x1
  40f014:	8e180000 	lw	$t8,0($s0)
  40f018:	00000000 	nop
  40f01c:	27190003 	addiu	$t9,$t8,3
  40f020:	03334024 	and	$t0,$t9,$s3
  40f024:	25090004 	addiu	$t1,$t0,4
  40f028:	10000038 	b	40f10c <_getarg+0x368>
  40f02c:	ae090000 	sw	$t1,0($s0)
  40f030:	11400008 	beqz	$t2,40f054 <_getarg+0x2b0>
  40f034:	00000000 	nop
  40f038:	8e0b0000 	lw	$t3,0($s0)
  40f03c:	00000000 	nop
  40f040:	256c0003 	addiu	$t4,$t3,3
  40f044:	01936824 	and	$t5,$t4,$s3
  40f048:	25ae0004 	addiu	$t6,$t5,4
  40f04c:	1000002f 	b	40f10c <_getarg+0x368>
  40f050:	ae0e0000 	sw	$t6,0($s0)
  40f054:	8e0f0000 	lw	$t7,0($s0)
  40f058:	00000000 	nop
  40f05c:	25f80003 	addiu	$t8,$t7,3
  40f060:	0313c824 	and	$t9,$t8,$s3
  40f064:	27280004 	addiu	$t0,$t9,4
  40f068:	10000028 	b	40f10c <_getarg+0x368>
  40f06c:	ae080000 	sw	$t0,0($s0)
  40f070:	8e090000 	lw	$t1,0($s0)
  40f074:	00000000 	nop
  40f078:	252a0003 	addiu	$t2,$t1,3
  40f07c:	01535824 	and	$t3,$t2,$s3
  40f080:	256c0004 	addiu	$t4,$t3,4
  40f084:	10000021 	b	40f10c <_getarg+0x368>
  40f088:	ae0c0000 	sw	$t4,0($s0)
  40f08c:	8e0d0000 	lw	$t5,0($s0)
  40f090:	00000000 	nop
  40f094:	25ae0003 	addiu	$t6,$t5,3
  40f098:	01d37824 	and	$t7,$t6,$s3
  40f09c:	25f80004 	addiu	$t8,$t7,4
  40f0a0:	1000001a 	b	40f10c <_getarg+0x368>
  40f0a4:	ae180000 	sw	$t8,0($s0)
  40f0a8:	32390004 	andi	$t9,$s1,0x4
  40f0ac:	13200008 	beqz	$t9,40f0d0 <_getarg+0x32c>
  40f0b0:	322c0001 	andi	$t4,$s1,0x1
  40f0b4:	8e080000 	lw	$t0,0($s0)
  40f0b8:	00000000 	nop
  40f0bc:	25090007 	addiu	$t1,$t0,7
  40f0c0:	01345024 	and	$t2,$t1,$s4
  40f0c4:	254b0008 	addiu	$t3,$t2,8
  40f0c8:	10000010 	b	40f10c <_getarg+0x368>
  40f0cc:	ae0b0000 	sw	$t3,0($s0)
  40f0d0:	11800008 	beqz	$t4,40f0f4 <_getarg+0x350>
  40f0d4:	00000000 	nop
  40f0d8:	8e0d0000 	lw	$t5,0($s0)
  40f0dc:	00000000 	nop
  40f0e0:	25ae0003 	addiu	$t6,$t5,3
  40f0e4:	01d37824 	and	$t7,$t6,$s3
  40f0e8:	25f80004 	addiu	$t8,$t7,4
  40f0ec:	10000007 	b	40f10c <_getarg+0x368>
  40f0f0:	ae180000 	sw	$t8,0($s0)
  40f0f4:	8e190000 	lw	$t9,0($s0)
  40f0f8:	00000000 	nop
  40f0fc:	27280003 	addiu	$t0,$t9,3
  40f100:	01134824 	and	$t1,$t0,$s3
  40f104:	252a0004 	addiu	$t2,$t1,4
  40f108:	ae0a0000 	sw	$t2,0($s0)
  40f10c:	322b0002 	andi	$t3,$s1,0x2
  40f110:	26d60001 	addiu	$s6,$s6,1
  40f114:	11600004 	beqz	$t3,40f128 <_getarg+0x384>
  40f118:	26b50001 	addiu	$s5,$s5,1
  40f11c:	3a2c0002 	xori	$t4,$s1,0x2
  40f120:	1000ff53 	b	40ee70 <_getarg+0xcc>
  40f124:	01808825 	move	$s1,$t4
  40f128:	8fad0060 	lw	$t5,96($sp)
  40f12c:	02402025 	move	$a0,$s2
  40f130:	12cd0006 	beq	$s6,$t5,40f14c <_getarg+0x3a8>
  40f134:	8fa20040 	lw	$v0,64($sp)
  40f138:	0c104018 	jal	410060 <strchr>
  40f13c:	24050025 	li	$a1,37
  40f140:	1440ff36 	bnez	$v0,40ee1c <_getarg+0x78>
  40f144:	00409025 	move	$s2,$v0
  40f148:	8fa20040 	lw	$v0,64($sp)
  40f14c:	8fae0060 	lw	$t6,96($sp)
  40f150:	1440000b 	bnez	$v0,40f180 <_getarg+0x3dc>
  40f154:	00000000 	nop
  40f158:	12ce0009 	beq	$s6,$t6,40f180 <_getarg+0x3dc>
  40f15c:	00000000 	nop
  40f160:	8e0f0000 	lw	$t7,0($s0)
  40f164:	26d60001 	addiu	$s6,$s6,1
  40f168:	25f80003 	addiu	$t8,$t7,3
  40f16c:	0313c824 	and	$t9,$t8,$s3
  40f170:	27280004 	addiu	$t0,$t9,4
  40f174:	ae080000 	sw	$t0,0($s0)
  40f178:	02c0a825 	move	$s5,$s6
  40f17c:	24020001 	li	$v0,1
  40f180:	1440ff1e 	bnez	$v0,40edfc <_getarg+0x58>
  40f184:	8fae0060 	lw	$t6,96($sp)
  40f188:	8fbf003c 	lw	$ra,60($sp)
  40f18c:	8fb00018 	lw	$s0,24($sp)
  40f190:	8fb1001c 	lw	$s1,28($sp)
  40f194:	8fb20020 	lw	$s2,32($sp)
  40f198:	8fb30024 	lw	$s3,36($sp)
  40f19c:	8fb40028 	lw	$s4,40($sp)
  40f1a0:	8fb5002c 	lw	$s5,44($sp)
  40f1a4:	8fb60030 	lw	$s6,48($sp)
  40f1a8:	8fb70034 	lw	$s7,52($sp)
  40f1ac:	8fbe0038 	lw	$s8,56($sp)
  40f1b0:	03e00008 	jr	$ra
  40f1b4:	27bd0058 	addiu	$sp,$sp,88
  40f1b8:	3c070042 	lui	$a3,0x42
  40f1bc:	24e7acd0 	addiu	$a3,$a3,-21296
  40f1c0:	8cf80088 	lw	$t8,136($a3)
  40f1c4:	8cf9008c 	lw	$t9,140($a3)
  40f1c8:	0098082a 	slt	$at,$a0,$t8
  40f1cc:	afa40000 	sw	$a0,0($sp)
  40f1d0:	afa50004 	sw	$a1,4($sp)
  40f1d4:	00001825 	move	$v1,$zero
  40f1d8:	14200008 	bnez	$at,40f1fc <_getarg+0x458>
  40f1dc:	24020011 	li	$v0,17
  40f1e0:	0304082a 	slt	$at,$t8,$a0
  40f1e4:	14200003 	bnez	$at,40f1f4 <_getarg+0x450>
  40f1e8:	00b9082b 	sltu	$at,$a1,$t9
  40f1ec:	14200004 	bnez	$at,40f200 <_getarg+0x45c>
  40f1f0:	00432023 	subu	$a0,$v0,$v1
  40f1f4:	03e00008 	jr	$ra
  40f1f8:	24020013 	li	$v0,19
  40f1fc:	00432023 	subu	$a0,$v0,$v1
  40f200:	00044043 	sra	$t0,$a0,0x1
  40f204:	01032821 	addu	$a1,$t0,$v1
  40f208:	000548c0 	sll	$t1,$a1,0x3
  40f20c:	00e96021 	addu	$t4,$a3,$t1
  40f210:	8d8e0000 	lw	$t6,0($t4)
  40f214:	8faa0000 	lw	$t2,0($sp)
  40f218:	8d8f0004 	lw	$t7,4($t4)
  40f21c:	8fab0004 	lw	$t3,4($sp)
  40f220:	01ca082a 	slt	$at,$t6,$t2
  40f224:	14200007 	bnez	$at,40f244 <_getarg+0x4a0>
  40f228:	014e082a 	slt	$at,$t2,$t6
  40f22c:	14200003 	bnez	$at,40f23c <_getarg+0x498>
  40f230:	016f082b 	sltu	$at,$t3,$t7
  40f234:	10200003 	beqz	$at,40f244 <_getarg+0x4a0>
  40f238:	00000000 	nop
  40f23c:	10000002 	b	40f248 <_getarg+0x4a4>
  40f240:	00a01025 	move	$v0,$a1
  40f244:	00a01825 	move	$v1,$a1
  40f248:	00432023 	subu	$a0,$v0,$v1
  40f24c:	28810002 	slti	$at,$a0,2
  40f250:	1020ffec 	beqz	$at,40f204 <_getarg+0x460>
  40f254:	00044043 	sra	$t0,$a0,0x1
  40f258:	24620002 	addiu	$v0,$v1,2
  40f25c:	03e00008 	jr	$ra
  40f260:	00000000 	nop
  40f264:	3c080042 	lui	$t0,0x42
  40f268:	2508ad60 	addiu	$t0,$t0,-21152
  40f26c:	8d0e0020 	lw	$t6,32($t0)
  40f270:	00001825 	move	$v1,$zero
  40f274:	008e082a 	slt	$at,$a0,$t6
  40f278:	14200003 	bnez	$at,40f288 <_getarg+0x4e4>
  40f27c:	24020008 	li	$v0,8
  40f280:	03e00008 	jr	$ra
  40f284:	2402000a 	li	$v0,10
  40f288:	00432823 	subu	$a1,$v0,$v1
  40f28c:	00057843 	sra	$t7,$a1,0x1
  40f290:	01e33821 	addu	$a3,$t7,$v1
  40f294:	0007c080 	sll	$t8,$a3,0x2
  40f298:	0118c821 	addu	$t9,$t0,$t8
  40f29c:	8f290000 	lw	$t1,0($t9)
  40f2a0:	00e03025 	move	$a2,$a3
  40f2a4:	0089082a 	slt	$at,$a0,$t1
  40f2a8:	10200003 	beqz	$at,40f2b8 <_getarg+0x514>
  40f2ac:	00000000 	nop
  40f2b0:	10000002 	b	40f2bc <_getarg+0x518>
  40f2b4:	00e01025 	move	$v0,$a3
  40f2b8:	00c01825 	move	$v1,$a2
  40f2bc:	00432823 	subu	$a1,$v0,$v1
  40f2c0:	28a10002 	slti	$at,$a1,2
  40f2c4:	1020fff2 	beqz	$at,40f290 <_getarg+0x4ec>
  40f2c8:	00057843 	sra	$t7,$a1,0x1
  40f2cc:	24620002 	addiu	$v0,$v1,2
  40f2d0:	03e00008 	jr	$ra
	...

0040f2e0 <fprintf>:
  40f2e0:	27bdffd0 	addiu	$sp,$sp,-48
  40f2e4:	8f8e88b4 	lw	$t6,-30540($gp)
  40f2e8:	afa60038 	sw	$a2,56($sp)
  40f2ec:	00803025 	move	$a2,$a0
  40f2f0:	afbf0014 	sw	$ra,20($sp)
  40f2f4:	afa40030 	sw	$a0,48($sp)
  40f2f8:	afa50034 	sw	$a1,52($sp)
  40f2fc:	11c00006 	beqz	$t6,40f318 <fprintf+0x38>
  40f300:	afa7003c 	sw	$a3,60($sp)
  40f304:	0c102c2c 	jal	40b0b0 <_flockfile>
  40f308:	afa60030 	sw	$a2,48($sp)
  40f30c:	8fa60030 	lw	$a2,48($sp)
  40f310:	10000002 	b	40f31c <fprintf+0x3c>
  40f314:	24030001 	li	$v1,1
  40f318:	00001825 	move	$v1,$zero
  40f31c:	90c2000c 	lbu	$v0,12($a2)
  40f320:	27a50038 	addiu	$a1,$sp,56
  40f324:	304f0002 	andi	$t7,$v0,0x2
  40f328:	15e00011 	bnez	$t7,40f370 <fprintf+0x90>
  40f32c:	30580080 	andi	$t8,$v0,0x80
  40f330:	13000007 	beqz	$t8,40f350 <fprintf+0x70>
  40f334:	30590011 	andi	$t9,$v0,0x11
  40f338:	24010001 	li	$at,1
  40f33c:	13210004 	beq	$t9,$at,40f350 <fprintf+0x70>
  40f340:	3048ffee 	andi	$t0,$v0,0xffee
  40f344:	35090002 	ori	$t1,$t0,0x2
  40f348:	10000009 	b	40f370 <fprintf+0x90>
  40f34c:	a0c9000c 	sb	$t1,12($a2)
  40f350:	10600003 	beqz	$v1,40f360 <fprintf+0x80>
  40f354:	00000000 	nop
  40f358:	0c102c55 	jal	40b154 <_funlockfile>
  40f35c:	00c02025 	move	$a0,$a2
  40f360:	0c102025 	jal	408094 <_setoserror>
  40f364:	24040009 	li	$a0,9
  40f368:	10000015 	b	40f3c0 <fprintf+0xe0>
  40f36c:	2402ffff 	li	$v0,-1
  40f370:	8fa40034 	lw	$a0,52($sp)
  40f374:	afa30020 	sw	$v1,32($sp)
  40f378:	0c1031e7 	jal	40c79c <_doprnt>
  40f37c:	afa60030 	sw	$a2,48($sp)
  40f380:	8fa60030 	lw	$a2,48($sp)
  40f384:	8fa30020 	lw	$v1,32($sp)
  40f388:	90ca000c 	lbu	$t2,12($a2)
  40f38c:	00402825 	move	$a1,$v0
  40f390:	314b0020 	andi	$t3,$t2,0x20
  40f394:	11600003 	beqz	$t3,40f3a4 <fprintf+0xc4>
  40f398:	00c02025 	move	$a0,$a2
  40f39c:	10000001 	b	40f3a4 <fprintf+0xc4>
  40f3a0:	2405ffff 	li	$a1,-1
  40f3a4:	10600006 	beqz	$v1,40f3c0 <fprintf+0xe0>
  40f3a8:	00a01025 	move	$v0,$a1
  40f3ac:	0c102c55 	jal	40b154 <_funlockfile>
  40f3b0:	afa5001c 	sw	$a1,28($sp)
  40f3b4:	8fa5001c 	lw	$a1,28($sp)
  40f3b8:	00000000 	nop
  40f3bc:	00a01025 	move	$v0,$a1
  40f3c0:	8fbf0014 	lw	$ra,20($sp)
  40f3c4:	27bd0030 	addiu	$sp,$sp,48
  40f3c8:	03e00008 	jr	$ra
  40f3cc:	00000000 	nop

0040f3d0 <sprintf>:
  40f3d0:	27bdffd0 	addiu	$sp,$sp,-48
  40f3d4:	afa40030 	sw	$a0,48($sp)
  40f3d8:	3c0e7fff 	lui	$t6,0x7fff
  40f3dc:	afa40020 	sw	$a0,32($sp)
  40f3e0:	afa40024 	sw	$a0,36($sp)
  40f3e4:	afbf0014 	sw	$ra,20($sp)
  40f3e8:	afa50034 	sw	$a1,52($sp)
  40f3ec:	afa60038 	sw	$a2,56($sp)
  40f3f0:	35ceffff 	ori	$t6,$t6,0xffff
  40f3f4:	240f0001 	li	$t7,1
  40f3f8:	00a02025 	move	$a0,$a1
  40f3fc:	afa7003c 	sw	$a3,60($sp)
  40f400:	afae001c 	sw	$t6,28($sp)
  40f404:	a3af0028 	sb	$t7,40($sp)
  40f408:	27a50038 	addiu	$a1,$sp,56
  40f40c:	0c1031e7 	jal	40c79c <_doprnt>
  40f410:	27a6001c 	addiu	$a2,$sp,28
  40f414:	8fb80020 	lw	$t8,32($sp)
  40f418:	00000000 	nop
  40f41c:	a3000000 	sb	$zero,0($t8)
  40f420:	8fbf0014 	lw	$ra,20($sp)
  40f424:	27bd0030 	addiu	$sp,$sp,48
  40f428:	03e00008 	jr	$ra
  40f42c:	00000000 	nop

0040f430 <fwrite>:
  40f430:	27bdff98 	addiu	$sp,$sp,-104
  40f434:	8f8f88b4 	lw	$t7,-30540($gp)
  40f438:	afbe0038 	sw	$s8,56($sp)
  40f43c:	afb40028 	sw	$s4,40($sp)
  40f440:	afb30024 	sw	$s3,36($sp)
  40f444:	00e0a025 	move	$s4,$a3
  40f448:	00a0f025 	move	$s8,$a1
  40f44c:	afbf003c 	sw	$ra,60($sp)
  40f450:	afb70034 	sw	$s7,52($sp)
  40f454:	afb60030 	sw	$s6,48($sp)
  40f458:	afb5002c 	sw	$s5,44($sp)
  40f45c:	afb20020 	sw	$s2,32($sp)
  40f460:	afb1001c 	sw	$s1,28($sp)
  40f464:	afb00018 	sw	$s0,24($sp)
  40f468:	afa60070 	sw	$a2,112($sp)
  40f46c:	afa00058 	sw	$zero,88($sp)
  40f470:	afa00050 	sw	$zero,80($sp)
  40f474:	afa6004c 	sw	$a2,76($sp)
  40f478:	11e00006 	beqz	$t7,40f494 <fwrite+0x64>
  40f47c:	00809825 	move	$s3,$a0
  40f480:	0c102c2c 	jal	40b0b0 <_flockfile>
  40f484:	00e02025 	move	$a0,$a3
  40f488:	24180001 	li	$t8,1
  40f48c:	10000002 	b	40f498 <fwrite+0x68>
  40f490:	afb80044 	sw	$t8,68($sp)
  40f494:	afa00044 	sw	$zero,68($sp)
  40f498:	13c0001f 	beqz	$s8,40f518 <fwrite+0xe8>
  40f49c:	8fac0044 	lw	$t4,68($sp)
  40f4a0:	8fb90070 	lw	$t9,112($sp)
  40f4a4:	00000000 	nop
  40f4a8:	1320001b 	beqz	$t9,40f518 <fwrite+0xe8>
  40f4ac:	8fac0044 	lw	$t4,68($sp)
  40f4b0:	9282000c 	lbu	$v0,12($s4)
  40f4b4:	24010002 	li	$at,2
  40f4b8:	30480012 	andi	$t0,$v0,0x12
  40f4bc:	1501000f 	bne	$t0,$at,40f4fc <fwrite+0xcc>
  40f4c0:	00000000 	nop
  40f4c4:	8e830008 	lw	$v1,8($s4)
  40f4c8:	00000000 	nop
  40f4cc:	1060000b 	beqz	$v1,40f4fc <fwrite+0xcc>
  40f4d0:	00000000 	nop
  40f4d4:	8e890004 	lw	$t1,4($s4)
  40f4d8:	00002025 	move	$a0,$zero
  40f4dc:	1469000b 	bne	$v1,$t1,40f50c <fwrite+0xdc>
  40f4e0:	00000000 	nop
  40f4e4:	8e8a0000 	lw	$t2,0($s4)
  40f4e8:	304b0044 	andi	$t3,$v0,0x44
  40f4ec:	15400007 	bnez	$t2,40f50c <fwrite+0xdc>
  40f4f0:	00000000 	nop
  40f4f4:	15600005 	bnez	$t3,40f50c <fwrite+0xdc>
  40f4f8:	00000000 	nop
  40f4fc:	0c103f70 	jal	40fdc0 <_wrtchk>
  40f500:	02802025 	move	$a0,$s4
  40f504:	10000001 	b	40f50c <fwrite+0xdc>
  40f508:	00402025 	move	$a0,$v0
  40f50c:	10800009 	beqz	$a0,40f534 <fwrite+0x104>
  40f510:	00000000 	nop
  40f514:	8fac0044 	lw	$t4,68($sp)
  40f518:	00000000 	nop
  40f51c:	11800003 	beqz	$t4,40f52c <fwrite+0xfc>
  40f520:	00000000 	nop
  40f524:	0c102c55 	jal	40b154 <_funlockfile>
  40f528:	02802025 	move	$a0,$s4
  40f52c:	100000c7 	b	40f84c <fwrite+0x41c>
  40f530:	00001025 	move	$v0,$zero
  40f534:	9282000d 	lbu	$v0,13($s4)
  40f538:	3c170042 	lui	$s7,0x42
  40f53c:	28410064 	slti	$at,$v0,100
  40f540:	10200005 	beqz	$at,40f558 <fwrite+0x128>
  40f544:	00026880 	sll	$t5,$v0,0x2
  40f548:	02edb821 	addu	$s7,$s7,$t5
  40f54c:	8ef7dc10 	lw	$s7,-9200($s7)
  40f550:	10000005 	b	40f568 <fwrite+0x138>
  40f554:	8fae0070 	lw	$t6,112($sp)
  40f558:	0c1016cb 	jal	405b2c <_realbufend>
  40f55c:	02802025 	move	$a0,$s4
  40f560:	0040b825 	move	$s7,$v0
  40f564:	8fae0070 	lw	$t6,112($sp)
  40f568:	00000000 	nop
  40f56c:	01de0019 	multu	$t6,$s8
  40f570:	00001012 	mflo	$v0
	...
  40f57c:	8faf0070 	lw	$t7,112($sp)
  40f580:	8fb90070 	lw	$t9,112($sp)
  40f584:	004f082b 	sltu	$at,$v0,$t7
  40f588:	14200004 	bnez	$at,40f59c <fwrite+0x16c>
  40f58c:	0040a825 	move	$s5,$v0
  40f590:	005e082b 	sltu	$at,$v0,$s8
  40f594:	1020000e 	beqz	$at,40f5d0 <fwrite+0x1a0>
  40f598:	00000000 	nop
  40f59c:	17c00009 	bnez	$s8,40f5c4 <fwrite+0x194>
  40f5a0:	03c0a825 	move	$s5,$s8
  40f5a4:	8fb80044 	lw	$t8,68($sp)
  40f5a8:	00000000 	nop
  40f5ac:	13000003 	beqz	$t8,40f5bc <fwrite+0x18c>
  40f5b0:	00000000 	nop
  40f5b4:	0c102c55 	jal	40b154 <_funlockfile>
  40f5b8:	02802025 	move	$a0,$s4
  40f5bc:	100000a3 	b	40f84c <fwrite+0x41c>
  40f5c0:	00001025 	move	$v0,$zero
  40f5c4:	2728ffff 	addiu	$t0,$t9,-1
  40f5c8:	10000002 	b	40f5d4 <fwrite+0x1a4>
  40f5cc:	afa80070 	sw	$t0,112($sp)
  40f5d0:	afa00070 	sw	$zero,112($sp)
  40f5d4:	8e960004 	lw	$s6,4($s4)
  40f5d8:	00000000 	nop
  40f5dc:	02d7082b 	sltu	$at,$s6,$s7
  40f5e0:	1420000f 	bnez	$at,40f620 <fwrite+0x1f0>
  40f5e4:	00000000 	nop
  40f5e8:	0c10183e 	jal	4060f8 <_xflsbuf>
  40f5ec:	02802025 	move	$a0,$s4
  40f5f0:	2401ffff 	li	$at,-1
  40f5f4:	1441000a 	bne	$v0,$at,40f620 <fwrite+0x1f0>
  40f5f8:	00000000 	nop
  40f5fc:	8fa90044 	lw	$t1,68($sp)
  40f600:	00000000 	nop
  40f604:	11200004 	beqz	$t1,40f618 <fwrite+0x1e8>
  40f608:	8fa20058 	lw	$v0,88($sp)
  40f60c:	0c102c55 	jal	40b154 <_funlockfile>
  40f610:	02802025 	move	$a0,$s4
  40f614:	8fa20058 	lw	$v0,88($sp)
  40f618:	1000008d 	b	40f850 <fwrite+0x420>
  40f61c:	8fbf003c 	lw	$ra,60($sp)
  40f620:	8e8a0008 	lw	$t2,8($s4)
  40f624:	02f69023 	subu	$s2,$s7,$s6
  40f628:	0156082b 	sltu	$at,$t2,$s6
  40f62c:	1420003b 	bnez	$at,40f71c <fwrite+0x2ec>
  40f630:	02c02025 	move	$a0,$s6
  40f634:	9282000c 	lbu	$v0,12($s4)
  40f638:	2ea11000 	sltiu	$at,$s5,4096
  40f63c:	304b0004 	andi	$t3,$v0,0x4
  40f640:	15600002 	bnez	$t3,40f64c <fwrite+0x21c>
  40f644:	01601025 	move	$v0,$t3
  40f648:	14200034 	bnez	$at,40f71c <fwrite+0x2ec>
  40f64c:	3c017fff 	lui	$at,0x7fff
  40f650:	3421f001 	ori	$at,$at,0xf001
  40f654:	02a1082b 	sltu	$at,$s5,$at
  40f658:	9284000d 	lbu	$a0,13($s4)
  40f65c:	14200004 	bnez	$at,40f670 <fwrite+0x240>
  40f660:	02602825 	move	$a1,$s3
  40f664:	3c127fff 	lui	$s2,0x7fff
  40f668:	10000006 	b	40f684 <fwrite+0x254>
  40f66c:	3652f000 	ori	$s2,$s2,0xf000
  40f670:	10400003 	beqz	$v0,40f680 <fwrite+0x250>
  40f674:	32ac0fff 	andi	$t4,$s5,0xfff
  40f678:	10000002 	b	40f684 <fwrite+0x254>
  40f67c:	02a09025 	move	$s2,$s5
  40f680:	02ac9023 	subu	$s2,$s5,$t4
  40f684:	02408825 	move	$s1,$s2
  40f688:	0c101af8 	jal	406be0 <_write>
  40f68c:	02403025 	move	$a2,$s2
  40f690:	1052003b 	beq	$v0,$s2,40f780 <fwrite+0x350>
  40f694:	00408025 	move	$s0,$v0
  40f698:	1c400016 	bgtz	$v0,40f6f4 <fwrite+0x2c4>
  40f69c:	00000000 	nop
  40f6a0:	928d000c 	lbu	$t5,12($s4)
  40f6a4:	02517823 	subu	$t7,$s2,$s1
  40f6a8:	35ae0020 	ori	$t6,$t5,0x20
  40f6ac:	a28e000c 	sb	$t6,12($s4)
  40f6b0:	8fb80050 	lw	$t8,80($sp)
  40f6b4:	8fa90058 	lw	$t1,88($sp)
  40f6b8:	01f8c821 	addu	$t9,$t7,$t8
  40f6bc:	033e001b 	divu	$zero,$t9,$s8
  40f6c0:	8fab0044 	lw	$t3,68($sp)
  40f6c4:	17c00002 	bnez	$s8,40f6d0 <fwrite+0x2a0>
  40f6c8:	00000000 	nop
  40f6cc:	0007000d 	break	0x7
  40f6d0:	00004012 	mflo	$t0
  40f6d4:	01285021 	addu	$t2,$t1,$t0
  40f6d8:	11600003 	beqz	$t3,40f6e8 <fwrite+0x2b8>
  40f6dc:	afaa0058 	sw	$t2,88($sp)
  40f6e0:	0c102c55 	jal	40b154 <_funlockfile>
  40f6e4:	02802025 	move	$a0,$s4
  40f6e8:	8fa20058 	lw	$v0,88($sp)
  40f6ec:	10000058 	b	40f850 <fwrite+0x420>
  40f6f0:	8fbf003c 	lw	$ra,60($sp)
  40f6f4:	02308823 	subu	$s1,$s1,$s0
  40f6f8:	02709821 	addu	$s3,$s3,$s0
  40f6fc:	9284000d 	lbu	$a0,13($s4)
  40f700:	02602825 	move	$a1,$s3
  40f704:	0c101af8 	jal	406be0 <_write>
  40f708:	02203025 	move	$a2,$s1
  40f70c:	1451ffe2 	bne	$v0,$s1,40f698 <fwrite+0x268>
  40f710:	00408025 	move	$s0,$v0
  40f714:	1000001b 	b	40f784 <fwrite+0x354>
  40f718:	02b2a823 	subu	$s5,$s5,$s2
  40f71c:	02b2082b 	sltu	$at,$s5,$s2
  40f720:	10200002 	beqz	$at,40f72c <fwrite+0x2fc>
  40f724:	02602825 	move	$a1,$s3
  40f728:	02a09025 	move	$s2,$s5
  40f72c:	0c1019e0 	jal	406780 <memcpy>
  40f730:	02403025 	move	$a2,$s2
  40f734:	8e8c0000 	lw	$t4,0($s4)
  40f738:	8e8e0004 	lw	$t6,4($s4)
  40f73c:	01921823 	subu	$v1,$t4,$s2
  40f740:	01d27821 	addu	$t7,$t6,$s2
  40f744:	ae830000 	sw	$v1,0($s4)
  40f748:	04610003 	bgez	$v1,40f758 <fwrite+0x328>
  40f74c:	ae8f0004 	sw	$t7,4($s4)
  40f750:	10000002 	b	40f75c <fwrite+0x32c>
  40f754:	00002025 	move	$a0,$zero
  40f758:	00602025 	move	$a0,$v1
  40f75c:	8e980004 	lw	$t8,4($s4)
  40f760:	00000000 	nop
  40f764:	02f8c823 	subu	$t9,$s7,$t8
  40f768:	0324082a 	slt	$at,$t9,$a0
  40f76c:	10200004 	beqz	$at,40f780 <fwrite+0x350>
  40f770:	00000000 	nop
  40f774:	02802025 	move	$a0,$s4
  40f778:	0c10182e 	jal	4060b8 <_bufsync>
  40f77c:	02e02825 	move	$a1,$s7
  40f780:	02b2a823 	subu	$s5,$s5,$s2
  40f784:	16a0001e 	bnez	$s5,40f800 <fwrite+0x3d0>
  40f788:	8fad0050 	lw	$t5,80($sp)
  40f78c:	8fa90070 	lw	$t1,112($sp)
  40f790:	00000000 	nop
  40f794:	1520001a 	bnez	$t1,40f800 <fwrite+0x3d0>
  40f798:	8fad0050 	lw	$t5,80($sp)
  40f79c:	9282000c 	lbu	$v0,12($s4)
  40f7a0:	00000000 	nop
  40f7a4:	30480004 	andi	$t0,$v0,0x4
  40f7a8:	15000009 	bnez	$t0,40f7d0 <fwrite+0x3a0>
  40f7ac:	304a0040 	andi	$t2,$v0,0x40
  40f7b0:	11400009 	beqz	$t2,40f7d8 <fwrite+0x3a8>
  40f7b4:	02c02025 	move	$a0,$s6
  40f7b8:	8e8b0004 	lw	$t3,4($s4)
  40f7bc:	2405000a 	li	$a1,10
  40f7c0:	0c103fe4 	jal	40ff90 <memchr>
  40f7c4:	01763023 	subu	$a2,$t3,$s6
  40f7c8:	10400004 	beqz	$v0,40f7dc <fwrite+0x3ac>
  40f7cc:	8fac0044 	lw	$t4,68($sp)
  40f7d0:	0c10183e 	jal	4060f8 <_xflsbuf>
  40f7d4:	02802025 	move	$a0,$s4
  40f7d8:	8fac0044 	lw	$t4,68($sp)
  40f7dc:	00000000 	nop
  40f7e0:	11800004 	beqz	$t4,40f7f4 <fwrite+0x3c4>
  40f7e4:	8fa2004c 	lw	$v0,76($sp)
  40f7e8:	0c102c55 	jal	40b154 <_funlockfile>
  40f7ec:	02802025 	move	$a0,$s4
  40f7f0:	8fa2004c 	lw	$v0,76($sp)
  40f7f4:	10000016 	b	40f850 <fwrite+0x420>
  40f7f8:	8fbf003c 	lw	$ra,60($sp)
  40f7fc:	8fad0050 	lw	$t5,80($sp)
  40f800:	02729821 	addu	$s3,$s3,$s2
  40f804:	024d9021 	addu	$s2,$s2,$t5
  40f808:	025e001b 	divu	$zero,$s2,$s8
  40f80c:	8fae0058 	lw	$t6,88($sp)
  40f810:	17c00002 	bnez	$s8,40f81c <fwrite+0x3ec>
  40f814:	00000000 	nop
  40f818:	0007000d 	break	0x7
  40f81c:	00007812 	mflo	$t7
  40f820:	0000c810 	mfhi	$t9
  40f824:	01cfc021 	addu	$t8,$t6,$t7
  40f828:	afb80058 	sw	$t8,88($sp)
  40f82c:	16a0ff69 	bnez	$s5,40f5d4 <fwrite+0x1a4>
  40f830:	afb90050 	sw	$t9,80($sp)
  40f834:	8fa90070 	lw	$t1,112($sp)
  40f838:	00000000 	nop
  40f83c:	013e0019 	multu	$t1,$s8
  40f840:	00001012 	mflo	$v0
  40f844:	1000ff4e 	b	40f580 <fwrite+0x150>
  40f848:	8faf0070 	lw	$t7,112($sp)
  40f84c:	8fbf003c 	lw	$ra,60($sp)
  40f850:	8fb00018 	lw	$s0,24($sp)
  40f854:	8fb1001c 	lw	$s1,28($sp)
  40f858:	8fb20020 	lw	$s2,32($sp)
  40f85c:	8fb30024 	lw	$s3,36($sp)
  40f860:	8fb40028 	lw	$s4,40($sp)
  40f864:	8fb5002c 	lw	$s5,44($sp)
  40f868:	8fb60030 	lw	$s6,48($sp)
  40f86c:	8fb70034 	lw	$s7,52($sp)
  40f870:	8fbe0038 	lw	$s8,56($sp)
  40f874:	03e00008 	jr	$ra
  40f878:	27bd0068 	addiu	$sp,$sp,104
  40f87c:	00000000 	nop

0040f880 <_tempnam>:
  40f880:	27bdffc8 	addiu	$sp,$sp,-56
  40f884:	afbf0014 	sw	$ra,20($sp)
  40f888:	afa40038 	sw	$a0,56($sp)
  40f88c:	afa5003c 	sw	$a1,60($sp)
  40f890:	afa00024 	sw	$zero,36($sp)
  40f894:	27848a24 	addiu	$a0,$gp,-30172
  40f898:	0c1041e0 	jal	410780 <getenv>
  40f89c:	afa00028 	sw	$zero,40($sp)
  40f8a0:	8fa60028 	lw	$a2,40($sp)
  40f8a4:	10400004 	beqz	$v0,40f8b8 <_tempnam+0x38>
  40f8a8:	afa2002c 	sw	$v0,44($sp)
  40f8ac:	0c101ad0 	jal	406b40 <strlen>
  40f8b0:	00402025 	move	$a0,$v0
  40f8b4:	00403025 	move	$a2,$v0
  40f8b8:	8fae0038 	lw	$t6,56($sp)
  40f8bc:	00000000 	nop
  40f8c0:	11c00005 	beqz	$t6,40f8d8 <_tempnam+0x58>
  40f8c4:	01c02025 	move	$a0,$t6
  40f8c8:	0c101ad0 	jal	406b40 <strlen>
  40f8cc:	afa60028 	sw	$a2,40($sp)
  40f8d0:	8fa60028 	lw	$a2,40($sp)
  40f8d4:	afa20024 	sw	$v0,36($sp)
  40f8d8:	8fa50024 	lw	$a1,36($sp)
  40f8dc:	00c01025 	move	$v0,$a2
  40f8e0:	00c5082a 	slt	$at,$a2,$a1
  40f8e4:	10200003 	beqz	$at,40f8f4 <_tempnam+0x74>
  40f8e8:	00000000 	nop
  40f8ec:	10000001 	b	40f8f4 <_tempnam+0x74>
  40f8f0:	00a01025 	move	$v0,$a1
  40f8f4:	28410009 	slti	$at,$v0,9
  40f8f8:	10200004 	beqz	$at,40f90c <_tempnam+0x8c>
  40f8fc:	00c5082a 	slt	$at,$a2,$a1
  40f900:	10000007 	b	40f920 <_tempnam+0xa0>
  40f904:	24020009 	li	$v0,9
  40f908:	00c5082a 	slt	$at,$a2,$a1
  40f90c:	10200003 	beqz	$at,40f91c <_tempnam+0x9c>
  40f910:	00c01825 	move	$v1,$a2
  40f914:	10000001 	b	40f91c <_tempnam+0x9c>
  40f918:	00a01825 	move	$v1,$a1
  40f91c:	00601025 	move	$v0,$v1
  40f920:	24440010 	addiu	$a0,$v0,16
  40f924:	afa50024 	sw	$a1,36($sp)
  40f928:	0c101bd2 	jal	406f48 <_malloc>
  40f92c:	afa60028 	sw	$a2,40($sp)
  40f930:	8fa60028 	lw	$a2,40($sp)
  40f934:	14400003 	bnez	$v0,40f944 <_tempnam+0xc4>
  40f938:	afa20034 	sw	$v0,52($sp)
  40f93c:	1000007c 	b	40fb30 <_tempnam+0x2b0>
  40f940:	00001025 	move	$v0,$zero
  40f944:	8f8f88b4 	lw	$t7,-30540($gp)
  40f948:	8f84aed0 	lw	$a0,-20784($gp)
  40f94c:	11e00008 	beqz	$t7,40f970 <_tempnam+0xf0>
  40f950:	00000000 	nop
  40f954:	0c102034 	jal	4080d0 <_uspsema>
  40f958:	afa60028 	sw	$a2,40($sp)
  40f95c:	38580001 	xori	$t8,$v0,0x1
  40f960:	2f180001 	sltiu	$t8,$t8,1
  40f964:	8fa60028 	lw	$a2,40($sp)
  40f968:	10000002 	b	40f974 <_tempnam+0xf4>
  40f96c:	afb8001c 	sw	$t8,28($sp)
  40f970:	afa0001c 	sw	$zero,28($sp)
  40f974:	18c0000b 	blez	$a2,40f9a4 <_tempnam+0x124>
  40f978:	8fb90024 	lw	$t9,36($sp)
  40f97c:	8fa40034 	lw	$a0,52($sp)
  40f980:	8fa5002c 	lw	$a1,44($sp)
  40f984:	0c103ed0 	jal	40fb40 <_tempnam+0x2c0>
  40f988:	00000000 	nop
  40f98c:	00402025 	move	$a0,$v0
  40f990:	0c1040d4 	jal	410350 <_access>
  40f994:	24050003 	li	$a1,3
  40f998:	10400029 	beqz	$v0,40fa40 <_tempnam+0x1c0>
  40f99c:	8fa40034 	lw	$a0,52($sp)
  40f9a0:	8fb90024 	lw	$t9,36($sp)
  40f9a4:	8fa40034 	lw	$a0,52($sp)
  40f9a8:	1b200009 	blez	$t9,40f9d0 <_tempnam+0x150>
  40f9ac:	00000000 	nop
  40f9b0:	8fa50038 	lw	$a1,56($sp)
  40f9b4:	0c103ed0 	jal	40fb40 <_tempnam+0x2c0>
  40f9b8:	00000000 	nop
  40f9bc:	00402025 	move	$a0,$v0
  40f9c0:	0c1040d4 	jal	410350 <_access>
  40f9c4:	24050003 	li	$a1,3
  40f9c8:	1040001d 	beqz	$v0,40fa40 <_tempnam+0x1c0>
  40f9cc:	8fa40034 	lw	$a0,52($sp)
  40f9d0:	8fa40034 	lw	$a0,52($sp)
  40f9d4:	0c103ed0 	jal	40fb40 <_tempnam+0x2c0>
  40f9d8:	27858a2c 	addiu	$a1,$gp,-30164
  40f9dc:	00402025 	move	$a0,$v0
  40f9e0:	0c1040d4 	jal	410350 <_access>
  40f9e4:	24050003 	li	$a1,3
  40f9e8:	10400015 	beqz	$v0,40fa40 <_tempnam+0x1c0>
  40f9ec:	8fa40034 	lw	$a0,52($sp)
  40f9f0:	8fa40034 	lw	$a0,52($sp)
  40f9f4:	0c103ed0 	jal	40fb40 <_tempnam+0x2c0>
  40f9f8:	27858a38 	addiu	$a1,$gp,-30152
  40f9fc:	00402025 	move	$a0,$v0
  40fa00:	0c1040d4 	jal	410350 <_access>
  40fa04:	24050003 	li	$a1,3
  40fa08:	1040000d 	beqz	$v0,40fa40 <_tempnam+0x1c0>
  40fa0c:	8fa40034 	lw	$a0,52($sp)
  40fa10:	8fa8001c 	lw	$t0,28($sp)
  40fa14:	8f84aed0 	lw	$a0,-20784($gp)
  40fa18:	11000003 	beqz	$t0,40fa28 <_tempnam+0x1a8>
  40fa1c:	00000000 	nop
  40fa20:	0c10203c 	jal	4080f0 <_usvsema>
  40fa24:	00000000 	nop
  40fa28:	8fa40034 	lw	$a0,52($sp)
  40fa2c:	0c101fc7 	jal	407f1c <_free>
  40fa30:	00000000 	nop
  40fa34:	1000003e 	b	40fb30 <_tempnam+0x2b0>
  40fa38:	00001025 	move	$v0,$zero
  40fa3c:	8fa40034 	lw	$a0,52($sp)
  40fa40:	0c103fb4 	jal	40fed0 <strcat>
  40fa44:	27858a40 	addiu	$a1,$gp,-30144
  40fa48:	8fa9003c 	lw	$t1,60($sp)
  40fa4c:	8fa40034 	lw	$a0,52($sp)
  40fa50:	1120000a 	beqz	$t1,40fa7c <_tempnam+0x1fc>
  40fa54:	00000000 	nop
  40fa58:	0c101ad0 	jal	406b40 <strlen>
  40fa5c:	00000000 	nop
  40fa60:	8fa40034 	lw	$a0,52($sp)
  40fa64:	24060005 	li	$a2,5
  40fa68:	00825021 	addu	$t2,$a0,$v0
  40fa6c:	a1400005 	sb	$zero,5($t2)
  40fa70:	8fa5003c 	lw	$a1,60($sp)
  40fa74:	0c104040 	jal	410100 <strncat>
  40fa78:	00000000 	nop
  40fa7c:	8fa40034 	lw	$a0,52($sp)
  40fa80:	0c103fb4 	jal	40fed0 <strcat>
  40fa84:	27858a20 	addiu	$a1,$gp,-30176
  40fa88:	8fa40034 	lw	$a0,52($sp)
  40fa8c:	0c103fb4 	jal	40fed0 <strcat>
  40fa90:	27858a44 	addiu	$a1,$gp,-30140
  40fa94:	938b8a20 	lbu	$t3,-30176($gp)
  40fa98:	2404005a 	li	$a0,90
  40fa9c:	148b0006 	bne	$a0,$t3,40fab8 <_tempnam+0x238>
  40faa0:	27838a20 	addiu	$v1,$gp,-30176
  40faa4:	24020041 	li	$v0,65
  40faa8:	906c0001 	lbu	$t4,1($v1)
  40faac:	a0620000 	sb	$v0,0($v1)
  40fab0:	108cfffd 	beq	$a0,$t4,40faa8 <_tempnam+0x228>
  40fab4:	24630001 	addiu	$v1,$v1,1
  40fab8:	90620000 	lbu	$v0,0($v1)
  40fabc:	00000000 	nop
  40fac0:	10400002 	beqz	$v0,40facc <_tempnam+0x24c>
  40fac4:	244d0001 	addiu	$t5,$v0,1
  40fac8:	a06d0000 	sb	$t5,0($v1)
  40facc:	8fa40034 	lw	$a0,52($sp)
  40fad0:	0c106150 	jal	418540 <_mktemp>
  40fad4:	00000000 	nop
  40fad8:	904e0000 	lbu	$t6,0($v0)
  40fadc:	8fb8001c 	lw	$t8,28($sp)
  40fae0:	15c0000c 	bnez	$t6,40fb14 <_tempnam+0x294>
  40fae4:	00000000 	nop
  40fae8:	8faf001c 	lw	$t7,28($sp)
  40faec:	8f84aed0 	lw	$a0,-20784($gp)
  40faf0:	11e00003 	beqz	$t7,40fb00 <_tempnam+0x280>
  40faf4:	00000000 	nop
  40faf8:	0c10203c 	jal	4080f0 <_usvsema>
  40fafc:	00000000 	nop
  40fb00:	8fa40034 	lw	$a0,52($sp)
  40fb04:	0c101fc7 	jal	407f1c <_free>
  40fb08:	00000000 	nop
  40fb0c:	10000008 	b	40fb30 <_tempnam+0x2b0>
  40fb10:	00001025 	move	$v0,$zero
  40fb14:	13000005 	beqz	$t8,40fb2c <_tempnam+0x2ac>
  40fb18:	8fa20034 	lw	$v0,52($sp)
  40fb1c:	8f84aed0 	lw	$a0,-20784($gp)
  40fb20:	0c10203c 	jal	4080f0 <_usvsema>
  40fb24:	00000000 	nop
  40fb28:	8fa20034 	lw	$v0,52($sp)
  40fb2c:	00000000 	nop
  40fb30:	8fbf0014 	lw	$ra,20($sp)
  40fb34:	27bd0038 	addiu	$sp,$sp,56
  40fb38:	03e00008 	jr	$ra
  40fb3c:	00000000 	nop
  40fb40:	27bdffe8 	addiu	$sp,$sp,-24
  40fb44:	afbf0014 	sw	$ra,20($sp)
  40fb48:	10a0000e 	beqz	$a1,40fb84 <_tempnam+0x304>
  40fb4c:	afa40018 	sw	$a0,24($sp)
  40fb50:	0c101aa4 	jal	406a90 <strcpy>
  40fb54:	00000000 	nop
  40fb58:	8fa40018 	lw	$a0,24($sp)
  40fb5c:	0c101ad0 	jal	406b40 <strlen>
  40fb60:	00000000 	nop
  40fb64:	8fae0018 	lw	$t6,24($sp)
  40fb68:	2401002f 	li	$at,47
  40fb6c:	004e1821 	addu	$v1,$v0,$t6
  40fb70:	906fffff 	lbu	$t7,-1($v1)
  40fb74:	00000000 	nop
  40fb78:	15e10003 	bne	$t7,$at,40fb88 <_tempnam+0x308>
  40fb7c:	8fbf0014 	lw	$ra,20($sp)
  40fb80:	a060ffff 	sb	$zero,-1($v1)
  40fb84:	8fbf0014 	lw	$ra,20($sp)
  40fb88:	8fa20018 	lw	$v0,24($sp)
  40fb8c:	03e00008 	jr	$ra
  40fb90:	27bd0018 	addiu	$sp,$sp,24
	...

0040fba0 <_findbuf>:
  40fba0:	27bdff40 	addiu	$sp,$sp,-192
  40fba4:	afbf0014 	sw	$ra,20($sp)
  40fba8:	908e000d 	lbu	$t6,13($a0)
  40fbac:	00803025 	move	$a2,$a0
  40fbb0:	afae00bc 	sw	$t6,188($sp)
  40fbb4:	908f000c 	lbu	$t7,12($a0)
  40fbb8:	24071000 	li	$a3,4096
  40fbbc:	31f80004 	andi	$t8,$t7,0x4
  40fbc0:	1300001c 	beqz	$t8,40fc34 <_findbuf+0x94>
  40fbc4:	8fb800bc 	lw	$t8,188($sp)
  40fbc8:	8f888804 	lw	$t0,-30716($gp)
  40fbcc:	278981c4 	addiu	$t1,$gp,-32316
  40fbd0:	8fb900bc 	lw	$t9,188($sp)
  40fbd4:	01095023 	subu	$t2,$t0,$t1
  40fbd8:	000a5903 	sra	$t3,$t2,0x4
  40fbdc:	032b082a 	slt	$at,$t9,$t3
  40fbe0:	10200006 	beqz	$at,40fbfc <_findbuf+0x5c>
  40fbe4:	24070004 	li	$a3,4
  40fbe8:	3c0d0042 	lui	$t5,0x42
  40fbec:	25ade730 	addiu	$t5,$t5,-6352
  40fbf0:	001960c0 	sll	$t4,$t9,0x3
  40fbf4:	1000003f 	b	40fcf4 <_findbuf+0x154>
  40fbf8:	018d1821 	addu	$v1,$t4,$t5
  40fbfc:	24040008 	li	$a0,8
  40fc00:	afa600c0 	sw	$a2,192($sp)
  40fc04:	0c101bd2 	jal	406f48 <_malloc>
  40fc08:	afa700b4 	sw	$a3,180($sp)
  40fc0c:	8fa600c0 	lw	$a2,192($sp)
  40fc10:	8fa700b4 	lw	$a3,180($sp)
  40fc14:	10400037 	beqz	$v0,40fcf4 <_findbuf+0x154>
  40fc18:	00401825 	move	$v1,$v0
  40fc1c:	90ce000c 	lbu	$t6,12($a2)
  40fc20:	00000000 	nop
  40fc24:	35cf0008 	ori	$t7,$t6,0x8
  40fc28:	10000032 	b	40fcf4 <_findbuf+0x154>
  40fc2c:	a0cf000c 	sb	$t7,12($a2)
  40fc30:	8fb800bc 	lw	$t8,188($sp)
  40fc34:	8fa400bc 	lw	$a0,188($sp)
  40fc38:	2b010002 	slti	$at,$t8,2
  40fc3c:	10200008 	beqz	$at,40fc60 <_findbuf+0xc0>
  40fc40:	27a50028 	addiu	$a1,$sp,40
  40fc44:	17000004 	bnez	$t8,40fc58 <_findbuf+0xb8>
  40fc48:	3c030042 	lui	$v1,0x42
  40fc4c:	3c030042 	lui	$v1,0x42
  40fc50:	10000028 	b	40fcf4 <_findbuf+0x154>
  40fc54:	2463fa70 	addiu	$v1,$v1,-1424
  40fc58:	10000026 	b	40fcf4 <_findbuf+0x154>
  40fc5c:	2463ea60 	addiu	$v1,$v1,-5536
  40fc60:	afa600c0 	sw	$a2,192($sp)
  40fc64:	0c104154 	jal	410550 <_fstat>
  40fc68:	afa700b4 	sw	$a3,180($sp)
  40fc6c:	8fa600c0 	lw	$a2,192($sp)
  40fc70:	8fa700b4 	lw	$a3,180($sp)
  40fc74:	14400014 	bnez	$v0,40fcc8 <_findbuf+0x128>
  40fc78:	24e40008 	addiu	$a0,$a3,8
  40fc7c:	8fa20078 	lw	$v0,120($sp)
  40fc80:	00000000 	nop
  40fc84:	1c400003 	bgtz	$v0,40fc94 <_findbuf+0xf4>
  40fc88:	00403825 	move	$a3,$v0
  40fc8c:	1000000d 	b	40fcc4 <_findbuf+0x124>
  40fc90:	24071000 	li	$a3,4096
  40fc94:	28414001 	slti	$at,$v0,16385
  40fc98:	14200002 	bnez	$at,40fca4 <_findbuf+0x104>
  40fc9c:	00000000 	nop
  40fca0:	24074000 	li	$a3,16384
  40fca4:	90c8000c 	lbu	$t0,12($a2)
  40fca8:	8faa0058 	lw	$t2,88($sp)
  40fcac:	31090001 	andi	$t1,$t0,0x1
  40fcb0:	11200004 	beqz	$t1,40fcc4 <_findbuf+0x124>
  40fcb4:	0147082a 	slt	$at,$t2,$a3
  40fcb8:	10200003 	beqz	$at,40fcc8 <_findbuf+0x128>
  40fcbc:	24e40008 	addiu	$a0,$a3,8
  40fcc0:	24071000 	li	$a3,4096
  40fcc4:	24e40008 	addiu	$a0,$a3,8
  40fcc8:	afa600c0 	sw	$a2,192($sp)
  40fccc:	0c101bd2 	jal	406f48 <_malloc>
  40fcd0:	afa700b4 	sw	$a3,180($sp)
  40fcd4:	8fa600c0 	lw	$a2,192($sp)
  40fcd8:	8fa700b4 	lw	$a3,180($sp)
  40fcdc:	1040ffba 	beqz	$v0,40fbc8 <_findbuf+0x28>
  40fce0:	00401825 	move	$v1,$v0
  40fce4:	90cb000c 	lbu	$t3,12($a2)
  40fce8:	00000000 	nop
  40fcec:	35790008 	ori	$t9,$t3,0x8
  40fcf0:	a0d9000c 	sb	$t9,12($a2)
  40fcf4:	14600003 	bnez	$v1,40fd04 <_findbuf+0x164>
  40fcf8:	00000000 	nop
  40fcfc:	10000029 	b	40fda4 <_findbuf+0x204>
  40fd00:	00001025 	move	$v0,$zero
  40fd04:	90c2000d 	lbu	$v0,13($a2)
  40fd08:	acc30008 	sw	$v1,8($a2)
  40fd0c:	28410064 	slti	$at,$v0,100
  40fd10:	1020000b 	beqz	$at,40fd40 <_findbuf+0x1a0>
  40fd14:	acc30004 	sw	$v1,4($a2)
  40fd18:	3c0d0042 	lui	$t5,0x42
  40fd1c:	25addc10 	addiu	$t5,$t5,-9200
  40fd20:	00026080 	sll	$t4,$v0,0x2
  40fd24:	018d2021 	addu	$a0,$t4,$t5
  40fd28:	8c8e0000 	lw	$t6,0($a0)
  40fd2c:	00672821 	addu	$a1,$v1,$a3
  40fd30:	10ae000b 	beq	$a1,$t6,40fd60 <_findbuf+0x1c0>
  40fd34:	00000000 	nop
  40fd38:	10000009 	b	40fd60 <_findbuf+0x1c0>
  40fd3c:	ac850000 	sw	$a1,0($a0)
  40fd40:	00672821 	addu	$a1,$v1,$a3
  40fd44:	afa50020 	sw	$a1,32($sp)
  40fd48:	00c02025 	move	$a0,$a2
  40fd4c:	0c101690 	jal	405a40 <_setbufend>
  40fd50:	afa600c0 	sw	$a2,192($sp)
  40fd54:	8fa50020 	lw	$a1,32($sp)
  40fd58:	8fa600c0 	lw	$a2,192($sp)
  40fd5c:	00000000 	nop
  40fd60:	90cf000c 	lbu	$t7,12($a2)
  40fd64:	8fa400bc 	lw	$a0,188($sp)
  40fd68:	31f80004 	andi	$t8,$t7,0x4
  40fd6c:	1700000d 	bnez	$t8,40fda4 <_findbuf+0x204>
  40fd70:	00a01025 	move	$v0,$a1
  40fd74:	afa50020 	sw	$a1,32($sp)
  40fd78:	0c10417c 	jal	4105f0 <_isatty>
  40fd7c:	afa600c0 	sw	$a2,192($sp)
  40fd80:	8fa50020 	lw	$a1,32($sp)
  40fd84:	8fa600c0 	lw	$a2,192($sp)
  40fd88:	10400006 	beqz	$v0,40fda4 <_findbuf+0x204>
  40fd8c:	00a01025 	move	$v0,$a1
  40fd90:	90c8000c 	lbu	$t0,12($a2)
  40fd94:	00000000 	nop
  40fd98:	35090040 	ori	$t1,$t0,0x40
  40fd9c:	a0c9000c 	sb	$t1,12($a2)
  40fda0:	00a01025 	move	$v0,$a1
  40fda4:	8fbf0014 	lw	$ra,20($sp)
  40fda8:	27bd00c0 	addiu	$sp,$sp,192
  40fdac:	03e00008 	jr	$ra
	...

0040fdc0 <_wrtchk>:
  40fdc0:	27bdffe0 	addiu	$sp,$sp,-32
  40fdc4:	afbf0014 	sw	$ra,20($sp)
  40fdc8:	9082000c 	lbu	$v0,12($a0)
  40fdcc:	24010002 	li	$at,2
  40fdd0:	304e0012 	andi	$t6,$v0,0x12
  40fdd4:	00802825 	move	$a1,$a0
  40fdd8:	11c1000f 	beq	$t6,$at,40fe18 <_wrtchk+0x58>
  40fddc:	00401825 	move	$v1,$v0
  40fde0:	304f0082 	andi	$t7,$v0,0x82
  40fde4:	11e00004 	beqz	$t7,40fdf8 <_wrtchk+0x38>
  40fde8:	30780011 	andi	$t8,$v1,0x11
  40fdec:	24010001 	li	$at,1
  40fdf0:	17010007 	bne	$t8,$at,40fe10 <_wrtchk+0x50>
  40fdf4:	3068ffee 	andi	$t0,$v1,0xffee
  40fdf8:	34590020 	ori	$t9,$v0,0x20
  40fdfc:	a0b9000c 	sb	$t9,12($a1)
  40fe00:	0c102025 	jal	408094 <_setoserror>
  40fe04:	24040009 	li	$a0,9
  40fe08:	1000002a 	b	40feb4 <_wrtchk+0xf4>
  40fe0c:	2402ffff 	li	$v0,-1
  40fe10:	35090002 	ori	$t1,$t0,0x2
  40fe14:	a0a9000c 	sb	$t1,12($a1)
  40fe18:	8caa0008 	lw	$t2,8($a1)
  40fe1c:	00a02025 	move	$a0,$a1
  40fe20:	1540000a 	bnez	$t2,40fe4c <_wrtchk+0x8c>
  40fe24:	00000000 	nop
  40fe28:	afa3001c 	sw	$v1,28($sp)
  40fe2c:	0c103ee8 	jal	40fba0 <_findbuf>
  40fe30:	afa50020 	sw	$a1,32($sp)
  40fe34:	8fa3001c 	lw	$v1,28($sp)
  40fe38:	8fa50020 	lw	$a1,32($sp)
  40fe3c:	14400003 	bnez	$v0,40fe4c <_wrtchk+0x8c>
  40fe40:	00000000 	nop
  40fe44:	1000001b 	b	40feb4 <_wrtchk+0xf4>
  40fe48:	2402ffff 	li	$v0,-1
  40fe4c:	8ca40004 	lw	$a0,4($a1)
  40fe50:	8cab0008 	lw	$t3,8($a1)
  40fe54:	306c0044 	andi	$t4,$v1,0x44
  40fe58:	15640016 	bne	$t3,$a0,40feb4 <_wrtchk+0xf4>
  40fe5c:	00001025 	move	$v0,$zero
  40fe60:	15800014 	bnez	$t4,40feb4 <_wrtchk+0xf4>
  40fe64:	00001025 	move	$v0,$zero
  40fe68:	90a2000d 	lbu	$v0,13($a1)
  40fe6c:	3c030042 	lui	$v1,0x42
  40fe70:	28410064 	slti	$at,$v0,100
  40fe74:	10200005 	beqz	$at,40fe8c <_wrtchk+0xcc>
  40fe78:	00026880 	sll	$t5,$v0,0x2
  40fe7c:	006d1821 	addu	$v1,$v1,$t5
  40fe80:	8c63dc10 	lw	$v1,-9200($v1)
  40fe84:	10000009 	b	40feac <_wrtchk+0xec>
  40fe88:	00647023 	subu	$t6,$v1,$a0
  40fe8c:	00a02025 	move	$a0,$a1
  40fe90:	0c1016cb 	jal	405b2c <_realbufend>
  40fe94:	afa50020 	sw	$a1,32($sp)
  40fe98:	8fa50020 	lw	$a1,32($sp)
  40fe9c:	00401825 	move	$v1,$v0
  40fea0:	8ca40004 	lw	$a0,4($a1)
  40fea4:	00000000 	nop
  40fea8:	00647023 	subu	$t6,$v1,$a0
  40feac:	acae0000 	sw	$t6,0($a1)
  40feb0:	00001025 	move	$v0,$zero
  40feb4:	8fbf0014 	lw	$ra,20($sp)
  40feb8:	27bd0020 	addiu	$sp,$sp,32
  40febc:	03e00008 	jr	$ra
	...

0040fed0 <strcat>:
  40fed0:	00801025 	move	$v0,$a0
  40fed4:	80880000 	lb	$t0,0($a0)
  40fed8:	00000000 	nop
  40fedc:	1500fffd 	bnez	$t0,40fed4 <strcat+0x4>
  40fee0:	20840001 	addi	$a0,$a0,1
  40fee4:	2084ffff 	addi	$a0,$a0,-1
  40fee8:	80a80000 	lb	$t0,0($a1)
  40feec:	348d0003 	ori	$t5,$a0,0x3
  40fef0:	11000024 	beqz	$t0,40ff84 <strcat+0xb4>
  40fef4:	01a47022 	sub	$t6,$t5,$a0
  40fef8:	80a90001 	lb	$t1,1($a1)
  40fefc:	00ae7820 	add	$t7,$a1,$t6
  40ff00:	1120001f 	beqz	$t1,40ff80 <strcat+0xb0>
  40ff04:	00000000 	nop
  40ff08:	80aa0002 	lb	$t2,2($a1)
  40ff0c:	00000000 	nop
  40ff10:	1140001a 	beqz	$t2,40ff7c <strcat+0xac>
  40ff14:	88ac0000 	lwl	$t4,0($a1)
  40ff18:	80ab0003 	lb	$t3,3($a1)
  40ff1c:	98ac0003 	lwr	$t4,3($a1)
  40ff20:	11600014 	beqz	$t3,40ff74 <strcat+0xa4>
  40ff24:	a88c0000 	swl	$t4,0($a0)
  40ff28:	21a4fffd 	addi	$a0,$t5,-3
  40ff2c:	81e80001 	lb	$t0,1($t7)
  40ff30:	21ef0004 	addi	$t7,$t7,4
  40ff34:	11000013 	beqz	$t0,40ff84 <strcat+0xb4>
  40ff38:	20840004 	addi	$a0,$a0,4
  40ff3c:	81e9fffe 	lb	$t1,-2($t7)
  40ff40:	00000000 	nop
  40ff44:	1120000e 	beqz	$t1,40ff80 <strcat+0xb0>
  40ff48:	00000000 	nop
  40ff4c:	81eaffff 	lb	$t2,-1($t7)
  40ff50:	00000000 	nop
  40ff54:	11400009 	beqz	$t2,40ff7c <strcat+0xac>
  40ff58:	89ecfffd 	lwl	$t4,-3($t7)
  40ff5c:	81eb0000 	lb	$t3,0($t7)
  40ff60:	99ec0000 	lwr	$t4,0($t7)
  40ff64:	1560fff1 	bnez	$t3,40ff2c <strcat+0x5c>
  40ff68:	ac8c0000 	sw	$t4,0($a0)
  40ff6c:	03e00008 	jr	$ra
  40ff70:	00000000 	nop
  40ff74:	03e00008 	jr	$ra
  40ff78:	b88c0003 	swr	$t4,3($a0)
  40ff7c:	a08a0002 	sb	$t2,2($a0)
  40ff80:	a0890001 	sb	$t1,1($a0)
  40ff84:	03e00008 	jr	$ra
  40ff88:	a0880000 	sb	$t0,0($a0)
  40ff8c:	00000000 	nop

0040ff90 <memchr>:
  40ff90:	00863821 	addu	$a3,$a0,$a2
  40ff94:	00801825 	move	$v1,$a0
  40ff98:	1087002c 	beq	$a0,$a3,41004c <memchr+0xbc>
  40ff9c:	00e01025 	move	$v0,$a3
  40ffa0:	00e44823 	subu	$t1,$a3,$a0
  40ffa4:	312e0003 	andi	$t6,$t1,0x3
  40ffa8:	11c0000c 	beqz	$t6,40ffdc <memchr+0x4c>
  40ffac:	01c43021 	addu	$a2,$t6,$a0
  40ffb0:	30a800ff 	andi	$t0,$a1,0xff
  40ffb4:	906f0000 	lbu	$t7,0($v1)
  40ffb8:	00000000 	nop
  40ffbc:	150f0003 	bne	$t0,$t7,40ffcc <memchr+0x3c>
  40ffc0:	00000000 	nop
  40ffc4:	03e00008 	jr	$ra
  40ffc8:	00601025 	move	$v0,$v1
  40ffcc:	24630001 	addiu	$v1,$v1,1
  40ffd0:	14c3fff8 	bne	$a2,$v1,40ffb4 <memchr+0x24>
  40ffd4:	00000000 	nop
  40ffd8:	1067001c 	beq	$v1,$a3,41004c <memchr+0xbc>
  40ffdc:	30a800ff 	andi	$t0,$a1,0xff
  40ffe0:	90780000 	lbu	$t8,0($v1)
  40ffe4:	00000000 	nop
  40ffe8:	15180003 	bne	$t0,$t8,40fff8 <memchr+0x68>
  40ffec:	00000000 	nop
  40fff0:	03e00008 	jr	$ra
  40fff4:	00601025 	move	$v0,$v1
  40fff8:	90790001 	lbu	$t9,1($v1)
  40fffc:	00000000 	nop
  410000:	15190003 	bne	$t0,$t9,410010 <memchr+0x80>
  410004:	00000000 	nop
  410008:	03e00008 	jr	$ra
  41000c:	24620001 	addiu	$v0,$v1,1
  410010:	906a0002 	lbu	$t2,2($v1)
  410014:	00000000 	nop
  410018:	150a0003 	bne	$t0,$t2,410028 <memchr+0x98>
  41001c:	00000000 	nop
  410020:	03e00008 	jr	$ra
  410024:	24620002 	addiu	$v0,$v1,2
  410028:	906b0003 	lbu	$t3,3($v1)
  41002c:	00000000 	nop
  410030:	150b0003 	bne	$t0,$t3,410040 <memchr+0xb0>
  410034:	00000000 	nop
  410038:	03e00008 	jr	$ra
  41003c:	24620003 	addiu	$v0,$v1,3
  410040:	24630004 	addiu	$v1,$v1,4
  410044:	1462ffe6 	bne	$v1,$v0,40ffe0 <memchr+0x50>
  410048:	00000000 	nop
  41004c:	00001025 	move	$v0,$zero
  410050:	03e00008 	jr	$ra
	...

00410060 <strchr>:
  410060:	30a600ff 	andi	$a2,$a1,0xff
  410064:	90820000 	lbu	$v0,0($a0)
  410068:	00000000 	nop
  41006c:	14c20003 	bne	$a2,$v0,41007c <strchr+0x1c>
  410070:	00000000 	nop
  410074:	03e00008 	jr	$ra
  410078:	00801025 	move	$v0,$a0
  41007c:	1440fff9 	bnez	$v0,410064 <strchr+0x4>
  410080:	24840001 	addiu	$a0,$a0,1
  410084:	00001025 	move	$v0,$zero
  410088:	03e00008 	jr	$ra
  41008c:	00000000 	nop

00410090 <strerror>:
  410090:	27bdffe8 	addiu	$sp,$sp,-24
  410094:	288103e8 	slti	$at,$a0,1000
  410098:	14200005 	bnez	$at,4100b0 <strerror+0x20>
  41009c:	afbf0014 	sw	$ra,20($sp)
  4100a0:	0c104304 	jal	410c10 <__irixerror>
  4100a4:	00000000 	nop
  4100a8:	10000011 	b	4100f0 <strerror+0x60>
  4100ac:	8fbf0014 	lw	$ra,20($sp)
  4100b0:	8f8e8a78 	lw	$t6,-30088($gp)
  4100b4:	00000000 	nop
  4100b8:	008e082a 	slt	$at,$a0,$t6
  4100bc:	14200005 	bnez	$at,4100d4 <strerror+0x44>
  4100c0:	00000000 	nop
  4100c4:	0c104320 	jal	410c80 <__svr4error>
  4100c8:	00000000 	nop
  4100cc:	10000008 	b	4100f0 <strerror+0x60>
  4100d0:	8fbf0014 	lw	$ra,20($sp)
  4100d4:	04800005 	bltz	$a0,4100ec <strerror+0x5c>
  4100d8:	00001025 	move	$v0,$zero
  4100dc:	0c10433c 	jal	410cf0 <__sys_errlisterror>
  4100e0:	00000000 	nop
  4100e4:	10000002 	b	4100f0 <strerror+0x60>
  4100e8:	8fbf0014 	lw	$ra,20($sp)
  4100ec:	8fbf0014 	lw	$ra,20($sp)
  4100f0:	27bd0018 	addiu	$sp,$sp,24
  4100f4:	03e00008 	jr	$ra
	...

00410100 <strncat>:
  410100:	90820000 	lbu	$v0,0($a0)
  410104:	00801825 	move	$v1,$a0
  410108:	24c60001 	addiu	$a2,$a2,1
  41010c:	10400005 	beqz	$v0,410124 <strncat+0x24>
  410110:	24840001 	addiu	$a0,$a0,1
  410114:	90820000 	lbu	$v0,0($a0)
  410118:	24840001 	addiu	$a0,$a0,1
  41011c:	1440fffd 	bnez	$v0,410114 <strncat+0x14>
  410120:	00000000 	nop
  410124:	90a20000 	lbu	$v0,0($a1)
  410128:	24840000 	addiu	$a0,$a0,0
  41012c:	24a50001 	addiu	$a1,$a1,1
  410130:	1040000c 	beqz	$v0,410164 <strncat+0x64>
  410134:	a082ffff 	sb	$v0,-1($a0)
  410138:	24c6ffff 	addiu	$a2,$a2,-1
  41013c:	14c00004 	bnez	$a2,410150 <strncat+0x50>
  410140:	00000000 	nop
  410144:	a080ffff 	sb	$zero,-1($a0)
  410148:	03e00008 	jr	$ra
  41014c:	00601025 	move	$v0,$v1
  410150:	90a20000 	lbu	$v0,0($a1)
  410154:	24840001 	addiu	$a0,$a0,1
  410158:	24a50001 	addiu	$a1,$a1,1
  41015c:	1440fff6 	bnez	$v0,410138 <strncat+0x38>
  410160:	a082ffff 	sb	$v0,-1($a0)
  410164:	03e00008 	jr	$ra
  410168:	00601025 	move	$v0,$v1
  41016c:	00000000 	nop

00410170 <strspn>:
  410170:	908e0000 	lbu	$t6,0($a0)
  410174:	00801825 	move	$v1,$a0
  410178:	11c00017 	beqz	$t6,4101d8 <strspn+0x68>
  41017c:	00000000 	nop
  410180:	90a60000 	lbu	$a2,0($a1)
  410184:	00000000 	nop
  410188:	10c0000b 	beqz	$a2,4101b8 <strspn+0x48>
  41018c:	00a01025 	move	$v0,$a1
  410190:	90680000 	lbu	$t0,0($v1)
  410194:	00000000 	nop
  410198:	10c80007 	beq	$a2,$t0,4101b8 <strspn+0x48>
  41019c:	00000000 	nop
  4101a0:	90470001 	lbu	$a3,1($v0)
  4101a4:	24420001 	addiu	$v0,$v0,1
  4101a8:	10e00003 	beqz	$a3,4101b8 <strspn+0x48>
  4101ac:	00000000 	nop
  4101b0:	14e8fffb 	bne	$a3,$t0,4101a0 <strspn+0x30>
  4101b4:	00000000 	nop
  4101b8:	904f0000 	lbu	$t7,0($v0)
  4101bc:	00000000 	nop
  4101c0:	11e00005 	beqz	$t7,4101d8 <strspn+0x68>
  4101c4:	00000000 	nop
  4101c8:	90780001 	lbu	$t8,1($v1)
  4101cc:	24630001 	addiu	$v1,$v1,1
  4101d0:	1700ffed 	bnez	$t8,410188 <strspn+0x18>
  4101d4:	00000000 	nop
  4101d8:	03e00008 	jr	$ra
  4101dc:	00641023 	subu	$v0,$v1,$a0

004101e0 <wctomb>:
  4101e0:	14800003 	bnez	$a0,4101f0 <wctomb+0x10>
  4101e4:	3c033000 	lui	$v1,0x3000
  4101e8:	03e00008 	jr	$ra
  4101ec:	00001025 	move	$v0,$zero
  4101f0:	00a31024 	and	$v0,$a1,$v1
  4101f4:	3c011000 	lui	$at,0x1000
  4101f8:	1041001b 	beq	$v0,$at,410268 <wctomb+0x88>
  4101fc:	3c012000 	lui	$at,0x2000
  410200:	10410023 	beq	$v0,$at,410290 <wctomb+0xb0>
  410204:	00000000 	nop
  410208:	1043000e 	beq	$v0,$v1,410244 <wctomb+0x64>
  41020c:	28a10100 	slti	$at,$a1,256
  410210:	10200008 	beqz	$at,410234 <wctomb+0x54>
  410214:	3c0e0042 	lui	$t6,0x42
  410218:	91cedb08 	lbu	$t6,-9464($t6)
  41021c:	24020001 	li	$v0,1
  410220:	29c10002 	slti	$at,$t6,2
  410224:	14200005 	bnez	$at,41023c <wctomb+0x5c>
  410228:	28a100a0 	slti	$at,$a1,160
  41022c:	14200003 	bnez	$at,41023c <wctomb+0x5c>
  410230:	00000000 	nop
  410234:	03e00008 	jr	$ra
  410238:	2402ffff 	li	$v0,-1
  41023c:	03e00008 	jr	$ra
  410240:	a0850000 	sb	$a1,0($a0)
  410244:	3c020042 	lui	$v0,0x42
  410248:	9042db02 	lbu	$v0,-9470($v0)
  41024c:	00000000 	nop
  410250:	14400003 	bnez	$v0,410260 <wctomb+0x80>
  410254:	00401825 	move	$v1,$v0
  410258:	03e00008 	jr	$ra
  41025c:	2402ffff 	li	$v0,-1
  410260:	10000014 	b	4102b4 <wctomb+0xd4>
  410264:	24060001 	li	$a2,1
  410268:	3c020042 	lui	$v0,0x42
  41026c:	9042db03 	lbu	$v0,-9469($v0)
  410270:	240f008e 	li	$t7,142
  410274:	14400003 	bnez	$v0,410284 <wctomb+0xa4>
  410278:	24430001 	addiu	$v1,$v0,1
  41027c:	03e00008 	jr	$ra
  410280:	2402ffff 	li	$v0,-1
  410284:	a08f0000 	sb	$t7,0($a0)
  410288:	1000000a 	b	4102b4 <wctomb+0xd4>
  41028c:	00003025 	move	$a2,$zero
  410290:	3c020042 	lui	$v0,0x42
  410294:	9042db04 	lbu	$v0,-9468($v0)
  410298:	2418008f 	li	$t8,143
  41029c:	14400003 	bnez	$v0,4102ac <wctomb+0xcc>
  4102a0:	24430001 	addiu	$v1,$v0,1
  4102a4:	03e00008 	jr	$ra
  4102a8:	2402ffff 	li	$v0,-1
  4102ac:	a0980000 	sb	$t8,0($a0)
  4102b0:	00003025 	move	$a2,$zero
  4102b4:	30480003 	andi	$t0,$v0,0x3
  4102b8:	00084023 	negu	$t0,$t0
  4102bc:	1100000a 	beqz	$t0,4102e8 <wctomb+0x108>
  4102c0:	00832021 	addu	$a0,$a0,$v1
  4102c4:	01023821 	addu	$a3,$t0,$v0
  4102c8:	34a90080 	ori	$t1,$a1,0x80
  4102cc:	000551c3 	sra	$t2,$a1,0x7
  4102d0:	2442ffff 	addiu	$v0,$v0,-1
  4102d4:	01402825 	move	$a1,$t2
  4102d8:	a089ffff 	sb	$t1,-1($a0)
  4102dc:	14e2fffa 	bne	$a3,$v0,4102c8 <wctomb+0xe8>
  4102e0:	2484ffff 	addiu	$a0,$a0,-1
  4102e4:	1040000f 	beqz	$v0,410324 <wctomb+0x144>
  4102e8:	000569c3 	sra	$t5,$a1,0x7
  4102ec:	34ac0080 	ori	$t4,$a1,0x80
  4102f0:	000dc1c3 	sra	$t8,$t5,0x7
  4102f4:	a08cffff 	sb	$t4,-1($a0)
  4102f8:	001851c3 	sra	$t2,$t8,0x7
  4102fc:	354c0080 	ori	$t4,$t2,0x80
  410300:	37090080 	ori	$t1,$t8,0x80
  410304:	35af0080 	ori	$t7,$t5,0x80
  410308:	2442fffc 	addiu	$v0,$v0,-4
  41030c:	a08ffffe 	sb	$t7,-2($a0)
  410310:	a089fffd 	sb	$t1,-3($a0)
  410314:	a08cfffc 	sb	$t4,-4($a0)
  410318:	000a29c3 	sra	$a1,$t2,0x7
  41031c:	1440fff2 	bnez	$v0,4102e8 <wctomb+0x108>
  410320:	2484fffc 	addiu	$a0,$a0,-4
  410324:	10c00008 	beqz	$a2,410348 <wctomb+0x168>
  410328:	00601025 	move	$v0,$v1
  41032c:	908e0000 	lbu	$t6,0($a0)
  410330:	00000000 	nop
  410334:	29c100a0 	slti	$at,$t6,160
  410338:	10200003 	beqz	$at,410348 <wctomb+0x168>
  41033c:	00000000 	nop
  410340:	03e00008 	jr	$ra
  410344:	2402ffff 	li	$v0,-1
  410348:	03e00008 	jr	$ra
  41034c:	00000000 	nop

00410350 <_access>:
  410350:	24020409 	li	$v0,1033
  410354:	0000000c 	syscall
  410358:	14e00003 	bnez	$a3,410368 <_access+0x18>
  41035c:	00000000 	nop
  410360:	03e00008 	jr	$ra
  410364:	00000000 	nop
  410368:	3c190040 	lui	$t9,0x40
  41036c:	27396b60 	addiu	$t9,$t9,27488
  410370:	03200008 	jr	$t9
	...

00410380 <_fchmod>:
  410380:	24020481 	li	$v0,1153
  410384:	0000000c 	syscall
  410388:	14e00003 	bnez	$a3,410398 <_fchmod+0x18>
  41038c:	00000000 	nop
  410390:	03e00008 	jr	$ra
  410394:	00000000 	nop
  410398:	3c190040 	lui	$t9,0x40
  41039c:	27396b60 	addiu	$t9,$t9,27488
  4103a0:	03200008 	jr	$t9
	...

004103b0 <_fcntl>:
  4103b0:	24020426 	li	$v0,1062
  4103b4:	0000000c 	syscall
  4103b8:	14e00003 	bnez	$a3,4103c8 <_fcntl+0x18>
  4103bc:	00000000 	nop
  4103c0:	03e00008 	jr	$ra
  4103c4:	00000000 	nop
  4103c8:	3c190040 	lui	$t9,0x40
  4103cc:	27396b60 	addiu	$t9,$t9,27488
  4103d0:	03200008 	jr	$t9
	...

004103e0 <_ioctl>:
  4103e0:	2402041e 	li	$v0,1054
  4103e4:	0000000c 	syscall
  4103e8:	14e00003 	bnez	$a3,4103f8 <_ioctl+0x18>
  4103ec:	00000000 	nop
  4103f0:	03e00008 	jr	$ra
  4103f4:	00000000 	nop
  4103f8:	3c190040 	lui	$t9,0x40
  4103fc:	27396b60 	addiu	$t9,$t9,27488
  410400:	03200008 	jr	$t9
	...

00410410 <_mmap>:
  410410:	2402046e 	li	$v0,1134
  410414:	0000000c 	syscall
  410418:	14e00003 	bnez	$a3,410428 <_mmap+0x18>
  41041c:	00000000 	nop
  410420:	03e00008 	jr	$ra
  410424:	00000000 	nop
  410428:	3c190040 	lui	$t9,0x40
  41042c:	27396b60 	addiu	$t9,$t9,27488
  410430:	03200008 	jr	$t9
	...

00410440 <_munmap>:
  410440:	2402046f 	li	$v0,1135
  410444:	0000000c 	syscall
  410448:	14e00003 	bnez	$a3,410458 <_munmap+0x18>
  41044c:	00000000 	nop
  410450:	03e00008 	jr	$ra
  410454:	00000000 	nop
  410458:	3c190040 	lui	$t9,0x40
  41045c:	27396b60 	addiu	$t9,$t9,27488
  410460:	03200008 	jr	$t9
	...

00410470 <_open>:
  410470:	240203ed 	li	$v0,1005
  410474:	0000000c 	syscall
  410478:	14e00003 	bnez	$a3,410488 <_open+0x18>
  41047c:	00000000 	nop
  410480:	03e00008 	jr	$ra
  410484:	00000000 	nop
  410488:	3c190040 	lui	$t9,0x40
  41048c:	27396b60 	addiu	$t9,$t9,27488
  410490:	03200008 	jr	$t9
	...

004104a0 <_sbrk>:
  4104a0:	8f838a54 	lw	$v1,-30124($gp)
  4104a4:	10800009 	beqz	$a0,4104cc <_sbrk+0x2c>
  4104a8:	00000000 	nop
  4104ac:	00832021 	addu	$a0,$a0,$v1
  4104b0:	240203f9 	li	$v0,1017
  4104b4:	0000000c 	syscall
  4104b8:	14e00006 	bnez	$a3,4104d4 <_sbrk+0x34>
  4104bc:	00000000 	nop
  4104c0:	00601025 	move	$v0,$v1
  4104c4:	03e00008 	jr	$ra
  4104c8:	af848a54 	sw	$a0,-30124($gp)
  4104cc:	03e00008 	jr	$ra
  4104d0:	00601025 	move	$v0,$v1
  4104d4:	3c190040 	lui	$t9,0x40
  4104d8:	27396b60 	addiu	$t9,$t9,27488
  4104dc:	03200008 	jr	$t9
  4104e0:	00000000 	nop

004104e4 <_brk>:
  4104e4:	8f828a50 	lw	$v0,-30128($gp)
  4104e8:	00000000 	nop
  4104ec:	0082082b 	sltu	$at,$a0,$v0
  4104f0:	10200002 	beqz	$at,4104fc <_brk+0x18>
  4104f4:	00000000 	nop
  4104f8:	00402025 	move	$a0,$v0
  4104fc:	240203f9 	li	$v0,1017
  410500:	0000000c 	syscall
  410504:	14e0fff3 	bnez	$a3,4104d4 <_sbrk+0x34>
  410508:	00000000 	nop
  41050c:	af848a54 	sw	$a0,-30124($gp)
  410510:	03e00008 	jr	$ra
  410514:	00001025 	move	$v0,$zero
	...

00410520 <_sginap>:
  410520:	2402043a 	li	$v0,1082
  410524:	0000000c 	syscall
  410528:	14e00003 	bnez	$a3,410538 <_sginap+0x18>
  41052c:	00000000 	nop
  410530:	03e00008 	jr	$ra
  410534:	00000000 	nop
  410538:	3c190040 	lui	$t9,0x40
  41053c:	27396b60 	addiu	$t9,$t9,27488
  410540:	03200008 	jr	$t9
	...

00410550 <_fstat>:
  410550:	27bdffe8 	addiu	$sp,$sp,-24
  410554:	00a03025 	move	$a2,$a1
  410558:	00802825 	move	$a1,$a0
  41055c:	afbf0014 	sw	$ra,20($sp)
  410560:	afa40018 	sw	$a0,24($sp)
  410564:	0c106224 	jal	418890 <_fxstat>
  410568:	24040002 	li	$a0,2
  41056c:	8fbf0014 	lw	$ra,20($sp)
  410570:	27bd0018 	addiu	$sp,$sp,24
  410574:	03e00008 	jr	$ra
	...

00410580 <_getpagesize>:
  410580:	27bdffe8 	addiu	$sp,$sp,-24
  410584:	afbf0014 	sw	$ra,20($sp)
  410588:	0c104168 	jal	4105a0 <_sysmp>
  41058c:	2404000e 	li	$a0,14
  410590:	8fbf0014 	lw	$ra,20($sp)
  410594:	27bd0018 	addiu	$sp,$sp,24
  410598:	03e00008 	jr	$ra
  41059c:	00000000 	nop

004105a0 <_sysmp>:
  4105a0:	27bdffe0 	addiu	$sp,$sp,-32
  4105a4:	afa50024 	sw	$a1,36($sp)
  4105a8:	afa60028 	sw	$a2,40($sp)
  4105ac:	afa7002c 	sw	$a3,44($sp)
  4105b0:	8fae002c 	lw	$t6,44($sp)
  4105b4:	8faf0030 	lw	$t7,48($sp)
  4105b8:	8fa70028 	lw	$a3,40($sp)
  4105bc:	8fa60024 	lw	$a2,36($sp)
  4105c0:	00802825 	move	$a1,$a0
  4105c4:	afbf001c 	sw	$ra,28($sp)
  4105c8:	afa40020 	sw	$a0,32($sp)
  4105cc:	24040420 	li	$a0,1056
  4105d0:	afae0010 	sw	$t6,16($sp)
  4105d4:	0c106260 	jal	418980 <_syscall>
  4105d8:	afaf0014 	sw	$t7,20($sp)
  4105dc:	8fbf001c 	lw	$ra,28($sp)
  4105e0:	27bd0020 	addiu	$sp,$sp,32
  4105e4:	03e00008 	jr	$ra
	...

004105f0 <_isatty>:
  4105f0:	27bdffb8 	addiu	$sp,$sp,-72
  4105f4:	afbf0014 	sw	$ra,20($sp)
  4105f8:	0c10202d 	jal	4080b4 <__oserror>
  4105fc:	afa40048 	sw	$a0,72($sp)
  410600:	8c4e0000 	lw	$t6,0($v0)
  410604:	8fa40048 	lw	$a0,72($sp)
  410608:	24055401 	li	$a1,21505
  41060c:	27a60020 	addiu	$a2,$sp,32
  410610:	0c1040f8 	jal	4103e0 <_ioctl>
  410614:	afae001c 	sw	$t6,28($sp)
  410618:	04410007 	bgez	$v0,410638 <_isatty+0x48>
  41061c:	24020001 	li	$v0,1
  410620:	8fa4001c 	lw	$a0,28($sp)
  410624:	0c102025 	jal	408094 <_setoserror>
  410628:	00000000 	nop
  41062c:	10000002 	b	410638 <_isatty+0x48>
  410630:	00001025 	move	$v0,$zero
  410634:	24020001 	li	$v0,1
  410638:	8fbf0014 	lw	$ra,20($sp)
  41063c:	27bd0048 	addiu	$sp,$sp,72
  410640:	03e00008 	jr	$ra
	...

00410650 <abort>:
  410650:	27bdffe0 	addiu	$sp,$sp,-32
  410654:	afbf0014 	sw	$ra,20($sp)
  410658:	24040006 	li	$a0,6
  41065c:	0c106100 	jal	418400 <signal>
  410660:	00002825 	move	$a1,$zero
  410664:	10400006 	beqz	$v0,410680 <abort+0x30>
  410668:	afa2001c 	sw	$v0,28($sp)
  41066c:	24040006 	li	$a0,6
  410670:	0c106100 	jal	418400 <signal>
  410674:	00402825 	move	$a1,$v0
  410678:	10000009 	b	4106a0 <abort+0x50>
  41067c:	8fae001c 	lw	$t6,28($sp)
  410680:	8f828a60 	lw	$v0,-30112($gp)
  410684:	24010001 	li	$at,1
  410688:	24420001 	addiu	$v0,$v0,1
  41068c:	14410003 	bne	$v0,$at,41069c <abort+0x4c>
  410690:	af828a60 	sw	$v0,-30112($gp)
  410694:	0c101b2d 	jal	406cb4 <_exithandle>
  410698:	00000000 	nop
  41069c:	8fae001c 	lw	$t6,28($sp)
  4106a0:	00000000 	nop
  4106a4:	15c00003 	bnez	$t6,4106b4 <abort+0x64>
  4106a8:	00000000 	nop
  4106ac:	0c1015f0 	jal	4057c0 <_cleanup>
  4106b0:	00000000 	nop
  4106b4:	0c106038 	jal	4180e0 <raise>
  4106b8:	24040006 	li	$a0,6
  4106bc:	24040006 	li	$a0,6
  4106c0:	0c106100 	jal	418400 <signal>
  4106c4:	00002825 	move	$a1,$zero
  4106c8:	0c1015f0 	jal	4057c0 <_cleanup>
  4106cc:	00000000 	nop
  4106d0:	0c106038 	jal	4180e0 <raise>
  4106d4:	24040006 	li	$a0,6
  4106d8:	0c1015d0 	jal	405740 <__exit>
  4106dc:	24040001 	li	$a0,1
  4106e0:	8fbf0014 	lw	$ra,20($sp)
  4106e4:	27bd0020 	addiu	$sp,$sp,32
  4106e8:	03e00008 	jr	$ra
  4106ec:	00000000 	nop

004106f0 <_calloc>:
  4106f0:	27bdffe0 	addiu	$sp,$sp,-32
  4106f4:	afbf0014 	sw	$ra,20($sp)
  4106f8:	10800003 	beqz	$a0,410708 <_calloc+0x18>
  4106fc:	00a03025 	move	$a2,$a1
  410700:	14a00003 	bnez	$a1,410710 <_calloc+0x20>
  410704:	00000000 	nop
  410708:	1000000e 	b	410744 <_calloc+0x54>
  41070c:	00002825 	move	$a1,$zero
  410710:	00860019 	multu	$a0,$a2
  410714:	00001012 	mflo	$v0
  410718:	00402825 	move	$a1,$v0
  41071c:	00000000 	nop
  410720:	0044001b 	divu	$zero,$v0,$a0
  410724:	14800002 	bnez	$a0,410730 <_calloc+0x40>
  410728:	00000000 	nop
  41072c:	0007000d 	break	0x7
  410730:	00007012 	mflo	$t6
  410734:	10ce0004 	beq	$a2,$t6,410748 <_calloc+0x58>
  410738:	00a02025 	move	$a0,$a1
  41073c:	1000000c 	b	410770 <_calloc+0x80>
  410740:	00001025 	move	$v0,$zero
  410744:	00a02025 	move	$a0,$a1
  410748:	0c101bd2 	jal	406f48 <_malloc>
  41074c:	afa50018 	sw	$a1,24($sp)
  410750:	8fa50018 	lw	$a1,24($sp)
  410754:	10400005 	beqz	$v0,41076c <_calloc+0x7c>
  410758:	00402025 	move	$a0,$v0
  41075c:	0c1061c8 	jal	418720 <_blkclr>
  410760:	afa2001c 	sw	$v0,28($sp)
  410764:	8fa4001c 	lw	$a0,28($sp)
  410768:	00000000 	nop
  41076c:	00801025 	move	$v0,$a0
  410770:	8fbf0014 	lw	$ra,20($sp)
  410774:	27bd0020 	addiu	$sp,$sp,32
  410778:	03e00008 	jr	$ra
  41077c:	00000000 	nop

00410780 <getenv>:
  410780:	27bdffe0 	addiu	$sp,$sp,-32
  410784:	afb00014 	sw	$s0,20($sp)
  410788:	8f908020 	lw	$s0,-32736($gp)
  41078c:	afb10018 	sw	$s1,24($sp)
  410790:	00808825 	move	$s1,$a0
  410794:	16000003 	bnez	$s0,4107a4 <getenv+0x24>
  410798:	afbf001c 	sw	$ra,28($sp)
  41079c:	10000015 	b	4107f4 <getenv+0x74>
  4107a0:	00001025 	move	$v0,$zero
  4107a4:	8f8e8020 	lw	$t6,-32736($gp)
  4107a8:	00000000 	nop
  4107ac:	8dcf0000 	lw	$t7,0($t6)
  4107b0:	00000000 	nop
  4107b4:	11e0000f 	beqz	$t7,4107f4 <getenv+0x74>
  4107b8:	00001025 	move	$v0,$zero
  4107bc:	8e050000 	lw	$a1,0($s0)
  4107c0:	00000000 	nop
  4107c4:	02202025 	move	$a0,$s1
  4107c8:	0c104202 	jal	410808 <getenv+0x88>
  4107cc:	26100004 	addiu	$s0,$s0,4
  4107d0:	10400003 	beqz	$v0,4107e0 <getenv+0x60>
  4107d4:	00000000 	nop
  4107d8:	10000007 	b	4107f8 <getenv+0x78>
  4107dc:	8fbf001c 	lw	$ra,28($sp)
  4107e0:	8e050000 	lw	$a1,0($s0)
  4107e4:	00000000 	nop
  4107e8:	14a0fff7 	bnez	$a1,4107c8 <getenv+0x48>
  4107ec:	02202025 	move	$a0,$s1
  4107f0:	00001025 	move	$v0,$zero
  4107f4:	8fbf001c 	lw	$ra,28($sp)
  4107f8:	8fb00014 	lw	$s0,20($sp)
  4107fc:	8fb10018 	lw	$s1,24($sp)
  410800:	03e00008 	jr	$ra
  410804:	27bd0020 	addiu	$sp,$sp,32
  410808:	90830000 	lbu	$v1,0($a0)
  41080c:	90ae0000 	lbu	$t6,0($a1)
  410810:	24a50001 	addiu	$a1,$a1,1
  410814:	146e000a 	bne	$v1,$t6,410840 <getenv+0xc0>
  410818:	2406003d 	li	$a2,61
  41081c:	14c30003 	bne	$a2,$v1,41082c <getenv+0xac>
  410820:	24840001 	addiu	$a0,$a0,1
  410824:	03e00008 	jr	$ra
  410828:	00a01025 	move	$v0,$a1
  41082c:	90830000 	lbu	$v1,0($a0)
  410830:	90af0000 	lbu	$t7,0($a1)
  410834:	24a50001 	addiu	$a1,$a1,1
  410838:	106ffff8 	beq	$v1,$t7,41081c <getenv+0x9c>
  41083c:	00000000 	nop
  410840:	14600007 	bnez	$v1,410860 <getenv+0xe0>
  410844:	2406003d 	li	$a2,61
  410848:	90b8ffff 	lbu	$t8,-1($a1)
  41084c:	00000000 	nop
  410850:	14d80004 	bne	$a2,$t8,410864 <getenv+0xe4>
  410854:	00001025 	move	$v0,$zero
  410858:	03e00008 	jr	$ra
  41085c:	00a01025 	move	$v0,$a1
  410860:	00001025 	move	$v0,$zero
  410864:	03e00008 	jr	$ra
	...

00410870 <_bset>:
  410870:	000570c2 	srl	$t6,$a1,0x3
  410874:	01c41021 	addu	$v0,$t6,$a0
  410878:	904f0000 	lbu	$t7,0($v0)
  41087c:	30b80007 	andi	$t8,$a1,0x7
  410880:	24190001 	li	$t9,1
  410884:	03194004 	sllv	$t0,$t9,$t8
  410888:	01e84825 	or	$t1,$t7,$t0
  41088c:	03e00008 	jr	$ra
  410890:	a0490000 	sb	$t1,0($v0)

00410894 <_bclr>:
  410894:	000570c2 	srl	$t6,$a1,0x3
  410898:	01c41021 	addu	$v0,$t6,$a0
  41089c:	30b80007 	andi	$t8,$a1,0x7
  4108a0:	24190001 	li	$t9,1
  4108a4:	904f0000 	lbu	$t7,0($v0)
  4108a8:	03194004 	sllv	$t0,$t9,$t8
  4108ac:	01004827 	nor	$t1,$t0,$zero
  4108b0:	01e95024 	and	$t2,$t7,$t1
  4108b4:	03e00008 	jr	$ra
  4108b8:	a04a0000 	sb	$t2,0($v0)

004108bc <_btst>:
  4108bc:	000570c2 	srl	$t6,$a1,0x3
  4108c0:	01c47821 	addu	$t7,$t6,$a0
  4108c4:	91f80000 	lbu	$t8,0($t7)
  4108c8:	30b90007 	andi	$t9,$a1,0x7
  4108cc:	24080001 	li	$t0,1
  4108d0:	03284804 	sllv	$t1,$t0,$t9
  4108d4:	03e00008 	jr	$ra
  4108d8:	03091024 	and	$v0,$t8,$t1

004108dc <_bfset>:
  4108dc:	00c01025 	move	$v0,$a2
  4108e0:	10c0000d 	beqz	$a2,410918 <_bfset+0x3c>
  4108e4:	24c6ffff 	addiu	$a2,$a2,-1
  4108e8:	000570c2 	srl	$t6,$a1,0x3
  4108ec:	01c41821 	addu	$v1,$t6,$a0
  4108f0:	906f0000 	lbu	$t7,0($v1)
  4108f4:	30b80007 	andi	$t8,$a1,0x7
  4108f8:	24190001 	li	$t9,1
  4108fc:	03194004 	sllv	$t0,$t9,$t8
  410900:	00c01025 	move	$v0,$a2
  410904:	01e84825 	or	$t1,$t7,$t0
  410908:	a0690000 	sb	$t1,0($v1)
  41090c:	24a50001 	addiu	$a1,$a1,1
  410910:	14c0fff5 	bnez	$a2,4108e8 <_bfset+0xc>
  410914:	24c6ffff 	addiu	$a2,$a2,-1
  410918:	03e00008 	jr	$ra
  41091c:	00000000 	nop

00410920 <_bfclr>:
  410920:	00c01025 	move	$v0,$a2
  410924:	10c0000e 	beqz	$a2,410960 <_bfclr+0x40>
  410928:	24c6ffff 	addiu	$a2,$a2,-1
  41092c:	000570c2 	srl	$t6,$a1,0x3
  410930:	01c41821 	addu	$v1,$t6,$a0
  410934:	30b80007 	andi	$t8,$a1,0x7
  410938:	24190001 	li	$t9,1
  41093c:	906f0000 	lbu	$t7,0($v1)
  410940:	03194004 	sllv	$t0,$t9,$t8
  410944:	01004827 	nor	$t1,$t0,$zero
  410948:	00c01025 	move	$v0,$a2
  41094c:	01e95024 	and	$t2,$t7,$t1
  410950:	a06a0000 	sb	$t2,0($v1)
  410954:	24a50001 	addiu	$a1,$a1,1
  410958:	14c0fff4 	bnez	$a2,41092c <_bfclr+0xc>
  41095c:	24c6ffff 	addiu	$a2,$a2,-1
  410960:	03e00008 	jr	$ra
  410964:	00000000 	nop

00410968 <_bftstset>:
  410968:	308e0001 	andi	$t6,$a0,0x1
  41096c:	27bdfff0 	addiu	$sp,$sp,-16
  410970:	00a03825 	move	$a3,$a1
  410974:	15c00005 	bnez	$t6,41098c <_bftstset+0x24>
  410978:	00001825 	move	$v1,$zero
  41097c:	8fa20004 	lw	$v0,4($sp)
  410980:	00000000 	nop
  410984:	24420001 	addiu	$v0,$v0,1
  410988:	afa20004 	sw	$v0,4($sp)
  41098c:	8fa20004 	lw	$v0,4($sp)
  410990:	308f0002 	andi	$t7,$a0,0x2
  410994:	15e00005 	bnez	$t7,4109ac <_bftstset+0x44>
  410998:	240a00ff 	li	$t2,255
  41099c:	8fa50008 	lw	$a1,8($sp)
  4109a0:	00000000 	nop
  4109a4:	24a50001 	addiu	$a1,$a1,1
  4109a8:	afa50008 	sw	$a1,8($sp)
  4109ac:	8fa50008 	lw	$a1,8($sp)
  4109b0:	10c00040 	beqz	$a2,410ab4 <_bftstset+0x14c>
  4109b4:	27bd0010 	addiu	$sp,$sp,16
  4109b8:	3409ffff 	li	$t1,0xffff
  4109bc:	2408ffff 	li	$t0,-1
  4109c0:	30f80007 	andi	$t8,$a3,0x7
  4109c4:	1700002d 	bnez	$t8,410a7c <_bftstset+0x114>
  4109c8:	00000000 	nop
  4109cc:	1040001f 	beqz	$v0,410a4c <_bftstset+0xe4>
  4109d0:	30f9000f 	andi	$t9,$a3,0xf
  4109d4:	1720001e 	bnez	$t9,410a50 <_bftstset+0xe8>
  4109d8:	2cc10008 	sltiu	$at,$a2,8
  4109dc:	10a0000f 	beqz	$a1,410a1c <_bftstset+0xb4>
  4109e0:	30eb001f 	andi	$t3,$a3,0x1f
  4109e4:	1560000d 	bnez	$t3,410a1c <_bftstset+0xb4>
  4109e8:	2cc10020 	sltiu	$at,$a2,32
  4109ec:	1420000b 	bnez	$at,410a1c <_bftstset+0xb4>
  4109f0:	000760c2 	srl	$t4,$a3,0x3
  4109f4:	01846821 	addu	$t5,$t4,$a0
  4109f8:	8dae0000 	lw	$t6,0($t5)
  4109fc:	00000000 	nop
  410a00:	150e0007 	bne	$t0,$t6,410a20 <_bftstset+0xb8>
  410a04:	2cc10010 	sltiu	$at,$a2,16
  410a08:	24c6ffe0 	addiu	$a2,$a2,-32
  410a0c:	2cc10020 	sltiu	$at,$a2,32
  410a10:	24e70020 	addiu	$a3,$a3,32
  410a14:	1020fff6 	beqz	$at,4109f0 <_bftstset+0x88>
  410a18:	24630020 	addiu	$v1,$v1,32
  410a1c:	2cc10010 	sltiu	$at,$a2,16
  410a20:	1420000a 	bnez	$at,410a4c <_bftstset+0xe4>
  410a24:	000778c2 	srl	$t7,$a3,0x3
  410a28:	01e4c021 	addu	$t8,$t7,$a0
  410a2c:	97190000 	lhu	$t9,0($t8)
  410a30:	00000000 	nop
  410a34:	15390006 	bne	$t1,$t9,410a50 <_bftstset+0xe8>
  410a38:	2cc10008 	sltiu	$at,$a2,8
  410a3c:	24e70010 	addiu	$a3,$a3,16
  410a40:	24c6fff0 	addiu	$a2,$a2,-16
  410a44:	10000019 	b	410aac <_bftstset+0x144>
  410a48:	24630010 	addiu	$v1,$v1,16
  410a4c:	2cc10008 	sltiu	$at,$a2,8
  410a50:	1420000a 	bnez	$at,410a7c <_bftstset+0x114>
  410a54:	000758c2 	srl	$t3,$a3,0x3
  410a58:	01646021 	addu	$t4,$t3,$a0
  410a5c:	918d0000 	lbu	$t5,0($t4)
  410a60:	00000000 	nop
  410a64:	154d0005 	bne	$t2,$t5,410a7c <_bftstset+0x114>
  410a68:	00000000 	nop
  410a6c:	24e70008 	addiu	$a3,$a3,8
  410a70:	24c6fff8 	addiu	$a2,$a2,-8
  410a74:	1000000d 	b	410aac <_bftstset+0x144>
  410a78:	24630008 	addiu	$v1,$v1,8
  410a7c:	10c0000d 	beqz	$a2,410ab4 <_bftstset+0x14c>
  410a80:	000770c2 	srl	$t6,$a3,0x3
  410a84:	01c47821 	addu	$t7,$t6,$a0
  410a88:	91f80000 	lbu	$t8,0($t7)
  410a8c:	30f90007 	andi	$t9,$a3,0x7
  410a90:	240b0001 	li	$t3,1
  410a94:	032b6004 	sllv	$t4,$t3,$t9
  410a98:	030c6824 	and	$t5,$t8,$t4
  410a9c:	11a00005 	beqz	$t5,410ab4 <_bftstset+0x14c>
  410aa0:	24e70001 	addiu	$a3,$a3,1
  410aa4:	24c6ffff 	addiu	$a2,$a2,-1
  410aa8:	24630001 	addiu	$v1,$v1,1
  410aac:	14c0ffc5 	bnez	$a2,4109c4 <_bftstset+0x5c>
  410ab0:	30f80007 	andi	$t8,$a3,0x7
  410ab4:	03e00008 	jr	$ra
  410ab8:	00601025 	move	$v0,$v1

00410abc <_bftstclr>:
  410abc:	308e0001 	andi	$t6,$a0,0x1
  410ac0:	27bdfff0 	addiu	$sp,$sp,-16
  410ac4:	15c00005 	bnez	$t6,410adc <_bftstclr+0x20>
  410ac8:	00a03825 	move	$a3,$a1
  410acc:	8fa20004 	lw	$v0,4($sp)
  410ad0:	00000000 	nop
  410ad4:	24420001 	addiu	$v0,$v0,1
  410ad8:	afa20004 	sw	$v0,4($sp)
  410adc:	8fa20004 	lw	$v0,4($sp)
  410ae0:	308f0002 	andi	$t7,$a0,0x2
  410ae4:	15e00006 	bnez	$t7,410b00 <_bftstclr+0x44>
  410ae8:	8fa30008 	lw	$v1,8($sp)
  410aec:	8fa30008 	lw	$v1,8($sp)
  410af0:	00000000 	nop
  410af4:	24630001 	addiu	$v1,$v1,1
  410af8:	afa30008 	sw	$v1,8($sp)
  410afc:	8fa30008 	lw	$v1,8($sp)
  410b00:	10c0003e 	beqz	$a2,410bfc <_bftstclr+0x140>
  410b04:	00002825 	move	$a1,$zero
  410b08:	30f80007 	andi	$t8,$a3,0x7
  410b0c:	1700002d 	bnez	$t8,410bc4 <_bftstclr+0x108>
  410b10:	00000000 	nop
  410b14:	1040001f 	beqz	$v0,410b94 <_bftstclr+0xd8>
  410b18:	30f9000f 	andi	$t9,$a3,0xf
  410b1c:	1720001e 	bnez	$t9,410b98 <_bftstclr+0xdc>
  410b20:	2cc10008 	sltiu	$at,$a2,8
  410b24:	1060000f 	beqz	$v1,410b64 <_bftstclr+0xa8>
  410b28:	30e8001f 	andi	$t0,$a3,0x1f
  410b2c:	1500000d 	bnez	$t0,410b64 <_bftstclr+0xa8>
  410b30:	2cc10020 	sltiu	$at,$a2,32
  410b34:	1420000b 	bnez	$at,410b64 <_bftstclr+0xa8>
  410b38:	000748c2 	srl	$t1,$a3,0x3
  410b3c:	01245021 	addu	$t2,$t1,$a0
  410b40:	8d4b0000 	lw	$t3,0($t2)
  410b44:	00000000 	nop
  410b48:	15600007 	bnez	$t3,410b68 <_bftstclr+0xac>
  410b4c:	2cc10010 	sltiu	$at,$a2,16
  410b50:	24c6ffe0 	addiu	$a2,$a2,-32
  410b54:	2cc10020 	sltiu	$at,$a2,32
  410b58:	24e70020 	addiu	$a3,$a3,32
  410b5c:	1020fff6 	beqz	$at,410b38 <_bftstclr+0x7c>
  410b60:	24a50020 	addiu	$a1,$a1,32
  410b64:	2cc10010 	sltiu	$at,$a2,16
  410b68:	1420000a 	bnez	$at,410b94 <_bftstclr+0xd8>
  410b6c:	000760c2 	srl	$t4,$a3,0x3
  410b70:	01846821 	addu	$t5,$t4,$a0
  410b74:	95ae0000 	lhu	$t6,0($t5)
  410b78:	00000000 	nop
  410b7c:	15c00006 	bnez	$t6,410b98 <_bftstclr+0xdc>
  410b80:	2cc10008 	sltiu	$at,$a2,8
  410b84:	24e70010 	addiu	$a3,$a3,16
  410b88:	24c6fff0 	addiu	$a2,$a2,-16
  410b8c:	10000019 	b	410bf4 <_bftstclr+0x138>
  410b90:	24a50010 	addiu	$a1,$a1,16
  410b94:	2cc10008 	sltiu	$at,$a2,8
  410b98:	1420000a 	bnez	$at,410bc4 <_bftstclr+0x108>
  410b9c:	000778c2 	srl	$t7,$a3,0x3
  410ba0:	01e4c021 	addu	$t8,$t7,$a0
  410ba4:	93190000 	lbu	$t9,0($t8)
  410ba8:	00000000 	nop
  410bac:	17200005 	bnez	$t9,410bc4 <_bftstclr+0x108>
  410bb0:	00000000 	nop
  410bb4:	24e70008 	addiu	$a3,$a3,8
  410bb8:	24c6fff8 	addiu	$a2,$a2,-8
  410bbc:	1000000d 	b	410bf4 <_bftstclr+0x138>
  410bc0:	24a50008 	addiu	$a1,$a1,8
  410bc4:	10c0000d 	beqz	$a2,410bfc <_bftstclr+0x140>
  410bc8:	000740c2 	srl	$t0,$a3,0x3
  410bcc:	01044821 	addu	$t1,$t0,$a0
  410bd0:	912a0000 	lbu	$t2,0($t1)
  410bd4:	30eb0007 	andi	$t3,$a3,0x7
  410bd8:	240c0001 	li	$t4,1
  410bdc:	016c6804 	sllv	$t5,$t4,$t3
  410be0:	014d7024 	and	$t6,$t2,$t5
  410be4:	15c00005 	bnez	$t6,410bfc <_bftstclr+0x140>
  410be8:	24e70001 	addiu	$a3,$a3,1
  410bec:	24c6ffff 	addiu	$a2,$a2,-1
  410bf0:	24a50001 	addiu	$a1,$a1,1
  410bf4:	14c0ffc5 	bnez	$a2,410b0c <_bftstclr+0x50>
  410bf8:	30f80007 	andi	$t8,$a3,0x7
  410bfc:	00a01025 	move	$v0,$a1
  410c00:	03e00008 	jr	$ra
  410c04:	27bd0010 	addiu	$sp,$sp,16
	...

00410c10 <__irixerror>:
  410c10:	27bdffe8 	addiu	$sp,$sp,-24
  410c14:	3c030042 	lui	$v1,0x42
  410c18:	2462d8c4 	addiu	$v0,$v1,-10044
  410c1c:	afbf0014 	sw	$ra,20($sp)
  410c20:	8c4e0000 	lw	$t6,0($v0)
  410c24:	3c0f0042 	lui	$t7,0x42
  410c28:	11c00010 	beqz	$t6,410c6c <__irixerror+0x5c>
  410c2c:	25efd8c4 	addiu	$t7,$t7,-10044
  410c30:	8de30000 	lw	$v1,0($t7)
  410c34:	00000000 	nop
  410c38:	14830008 	bne	$a0,$v1,410c5c <__irixerror+0x4c>
  410c3c:	00000000 	nop
  410c40:	3c040042 	lui	$a0,0x42
  410c44:	8c450004 	lw	$a1,4($v0)
  410c48:	8c460008 	lw	$a2,8($v0)
  410c4c:	0c10437e 	jal	410df8 <__gtxt>
  410c50:	2484bf50 	addiu	$a0,$a0,-16560
  410c54:	10000007 	b	410c74 <__irixerror+0x64>
  410c58:	8fbf0014 	lw	$ra,20($sp)
  410c5c:	8c43000c 	lw	$v1,12($v0)
  410c60:	2442000c 	addiu	$v0,$v0,12
  410c64:	1460fff4 	bnez	$v1,410c38 <__irixerror+0x28>
  410c68:	00000000 	nop
  410c6c:	00001025 	move	$v0,$zero
  410c70:	8fbf0014 	lw	$ra,20($sp)
  410c74:	27bd0018 	addiu	$sp,$sp,24
  410c78:	03e00008 	jr	$ra
  410c7c:	00000000 	nop

00410c80 <__svr4error>:
  410c80:	27bdffe8 	addiu	$sp,$sp,-24
  410c84:	3c030042 	lui	$v1,0x42
  410c88:	2462d8a0 	addiu	$v0,$v1,-10080
  410c8c:	afbf0014 	sw	$ra,20($sp)
  410c90:	8c4e0000 	lw	$t6,0($v0)
  410c94:	3c0f0042 	lui	$t7,0x42
  410c98:	11c00010 	beqz	$t6,410cdc <__svr4error+0x5c>
  410c9c:	25efd8a0 	addiu	$t7,$t7,-10080
  410ca0:	8de30000 	lw	$v1,0($t7)
  410ca4:	00000000 	nop
  410ca8:	14830008 	bne	$a0,$v1,410ccc <__svr4error+0x4c>
  410cac:	00000000 	nop
  410cb0:	3c040042 	lui	$a0,0x42
  410cb4:	8c450004 	lw	$a1,4($v0)
  410cb8:	8c460008 	lw	$a2,8($v0)
  410cbc:	0c10437e 	jal	410df8 <__gtxt>
  410cc0:	2484bf5c 	addiu	$a0,$a0,-16548
  410cc4:	10000007 	b	410ce4 <__svr4error+0x64>
  410cc8:	8fbf0014 	lw	$ra,20($sp)
  410ccc:	8c43000c 	lw	$v1,12($v0)
  410cd0:	2442000c 	addiu	$v0,$v0,12
  410cd4:	1460fff4 	bnez	$v1,410ca8 <__svr4error+0x28>
  410cd8:	00000000 	nop
  410cdc:	00001025 	move	$v0,$zero
  410ce0:	8fbf0014 	lw	$ra,20($sp)
  410ce4:	27bd0018 	addiu	$sp,$sp,24
  410ce8:	03e00008 	jr	$ra
  410cec:	00000000 	nop

00410cf0 <__sys_errlisterror>:
  410cf0:	00041080 	sll	$v0,$a0,0x2
  410cf4:	3c050042 	lui	$a1,0x42
  410cf8:	00a22821 	addu	$a1,$a1,$v0
  410cfc:	8ca5bf70 	lw	$a1,-16528($a1)
  410d00:	27bdffe8 	addiu	$sp,$sp,-24
  410d04:	000573c0 	sll	$t6,$a1,0xf
  410d08:	05c10007 	bgez	$t6,410d28 <__sys_errlisterror+0x38>
  410d0c:	afbf0014 	sw	$ra,20($sp)
  410d10:	3c01fffe 	lui	$at,0xfffe
  410d14:	3c040042 	lui	$a0,0x42
  410d18:	00a17824 	and	$t7,$a1,$at
  410d1c:	2484bf50 	addiu	$a0,$a0,-16560
  410d20:	10000003 	b	410d30 <__sys_errlisterror+0x40>
  410d24:	01e02825 	move	$a1,$t7
  410d28:	3c040042 	lui	$a0,0x42
  410d2c:	2484bf5c 	addiu	$a0,$a0,-16548
  410d30:	3c060042 	lui	$a2,0x42
  410d34:	00c23021 	addu	$a2,$a2,$v0
  410d38:	8cc6d640 	lw	$a2,-10688($a2)
  410d3c:	0c10437e 	jal	410df8 <__gtxt>
  410d40:	00000000 	nop
  410d44:	8fbf0014 	lw	$ra,20($sp)
  410d48:	27bd0018 	addiu	$sp,$sp,24
  410d4c:	03e00008 	jr	$ra
	...

00410d60 <_setcat>:
  410d60:	8f8e88bc 	lw	$t6,-30532($gp)
  410d64:	27bdffe0 	addiu	$sp,$sp,-32
  410d68:	afbf0014 	sw	$ra,20($sp)
  410d6c:	11c00008 	beqz	$t6,410d90 <_setcat+0x30>
  410d70:	00802825 	move	$a1,$a0
  410d74:	8f84aed8 	lw	$a0,-20776($gp)
  410d78:	0c102034 	jal	4080d0 <_uspsema>
  410d7c:	afa50020 	sw	$a1,32($sp)
  410d80:	8fa50020 	lw	$a1,32($sp)
  410d84:	38430001 	xori	$v1,$v0,0x1
  410d88:	10000002 	b	410d94 <_setcat+0x34>
  410d8c:	2c630001 	sltiu	$v1,$v1,1
  410d90:	00001825 	move	$v1,$zero
  410d94:	10a00008 	beqz	$a1,410db8 <_setcat+0x58>
  410d98:	3c040042 	lui	$a0,0x42
  410d9c:	24840d10 	addiu	$a0,$a0,3344
  410da0:	2406000e 	li	$a2,14
  410da4:	0c1061f0 	jal	4187c0 <strncpy>
  410da8:	afa3001c 	sw	$v1,28($sp)
  410dac:	3c010042 	lui	$at,0x42
  410db0:	8fa3001c 	lw	$v1,28($sp)
  410db4:	a0200d1e 	sb	$zero,3358($at)
  410db8:	10600004 	beqz	$v1,410dcc <_setcat+0x6c>
  410dbc:	00000000 	nop
  410dc0:	8f84aed8 	lw	$a0,-20776($gp)
  410dc4:	0c10203c 	jal	4080f0 <_usvsema>
  410dc8:	00000000 	nop
  410dcc:	3c0f0042 	lui	$t7,0x42
  410dd0:	91ef0d10 	lbu	$t7,3344($t7)
  410dd4:	8fbf0014 	lw	$ra,20($sp)
  410dd8:	11e00004 	beqz	$t7,410dec <_setcat+0x8c>
  410ddc:	27bd0020 	addiu	$sp,$sp,32
  410de0:	3c030042 	lui	$v1,0x42
  410de4:	10000002 	b	410df0 <_setcat+0x90>
  410de8:	24630d10 	addiu	$v1,$v1,3344
  410dec:	00001825 	move	$v1,$zero
  410df0:	03e00008 	jr	$ra
  410df4:	00601025 	move	$v0,$v1

00410df8 <__gtxt>:
  410df8:	27bdfb08 	addiu	$sp,$sp,-1272
  410dfc:	afbf0044 	sw	$ra,68($sp)
  410e00:	afb60038 	sw	$s6,56($sp)
  410e04:	00a0b025 	move	$s6,$a1
  410e08:	afbe0040 	sw	$s8,64($sp)
  410e0c:	afb7003c 	sw	$s7,60($sp)
  410e10:	afb50034 	sw	$s5,52($sp)
  410e14:	afb40030 	sw	$s4,48($sp)
  410e18:	afb3002c 	sw	$s3,44($sp)
  410e1c:	afb20028 	sw	$s2,40($sp)
  410e20:	afb10024 	sw	$s1,36($sp)
  410e24:	afb00020 	sw	$s0,32($sp)
  410e28:	afa404f8 	sw	$a0,1272($sp)
  410e2c:	0c10202d 	jal	4080b4 <__oserror>
  410e30:	afa60500 	sw	$a2,1280($sp)
  410e34:	8c4e0000 	lw	$t6,0($v0)
  410e38:	8f8f88bc 	lw	$t7,-30532($gp)
  410e3c:	8f84aed8 	lw	$a0,-20776($gp)
  410e40:	11e00007 	beqz	$t7,410e60 <__gtxt+0x68>
  410e44:	afae00ec 	sw	$t6,236($sp)
  410e48:	0c102034 	jal	4080d0 <_uspsema>
  410e4c:	00000000 	nop
  410e50:	38580001 	xori	$t8,$v0,0x1
  410e54:	2f180001 	sltiu	$t8,$t8,1
  410e58:	10000002 	b	410e64 <__gtxt+0x6c>
  410e5c:	afb80054 	sw	$t8,84($sp)
  410e60:	afa00054 	sw	$zero,84($sp)
  410e64:	06c0010d 	bltz	$s6,41129c <__gtxt+0x4a4>
  410e68:	8faa0054 	lw	$t2,84($sp)
  410e6c:	8f92af20 	lw	$s2,-20704($gp)
  410e70:	00000000 	nop
  410e74:	1640000a 	bnez	$s2,410ea0 <__gtxt+0xa8>
  410e78:	8fb904f8 	lw	$t9,1272($sp)
  410e7c:	0c101bd2 	jal	406f48 <_malloc>
  410e80:	24040078 	li	$a0,120
  410e84:	14400003 	bnez	$v0,410e94 <__gtxt+0x9c>
  410e88:	00409025 	move	$s2,$v0
  410e8c:	10000102 	b	411298 <__gtxt+0x4a0>
  410e90:	af82af20 	sw	$v0,-20704($gp)
  410e94:	24020003 	li	$v0,3
  410e98:	af82af28 	sw	$v0,-20696($gp)
  410e9c:	8fb904f8 	lw	$t9,1272($sp)
  410ea0:	8f82af28 	lw	$v0,-20696($gp)
  410ea4:	13200004 	beqz	$t9,410eb8 <__gtxt+0xc0>
  410ea8:	3c030042 	lui	$v1,0x42
  410eac:	93280000 	lbu	$t0,0($t9)
  410eb0:	00000000 	nop
  410eb4:	1500000c 	bnez	$t0,410ee8 <__gtxt+0xf0>
  410eb8:	24630d10 	addiu	$v1,$v1,3344
  410ebc:	af82af28 	sw	$v0,-20696($gp)
  410ec0:	106000f5 	beqz	$v1,411298 <__gtxt+0x4a0>
  410ec4:	af92af20 	sw	$s2,-20704($gp)
  410ec8:	90690000 	lbu	$t1,0($v1)
  410ecc:	00000000 	nop
  410ed0:	15200004 	bnez	$t1,410ee4 <__gtxt+0xec>
  410ed4:	00000000 	nop
  410ed8:	af92af20 	sw	$s2,-20704($gp)
  410edc:	100000ee 	b	411298 <__gtxt+0x4a0>
  410ee0:	af82af28 	sw	$v0,-20696($gp)
  410ee4:	afa304f8 	sw	$v1,1272($sp)
  410ee8:	3c1e0042 	lui	$s8,0x42
  410eec:	3c170042 	lui	$s7,0x42
  410ef0:	26f7db5b 	addiu	$s7,$s7,-9381
  410ef4:	27dec258 	addiu	$s8,$s8,-15784
  410ef8:	0000a025 	move	$s4,$zero
  410efc:	00008825 	move	$s1,$zero
  410f00:	af82af28 	sw	$v0,-20696($gp)
  410f04:	af92af20 	sw	$s2,-20704($gp)
  410f08:	2415ffff 	li	$s5,-1
  410f0c:	27b300f8 	addiu	$s3,$sp,248
  410f10:	8f8aaf24 	lw	$t2,-20700($gp)
  410f14:	8fa604f8 	lw	$a2,1272($sp)
  410f18:	8f92af20 	lw	$s2,-20704($gp)
  410f1c:	028a082a 	slt	$at,$s4,$t2
  410f20:	10200015 	beqz	$at,410f78 <__gtxt+0x180>
  410f24:	00148080 	sll	$s0,$s4,0x2
  410f28:	02148021 	addu	$s0,$s0,$s4
  410f2c:	001080c0 	sll	$s0,$s0,0x3
  410f30:	afa604f8 	sw	$a2,1272($sp)
  410f34:	af92af20 	sw	$s2,-20704($gp)
  410f38:	8f92af20 	lw	$s2,-20704($gp)
  410f3c:	8fa404f8 	lw	$a0,1272($sp)
  410f40:	0c1061b4 	jal	4186d0 <strcmp>
  410f44:	02502821 	addu	$a1,$s2,$s0
  410f48:	14400004 	bnez	$v0,410f5c <__gtxt+0x164>
  410f4c:	00000000 	nop
  410f50:	8f92af20 	lw	$s2,-20704($gp)
  410f54:	10000008 	b	410f78 <__gtxt+0x180>
  410f58:	00000000 	nop
  410f5c:	8f8baf24 	lw	$t3,-20700($gp)
  410f60:	26940001 	addiu	$s4,$s4,1
  410f64:	028b082a 	slt	$at,$s4,$t3
  410f68:	1420fff3 	bnez	$at,410f38 <__gtxt+0x140>
  410f6c:	26100028 	addiu	$s0,$s0,40
  410f70:	8f92af20 	lw	$s2,-20704($gp)
  410f74:	00000000 	nop
  410f78:	8f8caf24 	lw	$t4,-20700($gp)
  410f7c:	8f82af28 	lw	$v0,-20696($gp)
  410f80:	8fa604f8 	lw	$a2,1272($sp)
  410f84:	168c0022 	bne	$s4,$t4,411010 <__gtxt+0x218>
  410f88:	00147880 	sll	$t7,$s4,0x2
  410f8c:	af82af28 	sw	$v0,-20696($gp)
  410f90:	1582000e 	bne	$t4,$v0,410fcc <__gtxt+0x1d4>
  410f94:	afa604f8 	sw	$a2,1272($sp)
  410f98:	24420001 	addiu	$v0,$v0,1
  410f9c:	00022880 	sll	$a1,$v0,0x2
  410fa0:	00a22821 	addu	$a1,$a1,$v0
  410fa4:	000528c0 	sll	$a1,$a1,0x3
  410fa8:	af82af28 	sw	$v0,-20696($gp)
  410fac:	02402025 	move	$a0,$s2
  410fb0:	afa604f8 	sw	$a2,1272($sp)
  410fb4:	0c101c91 	jal	407244 <_realloc>
  410fb8:	af92af20 	sw	$s2,-20704($gp)
  410fbc:	14400003 	bnez	$v0,410fcc <__gtxt+0x1d4>
  410fc0:	00409025 	move	$s2,$v0
  410fc4:	100000b4 	b	411298 <__gtxt+0x4a0>
  410fc8:	af82af20 	sw	$v0,-20704($gp)
  410fcc:	00148080 	sll	$s0,$s4,0x2
  410fd0:	02148021 	addu	$s0,$s0,$s4
  410fd4:	8fa504f8 	lw	$a1,1272($sp)
  410fd8:	001080c0 	sll	$s0,$s0,0x3
  410fdc:	02502021 	addu	$a0,$s2,$s0
  410fe0:	0c101aa4 	jal	406a90 <strcpy>
  410fe4:	af92af20 	sw	$s2,-20704($gp)
  410fe8:	8f92af20 	lw	$s2,-20704($gp)
  410fec:	00000000 	nop
  410ff0:	02501821 	addu	$v1,$s2,$s0
  410ff4:	a0710027 	sb	$s1,39($v1)
  410ff8:	a0600018 	sb	$zero,24($v1)
  410ffc:	8f8daf24 	lw	$t5,-20700($gp)
  411000:	00000000 	nop
  411004:	25ae0001 	addiu	$t6,$t5,1
  411008:	af8eaf24 	sw	$t6,-20700($gp)
  41100c:	00147880 	sll	$t7,$s4,0x2
  411010:	01f47821 	addu	$t7,$t7,$s4
  411014:	000f78c0 	sll	$t7,$t7,0x3
  411018:	01f21021 	addu	$v0,$t7,$s2
  41101c:	00408825 	move	$s1,$v0
  411020:	24450018 	addiu	$a1,$v0,24
  411024:	02e02025 	move	$a0,$s7
  411028:	0c1061b4 	jal	4186d0 <strcmp>
  41102c:	af92af20 	sw	$s2,-20704($gp)
  411030:	1040000e 	beqz	$v0,41106c <__gtxt+0x274>
  411034:	00000000 	nop
  411038:	92230027 	lbu	$v1,39($s1)
  41103c:	00000000 	nop
  411040:	30780001 	andi	$t8,$v1,0x1
  411044:	13000008 	beqz	$t8,411068 <__gtxt+0x270>
  411048:	3079fffc 	andi	$t9,$v1,0xfffc
  41104c:	8e240010 	lw	$a0,16($s1)
  411050:	8e250014 	lw	$a1,20($s1)
  411054:	0c104110 	jal	410440 <_munmap>
  411058:	00000000 	nop
  41105c:	92230027 	lbu	$v1,39($s1)
  411060:	00000000 	nop
  411064:	3079fffc 	andi	$t9,$v1,0xfffc
  411068:	a2390027 	sb	$t9,39($s1)
  41106c:	92230027 	lbu	$v1,39($s1)
  411070:	26300018 	addiu	$s0,$s1,24
  411074:	30680002 	andi	$t0,$v1,0x2
  411078:	15000049 	bnez	$t0,4111a0 <__gtxt+0x3a8>
  41107c:	34690002 	ori	$t1,$v1,0x2
  411080:	a2290027 	sb	$t1,39($s1)
  411084:	02002025 	move	$a0,$s0
  411088:	0c101aa4 	jal	406a90 <strcpy>
  41108c:	02e02825 	move	$a1,$s7
  411090:	8bc10000 	lwl	$at,0($s8)
  411094:	9bc10003 	lwr	$at,3($s8)
  411098:	8bcb0004 	lwl	$t3,4($s8)
  41109c:	ae610000 	sw	$at,0($s3)
  4110a0:	9bcb0007 	lwr	$t3,7($s8)
  4110a4:	8bc10008 	lwl	$at,8($s8)
  4110a8:	9bc1000b 	lwr	$at,11($s8)
  4110ac:	ae6b0004 	sw	$t3,4($s3)
  4110b0:	8bcb000c 	lwl	$t3,12($s8)
  4110b4:	ae610008 	sw	$at,8($s3)
  4110b8:	93c10010 	lbu	$at,16($s8)
  4110bc:	9bcb000f 	lwr	$t3,15($s8)
  4110c0:	a2610010 	sb	$at,16($s3)
  4110c4:	ae6b000c 	sw	$t3,12($s3)
  4110c8:	922c0027 	lbu	$t4,39($s1)
  4110cc:	02002825 	move	$a1,$s0
  4110d0:	318d0004 	andi	$t5,$t4,0x4
  4110d4:	11a00003 	beqz	$t5,4110e4 <__gtxt+0x2ec>
  4110d8:	00000000 	nop
  4110dc:	10000001 	b	4110e4 <__gtxt+0x2ec>
  4110e0:	27858aa4 	addiu	$a1,$gp,-30044
  4110e4:	0c101aa4 	jal	406a90 <strcpy>
  4110e8:	27a40108 	addiu	$a0,$sp,264
  4110ec:	3c050042 	lui	$a1,0x42
  4110f0:	24a5c26c 	addiu	$a1,$a1,-15764
  4110f4:	0c103fb4 	jal	40fed0 <strcat>
  4110f8:	02602025 	move	$a0,$s3
  4110fc:	02602025 	move	$a0,$s3
  411100:	0c103fb4 	jal	40fed0 <strcat>
  411104:	02202825 	move	$a1,$s1
  411108:	02602025 	move	$a0,$s3
  41110c:	0c10411c 	jal	410470 <_open>
  411110:	00002825 	move	$a1,$zero
  411114:	1055000f 	beq	$v0,$s5,411154 <__gtxt+0x35c>
  411118:	00408025 	move	$s0,$v0
  41111c:	00402025 	move	$a0,$v0
  411120:	0c104154 	jal	410550 <_fstat>
  411124:	27a50064 	addiu	$a1,$sp,100
  411128:	1055000a 	beq	$v0,$s5,411154 <__gtxt+0x35c>
  41112c:	00002025 	move	$a0,$zero
  411130:	8fa50094 	lw	$a1,148($sp)
  411134:	24060001 	li	$a2,1
  411138:	24070001 	li	$a3,1
  41113c:	afb00010 	sw	$s0,16($sp)
  411140:	0c104104 	jal	410410 <_mmap>
  411144:	afa00014 	sw	$zero,20($sp)
  411148:	2401ffff 	li	$at,-1
  41114c:	1441000b 	bne	$v0,$at,41117c <__gtxt+0x384>
  411150:	00409025 	move	$s2,$v0
  411154:	12150004 	beq	$s0,$s5,411168 <__gtxt+0x370>
  411158:	8fa400ec 	lw	$a0,236($sp)
  41115c:	0c101ae0 	jal	406b80 <_close>
  411160:	02002025 	move	$a0,$s0
  411164:	8fa400ec 	lw	$a0,236($sp)
  411168:	0c102025 	jal	408094 <_setoserror>
  41116c:	00000000 	nop
  411170:	92230027 	lbu	$v1,39($s1)
  411174:	1000000a 	b	4111a0 <__gtxt+0x3a8>
  411178:	00000000 	nop
  41117c:	0c101ae0 	jal	406b80 <_close>
  411180:	02002025 	move	$a0,$s0
  411184:	922e0027 	lbu	$t6,39($s1)
  411188:	ae320010 	sw	$s2,16($s1)
  41118c:	35cf0001 	ori	$t7,$t6,0x1
  411190:	a22f0027 	sb	$t7,39($s1)
  411194:	8fb80094 	lw	$t8,148($sp)
  411198:	31e300ff 	andi	$v1,$t7,0xff
  41119c:	ae380014 	sw	$t8,20($s1)
  4111a0:	12c00018 	beqz	$s6,411204 <__gtxt+0x40c>
  4111a4:	30790001 	andi	$t9,$v1,0x1
  4111a8:	13200017 	beqz	$t9,411208 <__gtxt+0x410>
  4111ac:	306d0004 	andi	$t5,$v1,0x4
  4111b0:	8e240010 	lw	$a0,16($s1)
  4111b4:	00000000 	nop
  4111b8:	8c880000 	lw	$t0,0($a0)
  4111bc:	00000000 	nop
  4111c0:	0116082a 	slt	$at,$t0,$s6
  4111c4:	14200010 	bnez	$at,411208 <__gtxt+0x410>
  4111c8:	306d0004 	andi	$t5,$v1,0x4
  4111cc:	8fa90054 	lw	$t1,84($sp)
  4111d0:	00000000 	nop
  4111d4:	11200007 	beqz	$t1,4111f4 <__gtxt+0x3fc>
  4111d8:	00165080 	sll	$t2,$s6,0x2
  4111dc:	8f84aed8 	lw	$a0,-20776($gp)
  4111e0:	0c10203c 	jal	4080f0 <_usvsema>
  4111e4:	00000000 	nop
  4111e8:	8e240010 	lw	$a0,16($s1)
  4111ec:	00000000 	nop
  4111f0:	00165080 	sll	$t2,$s6,0x2
  4111f4:	008a5821 	addu	$t3,$a0,$t2
  4111f8:	8d6c0000 	lw	$t4,0($t3)
  4111fc:	1000002e 	b	4112b8 <__gtxt+0x4c0>
  411200:	01841021 	addu	$v0,$t4,$a0
  411204:	306d0004 	andi	$t5,$v1,0x4
  411208:	15a00005 	bnez	$t5,411220 <__gtxt+0x428>
  41120c:	26240018 	addiu	$a0,$s1,24
  411210:	0c1061b4 	jal	4186d0 <strcmp>
  411214:	27858aa8 	addiu	$a1,$gp,-30040
  411218:	14400013 	bnez	$v0,411268 <__gtxt+0x470>
  41121c:	00000000 	nop
  411220:	8fae0054 	lw	$t6,84($sp)
  411224:	8f84aed8 	lw	$a0,-20776($gp)
  411228:	11c00004 	beqz	$t6,41123c <__gtxt+0x444>
  41122c:	8fa20500 	lw	$v0,1280($sp)
  411230:	0c10203c 	jal	4080f0 <_usvsema>
  411234:	00000000 	nop
  411238:	8fa20500 	lw	$v0,1280($sp)
  41123c:	8f858aa0 	lw	$a1,-30048($gp)
  411240:	10400007 	beqz	$v0,411260 <__gtxt+0x468>
  411244:	00000000 	nop
  411248:	904f0000 	lbu	$t7,0($v0)
  41124c:	00000000 	nop
  411250:	11e00003 	beqz	$t7,411260 <__gtxt+0x468>
  411254:	00000000 	nop
  411258:	10000018 	b	4112bc <__gtxt+0x4c4>
  41125c:	8fbf0044 	lw	$ra,68($sp)
  411260:	10000015 	b	4112b8 <__gtxt+0x4c0>
  411264:	00a01025 	move	$v0,$a1
  411268:	92230027 	lbu	$v1,39($s1)
  41126c:	00000000 	nop
  411270:	30780001 	andi	$t8,$v1,0x1
  411274:	17000005 	bnez	$t8,41128c <__gtxt+0x494>
  411278:	34680004 	ori	$t0,$v1,0x4
  41127c:	a2280027 	sb	$t0,39($s1)
  411280:	3109fffd 	andi	$t1,$t0,0xfffd
  411284:	1000ff79 	b	41106c <__gtxt+0x274>
  411288:	a2290027 	sb	$t1,39($s1)
  41128c:	24110004 	li	$s1,4
  411290:	1000ff1f 	b	410f10 <__gtxt+0x118>
  411294:	26940001 	addiu	$s4,$s4,1
  411298:	8faa0054 	lw	$t2,84($sp)
  41129c:	8f84aed8 	lw	$a0,-20776($gp)
  4112a0:	11400003 	beqz	$t2,4112b0 <__gtxt+0x4b8>
  4112a4:	00000000 	nop
  4112a8:	0c10203c 	jal	4080f0 <_usvsema>
  4112ac:	00000000 	nop
  4112b0:	8f828aa0 	lw	$v0,-30048($gp)
  4112b4:	00000000 	nop
  4112b8:	8fbf0044 	lw	$ra,68($sp)
  4112bc:	8fb00020 	lw	$s0,32($sp)
  4112c0:	8fb10024 	lw	$s1,36($sp)
  4112c4:	8fb20028 	lw	$s2,40($sp)
  4112c8:	8fb3002c 	lw	$s3,44($sp)
  4112cc:	8fb40030 	lw	$s4,48($sp)
  4112d0:	8fb50034 	lw	$s5,52($sp)
  4112d4:	8fb60038 	lw	$s6,56($sp)
  4112d8:	8fb7003c 	lw	$s7,60($sp)
  4112dc:	8fbe0040 	lw	$s8,64($sp)
  4112e0:	03e00008 	jr	$ra
  4112e4:	27bd04f8 	addiu	$sp,$sp,1272
	...

004112f0 <__ll_mul>:
  4112f0:	00a70019 	multu	$a1,$a3
  4112f4:	00001812 	mflo	$v1
  4112f8:	00001010 	mfhi	$v0
	...
  411304:	00870019 	multu	$a0,$a3
  411308:	00004012 	mflo	$t0
  41130c:	00481021 	addu	$v0,$v0,$t0
  411310:	00000000 	nop
  411314:	00a60019 	multu	$a1,$a2
  411318:	00004012 	mflo	$t0
  41131c:	00481021 	addu	$v0,$v0,$t0
  411320:	03e00008 	jr	$ra
	...

00411330 <atoi>:
  411330:	14800003 	bnez	$a0,411340 <atoi+0x10>
  411334:	00001025 	move	$v0,$zero
  411338:	03e00008 	jr	$ra
  41133c:	00001025 	move	$v0,$zero
  411340:	90830000 	lbu	$v1,0($a0)
  411344:	3c070042 	lui	$a3,0x42
  411348:	24e7d900 	addiu	$a3,$a3,-9984
  41134c:	00677021 	addu	$t6,$v1,$a3
  411350:	91c50001 	lbu	$a1,1($t6)
  411354:	2401002b 	li	$at,43
  411358:	30af0004 	andi	$t7,$a1,0x4
  41135c:	15e0001d 	bnez	$t7,4113d4 <atoi+0xa4>
  411360:	30b80008 	andi	$t8,$a1,0x8
  411364:	13000009 	beqz	$t8,41138c <atoi+0x5c>
  411368:	00000000 	nop
  41136c:	90830001 	lbu	$v1,1($a0)
  411370:	24840001 	addiu	$a0,$a0,1
  411374:	00e3c821 	addu	$t9,$a3,$v1
  411378:	93250001 	lbu	$a1,1($t9)
  41137c:	00000000 	nop
  411380:	30a80008 	andi	$t0,$a1,0x8
  411384:	1500fff9 	bnez	$t0,41136c <atoi+0x3c>
  411388:	00000000 	nop
  41138c:	10610006 	beq	$v1,$at,4113a8 <atoi+0x78>
  411390:	2401002d 	li	$at,45
  411394:	10610003 	beq	$v1,$at,4113a4 <atoi+0x74>
  411398:	00000000 	nop
  41139c:	10000009 	b	4113c4 <atoi+0x94>
  4113a0:	30a60004 	andi	$a2,$a1,0x4
  4113a4:	24020001 	li	$v0,1
  4113a8:	90830001 	lbu	$v1,1($a0)
  4113ac:	24840001 	addiu	$a0,$a0,1
  4113b0:	00674821 	addu	$t1,$v1,$a3
  4113b4:	91260001 	lbu	$a2,1($t1)
  4113b8:	00000000 	nop
  4113bc:	30ca0004 	andi	$t2,$a2,0x4
  4113c0:	01403025 	move	$a2,$t2
  4113c4:	14c00004 	bnez	$a2,4113d8 <atoi+0xa8>
  4113c8:	240b0030 	li	$t3,48
  4113cc:	03e00008 	jr	$ra
  4113d0:	00001025 	move	$v0,$zero
  4113d4:	240b0030 	li	$t3,48
  4113d8:	01632823 	subu	$a1,$t3,$v1
  4113dc:	90830001 	lbu	$v1,1($a0)
  4113e0:	24840001 	addiu	$a0,$a0,1
  4113e4:	00676021 	addu	$t4,$v1,$a3
  4113e8:	918d0001 	lbu	$t5,1($t4)
  4113ec:	2406000a 	li	$a2,10
  4113f0:	31ae0004 	andi	$t6,$t5,0x4
  4113f4:	11c0000d 	beqz	$t6,41142c <atoi+0xfc>
  4113f8:	00000000 	nop
  4113fc:	00a60019 	multu	$a1,$a2
  411400:	24840001 	addiu	$a0,$a0,1
  411404:	00002812 	mflo	$a1
  411408:	00a32823 	subu	$a1,$a1,$v1
  41140c:	90830000 	lbu	$v1,0($a0)
  411410:	24a50030 	addiu	$a1,$a1,48
  411414:	00677821 	addu	$t7,$v1,$a3
  411418:	91f80001 	lbu	$t8,1($t7)
  41141c:	00000000 	nop
  411420:	33190004 	andi	$t9,$t8,0x4
  411424:	1720fff5 	bnez	$t9,4113fc <atoi+0xcc>
  411428:	00000000 	nop
  41142c:	10400003 	beqz	$v0,41143c <atoi+0x10c>
  411430:	00051823 	negu	$v1,$a1
  411434:	10000001 	b	41143c <atoi+0x10c>
  411438:	00a01825 	move	$v1,$a1
  41143c:	00601025 	move	$v0,$v1
  411440:	03e00008 	jr	$ra
	...

00411450 <_ecvt>:
  411450:	27bdffe0 	addiu	$sp,$sp,-32
  411454:	8fae0030 	lw	$t6,48($sp)
  411458:	3c0f0042 	lui	$t7,0x42
  41145c:	afbf001c 	sw	$ra,28($sp)
  411460:	25ef0d20 	addiu	$t7,$t7,3360
  411464:	afaf0014 	sw	$t7,20($sp)
  411468:	0c104520 	jal	411480 <_ecvt_r>
  41146c:	afae0010 	sw	$t6,16($sp)
  411470:	8fbf001c 	lw	$ra,28($sp)
  411474:	27bd0020 	addiu	$sp,$sp,32
  411478:	03e00008 	jr	$ra
  41147c:	00000000 	nop

00411480 <_ecvt_r>:
  411480:	27bdffe0 	addiu	$sp,$sp,-32
  411484:	28c10012 	slti	$at,$a2,18
  411488:	afbf001c 	sw	$ra,28($sp)
  41148c:	afa60028 	sw	$a2,40($sp)
  411490:	14200029 	bnez	$at,411538 <_ecvt_r+0xb8>
  411494:	afa7002c 	sw	$a3,44($sp)
  411498:	8fa40034 	lw	$a0,52($sp)
  41149c:	44066800 	mfc1	$a2,$f13
  4114a0:	44076000 	mfc1	$a3,$f12
  4114a4:	24050011 	li	$a1,17
  4114a8:	0c10637c 	jal	418df0 <_dtoa>
  4114ac:	afa00010 	sw	$zero,16($sp)
  4114b0:	8fa40028 	lw	$a0,40($sp)
  4114b4:	8fa80034 	lw	$t0,52($sp)
  4114b8:	8fb8002c 	lw	$t8,44($sp)
  4114bc:	244f0001 	addiu	$t7,$v0,1
  4114c0:	28810053 	slti	$at,$a0,83
  4114c4:	25060012 	addiu	$a2,$t0,18
  4114c8:	00c01825 	move	$v1,$a2
  4114cc:	14200003 	bnez	$at,4114dc <_ecvt_r+0x5c>
  4114d0:	af0f0000 	sw	$t7,0($t8)
  4114d4:	10000002 	b	4114e0 <_ecvt_r+0x60>
  4114d8:	24020052 	li	$v0,82
  4114dc:	00801025 	move	$v0,$a0
  4114e0:	00483821 	addu	$a3,$v0,$t0
  4114e4:	24e70001 	addiu	$a3,$a3,1
  4114e8:	10c70011 	beq	$a2,$a3,411530 <_ecvt_r+0xb0>
  4114ec:	00e02825 	move	$a1,$a3
  4114f0:	00e61023 	subu	$v0,$a3,$a2
  4114f4:	30590003 	andi	$t9,$v0,0x3
  4114f8:	13200006 	beqz	$t9,411514 <_ecvt_r+0x94>
  4114fc:	03262021 	addu	$a0,$t9,$a2
  411500:	24020030 	li	$v0,48
  411504:	24630001 	addiu	$v1,$v1,1
  411508:	1483fffe 	bne	$a0,$v1,411504 <_ecvt_r+0x84>
  41150c:	a062ffff 	sb	$v0,-1($v1)
  411510:	10670007 	beq	$v1,$a3,411530 <_ecvt_r+0xb0>
  411514:	24020030 	li	$v0,48
  411518:	24630004 	addiu	$v1,$v1,4
  41151c:	a062fffd 	sb	$v0,-3($v1)
  411520:	a062fffe 	sb	$v0,-2($v1)
  411524:	a062ffff 	sb	$v0,-1($v1)
  411528:	1465fffb 	bne	$v1,$a1,411518 <_ecvt_r+0x98>
  41152c:	a062fffc 	sb	$v0,-4($v1)
  411530:	1000001a 	b	41159c <_ecvt_r+0x11c>
  411534:	a0600000 	sb	$zero,0($v1)
  411538:	8fa90028 	lw	$t1,40($sp)
  41153c:	8fa40034 	lw	$a0,52($sp)
  411540:	1d20000c 	bgtz	$t1,411574 <_ecvt_r+0xf4>
  411544:	24050001 	li	$a1,1
  411548:	8fa40034 	lw	$a0,52($sp)
  41154c:	44066800 	mfc1	$a2,$f13
  411550:	44076000 	mfc1	$a3,$f12
  411554:	0c10637c 	jal	418df0 <_dtoa>
  411558:	afa00010 	sw	$zero,16($sp)
  41155c:	8fab002c 	lw	$t3,44($sp)
  411560:	244a0001 	addiu	$t2,$v0,1
  411564:	ad6a0000 	sw	$t2,0($t3)
  411568:	8fa80034 	lw	$t0,52($sp)
  41156c:	1000000b 	b	41159c <_ecvt_r+0x11c>
  411570:	a1000001 	sb	$zero,1($t0)
  411574:	8fa50028 	lw	$a1,40($sp)
  411578:	44066800 	mfc1	$a2,$f13
  41157c:	44076000 	mfc1	$a3,$f12
  411580:	0c10637c 	jal	418df0 <_dtoa>
  411584:	afa00010 	sw	$zero,16($sp)
  411588:	8fae002c 	lw	$t6,44($sp)
  41158c:	244d0001 	addiu	$t5,$v0,1
  411590:	adcd0000 	sw	$t5,0($t6)
  411594:	8fa80034 	lw	$t0,52($sp)
  411598:	00000000 	nop
  41159c:	910f0000 	lbu	$t7,0($t0)
  4115a0:	8fb90030 	lw	$t9,48($sp)
  4115a4:	39f8002d 	xori	$t8,$t7,0x2d
  4115a8:	2f180001 	sltiu	$t8,$t8,1
  4115ac:	af380000 	sw	$t8,0($t9)
  4115b0:	8fbf001c 	lw	$ra,28($sp)
  4115b4:	27bd0020 	addiu	$sp,$sp,32
  4115b8:	03e00008 	jr	$ra
  4115bc:	25020001 	addiu	$v0,$t0,1

004115c0 <_fcvt>:
  4115c0:	27bdffe0 	addiu	$sp,$sp,-32
  4115c4:	8fae0030 	lw	$t6,48($sp)
  4115c8:	3c0f0042 	lui	$t7,0x42
  4115cc:	afbf001c 	sw	$ra,28($sp)
  4115d0:	25ef0d20 	addiu	$t7,$t7,3360
  4115d4:	afaf0014 	sw	$t7,20($sp)
  4115d8:	0c10457c 	jal	4115f0 <_fcvt_r>
  4115dc:	afae0010 	sw	$t6,16($sp)
  4115e0:	8fbf001c 	lw	$ra,28($sp)
  4115e4:	27bd0020 	addiu	$sp,$sp,32
  4115e8:	03e00008 	jr	$ra
  4115ec:	00000000 	nop

004115f0 <_fcvt_r>:
  4115f0:	27bdffe0 	addiu	$sp,$sp,-32
  4115f4:	afa60028 	sw	$a2,40($sp)
  4115f8:	afa7002c 	sw	$a3,44($sp)
  4115fc:	00c02825 	move	$a1,$a2
  411600:	afbf001c 	sw	$ra,28($sp)
  411604:	44066800 	mfc1	$a2,$f13
  411608:	44076000 	mfc1	$a3,$f12
  41160c:	8fa40034 	lw	$a0,52($sp)
  411610:	240e0001 	li	$t6,1
  411614:	0c10637c 	jal	418df0 <_dtoa>
  411618:	afae0010 	sw	$t6,16($sp)
  41161c:	8fa30034 	lw	$v1,52($sp)
  411620:	8fb8002c 	lw	$t8,44($sp)
  411624:	244f0001 	addiu	$t7,$v0,1
  411628:	af0f0000 	sw	$t7,0($t8)
  41162c:	90790000 	lbu	$t9,0($v1)
  411630:	8fa90030 	lw	$t1,48($sp)
  411634:	3b28002d 	xori	$t0,$t9,0x2d
  411638:	2d080001 	sltiu	$t0,$t0,1
  41163c:	ad280000 	sw	$t0,0($t1)
  411640:	8fbf001c 	lw	$ra,28($sp)
  411644:	27bd0020 	addiu	$sp,$sp,32
  411648:	03e00008 	jr	$ra
  41164c:	24620001 	addiu	$v0,$v1,1
  411650:	afa40000 	sw	$a0,0($sp)
  411654:	afa50004 	sw	$a1,4($sp)
  411658:	1480000e 	bnez	$a0,411694 <_fcvt_r+0xa4>
  41165c:	00001825 	move	$v1,$zero
  411660:	10a00014 	beqz	$a1,4116b4 <_fcvt_r+0xc4>
  411664:	00a01025 	move	$v0,$a1
  411668:	00027000 	sll	$t6,$v0,0x0
  41166c:	3c058000 	lui	$a1,0x8000
  411670:	05c00010 	bltz	$t6,4116b4 <_fcvt_r+0xc4>
  411674:	24030020 	li	$v1,32
  411678:	00027840 	sll	$t7,$v0,0x1
  41167c:	01e5c024 	and	$t8,$t7,$a1
  411680:	24630001 	addiu	$v1,$v1,1
  411684:	1300fffc 	beqz	$t8,411678 <_fcvt_r+0x88>
  411688:	01e01025 	move	$v0,$t7
  41168c:	03e00008 	jr	$ra
  411690:	00601025 	move	$v0,$v1
  411694:	0004c800 	sll	$t9,$a0,0x0
  411698:	07200006 	bltz	$t9,4116b4 <_fcvt_r+0xc4>
  41169c:	3c058000 	lui	$a1,0x8000
  4116a0:	00044040 	sll	$t0,$a0,0x1
  4116a4:	01054824 	and	$t1,$t0,$a1
  4116a8:	24630001 	addiu	$v1,$v1,1
  4116ac:	1120fffc 	beqz	$t1,4116a0 <_fcvt_r+0xb0>
  4116b0:	01002025 	move	$a0,$t0
  4116b4:	03e00008 	jr	$ra
  4116b8:	00601025 	move	$v0,$v1
  4116bc:	27bdffc8 	addiu	$sp,$sp,-56
  4116c0:	afbf001c 	sw	$ra,28($sp)
  4116c4:	afb00018 	sw	$s0,24($sp)
  4116c8:	afa40038 	sw	$a0,56($sp)
  4116cc:	afa5003c 	sw	$a1,60($sp)
  4116d0:	afa60040 	sw	$a2,64($sp)
  4116d4:	afa70044 	sw	$a3,68($sp)
  4116d8:	27ae0040 	addiu	$t6,$sp,64
  4116dc:	8dc40000 	lw	$a0,0($t6)
  4116e0:	00000000 	nop
  4116e4:	afa40000 	sw	$a0,0($sp)
  4116e8:	8dc50004 	lw	$a1,4($t6)
  4116ec:	0c104594 	jal	411650 <_fcvt_r+0x60>
  4116f0:	afa50004 	sw	$a1,4($sp)
  4116f4:	afa2002c 	sw	$v0,44($sp)
  4116f8:	27b90048 	addiu	$t9,$sp,72
  4116fc:	8f240000 	lw	$a0,0($t9)
  411700:	00000000 	nop
  411704:	afa40000 	sw	$a0,0($sp)
  411708:	8f250004 	lw	$a1,4($t9)
  41170c:	0c104594 	jal	411650 <_fcvt_r+0x60>
  411710:	afa50004 	sw	$a1,4($sp)
  411714:	8faa002c 	lw	$t2,44($sp)
  411718:	8fa40048 	lw	$a0,72($sp)
  41171c:	004a8023 	subu	$s0,$v0,$t2
  411720:	1a000006 	blez	$s0,41173c <_fcvt_r+0x14c>
  411724:	02003825 	move	$a3,$s0
  411728:	8fa5004c 	lw	$a1,76($sp)
  41172c:	0c1047b8 	jal	411ee0 <__ll_lshift>
  411730:	001037c3 	sra	$a2,$s0,0x1f
  411734:	afa20048 	sw	$v0,72($sp)
  411738:	afa3004c 	sw	$v1,76($sp)
  41173c:	2a040000 	slti	$a0,$s0,0
  411740:	afa00034 	sw	$zero,52($sp)
  411744:	afa00030 	sw	$zero,48($sp)
  411748:	1480002c 	bnez	$a0,4117fc <_fcvt_r+0x20c>
  41174c:	2610ffff 	addiu	$s0,$s0,-1
  411750:	8fa40030 	lw	$a0,48($sp)
  411754:	8fa50034 	lw	$a1,52($sp)
  411758:	24060000 	li	$a2,0
  41175c:	0c1047b8 	jal	411ee0 <__ll_lshift>
  411760:	24070001 	li	$a3,1
  411764:	8fa50040 	lw	$a1,64($sp)
  411768:	8fab0048 	lw	$t3,72($sp)
  41176c:	afa20030 	sw	$v0,48($sp)
  411770:	14ab0007 	bne	$a1,$t3,411790 <_fcvt_r+0x1a0>
  411774:	afa30034 	sw	$v1,52($sp)
  411778:	8fa20044 	lw	$v0,68($sp)
  41177c:	8fac004c 	lw	$t4,76($sp)
  411780:	00000000 	nop
  411784:	004c202b 	sltu	$a0,$v0,$t4
  411788:	10000004 	b	41179c <_fcvt_r+0x1ac>
  41178c:	38840001 	xori	$a0,$a0,0x1
  411790:	8fad0048 	lw	$t5,72($sp)
  411794:	00000000 	nop
  411798:	01a5202b 	sltu	$a0,$t5,$a1
  41179c:	8fa20044 	lw	$v0,68($sp)
  4117a0:	1080000c 	beqz	$a0,4117d4 <_fcvt_r+0x1e4>
  4117a4:	afa50040 	sw	$a1,64($sp)
  4117a8:	8fb8004c 	lw	$t8,76($sp)
  4117ac:	8faf0048 	lw	$t7,72($sp)
  4117b0:	8fb90034 	lw	$t9,52($sp)
  4117b4:	0058402b 	sltu	$t0,$v0,$t8
  4117b8:	00af7023 	subu	$t6,$a1,$t7
  4117bc:	01c82823 	subu	$a1,$t6,$t0
  4117c0:	00581023 	subu	$v0,$v0,$t8
  4117c4:	37290001 	ori	$t1,$t9,0x1
  4117c8:	afa90034 	sw	$t1,52($sp)
  4117cc:	afa20044 	sw	$v0,68($sp)
  4117d0:	afa50040 	sw	$a1,64($sp)
  4117d4:	8fa40048 	lw	$a0,72($sp)
  4117d8:	8fa5004c 	lw	$a1,76($sp)
  4117dc:	24060000 	li	$a2,0
  4117e0:	0c1047df 	jal	411f7c <__ull_rshift>
  4117e4:	24070001 	li	$a3,1
  4117e8:	2a040000 	slti	$a0,$s0,0
  4117ec:	2610ffff 	addiu	$s0,$s0,-1
  4117f0:	afa20048 	sw	$v0,72($sp)
  4117f4:	1080ffd6 	beqz	$a0,411750 <_fcvt_r+0x160>
  4117f8:	afa3004c 	sw	$v1,76($sp)
  4117fc:	27ab0030 	addiu	$t3,$sp,48
  411800:	8d610000 	lw	$at,0($t3)
  411804:	8faa0038 	lw	$t2,56($sp)
  411808:	27ae0040 	addiu	$t6,$sp,64
  41180c:	ad410000 	sw	$at,0($t2)
  411810:	8d6d0004 	lw	$t5,4($t3)
  411814:	00000000 	nop
  411818:	ad4d0004 	sw	$t5,4($t2)
  41181c:	8dc10000 	lw	$at,0($t6)
  411820:	8faf003c 	lw	$t7,60($sp)
  411824:	00000000 	nop
  411828:	ade10000 	sw	$at,0($t7)
  41182c:	8dd80004 	lw	$t8,4($t6)
  411830:	00000000 	nop
  411834:	adf80004 	sw	$t8,4($t7)
  411838:	8fbf001c 	lw	$ra,28($sp)
  41183c:	8fb00018 	lw	$s0,24($sp)
  411840:	03e00008 	jr	$ra
  411844:	27bd0038 	addiu	$sp,$sp,56

00411848 <__ll_div>:
  411848:	27bdffa0 	addiu	$sp,$sp,-96
  41184c:	afbf001c 	sw	$ra,28($sp)
  411850:	afa40060 	sw	$a0,96($sp)
  411854:	afa50064 	sw	$a1,100($sp)
  411858:	afa60068 	sw	$a2,104($sp)
  41185c:	afa7006c 	sw	$a3,108($sp)
  411860:	00004025 	move	$t0,$zero
  411864:	afa40058 	sw	$a0,88($sp)
  411868:	afa5005c 	sw	$a1,92($sp)
  41186c:	afa60050 	sw	$a2,80($sp)
  411870:	04810008 	bgez	$a0,411894 <__ll_div+0x4c>
  411874:	afa70054 	sw	$a3,84($sp)
  411878:	00805827 	nor	$t3,$a0,$zero
  41187c:	2cad0001 	sltiu	$t5,$a1,1
  411880:	016d7021 	addu	$t6,$t3,$t5
  411884:	00057823 	negu	$t7,$a1
  411888:	24080001 	li	$t0,1
  41188c:	afaf005c 	sw	$t7,92($sp)
  411890:	afae0058 	sw	$t6,88($sp)
  411894:	8fb80050 	lw	$t8,80($sp)
  411898:	8fa90050 	lw	$t1,80($sp)
  41189c:	07010009 	bgez	$t8,4118c4 <__ll_div+0x7c>
  4118a0:	2d190001 	sltiu	$t9,$t0,1
  4118a4:	8fab0054 	lw	$t3,84($sp)
  4118a8:	01205027 	nor	$t2,$t1,$zero
  4118ac:	2d6d0001 	sltiu	$t5,$t3,1
  4118b0:	014d7021 	addu	$t6,$t2,$t5
  4118b4:	000b6023 	negu	$t4,$t3
  4118b8:	03204025 	move	$t0,$t9
  4118bc:	afac0054 	sw	$t4,84($sp)
  4118c0:	afae0050 	sw	$t6,80($sp)
  4118c4:	8faf0050 	lw	$t7,80($sp)
  4118c8:	8fb90058 	lw	$t9,88($sp)
  4118cc:	15e00006 	bnez	$t7,4118e8 <__ll_div+0xa0>
  4118d0:	00001025 	move	$v0,$zero
  4118d4:	8fa20054 	lw	$v0,84($sp)
  4118d8:	3c010001 	lui	$at,0x1
  4118dc:	0041c02b 	sltu	$t8,$v0,$at
  4118e0:	10000001 	b	4118e8 <__ll_div+0xa0>
  4118e4:	03001025 	move	$v0,$t8
  4118e8:	1040000e 	beqz	$v0,411924 <__ll_div+0xdc>
  4118ec:	3c030020 	lui	$v1,0x20
  4118f0:	8faa0050 	lw	$t2,80($sp)
  4118f4:	8fab0054 	lw	$t3,84($sp)
  4118f8:	8fa60058 	lw	$a2,88($sp)
  4118fc:	8fa7005c 	lw	$a3,92($sp)
  411900:	27a40048 	addiu	$a0,$sp,72
  411904:	27a50040 	addiu	$a1,$sp,64
  411908:	afa8002c 	sw	$t0,44($sp)
  41190c:	afaa0010 	sw	$t2,16($sp)
  411910:	0c10645c 	jal	419170 <__ull_divrem_6416>
  411914:	afab0014 	sw	$t3,20($sp)
  411918:	8fa8002c 	lw	$t0,44($sp)
  41191c:	10000033 	b	4119ec <__ll_div+0x1a4>
  411920:	00000000 	nop
  411924:	17230006 	bne	$t9,$v1,411940 <__ll_div+0xf8>
  411928:	27a40048 	addiu	$a0,$sp,72
  41192c:	8fa2005c 	lw	$v0,92($sp)
  411930:	00000000 	nop
  411934:	2c490001 	sltiu	$t1,$v0,1
  411938:	10000004 	b	41194c <__ll_div+0x104>
  41193c:	01201025 	move	$v0,$t1
  411940:	8fad0058 	lw	$t5,88($sp)
  411944:	00000000 	nop
  411948:	01a3102b 	sltu	$v0,$t5,$v1
  41194c:	10400018 	beqz	$v0,4119b0 <__ll_div+0x168>
  411950:	27aa0058 	addiu	$t2,$sp,88
  411954:	8fae0050 	lw	$t6,80($sp)
  411958:	8faf0050 	lw	$t7,80($sp)
  41195c:	15c30006 	bne	$t6,$v1,411978 <__ll_div+0x130>
  411960:	01e3102b 	sltu	$v0,$t7,$v1
  411964:	8fa20054 	lw	$v0,84($sp)
  411968:	00000000 	nop
  41196c:	2c4c0001 	sltiu	$t4,$v0,1
  411970:	10000001 	b	411978 <__ll_div+0x130>
  411974:	01801025 	move	$v0,$t4
  411978:	1040000d 	beqz	$v0,4119b0 <__ll_div+0x168>
  41197c:	27a50040 	addiu	$a1,$sp,64
  411980:	8fb80050 	lw	$t8,80($sp)
  411984:	8fb90054 	lw	$t9,84($sp)
  411988:	8fa60058 	lw	$a2,88($sp)
  41198c:	8fa7005c 	lw	$a3,92($sp)
  411990:	27a40048 	addiu	$a0,$sp,72
  411994:	afa8002c 	sw	$t0,44($sp)
  411998:	afb80010 	sw	$t8,16($sp)
  41199c:	0c1064a2 	jal	419288 <__ull_divrem_5353>
  4119a0:	afb90014 	sw	$t9,20($sp)
  4119a4:	8fa8002c 	lw	$t0,44($sp)
  4119a8:	10000010 	b	4119ec <__ll_div+0x1a4>
  4119ac:	00000000 	nop
  4119b0:	8d410000 	lw	$at,0($t2)
  4119b4:	27ad0050 	addiu	$t5,$sp,80
  4119b8:	afa10008 	sw	$at,8($sp)
  4119bc:	8d470004 	lw	$a3,4($t2)
  4119c0:	8fa60008 	lw	$a2,8($sp)
  4119c4:	afa7000c 	sw	$a3,12($sp)
  4119c8:	8da10000 	lw	$at,0($t5)
  4119cc:	27a50040 	addiu	$a1,$sp,64
  4119d0:	afa10010 	sw	$at,16($sp)
  4119d4:	8dac0004 	lw	$t4,4($t5)
  4119d8:	afa8002c 	sw	$t0,44($sp)
  4119dc:	0c1045af 	jal	4116bc <_fcvt_r+0xcc>
  4119e0:	afac0014 	sw	$t4,20($sp)
  4119e4:	8fa8002c 	lw	$t0,44($sp)
  4119e8:	00000000 	nop
  4119ec:	1100000a 	beqz	$t0,411a18 <__ll_div+0x1d0>
  4119f0:	8fbf001c 	lw	$ra,28($sp)
  4119f4:	8faf0048 	lw	$t7,72($sp)
  4119f8:	8fb9004c 	lw	$t9,76($sp)
  4119fc:	01e0c027 	nor	$t8,$t7,$zero
  411a00:	2f2b0001 	sltiu	$t3,$t9,1
  411a04:	030b5021 	addu	$t2,$t8,$t3
  411a08:	00194823 	negu	$t1,$t9
  411a0c:	afa9004c 	sw	$t1,76($sp)
  411a10:	afaa0048 	sw	$t2,72($sp)
  411a14:	8fbf001c 	lw	$ra,28($sp)
  411a18:	8fa20048 	lw	$v0,72($sp)
  411a1c:	8fa3004c 	lw	$v1,76($sp)
  411a20:	03e00008 	jr	$ra
  411a24:	27bd0060 	addiu	$sp,$sp,96

00411a28 <__ull_div>:
  411a28:	27bdffa8 	addiu	$sp,$sp,-88
  411a2c:	afbf001c 	sw	$ra,28($sp)
  411a30:	afa40058 	sw	$a0,88($sp)
  411a34:	afa5005c 	sw	$a1,92($sp)
  411a38:	afa60060 	sw	$a2,96($sp)
  411a3c:	afa70064 	sw	$a3,100($sp)
  411a40:	afa40050 	sw	$a0,80($sp)
  411a44:	afa50054 	sw	$a1,84($sp)
  411a48:	afa60048 	sw	$a2,72($sp)
  411a4c:	14c00004 	bnez	$a2,411a60 <__ull_div+0x38>
  411a50:	afa7004c 	sw	$a3,76($sp)
  411a54:	3c010001 	lui	$at,0x1
  411a58:	10000002 	b	411a64 <__ull_div+0x3c>
  411a5c:	00e1102b 	sltu	$v0,$a3,$at
  411a60:	00001025 	move	$v0,$zero
  411a64:	1040000b 	beqz	$v0,411a94 <__ull_div+0x6c>
  411a68:	27a40040 	addiu	$a0,$sp,64
  411a6c:	8faa0060 	lw	$t2,96($sp)
  411a70:	8fab0064 	lw	$t3,100($sp)
  411a74:	8fa60058 	lw	$a2,88($sp)
  411a78:	8fa7005c 	lw	$a3,92($sp)
  411a7c:	27a50038 	addiu	$a1,$sp,56
  411a80:	afaa0010 	sw	$t2,16($sp)
  411a84:	0c10645c 	jal	419170 <__ull_divrem_6416>
  411a88:	afab0014 	sw	$t3,20($sp)
  411a8c:	10000031 	b	411b54 <__ull_div+0x12c>
  411a90:	8fbf001c 	lw	$ra,28($sp)
  411a94:	8fac0050 	lw	$t4,80($sp)
  411a98:	3c030020 	lui	$v1,0x20
  411a9c:	15830006 	bne	$t4,$v1,411ab8 <__ull_div+0x90>
  411aa0:	27a40040 	addiu	$a0,$sp,64
  411aa4:	8fa20054 	lw	$v0,84($sp)
  411aa8:	00000000 	nop
  411aac:	2c4d0001 	sltiu	$t5,$v0,1
  411ab0:	10000004 	b	411ac4 <__ull_div+0x9c>
  411ab4:	01a01025 	move	$v0,$t5
  411ab8:	8fae0050 	lw	$t6,80($sp)
  411abc:	00000000 	nop
  411ac0:	01c3102b 	sltu	$v0,$t6,$v1
  411ac4:	10400016 	beqz	$v0,411b20 <__ull_div+0xf8>
  411ac8:	27aa0050 	addiu	$t2,$sp,80
  411acc:	8faf0048 	lw	$t7,72($sp)
  411ad0:	8fb90048 	lw	$t9,72($sp)
  411ad4:	15e30006 	bne	$t7,$v1,411af0 <__ull_div+0xc8>
  411ad8:	0323102b 	sltu	$v0,$t9,$v1
  411adc:	8fa2004c 	lw	$v0,76($sp)
  411ae0:	00000000 	nop
  411ae4:	2c580001 	sltiu	$t8,$v0,1
  411ae8:	10000001 	b	411af0 <__ull_div+0xc8>
  411aec:	03001025 	move	$v0,$t8
  411af0:	1040000b 	beqz	$v0,411b20 <__ull_div+0xf8>
  411af4:	27a50038 	addiu	$a1,$sp,56
  411af8:	8fa80060 	lw	$t0,96($sp)
  411afc:	8fa90064 	lw	$t1,100($sp)
  411b00:	8fa60058 	lw	$a2,88($sp)
  411b04:	8fa7005c 	lw	$a3,92($sp)
  411b08:	27a40040 	addiu	$a0,$sp,64
  411b0c:	afa80010 	sw	$t0,16($sp)
  411b10:	0c1064a2 	jal	419288 <__ull_divrem_5353>
  411b14:	afa90014 	sw	$t1,20($sp)
  411b18:	1000000e 	b	411b54 <__ull_div+0x12c>
  411b1c:	8fbf001c 	lw	$ra,28($sp)
  411b20:	8d410000 	lw	$at,0($t2)
  411b24:	27ad0048 	addiu	$t5,$sp,72
  411b28:	afa10008 	sw	$at,8($sp)
  411b2c:	8d470004 	lw	$a3,4($t2)
  411b30:	8fa60008 	lw	$a2,8($sp)
  411b34:	afa7000c 	sw	$a3,12($sp)
  411b38:	8da10000 	lw	$at,0($t5)
  411b3c:	27a50038 	addiu	$a1,$sp,56
  411b40:	afa10010 	sw	$at,16($sp)
  411b44:	8daf0004 	lw	$t7,4($t5)
  411b48:	0c1045af 	jal	4116bc <_fcvt_r+0xcc>
  411b4c:	afaf0014 	sw	$t7,20($sp)
  411b50:	8fbf001c 	lw	$ra,28($sp)
  411b54:	8fa20040 	lw	$v0,64($sp)
  411b58:	8fa30044 	lw	$v1,68($sp)
  411b5c:	03e00008 	jr	$ra
  411b60:	27bd0058 	addiu	$sp,$sp,88

00411b64 <__ll_rem>:
  411b64:	27bdffa0 	addiu	$sp,$sp,-96
  411b68:	afbf001c 	sw	$ra,28($sp)
  411b6c:	afa40060 	sw	$a0,96($sp)
  411b70:	afa50064 	sw	$a1,100($sp)
  411b74:	afa60068 	sw	$a2,104($sp)
  411b78:	afa7006c 	sw	$a3,108($sp)
  411b7c:	afa0002c 	sw	$zero,44($sp)
  411b80:	afa40058 	sw	$a0,88($sp)
  411b84:	afa5005c 	sw	$a1,92($sp)
  411b88:	afa60050 	sw	$a2,80($sp)
  411b8c:	04810009 	bgez	$a0,411bb4 <__ll_rem+0x50>
  411b90:	afa70054 	sw	$a3,84($sp)
  411b94:	00805827 	nor	$t3,$a0,$zero
  411b98:	2cad0001 	sltiu	$t5,$a1,1
  411b9c:	24090001 	li	$t1,1
  411ba0:	016d7021 	addu	$t6,$t3,$t5
  411ba4:	00057823 	negu	$t7,$a1
  411ba8:	afa9002c 	sw	$t1,44($sp)
  411bac:	afaf005c 	sw	$t7,92($sp)
  411bb0:	afae0058 	sw	$t6,88($sp)
  411bb4:	8fb80050 	lw	$t8,80($sp)
  411bb8:	8fb90050 	lw	$t9,80($sp)
  411bbc:	07010008 	bgez	$t8,411be0 <__ll_rem+0x7c>
  411bc0:	00001025 	move	$v0,$zero
  411bc4:	8fa90054 	lw	$t1,84($sp)
  411bc8:	03204027 	nor	$t0,$t9,$zero
  411bcc:	2d2a0001 	sltiu	$t2,$t1,1
  411bd0:	010a5821 	addu	$t3,$t0,$t2
  411bd4:	00096823 	negu	$t5,$t1
  411bd8:	afad0054 	sw	$t5,84($sp)
  411bdc:	afab0050 	sw	$t3,80($sp)
  411be0:	8fae0050 	lw	$t6,80($sp)
  411be4:	8faf0058 	lw	$t7,88($sp)
  411be8:	15c00006 	bnez	$t6,411c04 <__ll_rem+0xa0>
  411bec:	27a40048 	addiu	$a0,$sp,72
  411bf0:	8fa20054 	lw	$v0,84($sp)
  411bf4:	3c010001 	lui	$at,0x1
  411bf8:	0041602b 	sltu	$t4,$v0,$at
  411bfc:	10000001 	b	411c04 <__ll_rem+0xa0>
  411c00:	01801025 	move	$v0,$t4
  411c04:	1040000b 	beqz	$v0,411c34 <__ll_rem+0xd0>
  411c08:	3c030020 	lui	$v1,0x20
  411c0c:	8fb80050 	lw	$t8,80($sp)
  411c10:	8fb90054 	lw	$t9,84($sp)
  411c14:	8fa60058 	lw	$a2,88($sp)
  411c18:	8fa7005c 	lw	$a3,92($sp)
  411c1c:	27a50040 	addiu	$a1,$sp,64
  411c20:	afb80010 	sw	$t8,16($sp)
  411c24:	0c10645c 	jal	419170 <__ull_divrem_6416>
  411c28:	afb90014 	sw	$t9,20($sp)
  411c2c:	1000002f 	b	411cec <__ll_rem+0x188>
  411c30:	8fa9002c 	lw	$t1,44($sp)
  411c34:	15e30006 	bne	$t7,$v1,411c50 <__ll_rem+0xec>
  411c38:	27a40048 	addiu	$a0,$sp,72
  411c3c:	8fa2005c 	lw	$v0,92($sp)
  411c40:	00000000 	nop
  411c44:	2c480001 	sltiu	$t0,$v0,1
  411c48:	10000004 	b	411c5c <__ll_rem+0xf8>
  411c4c:	01001025 	move	$v0,$t0
  411c50:	8faa0058 	lw	$t2,88($sp)
  411c54:	00000000 	nop
  411c58:	0143102b 	sltu	$v0,$t2,$v1
  411c5c:	10400016 	beqz	$v0,411cb8 <__ll_rem+0x154>
  411c60:	27ac0058 	addiu	$t4,$sp,88
  411c64:	8fab0050 	lw	$t3,80($sp)
  411c68:	8fad0050 	lw	$t5,80($sp)
  411c6c:	15630006 	bne	$t3,$v1,411c88 <__ll_rem+0x124>
  411c70:	01a3102b 	sltu	$v0,$t5,$v1
  411c74:	8fa20054 	lw	$v0,84($sp)
  411c78:	00000000 	nop
  411c7c:	2c490001 	sltiu	$t1,$v0,1
  411c80:	10000001 	b	411c88 <__ll_rem+0x124>
  411c84:	01201025 	move	$v0,$t1
  411c88:	1040000b 	beqz	$v0,411cb8 <__ll_rem+0x154>
  411c8c:	27a50040 	addiu	$a1,$sp,64
  411c90:	8fae0050 	lw	$t6,80($sp)
  411c94:	8faf0054 	lw	$t7,84($sp)
  411c98:	8fa60058 	lw	$a2,88($sp)
  411c9c:	8fa7005c 	lw	$a3,92($sp)
  411ca0:	27a40048 	addiu	$a0,$sp,72
  411ca4:	afae0010 	sw	$t6,16($sp)
  411ca8:	0c1064a2 	jal	419288 <__ull_divrem_5353>
  411cac:	afaf0014 	sw	$t7,20($sp)
  411cb0:	1000000e 	b	411cec <__ll_rem+0x188>
  411cb4:	8fa9002c 	lw	$t1,44($sp)
  411cb8:	8d810000 	lw	$at,0($t4)
  411cbc:	27a80050 	addiu	$t0,$sp,80
  411cc0:	afa10008 	sw	$at,8($sp)
  411cc4:	8d870004 	lw	$a3,4($t4)
  411cc8:	8fa60008 	lw	$a2,8($sp)
  411ccc:	afa7000c 	sw	$a3,12($sp)
  411cd0:	8d010000 	lw	$at,0($t0)
  411cd4:	27a50040 	addiu	$a1,$sp,64
  411cd8:	afa10010 	sw	$at,16($sp)
  411cdc:	8d0b0004 	lw	$t3,4($t0)
  411ce0:	0c1045af 	jal	4116bc <_fcvt_r+0xcc>
  411ce4:	afab0014 	sw	$t3,20($sp)
  411ce8:	8fa9002c 	lw	$t1,44($sp)
  411cec:	8fad0040 	lw	$t5,64($sp)
  411cf0:	11200009 	beqz	$t1,411d18 <__ll_rem+0x1b4>
  411cf4:	8fbf001c 	lw	$ra,28($sp)
  411cf8:	8faf0044 	lw	$t7,68($sp)
  411cfc:	01a07027 	nor	$t6,$t5,$zero
  411d00:	2df80001 	sltiu	$t8,$t7,1
  411d04:	01d86021 	addu	$t4,$t6,$t8
  411d08:	000fc823 	negu	$t9,$t7
  411d0c:	afb90044 	sw	$t9,68($sp)
  411d10:	afac0040 	sw	$t4,64($sp)
  411d14:	8fbf001c 	lw	$ra,28($sp)
  411d18:	8fa20040 	lw	$v0,64($sp)
  411d1c:	8fa30044 	lw	$v1,68($sp)
  411d20:	03e00008 	jr	$ra
  411d24:	27bd0060 	addiu	$sp,$sp,96

00411d28 <__ull_rem>:
  411d28:	27bdffa8 	addiu	$sp,$sp,-88
  411d2c:	afbf001c 	sw	$ra,28($sp)
  411d30:	afa40058 	sw	$a0,88($sp)
  411d34:	afa5005c 	sw	$a1,92($sp)
  411d38:	afa60060 	sw	$a2,96($sp)
  411d3c:	afa70064 	sw	$a3,100($sp)
  411d40:	afa40050 	sw	$a0,80($sp)
  411d44:	afa50054 	sw	$a1,84($sp)
  411d48:	afa60048 	sw	$a2,72($sp)
  411d4c:	14c00004 	bnez	$a2,411d60 <__ull_rem+0x38>
  411d50:	afa7004c 	sw	$a3,76($sp)
  411d54:	3c010001 	lui	$at,0x1
  411d58:	10000002 	b	411d64 <__ull_rem+0x3c>
  411d5c:	00e1102b 	sltu	$v0,$a3,$at
  411d60:	00001025 	move	$v0,$zero
  411d64:	1040000b 	beqz	$v0,411d94 <__ull_rem+0x6c>
  411d68:	27a40040 	addiu	$a0,$sp,64
  411d6c:	8faa0060 	lw	$t2,96($sp)
  411d70:	8fab0064 	lw	$t3,100($sp)
  411d74:	8fa60058 	lw	$a2,88($sp)
  411d78:	8fa7005c 	lw	$a3,92($sp)
  411d7c:	27a50038 	addiu	$a1,$sp,56
  411d80:	afaa0010 	sw	$t2,16($sp)
  411d84:	0c10645c 	jal	419170 <__ull_divrem_6416>
  411d88:	afab0014 	sw	$t3,20($sp)
  411d8c:	10000031 	b	411e54 <__ull_rem+0x12c>
  411d90:	8fbf001c 	lw	$ra,28($sp)
  411d94:	8fac0050 	lw	$t4,80($sp)
  411d98:	3c030020 	lui	$v1,0x20
  411d9c:	15830006 	bne	$t4,$v1,411db8 <__ull_rem+0x90>
  411da0:	27a40040 	addiu	$a0,$sp,64
  411da4:	8fa20054 	lw	$v0,84($sp)
  411da8:	00000000 	nop
  411dac:	2c4d0001 	sltiu	$t5,$v0,1
  411db0:	10000004 	b	411dc4 <__ull_rem+0x9c>
  411db4:	01a01025 	move	$v0,$t5
  411db8:	8fae0050 	lw	$t6,80($sp)
  411dbc:	00000000 	nop
  411dc0:	01c3102b 	sltu	$v0,$t6,$v1
  411dc4:	10400016 	beqz	$v0,411e20 <__ull_rem+0xf8>
  411dc8:	27aa0050 	addiu	$t2,$sp,80
  411dcc:	8faf0048 	lw	$t7,72($sp)
  411dd0:	8fb90048 	lw	$t9,72($sp)
  411dd4:	15e30006 	bne	$t7,$v1,411df0 <__ull_rem+0xc8>
  411dd8:	0323102b 	sltu	$v0,$t9,$v1
  411ddc:	8fa2004c 	lw	$v0,76($sp)
  411de0:	00000000 	nop
  411de4:	2c580001 	sltiu	$t8,$v0,1
  411de8:	10000001 	b	411df0 <__ull_rem+0xc8>
  411dec:	03001025 	move	$v0,$t8
  411df0:	1040000b 	beqz	$v0,411e20 <__ull_rem+0xf8>
  411df4:	27a50038 	addiu	$a1,$sp,56
  411df8:	8fa80060 	lw	$t0,96($sp)
  411dfc:	8fa90064 	lw	$t1,100($sp)
  411e00:	8fa60058 	lw	$a2,88($sp)
  411e04:	8fa7005c 	lw	$a3,92($sp)
  411e08:	27a40040 	addiu	$a0,$sp,64
  411e0c:	afa80010 	sw	$t0,16($sp)
  411e10:	0c1064a2 	jal	419288 <__ull_divrem_5353>
  411e14:	afa90014 	sw	$t1,20($sp)
  411e18:	1000000e 	b	411e54 <__ull_rem+0x12c>
  411e1c:	8fbf001c 	lw	$ra,28($sp)
  411e20:	8d410000 	lw	$at,0($t2)
  411e24:	27ad0048 	addiu	$t5,$sp,72
  411e28:	afa10008 	sw	$at,8($sp)
  411e2c:	8d470004 	lw	$a3,4($t2)
  411e30:	8fa60008 	lw	$a2,8($sp)
  411e34:	afa7000c 	sw	$a3,12($sp)
  411e38:	8da10000 	lw	$at,0($t5)
  411e3c:	27a50038 	addiu	$a1,$sp,56
  411e40:	afa10010 	sw	$at,16($sp)
  411e44:	8daf0004 	lw	$t7,4($t5)
  411e48:	0c1045af 	jal	4116bc <_fcvt_r+0xcc>
  411e4c:	afaf0014 	sw	$t7,20($sp)
  411e50:	8fbf001c 	lw	$ra,28($sp)
  411e54:	8fa20038 	lw	$v0,56($sp)
  411e58:	8fa3003c 	lw	$v1,60($sp)
  411e5c:	03e00008 	jr	$ra
  411e60:	27bd0058 	addiu	$sp,$sp,88

00411e64 <__ll_mod>:
  411e64:	27bdffd8 	addiu	$sp,$sp,-40
  411e68:	afbf0014 	sw	$ra,20($sp)
  411e6c:	afa40028 	sw	$a0,40($sp)
  411e70:	afa5002c 	sw	$a1,44($sp)
  411e74:	afa60030 	sw	$a2,48($sp)
  411e78:	afa70034 	sw	$a3,52($sp)
  411e7c:	afa60020 	sw	$a2,32($sp)
  411e80:	0c1046d9 	jal	411b64 <__ll_rem>
  411e84:	afa70024 	sw	$a3,36($sp)
  411e88:	8fb80020 	lw	$t8,32($sp)
  411e8c:	28490000 	slti	$t1,$v0,0
  411e90:	2b190000 	slti	$t9,$t8,0
  411e94:	afa20018 	sw	$v0,24($sp)
  411e98:	13290009 	beq	$t9,$t1,411ec0 <__ll_mod+0x5c>
  411e9c:	afa3001c 	sw	$v1,28($sp)
  411ea0:	8fae0024 	lw	$t6,36($sp)
  411ea4:	8fab0020 	lw	$t3,32($sp)
  411ea8:	006e7821 	addu	$t7,$v1,$t6
  411eac:	01eec02b 	sltu	$t8,$t7,$t6
  411eb0:	004b6021 	addu	$t4,$v0,$t3
  411eb4:	01984021 	addu	$t0,$t4,$t8
  411eb8:	afa80018 	sw	$t0,24($sp)
  411ebc:	afaf001c 	sw	$t7,28($sp)
  411ec0:	8fbf0014 	lw	$ra,20($sp)
  411ec4:	8fa20018 	lw	$v0,24($sp)
  411ec8:	8fa3001c 	lw	$v1,28($sp)
  411ecc:	03e00008 	jr	$ra
  411ed0:	27bd0028 	addiu	$sp,$sp,40
	...

00411ee0 <__ll_lshift>:
  411ee0:	27bdffe8 	addiu	$sp,$sp,-24
  411ee4:	30e9003f 	andi	$t1,$a3,0x3f
  411ee8:	afa60008 	sw	$a2,8($sp)
  411eec:	afa7000c 	sw	$a3,12($sp)
  411ef0:	2d210020 	sltiu	$at,$t1,32
  411ef4:	afa40018 	sw	$a0,24($sp)
  411ef8:	afa5001c 	sw	$a1,28($sp)
  411efc:	afa60020 	sw	$a2,32($sp)
  411f00:	afa70024 	sw	$a3,36($sp)
  411f04:	afa40010 	sw	$a0,16($sp)
  411f08:	afa50014 	sw	$a1,20($sp)
  411f0c:	afa9000c 	sw	$t1,12($sp)
  411f10:	14200005 	bnez	$at,411f28 <__ll_lshift+0x48>
  411f14:	afa00008 	sw	$zero,8($sp)
  411f18:	01255804 	sllv	$t3,$a1,$t1
  411f1c:	afab0000 	sw	$t3,0($sp)
  411f20:	10000011 	b	411f68 <__ll_lshift+0x88>
  411f24:	afa00004 	sw	$zero,4($sp)
  411f28:	8fac000c 	lw	$t4,12($sp)
  411f2c:	8fa20018 	lw	$v0,24($sp)
  411f30:	1180000a 	beqz	$t4,411f5c <__ll_lshift+0x7c>
  411f34:	000cc023 	negu	$t8,$t4
  411f38:	8fad0010 	lw	$t5,16($sp)
  411f3c:	8faf0014 	lw	$t7,20($sp)
  411f40:	018d7004 	sllv	$t6,$t5,$t4
  411f44:	030fc806 	srlv	$t9,$t7,$t8
  411f48:	01d94025 	or	$t0,$t6,$t9
  411f4c:	018f5004 	sllv	$t2,$t7,$t4
  411f50:	afa80000 	sw	$t0,0($sp)
  411f54:	10000004 	b	411f68 <__ll_lshift+0x88>
  411f58:	afaa0004 	sw	$t2,4($sp)
  411f5c:	8fa3001c 	lw	$v1,28($sp)
  411f60:	10000004 	b	411f74 <__ll_lshift+0x94>
  411f64:	00000000 	nop
  411f68:	8fa20000 	lw	$v0,0($sp)
  411f6c:	8fa30004 	lw	$v1,4($sp)
  411f70:	00000000 	nop
  411f74:	03e00008 	jr	$ra
  411f78:	27bd0018 	addiu	$sp,$sp,24

00411f7c <__ull_rshift>:
  411f7c:	27bdffe8 	addiu	$sp,$sp,-24
  411f80:	30e9003f 	andi	$t1,$a3,0x3f
  411f84:	afa60008 	sw	$a2,8($sp)
  411f88:	afa7000c 	sw	$a3,12($sp)
  411f8c:	2d210020 	sltiu	$at,$t1,32
  411f90:	afa40018 	sw	$a0,24($sp)
  411f94:	afa5001c 	sw	$a1,28($sp)
  411f98:	afa60020 	sw	$a2,32($sp)
  411f9c:	afa70024 	sw	$a3,36($sp)
  411fa0:	afa40010 	sw	$a0,16($sp)
  411fa4:	afa50014 	sw	$a1,20($sp)
  411fa8:	afa9000c 	sw	$t1,12($sp)
  411fac:	14200005 	bnez	$at,411fc4 <__ull_rshift+0x48>
  411fb0:	afa00008 	sw	$zero,8($sp)
  411fb4:	01245806 	srlv	$t3,$a0,$t1
  411fb8:	afab0004 	sw	$t3,4($sp)
  411fbc:	10000011 	b	412004 <__ull_rshift+0x88>
  411fc0:	afa00000 	sw	$zero,0($sp)
  411fc4:	8fac000c 	lw	$t4,12($sp)
  411fc8:	8fa20018 	lw	$v0,24($sp)
  411fcc:	1180000a 	beqz	$t4,411ff8 <__ull_rshift+0x7c>
  411fd0:	000cc023 	negu	$t8,$t4
  411fd4:	8fad0014 	lw	$t5,20($sp)
  411fd8:	8faf0010 	lw	$t7,16($sp)
  411fdc:	018d7006 	srlv	$t6,$t5,$t4
  411fe0:	030fc804 	sllv	$t9,$t7,$t8
  411fe4:	01d94025 	or	$t0,$t6,$t9
  411fe8:	018f5006 	srlv	$t2,$t7,$t4
  411fec:	afa80004 	sw	$t0,4($sp)
  411ff0:	10000004 	b	412004 <__ull_rshift+0x88>
  411ff4:	afaa0000 	sw	$t2,0($sp)
  411ff8:	8fa3001c 	lw	$v1,28($sp)
  411ffc:	10000004 	b	412010 <__ull_rshift+0x94>
  412000:	00000000 	nop
  412004:	8fa20000 	lw	$v0,0($sp)
  412008:	8fa30004 	lw	$v1,4($sp)
  41200c:	00000000 	nop
  412010:	03e00008 	jr	$ra
  412014:	27bd0018 	addiu	$sp,$sp,24

00412018 <__ll_rshift>:
  412018:	27bdffe8 	addiu	$sp,$sp,-24
  41201c:	30e9003f 	andi	$t1,$a3,0x3f
  412020:	afa60008 	sw	$a2,8($sp)
  412024:	afa7000c 	sw	$a3,12($sp)
  412028:	2d210020 	sltiu	$at,$t1,32
  41202c:	afa40018 	sw	$a0,24($sp)
  412030:	afa5001c 	sw	$a1,28($sp)
  412034:	afa60020 	sw	$a2,32($sp)
  412038:	afa70024 	sw	$a3,36($sp)
  41203c:	afa40010 	sw	$a0,16($sp)
  412040:	afa50014 	sw	$a1,20($sp)
  412044:	afa9000c 	sw	$t1,12($sp)
  412048:	14200009 	bnez	$at,412070 <__ll_rshift+0x58>
  41204c:	afa00008 	sw	$zero,8($sp)
  412050:	01245807 	srav	$t3,$a0,$t1
  412054:	04810004 	bgez	$a0,412068 <__ll_rshift+0x50>
  412058:	afab0004 	sw	$t3,4($sp)
  41205c:	240cffff 	li	$t4,-1
  412060:	10000015 	b	4120b8 <__ll_rshift+0xa0>
  412064:	afac0000 	sw	$t4,0($sp)
  412068:	10000013 	b	4120b8 <__ll_rshift+0xa0>
  41206c:	afa00000 	sw	$zero,0($sp)
  412070:	8fad000c 	lw	$t5,12($sp)
  412074:	8fa20018 	lw	$v0,24($sp)
  412078:	11a0000c 	beqz	$t5,4120ac <__ll_rshift+0x94>
  41207c:	000dc823 	negu	$t9,$t5
  412080:	8fae0014 	lw	$t6,20($sp)
  412084:	8fb80010 	lw	$t8,16($sp)
  412088:	8fab0010 	lw	$t3,16($sp)
  41208c:	8faa000c 	lw	$t2,12($sp)
  412090:	01ae7806 	srlv	$t7,$t6,$t5
  412094:	03384004 	sllv	$t0,$t8,$t9
  412098:	01e84825 	or	$t1,$t7,$t0
  41209c:	014b6007 	srav	$t4,$t3,$t2
  4120a0:	afa90004 	sw	$t1,4($sp)
  4120a4:	10000004 	b	4120b8 <__ll_rshift+0xa0>
  4120a8:	afac0000 	sw	$t4,0($sp)
  4120ac:	8fa3001c 	lw	$v1,28($sp)
  4120b0:	10000004 	b	4120c4 <__ll_rshift+0xac>
  4120b4:	00000000 	nop
  4120b8:	8fa20000 	lw	$v0,0($sp)
  4120bc:	8fa30004 	lw	$v1,4($sp)
  4120c0:	00000000 	nop
  4120c4:	03e00008 	jr	$ra
  4120c8:	27bd0018 	addiu	$sp,$sp,24
  4120cc:	00000000 	nop

004120d0 <_cassearchstart>:
  4120d0:	848d0012 	lh	$t5,18($a0)
  4120d4:	848c0010 	lh	$t4,16($a0)
  4120d8:	15a00027 	bnez	$t5,412178 <_lockcas2end+0x48>
  4120dc:	00000000 	nop

004120e0 <_lockcas1start>:
  4120e0:	8c85000c 	lw	$a1,12($a0)
  4120e4:	3c020001 	lui	$v0,0x1
  4120e8:	00057c02 	srl	$t7,$a1,0x10
  4120ec:	11ec0003 	beq	$t7,$t4,4120fc <_lockcas1start+0x1c>
  4120f0:	30aeffff 	andi	$t6,$a1,0xffff
  4120f4:	10000002 	b	412100 <_lockcas1start+0x20>
  4120f8:	00453021 	addu	$a2,$v0,$a1
  4120fc:	01c03025 	move	$a2,$t6
  412100:	ac86000c 	sw	$a2,12($a0)

00412104 <_lockcas1end>:
  412104:	15ee0003 	bne	$t7,$t6,412114 <_lockcas1end+0x10>
  412108:	00000000 	nop
  41210c:	03e00008 	jr	$ra
  412110:	24020001 	li	$v0,1
  412114:	3c0a0020 	lui	$t2,0x20
  412118:	000f1080 	sll	$v0,$t7,0x2
  41211c:	8d460e00 	lw	$a2,3584($t2)
  412120:	00825821 	addu	$t3,$a0,$v0

00412124 <_lockcas2start>:
  412124:	8d65001c 	lw	$a1,28($t3)
  412128:	00000000 	nop
  41212c:	ad66001c 	sw	$a2,28($t3)

00412130 <_lockcas2end>:
  412130:	24030001 	li	$v1,1
  412134:	10a3000c 	beq	$a1,$v1,412168 <_lockcas2end+0x38>
  412138:	00000000 	nop
  41213c:	27bdffe0 	addiu	$sp,$sp,-32
  412140:	afbf001c 	sw	$ra,28($sp)
  412144:	8c840000 	lw	$a0,0($a0)
  412148:	3c070042 	lui	$a3,0x42
  41214c:	00002825 	move	$a1,$zero
  412150:	00c03025 	move	$a2,$a2
  412154:	0c102aa2 	jal	40aa88 <_usblock>
  412158:	24e7db70 	addiu	$a3,$a3,-9360
  41215c:	8fbf001c 	lw	$ra,28($sp)
  412160:	14400003 	bnez	$v0,412170 <_lockcas2end+0x40>
  412164:	27bd0020 	addiu	$sp,$sp,32
  412168:	03e00008 	jr	$ra
  41216c:	24020001 	li	$v0,1
  412170:	03e00008 	jr	$ra
  412174:	2402ffff 	li	$v0,-1
  412178:	3c190041 	lui	$t9,0x41
  41217c:	27398640 	addiu	$t9,$t9,-31168
  412180:	03200008 	jr	$t9
  412184:	03e02825 	move	$a1,$ra

00412188 <_scsetlock>:
  412188:	848d0012 	lh	$t5,18($a0)
  41218c:	848c0010 	lh	$t4,16($a0)
  412190:	15a00016 	bnez	$t5,4121ec <_clockcas1end+0x1c>
  412194:	00000000 	nop
  412198:	10a00012 	beqz	$a1,4121e4 <_clockcas1end+0x14>
  41219c:	00000000 	nop

004121a0 <_clockcas1start>:
  4121a0:	8c87000c 	lw	$a3,12($a0)
  4121a4:	3c020001 	lui	$v0,0x1
  4121a8:	00077c02 	srl	$t7,$a3,0x10
  4121ac:	30eeffff 	andi	$t6,$a3,0xffff
  4121b0:	15ee0009 	bne	$t7,$t6,4121d8 <_clockcas1end+0x8>
  4121b4:	00000000 	nop
  4121b8:	11ec0003 	beq	$t7,$t4,4121c8 <_clockcas1start+0x28>
  4121bc:	00000000 	nop
  4121c0:	10000002 	b	4121cc <_clockcas1start+0x2c>
  4121c4:	00473021 	addu	$a2,$v0,$a3
  4121c8:	01c03025 	move	$a2,$t6
  4121cc:	ac86000c 	sw	$a2,12($a0)

004121d0 <_clockcas1end>:
  4121d0:	03e00008 	jr	$ra
  4121d4:	24020001 	li	$v0,1
  4121d8:	24a5ffff 	addiu	$a1,$a1,-1
  4121dc:	14a0fff0 	bnez	$a1,4121a0 <_clockcas1start>
  4121e0:	00000000 	nop
  4121e4:	03e00008 	jr	$ra
  4121e8:	00001025 	move	$v0,$zero
  4121ec:	3c190041 	lui	$t9,0x41
  4121f0:	27398a30 	addiu	$t9,$t9,-30160
  4121f4:	03200008 	jr	$t9
  4121f8:	03e03025 	move	$a2,$ra

004121fc <_sunsetlock>:
  4121fc:	848b0012 	lh	$t3,18($a0)
  412200:	848c0010 	lh	$t4,16($a0)
  412204:	15600032 	bnez	$t3,4122d0 <_unlockcas2end+0x60>
  412208:	00000000 	nop

0041220c <_unlockcas1start>:
  41220c:	8c85000c 	lw	$a1,12($a0)
  412210:	3c03ffff 	lui	$v1,0xffff
  412214:	30aeffff 	andi	$t6,$a1,0xffff
  412218:	000e1080 	sll	$v0,$t6,0x2
  41221c:	00057c02 	srl	$t7,$a1,0x10
  412220:	11cf000b 	beq	$t6,$t7,412250 <_unlockcas1end+0x8>
  412224:	00826821 	addu	$t5,$a0,$v0
  412228:	ada0001c 	sw	$zero,28($t5)
  41222c:	11cc0003 	beq	$t6,$t4,41223c <_unlockcas1start+0x30>
  412230:	25d80001 	addiu	$t8,$t6,1
  412234:	10000003 	b	412244 <_unlockcas1start+0x38>
  412238:	24a60001 	addiu	$a2,$a1,1
  41223c:	0000c025 	move	$t8,$zero
  412240:	00a33024 	and	$a2,$a1,$v1
  412244:	ac86000c 	sw	$a2,12($a0)

00412248 <_unlockcas1end>:
  412248:	15f80003 	bne	$t7,$t8,412258 <_unlockcas1end+0x10>
  41224c:	00000000 	nop
  412250:	03e00008 	jr	$ra
  412254:	00001025 	move	$v0,$zero
  412258:	00181080 	sll	$v0,$t8,0x2
  41225c:	24060001 	li	$a2,1
  412260:	00825821 	addu	$t3,$a0,$v0

00412264 <_unlockcas2start>:
  412264:	8d6a001c 	lw	$t2,28($t3)
  412268:	00000000 	nop
  41226c:	ad66001c 	sw	$a2,28($t3)

00412270 <_unlockcas2end>:
  412270:	2d430002 	sltiu	$v1,$t2,2
  412274:	1460000e 	bnez	$v1,4122b0 <_unlockcas2end+0x40>
  412278:	00000000 	nop
  41227c:	27bdffe0 	addiu	$sp,$sp,-32
  412280:	afbf001c 	sw	$ra,28($sp)
  412284:	afa40014 	sw	$a0,20($sp)
  412288:	8c840000 	lw	$a0,0($a0)
  41228c:	3c070042 	lui	$a3,0x42
  412290:	00002825 	move	$a1,$zero
  412294:	01403025 	move	$a2,$t2
  412298:	0c102af6 	jal	40abd8 <_usunblock>
  41229c:	24e7db7a 	addiu	$a3,$a3,-9350
  4122a0:	8fa40014 	lw	$a0,20($sp)
  4122a4:	8fbf001c 	lw	$ra,28($sp)
  4122a8:	14400003 	bnez	$v0,4122b8 <_unlockcas2end+0x48>
  4122ac:	27bd0020 	addiu	$sp,$sp,32
  4122b0:	03e00008 	jr	$ra
  4122b4:	00001025 	move	$v0,$zero
  4122b8:	848c0010 	lh	$t4,16($a0)
  4122bc:	24010001 	li	$at,1
  4122c0:	1041ffd2 	beq	$v0,$at,41220c <_unlockcas1start>
  4122c4:	00000000 	nop
  4122c8:	03e00008 	jr	$ra
  4122cc:	00000000 	nop
  4122d0:	3c190041 	lui	$t9,0x41
  4122d4:	27398850 	addiu	$t9,$t9,-30640
  4122d8:	03200008 	jr	$t9
  4122dc:	03e02825 	move	$a1,$ra

004122e0 <_scas>:
  4122e0:	8c880000 	lw	$t0,0($a0)
  4122e4:	00000000 	nop
  4122e8:	15050003 	bne	$t0,$a1,4122f8 <_scasend>
  4122ec:	24020001 	li	$v0,1
  4122f0:	03e00008 	jr	$ra
  4122f4:	ac860000 	sw	$a2,0($a0)

004122f8 <_scasend>:
  4122f8:	03e00008 	jr	$ra
  4122fc:	00001025 	move	$v0,$zero

00412300 <_hcas>:
  412300:	8cea0000 	lw	$t2,0($a3)
  412304:	00000000 	nop

00412308 <_hcasstart>:
  412308:	8d490000 	lw	$t1,0($t2)

0041230c <_hcasmayhave>:
  41230c:	00000000 	nop
  412310:	31290001 	andi	$t1,$t1,0x1
  412314:	1520fffc 	bnez	$t1,412308 <_hcasstart>
  412318:	00000000 	nop

0041231c <_hcashavelock>:
  41231c:	8c880000 	lw	$t0,0($a0)
  412320:	00000000 	nop
  412324:	15050005 	bne	$t0,$a1,41233c <_hcasfail>
  412328:	24020001 	li	$v0,1
  41232c:	ac860000 	sw	$a2,0($a0)

00412330 <_hcasend>:
  412330:	ad400000 	sw	$zero,0($t2)
  412334:	03e00008 	jr	$ra
  412338:	00000000 	nop

0041233c <_hcasfail>:
  41233c:	ad400000 	sw	$zero,0($t2)
  412340:	03e00008 	jr	$ra
  412344:	00001025 	move	$v0,$zero

00412348 <_cassearchend>:
  412348:	3c190041 	lui	$t9,0x41
  41234c:	3c070042 	lui	$a3,0x42
  412350:	27392300 	addiu	$t9,$t9,8960
  412354:	03200008 	jr	$t9
  412358:	24e70b20 	addiu	$a3,$a3,2848

0041235c <_hgrablock>:
  41235c:	8c880008 	lw	$t0,8($a0)
  412360:	00000000 	nop
  412364:	8d080000 	lw	$t0,0($t0)
  412368:	00000000 	nop
  41236c:	03e00008 	jr	$ra
  412370:	31020001 	andi	$v0,$t0,0x1

00412374 <_hrellock>:
  412374:	8c840008 	lw	$a0,8($a0)
  412378:	03e00008 	jr	$ra
  41237c:	ac800000 	sw	$zero,0($a0)
  412380:	27bdffb0 	addiu	$sp,$sp,-80
  412384:	afbf003c 	sw	$ra,60($sp)
  412388:	afb60038 	sw	$s6,56($sp)
  41238c:	afb50034 	sw	$s5,52($sp)
  412390:	afb40030 	sw	$s4,48($sp)
  412394:	afb3002c 	sw	$s3,44($sp)
  412398:	afb20028 	sw	$s2,40($sp)
  41239c:	afb10024 	sw	$s1,36($sp)
  4123a0:	afb00020 	sw	$s0,32($sp)
  4123a4:	afa60058 	sw	$a2,88($sp)
  4123a8:	8c820424 	lw	$v0,1060($a0)
  4123ac:	00809025 	move	$s2,$a0
  4123b0:	00a0a825 	move	$s5,$a1
  4123b4:	1840007b 	blez	$v0,4125a4 <_hrellock+0x230>
  4123b8:	00008025 	move	$s0,$zero
  4123bc:	3c160020 	lui	$s6,0x20
  4123c0:	2411ffff 	li	$s1,-1
  4123c4:	8e4e000c 	lw	$t6,12($s2)
  4123c8:	001098c0 	sll	$s3,$s0,0x3
  4123cc:	01d37821 	addu	$t7,$t6,$s3
  4123d0:	8de60000 	lw	$a2,0($t7)
  4123d4:	8f98af30 	lw	$t8,-20688($gp)
  4123d8:	14d50003 	bne	$a2,$s5,4123e8 <_hrellock+0x74>
  4123dc:	00000000 	nop
  4123e0:	1000006b 	b	412590 <_hrellock+0x21c>
  4123e4:	26140001 	addiu	$s4,$s0,1
  4123e8:	17000005 	bnez	$t8,412400 <_hrellock+0x8c>
  4123ec:	26140001 	addiu	$s4,$s0,1
  4123f0:	14d10004 	bne	$a2,$s1,412404 <_hrellock+0x90>
  4123f4:	8fa50058 	lw	$a1,88($sp)
  4123f8:	10000065 	b	412590 <_hrellock+0x21c>
  4123fc:	26140001 	addiu	$s4,$s0,1
  412400:	8fa50058 	lw	$a1,88($sp)
  412404:	02802025 	move	$a0,$s4
  412408:	0c105c77 	jal	4171dc <_usfgetlock>
  41240c:	afa60044 	sw	$a2,68($sp)
  412410:	8fa60044 	lw	$a2,68($sp)
  412414:	14400043 	bnez	$v0,412524 <_hrellock+0x1b0>
  412418:	00401825 	move	$v1,$v0
  41241c:	14d10004 	bne	$a2,$s1,412430 <_hrellock+0xbc>
  412420:	00000000 	nop
  412424:	8e420424 	lw	$v0,1060($s2)
  412428:	1000005a 	b	412594 <_hrellock+0x220>
  41242c:	00148400 	sll	$s0,$s4,0x10
  412430:	8e590014 	lw	$t9,20($s2)
  412434:	8e4a0010 	lw	$t2,16($s2)
  412438:	03261824 	and	$v1,$t9,$a2
  41243c:	00034400 	sll	$t0,$v1,0x10
  412440:	00084c03 	sra	$t1,$t0,0x10
  412444:	00095840 	sll	$t3,$t1,0x1
  412448:	014b2021 	addu	$a0,$t2,$t3
  41244c:	84820000 	lh	$v0,0($a0)
  412450:	00000000 	nop
  412454:	14500007 	bne	$v0,$s0,412474 <_hrellock+0x100>
  412458:	00000000 	nop
  41245c:	8e4c000c 	lw	$t4,12($s2)
  412460:	000268c0 	sll	$t5,$v0,0x3
  412464:	018d7021 	addu	$t6,$t4,$t5
  412468:	85cf0004 	lh	$t7,4($t6)
  41246c:	10000012 	b	4124b8 <_hrellock+0x144>
  412470:	a48f0000 	sh	$t7,0($a0)
  412474:	8e43000c 	lw	$v1,12($s2)
  412478:	00000000 	nop
  41247c:	0002c8c0 	sll	$t9,$v0,0x3
  412480:	00022400 	sll	$a0,$v0,0x10
  412484:	00794021 	addu	$t0,$v1,$t9
  412488:	85020004 	lh	$v0,4($t0)
  41248c:	0004c403 	sra	$t8,$a0,0x10
  412490:	14500007 	bne	$v0,$s0,4124b0 <_hrellock+0x13c>
  412494:	000248c0 	sll	$t1,$v0,0x3
  412498:	00695021 	addu	$t2,$v1,$t1
  41249c:	854b0004 	lh	$t3,4($t2)
  4124a0:	001860c0 	sll	$t4,$t8,0x3
  4124a4:	006c6821 	addu	$t5,$v1,$t4
  4124a8:	10000003 	b	4124b8 <_hrellock+0x144>
  4124ac:	a5ab0004 	sh	$t3,4($t5)
  4124b0:	1451fff3 	bne	$v0,$s1,412480 <_hrellock+0x10c>
  4124b4:	0002c8c0 	sll	$t9,$v0,0x3
  4124b8:	04c0000b 	bltz	$a2,4124e8 <_hrellock+0x174>
  4124bc:	00000000 	nop
  4124c0:	8f8eaf30 	lw	$t6,-20688($gp)
  4124c4:	00002025 	move	$a0,$zero
  4124c8:	11c00007 	beqz	$t6,4124e8 <_hrellock+0x174>
  4124cc:	3c050042 	lui	$a1,0x42
  4124d0:	264f001c 	addiu	$t7,$s2,28
  4124d4:	afaf0010 	sw	$t7,16($sp)
  4124d8:	24a5c280 	addiu	$a1,$a1,-15744
  4124dc:	02003825 	move	$a3,$s0
  4124e0:	0c1050fc 	jal	4143f0 <_uprint>
  4124e4:	afb50014 	sw	$s5,20($sp)
  4124e8:	8e58000c 	lw	$t8,12($s2)
  4124ec:	00000000 	nop
  4124f0:	0313c821 	addu	$t9,$t8,$s3
  4124f4:	af310000 	sw	$s1,0($t9)
  4124f8:	8e48000c 	lw	$t0,12($s2)
  4124fc:	00000000 	nop
  412500:	01134821 	addu	$t1,$t0,$s3
  412504:	a5310006 	sh	$s1,6($t1)
  412508:	8e4a000c 	lw	$t2,12($s2)
  41250c:	00000000 	nop
  412510:	01536021 	addu	$t4,$t2,$s3
  412514:	a5910004 	sh	$s1,4($t4)
  412518:	8ecb0e00 	lw	$t3,3584($s6)
  41251c:	1000001a 	b	412588 <_hrellock+0x214>
  412520:	ae4b0a70 	sw	$t3,2672($s2)
  412524:	0441000b 	bgez	$v0,412554 <_hrellock+0x1e0>
  412528:	00000000 	nop
  41252c:	8f8d8ab0 	lw	$t5,-30032($gp)
  412530:	24040001 	li	$a0,1
  412534:	11a0001b 	beqz	$t5,4125a4 <_hrellock+0x230>
  412538:	3c050042 	lui	$a1,0x42
  41253c:	24a5c2d4 	addiu	$a1,$a1,-15660
  412540:	02a03025 	move	$a2,$s5
  412544:	0c1050fc 	jal	4143f0 <_uprint>
  412548:	2647001c 	addiu	$a3,$s2,28
  41254c:	10000016 	b	4125a8 <_hrellock+0x234>
  412550:	8fbf003c 	lw	$ra,60($sp)
  412554:	8f8e8ab0 	lw	$t6,-30032($gp)
  412558:	00000000 	nop
  41255c:	11c0000a 	beqz	$t6,412588 <_hrellock+0x214>
  412560:	00000000 	nop
  412564:	10460008 	beq	$v0,$a2,412588 <_hrellock+0x214>
  412568:	00002025 	move	$a0,$zero
  41256c:	3c050042 	lui	$a1,0x42
  412570:	264f001c 	addiu	$t7,$s2,28
  412574:	afaf0014 	sw	$t7,20($sp)
  412578:	24a5c30c 	addiu	$a1,$a1,-15604
  41257c:	02003825 	move	$a3,$s0
  412580:	0c1050fc 	jal	4143f0 <_uprint>
  412584:	afa30010 	sw	$v1,16($sp)
  412588:	8e420424 	lw	$v0,1060($s2)
  41258c:	00000000 	nop
  412590:	00148400 	sll	$s0,$s4,0x10
  412594:	0010c403 	sra	$t8,$s0,0x10
  412598:	0302082a 	slt	$at,$t8,$v0
  41259c:	1420ff89 	bnez	$at,4123c4 <_hrellock+0x50>
  4125a0:	03008025 	move	$s0,$t8
  4125a4:	8fbf003c 	lw	$ra,60($sp)
  4125a8:	8fb00020 	lw	$s0,32($sp)
  4125ac:	8fb10024 	lw	$s1,36($sp)
  4125b0:	8fb20028 	lw	$s2,40($sp)
  4125b4:	8fb3002c 	lw	$s3,44($sp)
  4125b8:	8fb40030 	lw	$s4,48($sp)
  4125bc:	8fb50034 	lw	$s5,52($sp)
  4125c0:	8fb60038 	lw	$s6,56($sp)
  4125c4:	03e00008 	jr	$ra
  4125c8:	27bd0050 	addiu	$sp,$sp,80
  4125cc:	27bdffd8 	addiu	$sp,$sp,-40
  4125d0:	afb20020 	sw	$s2,32($sp)
  4125d4:	afb1001c 	sw	$s1,28($sp)
  4125d8:	00a08825 	move	$s1,$a1
  4125dc:	00809025 	move	$s2,$a0
  4125e0:	afbf0024 	sw	$ra,36($sp)
  4125e4:	afb00018 	sw	$s0,24($sp)
  4125e8:	18a0000e 	blez	$a1,412624 <_hrellock+0x2b0>
  4125ec:	00001025 	move	$v0,$zero
  4125f0:	24500001 	addiu	$s0,$v0,1
  4125f4:	02002025 	move	$a0,$s0
  4125f8:	0c105c77 	jal	4171dc <_usfgetlock>
  4125fc:	02402825 	move	$a1,$s2
  412600:	10400003 	beqz	$v0,412610 <_hrellock+0x29c>
  412604:	00000000 	nop
  412608:	10000008 	b	41262c <_hrellock+0x2b8>
  41260c:	8fbf0024 	lw	$ra,36($sp)
  412610:	00101400 	sll	$v0,$s0,0x10
  412614:	00027403 	sra	$t6,$v0,0x10
  412618:	01d1082a 	slt	$at,$t6,$s1
  41261c:	1420fff4 	bnez	$at,4125f0 <_hrellock+0x27c>
  412620:	01c01025 	move	$v0,$t6
  412624:	00001025 	move	$v0,$zero
  412628:	8fbf0024 	lw	$ra,36($sp)
  41262c:	8fb00018 	lw	$s0,24($sp)
  412630:	8fb1001c 	lw	$s1,28($sp)
  412634:	8fb20020 	lw	$s2,32($sp)
  412638:	03e00008 	jr	$ra
  41263c:	27bd0028 	addiu	$sp,$sp,40

00412640 <_usget_pid>:
  412640:	afa50004 	sw	$a1,4($sp)
  412644:	00057400 	sll	$t6,$a1,0x10
  412648:	8c98000c 	lw	$t8,12($a0)
  41264c:	000e7c03 	sra	$t7,$t6,0x10
  412650:	000fc8c0 	sll	$t9,$t7,0x3
  412654:	03194021 	addu	$t0,$t8,$t9
  412658:	8d020000 	lw	$v0,0($t0)
  41265c:	03e00008 	jr	$ra
  412660:	00000000 	nop

00412664 <_usgettid>:
  412664:	27bdffb8 	addiu	$sp,$sp,-72
  412668:	afbf001c 	sw	$ra,28($sp)
  41266c:	afb10018 	sw	$s1,24($sp)
  412670:	afb00014 	sw	$s0,20($sp)
  412674:	3c0e0020 	lui	$t6,0x20
  412678:	8dd00e00 	lw	$s0,3584($t6)
  41267c:	8c980014 	lw	$t8,20($a0)
  412680:	8c8f0010 	lw	$t7,16($a0)
  412684:	0218c824 	and	$t9,$s0,$t8
  412688:	00194040 	sll	$t0,$t9,0x1
  41268c:	01e84821 	addu	$t1,$t7,$t0
  412690:	85230000 	lh	$v1,0($t1)
  412694:	2406ffff 	li	$a2,-1
  412698:	8c85000c 	lw	$a1,12($a0)
  41269c:	1066000d 	beq	$v1,$a2,4126d4 <_usgettid+0x70>
  4126a0:	00808825 	move	$s1,$a0
  4126a4:	000350c0 	sll	$t2,$v1,0x3
  4126a8:	00aa1021 	addu	$v0,$a1,$t2
  4126ac:	8c4b0000 	lw	$t3,0($v0)
  4126b0:	00000000 	nop
  4126b4:	160b0003 	bne	$s0,$t3,4126c4 <_usgettid+0x60>
  4126b8:	00000000 	nop
  4126bc:	10000055 	b	412814 <_usgettid+0x1b0>
  4126c0:	00601025 	move	$v0,$v1
  4126c4:	84430004 	lh	$v1,4($v0)
  4126c8:	00000000 	nop
  4126cc:	1466fff6 	bne	$v1,$a2,4126a8 <_usgettid+0x44>
  4126d0:	000350c0 	sll	$t2,$v1,0x3
  4126d4:	8f828ab8 	lw	$v0,-30024($gp)
  4126d8:	00c03825 	move	$a3,$a2
  4126dc:	1040000c 	beqz	$v0,412710 <_usgettid+0xac>
  4126e0:	27a40024 	addiu	$a0,$sp,36
  4126e4:	8c4c0004 	lw	$t4,4($v0)
  4126e8:	00000000 	nop
  4126ec:	162c0004 	bne	$s1,$t4,412700 <_usgettid+0x9c>
  4126f0:	00000000 	nop
  4126f4:	8c470000 	lw	$a3,0($v0)
  4126f8:	10000005 	b	412710 <_usgettid+0xac>
  4126fc:	00000000 	nop
  412700:	8c420008 	lw	$v0,8($v0)
  412704:	00000000 	nop
  412708:	1440fff6 	bnez	$v0,4126e4 <_usgettid+0x80>
  41270c:	00000000 	nop
  412710:	14e6000b 	bne	$a3,$a2,412740 <_usgettid+0xdc>
  412714:	00000000 	nop
  412718:	8f8d8ab0 	lw	$t5,-30032($gp)
  41271c:	00002025 	move	$a0,$zero
  412720:	11a00005 	beqz	$t5,412738 <_usgettid+0xd4>
  412724:	3c050042 	lui	$a1,0x42
  412728:	24a5c34c 	addiu	$a1,$a1,-15540
  41272c:	02003025 	move	$a2,$s0
  412730:	0c1050fc 	jal	4143f0 <_uprint>
  412734:	02203825 	move	$a3,$s1
  412738:	10000036 	b	412814 <_usgettid+0x1b0>
  41273c:	2402ffff 	li	$v0,-1
  412740:	0c105185 	jal	414614 <__usblockallsigs>
  412744:	afa70034 	sw	$a3,52($sp)
  412748:	8fa50034 	lw	$a1,52($sp)
  41274c:	0c105c2a 	jal	4170a8 <_usfsplock>
  412750:	00002025 	move	$a0,$zero
  412754:	2406ffff 	li	$a2,-1
  412758:	8fa70034 	lw	$a3,52($sp)
  41275c:	1446000d 	bne	$v0,$a2,412794 <_usgettid+0x130>
  412760:	00002025 	move	$a0,$zero
  412764:	0c10519b 	jal	41466c <__usunblockallsigs>
  412768:	27a40024 	addiu	$a0,$sp,36
  41276c:	8f8e8ab0 	lw	$t6,-30032($gp)
  412770:	24040001 	li	$a0,1
  412774:	11c00005 	beqz	$t6,41278c <_usgettid+0x128>
  412778:	3c050042 	lui	$a1,0x42
  41277c:	24a5c388 	addiu	$a1,$a1,-15480
  412780:	02003025 	move	$a2,$s0
  412784:	0c1050fc 	jal	4143f0 <_uprint>
  412788:	2627001c 	addiu	$a3,$s1,28
  41278c:	10000021 	b	412814 <_usgettid+0x1b0>
  412790:	2402ffff 	li	$v0,-1
  412794:	8e390014 	lw	$t9,20($s1)
  412798:	8e380010 	lw	$t8,16($s1)
  41279c:	02197824 	and	$t7,$s0,$t9
  4127a0:	000f4040 	sll	$t0,$t7,0x1
  4127a4:	03084821 	addu	$t1,$t8,$t0
  4127a8:	85230000 	lh	$v1,0($t1)
  4127ac:	8e25000c 	lw	$a1,12($s1)
  4127b0:	10660012 	beq	$v1,$a2,4127fc <_usgettid+0x198>
  4127b4:	000350c0 	sll	$t2,$v1,0x3
  4127b8:	00aa1021 	addu	$v0,$a1,$t2
  4127bc:	8c4b0000 	lw	$t3,0($v0)
  4127c0:	00000000 	nop
  4127c4:	160b0009 	bne	$s0,$t3,4127ec <_usgettid+0x188>
  4127c8:	00000000 	nop
  4127cc:	00e02825 	move	$a1,$a3
  4127d0:	0c105c54 	jal	417150 <_usfunsplock>
  4127d4:	a7a30046 	sh	$v1,70($sp)
  4127d8:	0c10519b 	jal	41466c <__usunblockallsigs>
  4127dc:	27a40024 	addiu	$a0,$sp,36
  4127e0:	87a20046 	lh	$v0,70($sp)
  4127e4:	1000000c 	b	412818 <_usgettid+0x1b4>
  4127e8:	8fbf001c 	lw	$ra,28($sp)
  4127ec:	84430004 	lh	$v1,4($v0)
  4127f0:	00000000 	nop
  4127f4:	1466fff0 	bne	$v1,$a2,4127b8 <_usgettid+0x154>
  4127f8:	000350c0 	sll	$t2,$v1,0x3
  4127fc:	00002025 	move	$a0,$zero
  412800:	0c105c54 	jal	417150 <_usfunsplock>
  412804:	00e02825 	move	$a1,$a3
  412808:	0c10519b 	jal	41466c <__usunblockallsigs>
  41280c:	27a40024 	addiu	$a0,$sp,36
  412810:	2402ffff 	li	$v0,-1
  412814:	8fbf001c 	lw	$ra,28($sp)
  412818:	8fb00014 	lw	$s0,20($sp)
  41281c:	8fb10018 	lw	$s1,24($sp)
  412820:	03e00008 	jr	$ra
  412824:	27bd0048 	addiu	$sp,$sp,72

00412828 <_usclean_tidmap>:
  412828:	27bdffb8 	addiu	$sp,$sp,-72
  41282c:	afbf001c 	sw	$ra,28($sp)
  412830:	afb00018 	sw	$s0,24($sp)
  412834:	3c0e0020 	lui	$t6,0x20
  412838:	8f828ab8 	lw	$v0,-30024($gp)
  41283c:	8dcf0e00 	lw	$t7,3584($t6)
  412840:	00808025 	move	$s0,$a0
  412844:	2406ffff 	li	$a2,-1
  412848:	1040000c 	beqz	$v0,41287c <_usclean_tidmap+0x54>
  41284c:	afaf0040 	sw	$t7,64($sp)
  412850:	8c580004 	lw	$t8,4($v0)
  412854:	00000000 	nop
  412858:	16180004 	bne	$s0,$t8,41286c <_usclean_tidmap+0x44>
  41285c:	00000000 	nop
  412860:	8c460000 	lw	$a2,0($v0)
  412864:	10000006 	b	412880 <_usclean_tidmap+0x58>
  412868:	2407ffff 	li	$a3,-1
  41286c:	8c420008 	lw	$v0,8($v0)
  412870:	00000000 	nop
  412874:	1440fff6 	bnez	$v0,412850 <_usclean_tidmap+0x28>
  412878:	00000000 	nop
  41287c:	2407ffff 	li	$a3,-1
  412880:	14c7000d 	bne	$a2,$a3,4128b8 <_usclean_tidmap+0x90>
  412884:	27a4002c 	addiu	$a0,$sp,44
  412888:	8f998ab0 	lw	$t9,-30032($gp)
  41288c:	00002025 	move	$a0,$zero
  412890:	13200005 	beqz	$t9,4128a8 <_usclean_tidmap+0x80>
  412894:	3c050042 	lui	$a1,0x42
  412898:	8fa60040 	lw	$a2,64($sp)
  41289c:	24a5c3d0 	addiu	$a1,$a1,-15408
  4128a0:	0c1050fc 	jal	4143f0 <_uprint>
  4128a4:	02003825 	move	$a3,$s0
  4128a8:	0c102025 	jal	408094 <_setoserror>
  4128ac:	24040003 	li	$a0,3
  4128b0:	10000038 	b	412994 <_usclean_tidmap+0x16c>
  4128b4:	2402ffff 	li	$v0,-1
  4128b8:	0c105185 	jal	414614 <__usblockallsigs>
  4128bc:	afa60028 	sw	$a2,40($sp)
  4128c0:	8fa50028 	lw	$a1,40($sp)
  4128c4:	0c105c2a 	jal	4170a8 <_usfsplock>
  4128c8:	00002025 	move	$a0,$zero
  4128cc:	8fa60028 	lw	$a2,40($sp)
  4128d0:	2407ffff 	li	$a3,-1
  4128d4:	1447000d 	bne	$v0,$a3,41290c <_usclean_tidmap+0xe4>
  4128d8:	02002025 	move	$a0,$s0
  4128dc:	0c10519b 	jal	41466c <__usunblockallsigs>
  4128e0:	27a4002c 	addiu	$a0,$sp,44
  4128e4:	8f888ab0 	lw	$t0,-30032($gp)
  4128e8:	24040001 	li	$a0,1
  4128ec:	11000005 	beqz	$t0,412904 <_usclean_tidmap+0xdc>
  4128f0:	3c050042 	lui	$a1,0x42
  4128f4:	8fa60040 	lw	$a2,64($sp)
  4128f8:	24a5c414 	addiu	$a1,$a1,-15340
  4128fc:	0c1050fc 	jal	4143f0 <_uprint>
  412900:	2607001c 	addiu	$a3,$s0,28
  412904:	10000023 	b	412994 <_usclean_tidmap+0x16c>
  412908:	2402ffff 	li	$v0,-1
  41290c:	8fa50040 	lw	$a1,64($sp)
  412910:	0c1048e0 	jal	412380 <_hrellock+0xc>
  412914:	afa60028 	sw	$a2,40($sp)
  412918:	8e030424 	lw	$v1,1060($s0)
  41291c:	8fa60028 	lw	$a2,40($sp)
  412920:	2407ffff 	li	$a3,-1
  412924:	18600013 	blez	$v1,412974 <_usclean_tidmap+0x14c>
  412928:	00001025 	move	$v0,$zero
  41292c:	8e04000c 	lw	$a0,12($s0)
  412930:	00c02825 	move	$a1,$a2
  412934:	000248c0 	sll	$t1,$v0,0x3
  412938:	00895021 	addu	$t2,$a0,$t1
  41293c:	8d4b0000 	lw	$t3,0($t2)
  412940:	24420001 	addiu	$v0,$v0,1
  412944:	14eb0007 	bne	$a3,$t3,412964 <_usclean_tidmap+0x13c>
  412948:	00026400 	sll	$t4,$v0,0x10
  41294c:	0c105c54 	jal	417150 <_usfunsplock>
  412950:	00002025 	move	$a0,$zero
  412954:	0c10519b 	jal	41466c <__usunblockallsigs>
  412958:	27a4002c 	addiu	$a0,$sp,44
  41295c:	1000000d 	b	412994 <_usclean_tidmap+0x16c>
  412960:	24020001 	li	$v0,1
  412964:	000c1403 	sra	$v0,$t4,0x10
  412968:	0043082a 	slt	$at,$v0,$v1
  41296c:	1420fff2 	bnez	$at,412938 <_usclean_tidmap+0x110>
  412970:	000248c0 	sll	$t1,$v0,0x3
  412974:	00002025 	move	$a0,$zero
  412978:	0c105c54 	jal	417150 <_usfunsplock>
  41297c:	00c02825 	move	$a1,$a2
  412980:	0c10519b 	jal	41466c <__usunblockallsigs>
  412984:	27a4002c 	addiu	$a0,$sp,44
  412988:	0c102025 	jal	408094 <_setoserror>
  41298c:	2404001c 	li	$a0,28
  412990:	2402ffff 	li	$v0,-1
  412994:	8fbf001c 	lw	$ra,28($sp)
  412998:	8fb00018 	lw	$s0,24($sp)
  41299c:	03e00008 	jr	$ra
  4129a0:	27bd0048 	addiu	$sp,$sp,72

004129a4 <_usany_tids_left>:
  4129a4:	27bdffd0 	addiu	$sp,$sp,-48
  4129a8:	afbf0024 	sw	$ra,36($sp)
  4129ac:	afb00020 	sw	$s0,32($sp)
  4129b0:	8c830424 	lw	$v1,1060($a0)
  4129b4:	00808025 	move	$s0,$a0
  4129b8:	1860000f 	blez	$v1,4129f8 <_usany_tids_left+0x54>
  4129bc:	00001025 	move	$v0,$zero
  4129c0:	8c84000c 	lw	$a0,12($a0)
  4129c4:	2405ffff 	li	$a1,-1
  4129c8:	000270c0 	sll	$t6,$v0,0x3
  4129cc:	008e7821 	addu	$t7,$a0,$t6
  4129d0:	8df80000 	lw	$t8,0($t7)
  4129d4:	24420001 	addiu	$v0,$v0,1
  4129d8:	14b80003 	bne	$a1,$t8,4129e8 <_usany_tids_left+0x44>
  4129dc:	0002cc00 	sll	$t9,$v0,0x10
  4129e0:	1000001e 	b	412a5c <_usany_tids_left+0xb8>
  4129e4:	00001025 	move	$v0,$zero
  4129e8:	00191403 	sra	$v0,$t9,0x10
  4129ec:	0043082a 	slt	$at,$v0,$v1
  4129f0:	1420fff6 	bnez	$at,4129cc <_usany_tids_left+0x28>
  4129f4:	000270c0 	sll	$t6,$v0,0x3
  4129f8:	0c104a0a 	jal	412828 <_usclean_tidmap>
  4129fc:	02002025 	move	$a0,$s0
  412a00:	2405ffff 	li	$a1,-1
  412a04:	14450013 	bne	$v0,$a1,412a54 <_usany_tids_left+0xb0>
  412a08:	afa20028 	sw	$v0,40($sp)
  412a0c:	0c102020 	jal	408080 <_oserror>
  412a10:	00000000 	nop
  412a14:	2401001c 	li	$at,28
  412a18:	1441000f 	bne	$v0,$at,412a58 <_usany_tids_left+0xb4>
  412a1c:	8fa20028 	lw	$v0,40($sp)
  412a20:	8f898ab0 	lw	$t1,-30032($gp)
  412a24:	00002025 	move	$a0,$zero
  412a28:	1120000a 	beqz	$t1,412a54 <_usany_tids_left+0xb0>
  412a2c:	3c050042 	lui	$a1,0x42
  412a30:	8e0b0420 	lw	$t3,1056($s0)
  412a34:	3c0a0020 	lui	$t2,0x20
  412a38:	8d460e00 	lw	$a2,3584($t2)
  412a3c:	afab0010 	sw	$t3,16($sp)
  412a40:	8e0c0424 	lw	$t4,1060($s0)
  412a44:	24a5c454 	addiu	$a1,$a1,-15276
  412a48:	2607001c 	addiu	$a3,$s0,28
  412a4c:	0c1050fc 	jal	4143f0 <_uprint>
  412a50:	afac0014 	sw	$t4,20($sp)
  412a54:	8fa20028 	lw	$v0,40($sp)
  412a58:	00000000 	nop
  412a5c:	8fbf0024 	lw	$ra,36($sp)
  412a60:	8fb00020 	lw	$s0,32($sp)
  412a64:	03e00008 	jr	$ra
  412a68:	27bd0030 	addiu	$sp,$sp,48
  412a6c:	27bdffa0 	addiu	$sp,$sp,-96
  412a70:	afb00028 	sw	$s0,40($sp)
  412a74:	00808025 	move	$s0,$a0
  412a78:	afbf002c 	sw	$ra,44($sp)
  412a7c:	afa50064 	sw	$a1,100($sp)
  412a80:	04c10020 	bgez	$a2,412b04 <_usany_tids_left+0x160>
  412a84:	afa60068 	sw	$a2,104($sp)
  412a88:	8f828ab8 	lw	$v0,-30024($gp)
  412a8c:	8f84af34 	lw	$a0,-20684($gp)
  412a90:	1040000c 	beqz	$v0,412ac4 <_usany_tids_left+0x120>
  412a94:	2408ffff 	li	$t0,-1
  412a98:	8c4e0004 	lw	$t6,4($v0)
  412a9c:	00000000 	nop
  412aa0:	160e0004 	bne	$s0,$t6,412ab4 <_usany_tids_left+0x110>
  412aa4:	00000000 	nop
  412aa8:	8c460000 	lw	$a2,0($v0)
  412aac:	10000005 	b	412ac4 <_usany_tids_left+0x120>
  412ab0:	00000000 	nop
  412ab4:	8c420008 	lw	$v0,8($v0)
  412ab8:	00000000 	nop
  412abc:	1440fff6 	bnez	$v0,412a98 <_usany_tids_left+0xf4>
  412ac0:	00000000 	nop
  412ac4:	14c80003 	bne	$a2,$t0,412ad4 <_usany_tids_left+0x130>
  412ac8:	240f0003 	li	$t7,3
  412acc:	1000008a 	b	412cf8 <_usany_tids_left+0x354>
  412ad0:	afaf0054 	sw	$t7,84($sp)
  412ad4:	0c105bb0 	jal	416ec0 <_syncinit>
  412ad8:	afa60068 	sw	$a2,104($sp)
  412adc:	8fa50068 	lw	$a1,104($sp)
  412ae0:	0c105c2a 	jal	4170a8 <_usfsplock>
  412ae4:	00002025 	move	$a0,$zero
  412ae8:	2408ffff 	li	$t0,-1
  412aec:	14480006 	bne	$v0,$t0,412b08 <_usany_tids_left+0x164>
  412af0:	8fa50068 	lw	$a1,104($sp)
  412af4:	0c102020 	jal	408080 <_oserror>
  412af8:	00000000 	nop
  412afc:	1000007e 	b	412cf8 <_usany_tids_left+0x354>
  412b00:	afa20054 	sw	$v0,84($sp)
  412b04:	8fa50068 	lw	$a1,104($sp)
  412b08:	0c104fc1 	jal	413f04 <_usretsfd+0x144>
  412b0c:	02002025 	move	$a0,$s0
  412b10:	2408ffff 	li	$t0,-1
  412b14:	14480011 	bne	$v0,$t0,412b5c <_usany_tids_left+0x1b8>
  412b18:	afa20058 	sw	$v0,88($sp)
  412b1c:	0c102020 	jal	408080 <_oserror>
  412b20:	00000000 	nop
  412b24:	8fa50068 	lw	$a1,104($sp)
  412b28:	afa20054 	sw	$v0,84($sp)
  412b2c:	0c105c54 	jal	417150 <_usfunsplock>
  412b30:	00002025 	move	$a0,$zero
  412b34:	8f988ab0 	lw	$t8,-30032($gp)
  412b38:	24040001 	li	$a0,1
  412b3c:	1300006e 	beqz	$t8,412cf8 <_usany_tids_left+0x354>
  412b40:	3c050042 	lui	$a1,0x42
  412b44:	3c190020 	lui	$t9,0x20
  412b48:	8f260e00 	lw	$a2,3584($t9)
  412b4c:	0c1050fc 	jal	4143f0 <_uprint>
  412b50:	24a5c4a0 	addiu	$a1,$a1,-15200
  412b54:	10000068 	b	412cf8 <_usany_tids_left+0x354>
  412b58:	00000000 	nop
  412b5c:	8fa50064 	lw	$a1,100($sp)
  412b60:	8fa60068 	lw	$a2,104($sp)
  412b64:	0c1048e0 	jal	412380 <_hrellock+0xc>
  412b68:	02002025 	move	$a0,$s0
  412b6c:	8e020424 	lw	$v0,1060($s0)
  412b70:	2408ffff 	li	$t0,-1
  412b74:	18400050 	blez	$v0,412cb8 <_usany_tids_left+0x314>
  412b78:	00003825 	move	$a3,$zero
  412b7c:	8e04000c 	lw	$a0,12($s0)
  412b80:	00000000 	nop
  412b84:	000718c0 	sll	$v1,$a3,0x3
  412b88:	00834821 	addu	$t1,$a0,$v1
  412b8c:	8d2a0000 	lw	$t2,0($t1)
  412b90:	00000000 	nop
  412b94:	150a0042 	bne	$t0,$t2,412ca0 <_usany_tids_left+0x2fc>
  412b98:	00000000 	nop
  412b9c:	8fa50068 	lw	$a1,104($sp)
  412ba0:	24e40001 	addiu	$a0,$a3,1
  412ba4:	afa30034 	sw	$v1,52($sp)
  412ba8:	0c105c2a 	jal	4170a8 <_usfsplock>
  412bac:	a7a7005e 	sh	$a3,94($sp)
  412bb0:	8fa30034 	lw	$v1,52($sp)
  412bb4:	87a7005e 	lh	$a3,94($sp)
  412bb8:	2408ffff 	li	$t0,-1
  412bbc:	14480009 	bne	$v0,$t0,412be4 <_usany_tids_left+0x240>
  412bc0:	00000000 	nop
  412bc4:	0c102020 	jal	408080 <_oserror>
  412bc8:	00000000 	nop
  412bcc:	8fa50068 	lw	$a1,104($sp)
  412bd0:	afa20054 	sw	$v0,84($sp)
  412bd4:	0c105c54 	jal	417150 <_usfunsplock>
  412bd8:	00002025 	move	$a0,$zero
  412bdc:	10000046 	b	412cf8 <_usany_tids_left+0x354>
  412be0:	00000000 	nop
  412be4:	8e0f000c 	lw	$t7,12($s0)
  412be8:	8fac0064 	lw	$t4,100($sp)
  412bec:	8e0b0014 	lw	$t3,20($s0)
  412bf0:	01e3c021 	addu	$t8,$t7,$v1
  412bf4:	af0c0000 	sw	$t4,0($t8)
  412bf8:	8e09000c 	lw	$t1,12($s0)
  412bfc:	8fb90058 	lw	$t9,88($sp)
  412c00:	016c2024 	and	$a0,$t3,$t4
  412c04:	01235021 	addu	$t2,$t1,$v1
  412c08:	00046c00 	sll	$t5,$a0,0x10
  412c0c:	a5590006 	sh	$t9,6($t2)
  412c10:	8e0b0010 	lw	$t3,16($s0)
  412c14:	000d7403 	sra	$t6,$t5,0x10
  412c18:	000e1040 	sll	$v0,$t6,0x1
  412c1c:	8e0f000c 	lw	$t7,12($s0)
  412c20:	01626821 	addu	$t5,$t3,$v0
  412c24:	85ae0000 	lh	$t6,0($t5)
  412c28:	01e36021 	addu	$t4,$t7,$v1
  412c2c:	a58e0004 	sh	$t6,4($t4)
  412c30:	8e180010 	lw	$t8,16($s0)
  412c34:	3c050042 	lui	$a1,0x42
  412c38:	03024821 	addu	$t1,$t8,$v0
  412c3c:	a5270000 	sh	$a3,0($t1)
  412c40:	8f99af30 	lw	$t9,-20688($gp)
  412c44:	24a5c4d8 	addiu	$a1,$a1,-15144
  412c48:	1320000e 	beqz	$t9,412c84 <_usany_tids_left+0x2e0>
  412c4c:	00002025 	move	$a0,$zero
  412c50:	8e0a000c 	lw	$t2,12($s0)
  412c54:	260d001c 	addiu	$t5,$s0,28
  412c58:	01431021 	addu	$v0,$t2,$v1
  412c5c:	844b0006 	lh	$t3,6($v0)
  412c60:	8c460000 	lw	$a2,0($v0)
  412c64:	afad0014 	sw	$t5,20($sp)
  412c68:	afab0010 	sw	$t3,16($sp)
  412c6c:	8e0f0420 	lw	$t7,1056($s0)
  412c70:	a7a7005e 	sh	$a3,94($sp)
  412c74:	0c1050fc 	jal	4143f0 <_uprint>
  412c78:	afaf0018 	sw	$t7,24($sp)
  412c7c:	87a7005e 	lh	$a3,94($sp)
  412c80:	00000000 	nop
  412c84:	8fa50068 	lw	$a1,104($sp)
  412c88:	00002025 	move	$a0,$zero
  412c8c:	0c105c54 	jal	417150 <_usfunsplock>
  412c90:	a7a7005e 	sh	$a3,94($sp)
  412c94:	87a2005e 	lh	$v0,94($sp)
  412c98:	10000026 	b	412d34 <_usany_tids_left+0x390>
  412c9c:	8fbf002c 	lw	$ra,44($sp)
  412ca0:	24e70001 	addiu	$a3,$a3,1
  412ca4:	00077400 	sll	$t6,$a3,0x10
  412ca8:	000e3c03 	sra	$a3,$t6,0x10
  412cac:	00e2082a 	slt	$at,$a3,$v0
  412cb0:	1420ffb5 	bnez	$at,412b88 <_usany_tids_left+0x1e4>
  412cb4:	000718c0 	sll	$v1,$a3,0x3
  412cb8:	8fa50068 	lw	$a1,104($sp)
  412cbc:	0c105c54 	jal	417150 <_usfunsplock>
  412cc0:	00002025 	move	$a0,$zero
  412cc4:	8f898ab0 	lw	$t1,-30032($gp)
  412cc8:	2418001c 	li	$t8,28
  412ccc:	1120000a 	beqz	$t1,412cf8 <_usany_tids_left+0x354>
  412cd0:	afb80054 	sw	$t8,84($sp)
  412cd4:	8e0a0424 	lw	$t2,1060($s0)
  412cd8:	3c190020 	lui	$t9,0x20
  412cdc:	8f260e00 	lw	$a2,3584($t9)
  412ce0:	3c050042 	lui	$a1,0x42
  412ce4:	24a5c514 	addiu	$a1,$a1,-15084
  412ce8:	00002025 	move	$a0,$zero
  412cec:	2607001c 	addiu	$a3,$s0,28
  412cf0:	0c1050fc 	jal	4143f0 <_uprint>
  412cf4:	afaa0010 	sw	$t2,16($sp)
  412cf8:	8f8b8ab0 	lw	$t3,-30032($gp)
  412cfc:	24040001 	li	$a0,1
  412d00:	11600007 	beqz	$t3,412d20 <_usany_tids_left+0x37c>
  412d04:	3c050042 	lui	$a1,0x42
  412d08:	8e0d0420 	lw	$t5,1056($s0)
  412d0c:	8fa60064 	lw	$a2,100($sp)
  412d10:	24a5c55c 	addiu	$a1,$a1,-15012
  412d14:	2607001c 	addiu	$a3,$s0,28
  412d18:	0c1050fc 	jal	4143f0 <_uprint>
  412d1c:	afad0010 	sw	$t5,16($sp)
  412d20:	8fa40054 	lw	$a0,84($sp)
  412d24:	0c102025 	jal	408094 <_setoserror>
  412d28:	00000000 	nop
  412d2c:	2402ffff 	li	$v0,-1
  412d30:	8fbf002c 	lw	$ra,44($sp)
  412d34:	8fb00028 	lw	$s0,40($sp)
  412d38:	03e00008 	jr	$ra
  412d3c:	27bd0060 	addiu	$sp,$sp,96

00412d40 <_usinit_mapfile>:
  412d40:	27bdff20 	addiu	$sp,$sp,-224
  412d44:	afbf001c 	sw	$ra,28($sp)
  412d48:	afa500e4 	sw	$a1,228($sp)
  412d4c:	afa400e0 	sw	$a0,224($sp)
  412d50:	afa600e8 	sw	$a2,232($sp)
  412d54:	afa700ec 	sw	$a3,236($sp)
  412d58:	afa0004c 	sw	$zero,76($sp)
  412d5c:	afa00048 	sw	$zero,72($sp)
  412d60:	0c104154 	jal	410550 <_fstat>
  412d64:	27a50050 	addiu	$a1,$sp,80
  412d68:	8fae0064 	lw	$t6,100($sp)
  412d6c:	34018000 	li	$at,0x8000
  412d70:	31cff000 	andi	$t7,$t6,0xf000
  412d74:	15e10037 	bne	$t7,$at,412e54 <_usinit_mapfile+0x114>
  412d78:	8fad00f8 	lw	$t5,248($sp)
  412d7c:	8fa50080 	lw	$a1,128($sp)
  412d80:	8fb800ec 	lw	$t8,236($sp)
  412d84:	8fa400e0 	lw	$a0,224($sp)
  412d88:	0305082a 	slt	$at,$t8,$a1
  412d8c:	10200005 	beqz	$at,412da4 <_usinit_mapfile+0x64>
  412d90:	00000000 	nop
  412d94:	0c106254 	jal	418950 <_ftruncate>
  412d98:	03002825 	move	$a1,$t8
  412d9c:	8fa500ec 	lw	$a1,236($sp)
  412da0:	00000000 	nop
  412da4:	8fa400e0 	lw	$a0,224($sp)
  412da8:	0c1051a5 	jal	414694 <__usunblockallsigs+0x28>
  412dac:	afa50080 	sw	$a1,128($sp)
  412db0:	1040000a 	beqz	$v0,412ddc <_usinit_mapfile+0x9c>
  412db4:	8fa800f8 	lw	$t0,248($sp)
  412db8:	8f998ab0 	lw	$t9,-30032($gp)
  412dbc:	24040001 	li	$a0,1
  412dc0:	13200003 	beqz	$t9,412dd0 <_usinit_mapfile+0x90>
  412dc4:	3c050042 	lui	$a1,0x42
  412dc8:	0c1050fc 	jal	4143f0 <_uprint>
  412dcc:	24a5c598 	addiu	$a1,$a1,-14952
  412dd0:	1000009d 	b	413048 <_usinit_mapfile+0x308>
  412dd4:	00001025 	move	$v0,$zero
  412dd8:	8fa800f8 	lw	$t0,248($sp)
  412ddc:	8fa50080 	lw	$a1,128($sp)
  412de0:	15000004 	bnez	$t0,412df4 <_usinit_mapfile+0xb4>
  412de4:	2ca11a78 	sltiu	$at,$a1,6776
  412de8:	8fa900ec 	lw	$t1,236($sp)
  412dec:	10000004 	b	412e00 <_usinit_mapfile+0xc0>
  412df0:	afa90048 	sw	$t1,72($sp)
  412df4:	10200002 	beqz	$at,412e00 <_usinit_mapfile+0xc0>
  412df8:	240a1a78 	li	$t2,6776
  412dfc:	afaa0048 	sw	$t2,72($sp)
  412e00:	8fab0048 	lw	$t3,72($sp)
  412e04:	2405000a 	li	$a1,10
  412e08:	11600011 	beqz	$t3,412e50 <_usinit_mapfile+0x110>
  412e0c:	27a60024 	addiu	$a2,$sp,36
  412e10:	8fa400e0 	lw	$a0,224($sp)
  412e14:	a7a00026 	sh	$zero,38($sp)
  412e18:	afab0028 	sw	$t3,40($sp)
  412e1c:	0c1040ec 	jal	4103b0 <_fcntl>
  412e20:	afa0002c 	sw	$zero,44($sp)
  412e24:	1040000b 	beqz	$v0,412e54 <_usinit_mapfile+0x114>
  412e28:	8fad00f8 	lw	$t5,248($sp)
  412e2c:	8f8c8ab0 	lw	$t4,-30032($gp)
  412e30:	24040001 	li	$a0,1
  412e34:	11800004 	beqz	$t4,412e48 <_usinit_mapfile+0x108>
  412e38:	3c050042 	lui	$a1,0x42
  412e3c:	8fa60048 	lw	$a2,72($sp)
  412e40:	0c1050fc 	jal	4143f0 <_uprint>
  412e44:	24a5c5c0 	addiu	$a1,$a1,-14912
  412e48:	1000007f 	b	413048 <_usinit_mapfile+0x308>
  412e4c:	00001025 	move	$v0,$zero
  412e50:	8fad00f8 	lw	$t5,248($sp)
  412e54:	8fae00fc 	lw	$t6,252($sp)
  412e58:	11a00002 	beqz	$t5,412e64 <_usinit_mapfile+0x124>
  412e5c:	24070001 	li	$a3,1
  412e60:	24070041 	li	$a3,65
  412e64:	11c00003 	beqz	$t6,412e74 <_usinit_mapfile+0x134>
  412e68:	24060003 	li	$a2,3
  412e6c:	34ef0100 	ori	$t7,$a3,0x100
  412e70:	01e03825 	move	$a3,$t7
  412e74:	8fb80100 	lw	$t8,256($sp)
  412e78:	2403ffff 	li	$v1,-1
  412e7c:	13030003 	beq	$t8,$v1,412e8c <_usinit_mapfile+0x14c>
  412e80:	24190001 	li	$t9,1
  412e84:	10000002 	b	412e90 <_usinit_mapfile+0x150>
  412e88:	afb9004c 	sw	$t9,76($sp)
  412e8c:	afa00100 	sw	$zero,256($sp)
  412e90:	8fa800e0 	lw	$t0,224($sp)
  412e94:	8fa40100 	lw	$a0,256($sp)
  412e98:	8fa500ec 	lw	$a1,236($sp)
  412e9c:	afa00014 	sw	$zero,20($sp)
  412ea0:	0c104104 	jal	410410 <_mmap>
  412ea4:	afa80010 	sw	$t0,16($sp)
  412ea8:	2403ffff 	li	$v1,-1
  412eac:	1443000c 	bne	$v0,$v1,412ee0 <_usinit_mapfile+0x1a0>
  412eb0:	afa200dc 	sw	$v0,220($sp)
  412eb4:	8f898ab0 	lw	$t1,-30032($gp)
  412eb8:	24040001 	li	$a0,1
  412ebc:	11200006 	beqz	$t1,412ed8 <_usinit_mapfile+0x198>
  412ec0:	3c050042 	lui	$a1,0x42
  412ec4:	3c0a0020 	lui	$t2,0x20
  412ec8:	8d460e00 	lw	$a2,3584($t2)
  412ecc:	8fa70100 	lw	$a3,256($sp)
  412ed0:	0c1050fc 	jal	4143f0 <_uprint>
  412ed4:	24a5c5f4 	addiu	$a1,$a1,-14860
  412ed8:	1000005b 	b	413048 <_usinit_mapfile+0x308>
  412edc:	00001025 	move	$v0,$zero
  412ee0:	8fab004c 	lw	$t3,76($sp)
  412ee4:	8fac0100 	lw	$t4,256($sp)
  412ee8:	11600014 	beqz	$t3,412f3c <_usinit_mapfile+0x1fc>
  412eec:	24190004 	li	$t9,4
  412ef0:	11820013 	beq	$t4,$v0,412f40 <_usinit_mapfile+0x200>
  412ef4:	8fa500e4 	lw	$a1,228($sp)
  412ef8:	8fa400dc 	lw	$a0,220($sp)
  412efc:	8fa500ec 	lw	$a1,236($sp)
  412f00:	0c104110 	jal	410440 <_munmap>
  412f04:	00000000 	nop
  412f08:	8f8d8ab0 	lw	$t5,-30032($gp)
  412f0c:	00002025 	move	$a0,$zero
  412f10:	11a00006 	beqz	$t5,412f2c <_usinit_mapfile+0x1ec>
  412f14:	3c050042 	lui	$a1,0x42
  412f18:	3c0e0020 	lui	$t6,0x20
  412f1c:	8dc60e00 	lw	$a2,3584($t6)
  412f20:	8fa70100 	lw	$a3,256($sp)
  412f24:	0c1050fc 	jal	4143f0 <_uprint>
  412f28:	24a5c620 	addiu	$a1,$a1,-14816
  412f2c:	0c102025 	jal	408094 <_setoserror>
  412f30:	24040010 	li	$a0,16
  412f34:	10000044 	b	413048 <_usinit_mapfile+0x308>
  412f38:	00001025 	move	$v0,$zero
  412f3c:	8fa500e4 	lw	$a1,228($sp)
  412f40:	ac420420 	sw	$v0,1056($v0)
  412f44:	8faf00f0 	lw	$t7,240($sp)
  412f48:	3c080020 	lui	$t0,0x20
  412f4c:	ac4f044c 	sw	$t7,1100($v0)
  412f50:	8fb800e8 	lw	$t8,232($sp)
  412f54:	ac590008 	sw	$t9,8($v0)
  412f58:	ac580a5c 	sw	$t8,2652($v0)
  412f5c:	8d090e00 	lw	$t1,3584($t0)
  412f60:	3c0adead 	lui	$t2,0xdead
  412f64:	354ababe 	ori	$t2,$t2,0xbabe
  412f68:	ac4a0004 	sw	$t2,4($v0)
  412f6c:	ac490a6c 	sw	$t1,2668($v0)
  412f70:	8fab00f4 	lw	$t3,244($sp)
  412f74:	00000000 	nop
  412f78:	ac4b0424 	sw	$t3,1060($v0)
  412f7c:	8fac00ec 	lw	$t4,236($sp)
  412f80:	ac430854 	sw	$v1,2132($v0)
  412f84:	04a0000e 	bltz	$a1,412fc0 <_usinit_mapfile+0x280>
  412f88:	ac4c041c 	sw	$t4,1052($v0)
  412f8c:	8fa400dc 	lw	$a0,220($sp)
  412f90:	8fa60100 	lw	$a2,256($sp)
  412f94:	8fa700ec 	lw	$a3,236($sp)
  412f98:	0c102c9e 	jal	40b278 <_ushardlock_create>
  412f9c:	00000000 	nop
  412fa0:	14400007 	bnez	$v0,412fc0 <_usinit_mapfile+0x280>
  412fa4:	00000000 	nop
  412fa8:	8fa400dc 	lw	$a0,220($sp)
  412fac:	8fa500ec 	lw	$a1,236($sp)
  412fb0:	0c104110 	jal	410440 <_munmap>
  412fb4:	00000000 	nop
  412fb8:	10000023 	b	413048 <_usinit_mapfile+0x308>
  412fbc:	00001025 	move	$v0,$zero
  412fc0:	8f8daf34 	lw	$t5,-20684($gp)
  412fc4:	24010005 	li	$at,5
  412fc8:	15a10005 	bne	$t5,$at,412fe0 <_usinit_mapfile+0x2a0>
  412fcc:	8fae00e8 	lw	$t6,232($sp)
  412fd0:	8fa400dc 	lw	$a0,220($sp)
  412fd4:	0c105b51 	jal	416d44 <_r4k_llwarinit>
  412fd8:	00000000 	nop
  412fdc:	8fae00e8 	lw	$t6,232($sp)
  412fe0:	8fa400dc 	lw	$a0,220($sp)
  412fe4:	31cf0004 	andi	$t7,$t6,0x4
  412fe8:	15e00016 	bnez	$t7,413044 <_usinit_mapfile+0x304>
  412fec:	8fa200dc 	lw	$v0,220($sp)
  412ff0:	8fb800f8 	lw	$t8,248($sp)
  412ff4:	8fb900fc 	lw	$t9,252($sp)
  412ff8:	8fa500f4 	lw	$a1,244($sp)
  412ffc:	8fa600ec 	lw	$a2,236($sp)
  413000:	0c10502c 	jal	4140b0 <_usretsfd+0x2f0>
  413004:	03193821 	addu	$a3,$t8,$t9
  413008:	1440000e 	bnez	$v0,413044 <_usinit_mapfile+0x304>
  41300c:	8fa200dc 	lw	$v0,220($sp)
  413010:	8f888ab0 	lw	$t0,-30032($gp)
  413014:	24040001 	li	$a0,1
  413018:	11000003 	beqz	$t0,413028 <_usinit_mapfile+0x2e8>
  41301c:	3c050042 	lui	$a1,0x42
  413020:	0c1050fc 	jal	4143f0 <_uprint>
  413024:	24a5c65c 	addiu	$a1,$a1,-14756
  413028:	8fa400dc 	lw	$a0,220($sp)
  41302c:	8fa500ec 	lw	$a1,236($sp)
  413030:	0c104110 	jal	410440 <_munmap>
  413034:	00000000 	nop
  413038:	10000003 	b	413048 <_usinit_mapfile+0x308>
  41303c:	00001025 	move	$v0,$zero
  413040:	8fa200dc 	lw	$v0,220($sp)
  413044:	00000000 	nop
  413048:	8fbf001c 	lw	$ra,28($sp)
  41304c:	27bd00e0 	addiu	$sp,$sp,224
  413050:	03e00008 	jr	$ra
  413054:	00000000 	nop

00413058 <_usinit>:
  413058:	27bdee48 	addiu	$sp,$sp,-4536
  41305c:	afbf003c 	sw	$ra,60($sp)
  413060:	afb30038 	sw	$s3,56($sp)
  413064:	afb20034 	sw	$s2,52($sp)
  413068:	afb10030 	sw	$s1,48($sp)
  41306c:	afb0002c 	sw	$s0,44($sp)
  413070:	3c0e0020 	lui	$t6,0x20
  413074:	8dcf0e00 	lw	$t7,3584($t6)
  413078:	8f998afc 	lw	$t9,-29956($gp)
  41307c:	8f888af8 	lw	$t0,-29960($gp)
  413080:	00809825 	move	$s3,$a0
  413084:	2418ffff 	li	$t8,-1
  413088:	2409ffff 	li	$t1,-1
  41308c:	afb801a0 	sw	$t8,416($sp)
  413090:	afa00198 	sw	$zero,408($sp)
  413094:	afa9017c 	sw	$t1,380($sp)
  413098:	00008025 	move	$s0,$zero
  41309c:	27848abc 	addiu	$a0,$gp,-30020
  4130a0:	afaf01a4 	sw	$t7,420($sp)
  4130a4:	afb90184 	sw	$t9,388($sp)
  4130a8:	0c1041e0 	jal	410780 <getenv>
  4130ac:	afa80180 	sw	$t0,384($sp)
  4130b0:	10400007 	beqz	$v0,4130d0 <_usinit+0x78>
  4130b4:	240c0001 	li	$t4,1
  4130b8:	8faa0184 	lw	$t2,388($sp)
  4130bc:	240d0001 	li	$t5,1
  4130c0:	354b0002 	ori	$t3,$t2,0x2
  4130c4:	afab0184 	sw	$t3,388($sp)
  4130c8:	af8caf30 	sw	$t4,-20688($gp)
  4130cc:	af8d8ab0 	sw	$t5,-30032($gp)
  4130d0:	0c1041e0 	jal	410780 <getenv>
  4130d4:	27848ac4 	addiu	$a0,$gp,-30012
  4130d8:	10400002 	beqz	$v0,4130e4 <_usinit+0x8c>
  4130dc:	240e0001 	li	$t6,1
  4130e0:	af8e8ab0 	sw	$t6,-30032($gp)
  4130e4:	8f8f8adc 	lw	$t7,-29988($gp)
  4130e8:	3c040042 	lui	$a0,0x42
  4130ec:	11e0000b 	beqz	$t7,41311c <_usinit+0xc4>
  4130f0:	2484c688 	addiu	$a0,$a0,-14712
  4130f4:	0c1041e0 	jal	410780 <getenv>
  4130f8:	af808adc 	sw	$zero,-29988($gp)
  4130fc:	10400007 	beqz	$v0,41311c <_usinit+0xc4>
  413100:	00402025 	move	$a0,$v0
  413104:	2405010a 	li	$a1,266
  413108:	0c10411c 	jal	410470 <_open>
  41310c:	240601b6 	li	$a2,438
  413110:	04400002 	bltz	$v0,41311c <_usinit+0xc4>
  413114:	00000000 	nop
  413118:	af828ab4 	sw	$v0,-30028($gp)
  41311c:	8f85af34 	lw	$a1,-20684($gp)
  413120:	00000000 	nop
  413124:	14a00009 	bnez	$a1,41314c <_usinit+0xf4>
  413128:	00000000 	nop
  41312c:	0c105ca4 	jal	417290 <_getsystype>
  413130:	00000000 	nop
  413134:	14400005 	bnez	$v0,41314c <_usinit+0xf4>
  413138:	af82af34 	sw	$v0,-20684($gp)
  41313c:	0c102025 	jal	408094 <_setoserror>
  413140:	24040016 	li	$a0,22
  413144:	100002a9 	b	413bec <_usinit+0xb94>
  413148:	00001025 	move	$v0,$zero
  41314c:	3c050042 	lui	$a1,0x42
  413150:	24a5c694 	addiu	$a1,$a1,-14700
  413154:	0c1061b4 	jal	4186d0 <strcmp>
  413158:	02602025 	move	$a0,$s3
  41315c:	14400002 	bnez	$v0,413168 <_usinit+0x110>
  413160:	00000000 	nop
  413164:	24100001 	li	$s0,1
  413168:	1600002b 	bnez	$s0,413218 <_usinit+0x1c0>
  41316c:	00000000 	nop
  413170:	8f838ab8 	lw	$v1,-30024($gp)
  413174:	00000000 	nop
  413178:	10600027 	beqz	$v1,413218 <_usinit+0x1c0>
  41317c:	00000000 	nop
  413180:	8c64000c 	lw	$a0,12($v1)
  413184:	afa3018c 	sw	$v1,396($sp)
  413188:	0c1061b4 	jal	4186d0 <strcmp>
  41318c:	02602825 	move	$a1,$s3
  413190:	8fa3018c 	lw	$v1,396($sp)
  413194:	1440001c 	bnez	$v0,413208 <_usinit+0x1b0>
  413198:	00000000 	nop
  41319c:	8c700004 	lw	$s0,4($v1)
  4131a0:	3c01dead 	lui	$at,0xdead
  4131a4:	8e180004 	lw	$t8,4($s0)
  4131a8:	3421babe 	ori	$at,$at,0xbabe
  4131ac:	1701001a 	bne	$t8,$at,413218 <_usinit+0x1c0>
  4131b0:	00000000 	nop
  4131b4:	8e190008 	lw	$t9,8($s0)
  4131b8:	24010004 	li	$at,4
  4131bc:	17210016 	bne	$t9,$at,413218 <_usinit+0x1c0>
  4131c0:	00000000 	nop
  4131c4:	8f88af30 	lw	$t0,-20688($gp)
  4131c8:	00002025 	move	$a0,$zero
  4131cc:	11000006 	beqz	$t0,4131e8 <_usinit+0x190>
  4131d0:	3c050042 	lui	$a1,0x42
  4131d4:	3c090020 	lui	$t1,0x20
  4131d8:	8d260e00 	lw	$a2,3584($t1)
  4131dc:	24a5c6a0 	addiu	$a1,$a1,-14688
  4131e0:	0c1050fc 	jal	4143f0 <_uprint>
  4131e4:	02603825 	move	$a3,$s3
  4131e8:	0c104f02 	jal	413c08 <_usadd>
  4131ec:	02002025 	move	$a0,$s0
  4131f0:	10400003 	beqz	$v0,413200 <_usinit+0x1a8>
  4131f4:	00000000 	nop
  4131f8:	1000027c 	b	413bec <_usinit+0xb94>
  4131fc:	00001025 	move	$v0,$zero
  413200:	1000027a 	b	413bec <_usinit+0xb94>
  413204:	02001025 	move	$v0,$s0
  413208:	8c630008 	lw	$v1,8($v1)
  41320c:	00000000 	nop
  413210:	1460ffdb 	bnez	$v1,413180 <_usinit+0x128>
  413214:	00000000 	nop
  413218:	3c050042 	lui	$a1,0x42
  41321c:	24a5c6d0 	addiu	$a1,$a1,-14640
  413220:	0c1061b4 	jal	4186d0 <strcmp>
  413224:	02602025 	move	$a0,$s3
  413228:	14400022 	bnez	$v0,4132b4 <_usinit+0x25c>
  41322c:	00002025 	move	$a0,$zero
  413230:	0c103e20 	jal	40f880 <_tempnam>
  413234:	27858acc 	addiu	$a1,$gp,-30004
  413238:	00408025 	move	$s0,$v0
  41323c:	00402025 	move	$a0,$v0
  413240:	24050102 	li	$a1,258
  413244:	0c10411c 	jal	410470 <_open>
  413248:	24060180 	li	$a2,384
  41324c:	2401ffff 	li	$at,-1
  413250:	14410012 	bne	$v0,$at,41329c <_usinit+0x244>
  413254:	afa2017c 	sw	$v0,380($sp)
  413258:	0c102020 	jal	408080 <_oserror>
  41325c:	00000000 	nop
  413260:	8f8a8ab0 	lw	$t2,-30032($gp)
  413264:	afa2019c 	sw	$v0,412($sp)
  413268:	11400007 	beqz	$t2,413288 <_usinit+0x230>
  41326c:	24040001 	li	$a0,1
  413270:	3c0b0020 	lui	$t3,0x20
  413274:	8d660e00 	lw	$a2,3584($t3)
  413278:	3c050042 	lui	$a1,0x42
  41327c:	24a5c6dc 	addiu	$a1,$a1,-14628
  413280:	0c1050fc 	jal	4143f0 <_uprint>
  413284:	02003825 	move	$a3,$s0
  413288:	8fa4019c 	lw	$a0,412($sp)
  41328c:	0c102025 	jal	408094 <_setoserror>
  413290:	00000000 	nop
  413294:	10000255 	b	413bec <_usinit+0xb94>
  413298:	00001025 	move	$v0,$zero
  41329c:	0c106248 	jal	418920 <_unlink>
  4132a0:	02002025 	move	$a0,$s0
  4132a4:	8fa4017c 	lw	$a0,380($sp)
  4132a8:	24050002 	li	$a1,2
  4132ac:	0c1040ec 	jal	4103b0 <_fcntl>
  4132b0:	24060001 	li	$a2,1
  4132b4:	02602025 	move	$a0,$s3
  4132b8:	0c10411c 	jal	410470 <_open>
  4132bc:	24050002 	li	$a1,2
  4132c0:	2401ffff 	li	$at,-1
  4132c4:	1441001d 	bne	$v0,$at,41333c <_usinit+0x2e4>
  4132c8:	00409025 	move	$s2,$v0
  4132cc:	02602025 	move	$a0,$s3
  4132d0:	24050102 	li	$a1,258
  4132d4:	0c10411c 	jal	410470 <_open>
  4132d8:	24060180 	li	$a2,384
  4132dc:	2401ffff 	li	$at,-1
  4132e0:	14410012 	bne	$v0,$at,41332c <_usinit+0x2d4>
  4132e4:	00409025 	move	$s2,$v0
  4132e8:	0c102020 	jal	408080 <_oserror>
  4132ec:	00000000 	nop
  4132f0:	8f8c8ab0 	lw	$t4,-30032($gp)
  4132f4:	afa2019c 	sw	$v0,412($sp)
  4132f8:	11800007 	beqz	$t4,413318 <_usinit+0x2c0>
  4132fc:	24040001 	li	$a0,1
  413300:	3c0d0020 	lui	$t5,0x20
  413304:	8da60e00 	lw	$a2,3584($t5)
  413308:	3c050042 	lui	$a1,0x42
  41330c:	24a5c708 	addiu	$a1,$a1,-14584
  413310:	0c1050fc 	jal	4143f0 <_uprint>
  413314:	02603825 	move	$a3,$s3
  413318:	8fa4019c 	lw	$a0,412($sp)
  41331c:	0c102025 	jal	408094 <_setoserror>
  413320:	00000000 	nop
  413324:	10000231 	b	413bec <_usinit+0xb94>
  413328:	00001025 	move	$v0,$zero
  41332c:	8fae0198 	lw	$t6,408($sp)
  413330:	00000000 	nop
  413334:	25cf0001 	addiu	$t7,$t6,1
  413338:	afaf0198 	sw	$t7,408($sp)
  41333c:	02402025 	move	$a0,$s2
  413340:	24050002 	li	$a1,2
  413344:	0c1040ec 	jal	4103b0 <_fcntl>
  413348:	24060001 	li	$a2,1
  41334c:	8fa3017c 	lw	$v1,380($sp)
  413350:	02408825 	move	$s1,$s2
  413354:	04600003 	bltz	$v1,413364 <_usinit+0x30c>
  413358:	00002025 	move	$a0,$zero
  41335c:	10000001 	b	413364 <_usinit+0x30c>
  413360:	00608825 	move	$s1,$v1
  413364:	0c105c2a 	jal	4170a8 <_usfsplock>
  413368:	02202825 	move	$a1,$s1
  41336c:	2401ffff 	li	$at,-1
  413370:	1441000f 	bne	$v0,$at,4133b0 <_usinit+0x358>
  413374:	27a401ac 	addiu	$a0,$sp,428
  413378:	0c102020 	jal	408080 <_oserror>
  41337c:	00000000 	nop
  413380:	8f988ab0 	lw	$t8,-30032($gp)
  413384:	afa2019c 	sw	$v0,412($sp)
  413388:	130001fe 	beqz	$t8,413b84 <_usinit+0xb2c>
  41338c:	24040001 	li	$a0,1
  413390:	3c190020 	lui	$t9,0x20
  413394:	8f260e00 	lw	$a2,3584($t9)
  413398:	3c050042 	lui	$a1,0x42
  41339c:	24a5c734 	addiu	$a1,$a1,-14540
  4133a0:	0c1050fc 	jal	4143f0 <_uprint>
  4133a4:	02603825 	move	$a3,$s3
  4133a8:	100001f7 	b	413b88 <_usinit+0xb30>
  4133ac:	8fa90198 	lw	$t1,408($sp)
  4133b0:	0c1061c8 	jal	418720 <_blkclr>
  4133b4:	24051000 	li	$a1,4096
  4133b8:	02402025 	move	$a0,$s2
  4133bc:	27a501ac 	addiu	$a1,$sp,428
  4133c0:	0c10623c 	jal	4188f0 <_read>
  4133c4:	24061000 	li	$a2,4096
  4133c8:	8fa801b0 	lw	$t0,432($sp)
  4133cc:	3c01dead 	lui	$at,0xdead
  4133d0:	3421babe 	ori	$at,$at,0xbabe
  4133d4:	150100be 	bne	$t0,$at,4136d0 <_usinit+0x678>
  4133d8:	00000000 	nop
  4133dc:	8fa505d0 	lw	$a1,1488($sp)
  4133e0:	0c104973 	jal	4125cc <_hrellock+0x258>
  4133e4:	02202025 	move	$a0,$s1
  4133e8:	104000b9 	beqz	$v0,4136d0 <_usinit+0x678>
  4133ec:	00000000 	nop
  4133f0:	8f89af30 	lw	$t1,-20688($gp)
  4133f4:	00002025 	move	$a0,$zero
  4133f8:	11200008 	beqz	$t1,41341c <_usinit+0x3c4>
  4133fc:	3c050042 	lui	$a1,0x42
  413400:	8fab05cc 	lw	$t3,1484($sp)
  413404:	3c0a0020 	lui	$t2,0x20
  413408:	8d460e00 	lw	$a2,3584($t2)
  41340c:	24a5c764 	addiu	$a1,$a1,-14492
  413410:	02603825 	move	$a3,$s3
  413414:	0c1050fc 	jal	4143f0 <_uprint>
  413418:	afab0010 	sw	$t3,16($sp)
  41341c:	8fac01b4 	lw	$t4,436($sp)
  413420:	24010004 	li	$at,4
  413424:	1181000a 	beq	$t4,$at,413450 <_usinit+0x3f8>
  413428:	24060003 	li	$a2,3
  41342c:	8f8d8ab0 	lw	$t5,-30032($gp)
  413430:	00002025 	move	$a0,$zero
  413434:	11a00003 	beqz	$t5,413444 <_usinit+0x3ec>
  413438:	3c050042 	lui	$a1,0x42
  41343c:	0c1050fc 	jal	4143f0 <_uprint>
  413440:	24a5c798 	addiu	$a1,$a1,-14440
  413444:	240e0016 	li	$t6,22
  413448:	100001ce 	b	413b84 <_usinit+0xb2c>
  41344c:	afae019c 	sw	$t6,412($sp)
  413450:	8fa505c8 	lw	$a1,1480($sp)
  413454:	8fa405cc 	lw	$a0,1484($sp)
  413458:	24070041 	li	$a3,65
  41345c:	afb20010 	sw	$s2,16($sp)
  413460:	afa00014 	sw	$zero,20($sp)
  413464:	0c104104 	jal	410410 <_mmap>
  413468:	afa50194 	sw	$a1,404($sp)
  41346c:	2403ffff 	li	$v1,-1
  413470:	1443000d 	bne	$v0,$v1,4134a8 <_usinit+0x450>
  413474:	00408025 	move	$s0,$v0
  413478:	0c102020 	jal	408080 <_oserror>
  41347c:	00000000 	nop
  413480:	8f8f8ab0 	lw	$t7,-30032($gp)
  413484:	afa2019c 	sw	$v0,412($sp)
  413488:	11e001be 	beqz	$t7,413b84 <_usinit+0xb2c>
  41348c:	24040001 	li	$a0,1
  413490:	3c050042 	lui	$a1,0x42
  413494:	8fa605cc 	lw	$a2,1484($sp)
  413498:	0c1050fc 	jal	4143f0 <_uprint>
  41349c:	24a5c7b8 	addiu	$a1,$a1,-14408
  4134a0:	100001b9 	b	413b88 <_usinit+0xb30>
  4134a4:	8fa90198 	lw	$t1,408($sp)
  4134a8:	8fb805cc 	lw	$t8,1484($sp)
  4134ac:	8f85af34 	lw	$a1,-20684($gp)
  4134b0:	10580010 	beq	$v0,$t8,4134f4 <_usinit+0x49c>
  4134b4:	24010003 	li	$at,3
  4134b8:	8fa50194 	lw	$a1,404($sp)
  4134bc:	0c104110 	jal	410440 <_munmap>
  4134c0:	02002025 	move	$a0,$s0
  4134c4:	8f998ab0 	lw	$t9,-30032($gp)
  4134c8:	00002025 	move	$a0,$zero
  4134cc:	13200006 	beqz	$t9,4134e8 <_usinit+0x490>
  4134d0:	3c050042 	lui	$a1,0x42
  4134d4:	3c080020 	lui	$t0,0x20
  4134d8:	8d060e00 	lw	$a2,3584($t0)
  4134dc:	8fa705cc 	lw	$a3,1484($sp)
  4134e0:	0c1050fc 	jal	4143f0 <_uprint>
  4134e4:	24a5c7d8 	addiu	$a1,$a1,-14376
  4134e8:	24090010 	li	$t1,16
  4134ec:	100001a5 	b	413b84 <_usinit+0xb2c>
  4134f0:	afa9019c 	sw	$t1,412($sp)
  4134f4:	14a10053 	bne	$a1,$at,413644 <_usinit+0x5ec>
  4134f8:	24010001 	li	$at,1
  4134fc:	8c4a0854 	lw	$t2,2132($v0)
  413500:	8f85af34 	lw	$a1,-20684($gp)
  413504:	146a000d 	bne	$v1,$t2,41353c <_usinit+0x4e4>
  413508:	00000000 	nop
  41350c:	8f8b8ab0 	lw	$t3,-30032($gp)
  413510:	00002025 	move	$a0,$zero
  413514:	11600003 	beqz	$t3,413524 <_usinit+0x4cc>
  413518:	3c050042 	lui	$a1,0x42
  41351c:	0c1050fc 	jal	4143f0 <_uprint>
  413520:	24a5c814 	addiu	$a1,$a1,-14316
  413524:	8fa50194 	lw	$a1,404($sp)
  413528:	0c104110 	jal	410440 <_munmap>
  41352c:	02002025 	move	$a0,$s0
  413530:	240c0010 	li	$t4,16
  413534:	10000193 	b	413b84 <_usinit+0xb2c>
  413538:	afac019c 	sw	$t4,412($sp)
  41353c:	8e04044c 	lw	$a0,1100($s0)
  413540:	0c1030ac 	jal	40c2b0 <_ushardlocks_init>
  413544:	00000000 	nop
  413548:	0441000d 	bgez	$v0,413580 <_usinit+0x528>
  41354c:	26040454 	addiu	$a0,$s0,1108
  413550:	8f8d8ab0 	lw	$t5,-30032($gp)
  413554:	00002025 	move	$a0,$zero
  413558:	11a00003 	beqz	$t5,413568 <_usinit+0x510>
  41355c:	3c050042 	lui	$a1,0x42
  413560:	0c1050fc 	jal	4143f0 <_uprint>
  413564:	24a5c854 	addiu	$a1,$a1,-14252
  413568:	8fa50194 	lw	$a1,404($sp)
  41356c:	0c104110 	jal	410440 <_munmap>
  413570:	02002025 	move	$a0,$s0
  413574:	240e0010 	li	$t6,16
  413578:	10000182 	b	413b84 <_usinit+0xb2c>
  41357c:	afae019c 	sw	$t6,412($sp)
  413580:	8e0f0854 	lw	$t7,2132($s0)
  413584:	afa40040 	sw	$a0,64($sp)
  413588:	27a50158 	addiu	$a1,$sp,344
  41358c:	0c102d4f 	jal	40b53c <_ushardlock_attach>
  413590:	afaf0158 	sw	$t7,344($sp)
  413594:	04410004 	bgez	$v0,4135a8 <_usinit+0x550>
  413598:	afa201a0 	sw	$v0,416($sp)
  41359c:	0c102020 	jal	408080 <_oserror>
  4135a0:	00000000 	nop
  4135a4:	afa2019c 	sw	$v0,412($sp)
  4135a8:	8fa401a0 	lw	$a0,416($sp)
  4135ac:	0c101ae0 	jal	406b80 <_close>
  4135b0:	00000000 	nop
  4135b4:	8fa505d0 	lw	$a1,1488($sp)
  4135b8:	0c104973 	jal	4125cc <_hrellock+0x258>
  4135bc:	02202025 	move	$a0,$s1
  4135c0:	14400018 	bnez	$v0,413624 <_usinit+0x5cc>
  4135c4:	8fa801a0 	lw	$t0,416($sp)
  4135c8:	8fa40040 	lw	$a0,64($sp)
  4135cc:	8fa50158 	lw	$a1,344($sp)
  4135d0:	0c102dcb 	jal	40b72c <_ushardlock_detach>
  4135d4:	2406ffff 	li	$a2,-1
  4135d8:	8fa50194 	lw	$a1,404($sp)
  4135dc:	0c104110 	jal	410440 <_munmap>
  4135e0:	02002025 	move	$a0,$s0
  4135e4:	00002025 	move	$a0,$zero
  4135e8:	0c105c54 	jal	417150 <_usfunsplock>
  4135ec:	02202825 	move	$a1,$s1
  4135f0:	8f98af30 	lw	$t8,-20688($gp)
  4135f4:	00002025 	move	$a0,$zero
  4135f8:	13000005 	beqz	$t8,413610 <_usinit+0x5b8>
  4135fc:	3c050042 	lui	$a1,0x42
  413600:	3c190020 	lui	$t9,0x20
  413604:	8f260e00 	lw	$a2,3584($t9)
  413608:	0c1050fc 	jal	4143f0 <_uprint>
  41360c:	24a5c89c 	addiu	$a1,$a1,-14180
  413610:	0c101ae0 	jal	406b80 <_close>
  413614:	02402025 	move	$a0,$s2
  413618:	1000ff27 	b	4132b8 <_usinit+0x260>
  41361c:	02602025 	move	$a0,$s3
  413620:	8fa801a0 	lw	$t0,416($sp)
  413624:	8fa50194 	lw	$a1,404($sp)
  413628:	05010027 	bgez	$t0,4136c8 <_usinit+0x670>
  41362c:	00000000 	nop
  413630:	0c104110 	jal	410440 <_munmap>
  413634:	02002025 	move	$a0,$s0
  413638:	10000153 	b	413b88 <_usinit+0xb30>
  41363c:	8fa90198 	lw	$t1,408($sp)
  413640:	24010001 	li	$at,1
  413644:	14a10008 	bne	$a1,$at,413668 <_usinit+0x610>
  413648:	24010002 	li	$at,2
  41364c:	af85af34 	sw	$a1,-20684($gp)
  413650:	8e04044c 	lw	$a0,1100($s0)
  413654:	0c102303 	jal	408c0c <_ussoftlocks_init>
  413658:	00000000 	nop
  41365c:	1000001a 	b	4136c8 <_usinit+0x670>
  413660:	00000000 	nop
  413664:	24010002 	li	$at,2
  413668:	10a1000b 	beq	$a1,$at,413698 <_usinit+0x640>
  41366c:	af85af34 	sw	$a1,-20684($gp)
  413670:	24010004 	li	$at,4
  413674:	10a10008 	beq	$a1,$at,413698 <_usinit+0x640>
  413678:	af85af34 	sw	$a1,-20684($gp)
  41367c:	24010006 	li	$at,6
  413680:	10a10005 	beq	$a1,$at,413698 <_usinit+0x640>
  413684:	af85af34 	sw	$a1,-20684($gp)
  413688:	24010007 	li	$at,7
  41368c:	14a10009 	bne	$a1,$at,4136b4 <_usinit+0x65c>
  413690:	24010005 	li	$at,5
  413694:	af85af34 	sw	$a1,-20684($gp)
  413698:	8e04044c 	lw	$a0,1100($s0)
  41369c:	8f85af34 	lw	$a1,-20684($gp)
  4136a0:	0c105b0b 	jal	416c2c <_usr4klocks_init>
  4136a4:	00000000 	nop
  4136a8:	10000007 	b	4136c8 <_usinit+0x670>
  4136ac:	00000000 	nop
  4136b0:	24010005 	li	$at,5
  4136b4:	14a10004 	bne	$a1,$at,4136c8 <_usinit+0x670>
  4136b8:	af85af34 	sw	$a1,-20684($gp)
  4136bc:	8e04044c 	lw	$a0,1100($s0)
  4136c0:	0c105b0b 	jal	416c2c <_usr4klocks_init>
  4136c4:	00000000 	nop
  4136c8:	100000e2 	b	413a54 <_usinit+0x9fc>
  4136cc:	00000000 	nop
  4136d0:	8f89af30 	lw	$t1,-20688($gp)
  4136d4:	00002025 	move	$a0,$zero
  4136d8:	1120000a 	beqz	$t1,413704 <_usinit+0x6ac>
  4136dc:	3c050042 	lui	$a1,0x42
  4136e0:	3c0a0020 	lui	$t2,0x20
  4136e4:	8fab0180 	lw	$t3,384($sp)
  4136e8:	8f8c8af4 	lw	$t4,-29964($gp)
  4136ec:	8d460e00 	lw	$a2,3584($t2)
  4136f0:	24a5c8d8 	addiu	$a1,$a1,-14120
  4136f4:	02603825 	move	$a3,$s3
  4136f8:	afab0010 	sw	$t3,16($sp)
  4136fc:	0c1050fc 	jal	4143f0 <_uprint>
  413700:	afac0014 	sw	$t4,20($sp)
  413704:	8fad0198 	lw	$t5,408($sp)
  413708:	02402025 	move	$a0,$s2
  41370c:	15a0002b 	bnez	$t5,4137bc <_usinit+0x764>
  413710:	00000000 	nop
  413714:	0c104154 	jal	410550 <_fstat>
  413718:	27a500d0 	addiu	$a1,$sp,208
  41371c:	8fae00e4 	lw	$t6,228($sp)
  413720:	34018000 	li	$at,0x8000
  413724:	31cff000 	andi	$t7,$t6,0xf000
  413728:	15e10024 	bne	$t7,$at,4137bc <_usinit+0x764>
  41372c:	00000000 	nop
  413730:	0c106020 	jal	418080 <_geteuid>
  413734:	00000000 	nop
  413738:	8fb800ec 	lw	$t8,236($sp)
  41373c:	8f99af30 	lw	$t9,-20688($gp)
  413740:	1058001e 	beq	$v0,$t8,4137bc <_usinit+0x764>
  413744:	00002025 	move	$a0,$zero
  413748:	13200006 	beqz	$t9,413764 <_usinit+0x70c>
  41374c:	3c050042 	lui	$a1,0x42
  413750:	3c080020 	lui	$t0,0x20
  413754:	8d060e00 	lw	$a2,3584($t0)
  413758:	24a5c918 	addiu	$a1,$a1,-14056
  41375c:	0c1050fc 	jal	4143f0 <_uprint>
  413760:	02603825 	move	$a3,$s3
  413764:	0c106248 	jal	418920 <_unlink>
  413768:	02602025 	move	$a0,$s3
  41376c:	1040000d 	beqz	$v0,4137a4 <_usinit+0x74c>
  413770:	00002025 	move	$a0,$zero
  413774:	8f898ab0 	lw	$t1,-30032($gp)
  413778:	24040001 	li	$a0,1
  41377c:	11200004 	beqz	$t1,413790 <_usinit+0x738>
  413780:	3c050042 	lui	$a1,0x42
  413784:	24a5c964 	addiu	$a1,$a1,-13980
  413788:	0c1050fc 	jal	4143f0 <_uprint>
  41378c:	02603025 	move	$a2,$s3
  413790:	0c10202d 	jal	4080b4 <__oserror>
  413794:	00000000 	nop
  413798:	8c4a0000 	lw	$t2,0($v0)
  41379c:	100000f9 	b	413b84 <_usinit+0xb2c>
  4137a0:	afaa019c 	sw	$t2,412($sp)
  4137a4:	0c105c54 	jal	417150 <_usfunsplock>
  4137a8:	02202825 	move	$a1,$s1
  4137ac:	0c101ae0 	jal	406b80 <_close>
  4137b0:	02402025 	move	$a0,$s2
  4137b4:	1000fec0 	b	4132b8 <_usinit+0x260>
  4137b8:	02602025 	move	$a0,$s3
  4137bc:	8f85af34 	lw	$a1,-20684($gp)
  4137c0:	24010003 	li	$at,3
  4137c4:	14a1002e 	bne	$a1,$at,413880 <_usinit+0x828>
  4137c8:	3c040042 	lui	$a0,0x42
  4137cc:	2484c990 	addiu	$a0,$a0,-13936
  4137d0:	0c10411c 	jal	410470 <_open>
  4137d4:	24050002 	li	$a1,2
  4137d8:	0441000c 	bgez	$v0,41380c <_usinit+0x7b4>
  4137dc:	afa201a0 	sw	$v0,416($sp)
  4137e0:	8f8b8ab0 	lw	$t3,-30032($gp)
  4137e4:	24040001 	li	$a0,1
  4137e8:	11600003 	beqz	$t3,4137f8 <_usinit+0x7a0>
  4137ec:	3c050042 	lui	$a1,0x42
  4137f0:	0c1050fc 	jal	4143f0 <_uprint>
  4137f4:	24a5c9a4 	addiu	$a1,$a1,-13916
  4137f8:	0c10202d 	jal	4080b4 <__oserror>
  4137fc:	00000000 	nop
  413800:	8c4c0000 	lw	$t4,0($v0)
  413804:	100000df 	b	413b84 <_usinit+0xb2c>
  413808:	afac019c 	sw	$t4,412($sp)
  41380c:	8fa401a0 	lw	$a0,416($sp)
  413810:	24050002 	li	$a1,2
  413814:	0c1040ec 	jal	4103b0 <_fcntl>
  413818:	24060001 	li	$a2,1
  41381c:	8f85af34 	lw	$a1,-20684($gp)
  413820:	8fa40180 	lw	$a0,384($sp)
  413824:	0c1030ac 	jal	40c2b0 <_ushardlocks_init>
  413828:	00000000 	nop
  41382c:	0441000a 	bgez	$v0,413858 <_usinit+0x800>
  413830:	00000000 	nop
  413834:	8f8d8ab0 	lw	$t5,-30032($gp)
  413838:	00002025 	move	$a0,$zero
  41383c:	11a00003 	beqz	$t5,41384c <_usinit+0x7f4>
  413840:	3c050042 	lui	$a1,0x42
  413844:	0c1050fc 	jal	4143f0 <_uprint>
  413848:	24a5c9d0 	addiu	$a1,$a1,-13872
  41384c:	240e0010 	li	$t6,16
  413850:	100000cc 	b	413b84 <_usinit+0xb2c>
  413854:	afae019c 	sw	$t6,412($sp)
  413858:	8f8faf30 	lw	$t7,-20688($gp)
  41385c:	00002025 	move	$a0,$zero
  413860:	11e00042 	beqz	$t7,41396c <_usinit+0x914>
  413864:	3c050042 	lui	$a1,0x42
  413868:	3c180020 	lui	$t8,0x20
  41386c:	8f060e00 	lw	$a2,3584($t8)
  413870:	0c1050fc 	jal	4143f0 <_uprint>
  413874:	24a5ca18 	addiu	$a1,$a1,-13800
  413878:	1000003c 	b	41396c <_usinit+0x914>
  41387c:	00000000 	nop
  413880:	24010001 	li	$at,1
  413884:	14a1000e 	bne	$a1,$at,4138c0 <_usinit+0x868>
  413888:	24100002 	li	$s0,2
  41388c:	8fa40180 	lw	$a0,384($sp)
  413890:	0c102303 	jal	408c0c <_ussoftlocks_init>
  413894:	af85af34 	sw	$a1,-20684($gp)
  413898:	8f99af30 	lw	$t9,-20688($gp)
  41389c:	00002025 	move	$a0,$zero
  4138a0:	13200032 	beqz	$t9,41396c <_usinit+0x914>
  4138a4:	3c050042 	lui	$a1,0x42
  4138a8:	3c080020 	lui	$t0,0x20
  4138ac:	8d060e00 	lw	$a2,3584($t0)
  4138b0:	0c1050fc 	jal	4143f0 <_uprint>
  4138b4:	24a5ca48 	addiu	$a1,$a1,-13752
  4138b8:	1000002c 	b	41396c <_usinit+0x914>
  4138bc:	00000000 	nop
  4138c0:	10b00007 	beq	$a1,$s0,4138e0 <_usinit+0x888>
  4138c4:	24010004 	li	$at,4
  4138c8:	10a10005 	beq	$a1,$at,4138e0 <_usinit+0x888>
  4138cc:	24010006 	li	$at,6
  4138d0:	10a10003 	beq	$a1,$at,4138e0 <_usinit+0x888>
  4138d4:	24010007 	li	$at,7
  4138d8:	14a10017 	bne	$a1,$at,413938 <_usinit+0x8e0>
  4138dc:	24010005 	li	$at,5
  4138e0:	8fa40180 	lw	$a0,384($sp)
  4138e4:	0c105b0b 	jal	416c2c <_usr4klocks_init>
  4138e8:	af85af34 	sw	$a1,-20684($gp)
  4138ec:	8f89af30 	lw	$t1,-20688($gp)
  4138f0:	8f85af34 	lw	$a1,-20684($gp)
  4138f4:	1120001d 	beqz	$t1,41396c <_usinit+0x914>
  4138f8:	00002025 	move	$a0,$zero
  4138fc:	10b00004 	beq	$a1,$s0,413910 <_usinit+0x8b8>
  413900:	3c0a0020 	lui	$t2,0x20
  413904:	24010006 	li	$at,6
  413908:	14a10003 	bne	$a1,$at,413918 <_usinit+0x8c0>
  41390c:	af85af34 	sw	$a1,-20684($gp)
  413910:	10000002 	b	41391c <_usinit+0x8c4>
  413914:	27878ad4 	addiu	$a3,$gp,-29996
  413918:	27878ad8 	addiu	$a3,$gp,-29992
  41391c:	3c050042 	lui	$a1,0x42
  413920:	8d460e00 	lw	$a2,3584($t2)
  413924:	0c1050fc 	jal	4143f0 <_uprint>
  413928:	24a5ca78 	addiu	$a1,$a1,-13704
  41392c:	1000000f 	b	41396c <_usinit+0x914>
  413930:	00000000 	nop
  413934:	24010005 	li	$at,5
  413938:	14a1000c 	bne	$a1,$at,41396c <_usinit+0x914>
  41393c:	af85af34 	sw	$a1,-20684($gp)
  413940:	8fa40180 	lw	$a0,384($sp)
  413944:	0c105b0b 	jal	416c2c <_usr4klocks_init>
  413948:	af85af34 	sw	$a1,-20684($gp)
  41394c:	8f8baf30 	lw	$t3,-20688($gp)
  413950:	00002025 	move	$a0,$zero
  413954:	11600005 	beqz	$t3,41396c <_usinit+0x914>
  413958:	3c050042 	lui	$a1,0x42
  41395c:	3c0c0020 	lui	$t4,0x20
  413960:	8d860e00 	lw	$a2,3584($t4)
  413964:	0c1050fc 	jal	4143f0 <_uprint>
  413968:	24a5caa8 	addiu	$a1,$a1,-13656
  41396c:	8f878af0 	lw	$a3,-29968($gp)
  413970:	8fad0180 	lw	$t5,384($sp)
  413974:	8f8e8af4 	lw	$t6,-29964($gp)
  413978:	8f8f8b04 	lw	$t7,-29948($gp)
  41397c:	8f988b08 	lw	$t8,-29944($gp)
  413980:	8f998b00 	lw	$t9,-29952($gp)
  413984:	8fa501a0 	lw	$a1,416($sp)
  413988:	8fa60184 	lw	$a2,388($sp)
  41398c:	02402025 	move	$a0,$s2
  413990:	afa70194 	sw	$a3,404($sp)
  413994:	afad0010 	sw	$t5,16($sp)
  413998:	afae0014 	sw	$t6,20($sp)
  41399c:	afaf0018 	sw	$t7,24($sp)
  4139a0:	afb8001c 	sw	$t8,28($sp)
  4139a4:	0c104b50 	jal	412d40 <_usinit_mapfile>
  4139a8:	afb90020 	sw	$t9,32($sp)
  4139ac:	14400011 	bnez	$v0,4139f4 <_usinit+0x99c>
  4139b0:	00408025 	move	$s0,$v0
  4139b4:	0c102020 	jal	408080 <_oserror>
  4139b8:	00000000 	nop
  4139bc:	afa2019c 	sw	$v0,412($sp)
  4139c0:	02402025 	move	$a0,$s2
  4139c4:	0c104154 	jal	410550 <_fstat>
  4139c8:	27a50048 	addiu	$a1,$sp,72
  4139cc:	8fa8005c 	lw	$t0,92($sp)
  4139d0:	34018000 	li	$at,0x8000
  4139d4:	3109f000 	andi	$t1,$t0,0xf000
  4139d8:	1521006b 	bne	$t1,$at,413b88 <_usinit+0xb30>
  4139dc:	8fa90198 	lw	$t1,408($sp)
  4139e0:	8faa0198 	lw	$t2,408($sp)
  4139e4:	00000000 	nop
  4139e8:	254b0001 	addiu	$t3,$t2,1
  4139ec:	10000065 	b	413b84 <_usinit+0xb2c>
  4139f0:	afab0198 	sw	$t3,408($sp)
  4139f4:	8fac01a0 	lw	$t4,416($sp)
  4139f8:	00000000 	nop
  4139fc:	05800004 	bltz	$t4,413a10 <_usinit+0x9b8>
  413a00:	2604001c 	addiu	$a0,$s0,28
  413a04:	0c101ae0 	jal	406b80 <_close>
  413a08:	01802025 	move	$a0,$t4
  413a0c:	2604001c 	addiu	$a0,$s0,28
  413a10:	0c101aa4 	jal	406a90 <strcpy>
  413a14:	02602825 	move	$a1,$s3
  413a18:	0c104f86 	jal	413e18 <_usretsfd+0x58>
  413a1c:	02002025 	move	$a0,$s0
  413a20:	04410009 	bgez	$v0,413a48 <_usinit+0x9f0>
  413a24:	02002025 	move	$a0,$s0
  413a28:	0c102020 	jal	408080 <_oserror>
  413a2c:	00000000 	nop
  413a30:	8fa50194 	lw	$a1,404($sp)
  413a34:	afa2019c 	sw	$v0,412($sp)
  413a38:	0c104110 	jal	410440 <_munmap>
  413a3c:	02002025 	move	$a0,$s0
  413a40:	10000051 	b	413b88 <_usinit+0xb30>
  413a44:	8fa90198 	lw	$t1,408($sp)
  413a48:	24050a78 	li	$a1,2680
  413a4c:	0c106230 	jal	4188c0 <_msync>
  413a50:	24060002 	li	$a2,2
  413a54:	8f84af34 	lw	$a0,-20684($gp)
  413a58:	0c105bb0 	jal	416ec0 <_syncinit>
  413a5c:	00000000 	nop
  413a60:	8fad0184 	lw	$t5,388($sp)
  413a64:	8faf0198 	lw	$t7,408($sp)
  413a68:	31ae0001 	andi	$t6,$t5,0x1
  413a6c:	11c00005 	beqz	$t6,413a84 <_usinit+0xa2c>
  413a70:	00000000 	nop
  413a74:	11e00003 	beqz	$t7,413a84 <_usinit+0xa2c>
  413a78:	00000000 	nop
  413a7c:	0c106248 	jal	418920 <_unlink>
  413a80:	02602025 	move	$a0,$s3
  413a84:	0c101bd2 	jal	406f48 <_malloc>
  413a88:	24040010 	li	$a0,16
  413a8c:	afa20190 	sw	$v0,400($sp)
  413a90:	ac500004 	sw	$s0,4($v0)
  413a94:	ac510000 	sw	$s1,0($v0)
  413a98:	0c101ad0 	jal	406b40 <strlen>
  413a9c:	02602025 	move	$a0,$s3
  413aa0:	0c101bd2 	jal	406f48 <_malloc>
  413aa4:	24440001 	addiu	$a0,$v0,1
  413aa8:	8fb80190 	lw	$t8,400($sp)
  413aac:	00402025 	move	$a0,$v0
  413ab0:	02602825 	move	$a1,$s3
  413ab4:	0c101aa4 	jal	406a90 <strcpy>
  413ab8:	af02000c 	sw	$v0,12($t8)
  413abc:	8fa30190 	lw	$v1,400($sp)
  413ac0:	8f858ab8 	lw	$a1,-30024($gp)
  413ac4:	27a40164 	addiu	$a0,$sp,356
  413ac8:	ac650008 	sw	$a1,8($v1)
  413acc:	0c105185 	jal	414614 <__usblockallsigs>
  413ad0:	af838ab8 	sw	$v1,-30024($gp)
  413ad4:	8fa501a4 	lw	$a1,420($sp)
  413ad8:	02002025 	move	$a0,$s0
  413adc:	0c104a9b 	jal	412a6c <_usany_tids_left+0xc8>
  413ae0:	02203025 	move	$a2,$s1
  413ae4:	2401ffff 	li	$at,-1
  413ae8:	14410014 	bne	$v0,$at,413b3c <_usinit+0xae4>
  413aec:	00000000 	nop
  413af0:	0c102020 	jal	408080 <_oserror>
  413af4:	00000000 	nop
  413af8:	afa2019c 	sw	$v0,412($sp)
  413afc:	0c10519b 	jal	41466c <__usunblockallsigs>
  413b00:	27a40164 	addiu	$a0,$sp,356
  413b04:	8fa20190 	lw	$v0,400($sp)
  413b08:	00000000 	nop
  413b0c:	8c450008 	lw	$a1,8($v0)
  413b10:	8c44000c 	lw	$a0,12($v0)
  413b14:	0c101fc7 	jal	407f1c <_free>
  413b18:	af858ab8 	sw	$a1,-30024($gp)
  413b1c:	8fa40190 	lw	$a0,400($sp)
  413b20:	0c101fc7 	jal	407f1c <_free>
  413b24:	00000000 	nop
  413b28:	8fa50194 	lw	$a1,404($sp)
  413b2c:	0c104110 	jal	410440 <_munmap>
  413b30:	02002025 	move	$a0,$s0
  413b34:	10000014 	b	413b88 <_usinit+0xb30>
  413b38:	8fa90198 	lw	$t1,408($sp)
  413b3c:	0c10519b 	jal	41466c <__usunblockallsigs>
  413b40:	27a40164 	addiu	$a0,$sp,356
  413b44:	8f99af30 	lw	$t9,-20688($gp)
  413b48:	00002025 	move	$a0,$zero
  413b4c:	13200007 	beqz	$t9,413b6c <_usinit+0xb14>
  413b50:	3c050042 	lui	$a1,0x42
  413b54:	3c080020 	lui	$t0,0x20
  413b58:	8d060e00 	lw	$a2,3584($t0)
  413b5c:	afb00010 	sw	$s0,16($sp)
  413b60:	24a5cadc 	addiu	$a1,$a1,-13604
  413b64:	0c1050fc 	jal	4143f0 <_uprint>
  413b68:	02603825 	move	$a3,$s3
  413b6c:	12320003 	beq	$s1,$s2,413b7c <_usinit+0xb24>
  413b70:	00000000 	nop
  413b74:	0c101ae0 	jal	406b80 <_close>
  413b78:	02402025 	move	$a0,$s2
  413b7c:	1000001b 	b	413bec <_usinit+0xb94>
  413b80:	02001025 	move	$v0,$s0
  413b84:	8fa90198 	lw	$t1,408($sp)
  413b88:	00000000 	nop
  413b8c:	11200004 	beqz	$t1,413ba0 <_usinit+0xb48>
  413b90:	8faa01a0 	lw	$t2,416($sp)
  413b94:	0c106248 	jal	418920 <_unlink>
  413b98:	02602025 	move	$a0,$s3
  413b9c:	8faa01a0 	lw	$t2,416($sp)
  413ba0:	00000000 	nop
  413ba4:	05400003 	bltz	$t2,413bb4 <_usinit+0xb5c>
  413ba8:	00000000 	nop
  413bac:	0c101ae0 	jal	406b80 <_close>
  413bb0:	01402025 	move	$a0,$t2
  413bb4:	06400004 	bltz	$s2,413bc8 <_usinit+0xb70>
  413bb8:	8fab017c 	lw	$t3,380($sp)
  413bbc:	0c101ae0 	jal	406b80 <_close>
  413bc0:	02402025 	move	$a0,$s2
  413bc4:	8fab017c 	lw	$t3,380($sp)
  413bc8:	00000000 	nop
  413bcc:	05600004 	bltz	$t3,413be0 <_usinit+0xb88>
  413bd0:	8fa4019c 	lw	$a0,412($sp)
  413bd4:	0c101ae0 	jal	406b80 <_close>
  413bd8:	01602025 	move	$a0,$t3
  413bdc:	8fa4019c 	lw	$a0,412($sp)
  413be0:	0c102025 	jal	408094 <_setoserror>
  413be4:	00000000 	nop
  413be8:	00001025 	move	$v0,$zero
  413bec:	8fbf003c 	lw	$ra,60($sp)
  413bf0:	8fb0002c 	lw	$s0,44($sp)
  413bf4:	8fb10030 	lw	$s1,48($sp)
  413bf8:	8fb20034 	lw	$s2,52($sp)
  413bfc:	8fb30038 	lw	$s3,56($sp)
  413c00:	03e00008 	jr	$ra
  413c04:	27bd11b8 	addiu	$sp,$sp,4536

00413c08 <_usadd>:
  413c08:	27bdffc8 	addiu	$sp,$sp,-56
  413c0c:	afbf0014 	sw	$ra,20($sp)
  413c10:	afa40038 	sw	$a0,56($sp)
  413c14:	3c0e0020 	lui	$t6,0x20
  413c18:	8dcf0e00 	lw	$t7,3584($t6)
  413c1c:	afa0002c 	sw	$zero,44($sp)
  413c20:	27a40018 	addiu	$a0,$sp,24
  413c24:	0c105185 	jal	414614 <__usblockallsigs>
  413c28:	afaf0030 	sw	$t7,48($sp)
  413c2c:	8fa40038 	lw	$a0,56($sp)
  413c30:	0c104999 	jal	412664 <_usgettid>
  413c34:	00000000 	nop
  413c38:	2401ffff 	li	$at,-1
  413c3c:	14410020 	bne	$v0,$at,413cc0 <_usadd+0xb8>
  413c40:	00000000 	nop
  413c44:	0c102020 	jal	408080 <_oserror>
  413c48:	00000000 	nop
  413c4c:	2401002e 	li	$at,46
  413c50:	14410003 	bne	$v0,$at,413c60 <_usadd+0x58>
  413c54:	2418ffff 	li	$t8,-1
  413c58:	1000001c 	b	413ccc <_usadd+0xc4>
  413c5c:	afb8002c 	sw	$t8,44($sp)
  413c60:	8fa40038 	lw	$a0,56($sp)
  413c64:	8fa50030 	lw	$a1,48($sp)
  413c68:	0c104a9b 	jal	412a6c <_usany_tids_left+0xc8>
  413c6c:	2406ffff 	li	$a2,-1
  413c70:	2401ffff 	li	$at,-1
  413c74:	14410012 	bne	$v0,$at,413cc0 <_usadd+0xb8>
  413c78:	00000000 	nop
  413c7c:	0c102020 	jal	408080 <_oserror>
  413c80:	00000000 	nop
  413c84:	8f998ab0 	lw	$t9,-30032($gp)
  413c88:	afa20028 	sw	$v0,40($sp)
  413c8c:	13200006 	beqz	$t9,413ca8 <_usadd+0xa0>
  413c90:	24040001 	li	$a0,1
  413c94:	3c050042 	lui	$a1,0x42
  413c98:	8fa60030 	lw	$a2,48($sp)
  413c9c:	8fa70038 	lw	$a3,56($sp)
  413ca0:	0c1050fc 	jal	4143f0 <_uprint>
  413ca4:	24a5cb14 	addiu	$a1,$a1,-13548
  413ca8:	8fa40028 	lw	$a0,40($sp)
  413cac:	0c102025 	jal	408094 <_setoserror>
  413cb0:	00000000 	nop
  413cb4:	2408ffff 	li	$t0,-1
  413cb8:	10000004 	b	413ccc <_usadd+0xc4>
  413cbc:	afa8002c 	sw	$t0,44($sp)
  413cc0:	8f84af34 	lw	$a0,-20684($gp)
  413cc4:	0c105bb0 	jal	416ec0 <_syncinit>
  413cc8:	00000000 	nop
  413ccc:	0c10519b 	jal	41466c <__usunblockallsigs>
  413cd0:	27a40018 	addiu	$a0,$sp,24
  413cd4:	8fbf0014 	lw	$ra,20($sp)
  413cd8:	8fa2002c 	lw	$v0,44($sp)
  413cdc:	03e00008 	jr	$ra
  413ce0:	27bd0038 	addiu	$sp,$sp,56

00413ce4 <__usfastadd>:
  413ce4:	27bdffc8 	addiu	$sp,$sp,-56
  413ce8:	afbf0014 	sw	$ra,20($sp)
  413cec:	afa40038 	sw	$a0,56($sp)
  413cf0:	3c0e0020 	lui	$t6,0x20
  413cf4:	8dcf0e00 	lw	$t7,3584($t6)
  413cf8:	0c104999 	jal	412664 <_usgettid>
  413cfc:	afaf0034 	sw	$t7,52($sp)
  413d00:	00021c00 	sll	$v1,$v0,0x10
  413d04:	2401ffff 	li	$at,-1
  413d08:	10410003 	beq	$v0,$at,413d18 <__usfastadd+0x34>
  413d0c:	0003c403 	sra	$t8,$v1,0x10
  413d10:	10000027 	b	413db0 <__usfastadd+0xcc>
  413d14:	03001025 	move	$v0,$t8
  413d18:	0c105185 	jal	414614 <__usblockallsigs>
  413d1c:	27a40020 	addiu	$a0,$sp,32
  413d20:	8fa40038 	lw	$a0,56($sp)
  413d24:	0c104999 	jal	412664 <_usgettid>
  413d28:	00000000 	nop
  413d2c:	2401ffff 	li	$at,-1
  413d30:	1441001b 	bne	$v0,$at,413da0 <__usfastadd+0xbc>
  413d34:	a7a2001e 	sh	$v0,30($sp)
  413d38:	0c102020 	jal	408080 <_oserror>
  413d3c:	00000000 	nop
  413d40:	2401002e 	li	$at,46
  413d44:	10410016 	beq	$v0,$at,413da0 <__usfastadd+0xbc>
  413d48:	00000000 	nop
  413d4c:	8fa40038 	lw	$a0,56($sp)
  413d50:	8fa50034 	lw	$a1,52($sp)
  413d54:	0c104a9b 	jal	412a6c <_usany_tids_left+0xc8>
  413d58:	2406ffff 	li	$a2,-1
  413d5c:	2401ffff 	li	$at,-1
  413d60:	1441000f 	bne	$v0,$at,413da0 <__usfastadd+0xbc>
  413d64:	a7a2001e 	sh	$v0,30($sp)
  413d68:	0c102020 	jal	408080 <_oserror>
  413d6c:	00000000 	nop
  413d70:	8f998ab0 	lw	$t9,-30032($gp)
  413d74:	afa20030 	sw	$v0,48($sp)
  413d78:	13200006 	beqz	$t9,413d94 <__usfastadd+0xb0>
  413d7c:	24040001 	li	$a0,1
  413d80:	3c050042 	lui	$a1,0x42
  413d84:	8fa60034 	lw	$a2,52($sp)
  413d88:	8fa70038 	lw	$a3,56($sp)
  413d8c:	0c1050fc 	jal	4143f0 <_uprint>
  413d90:	24a5cb48 	addiu	$a1,$a1,-13496
  413d94:	8fa40030 	lw	$a0,48($sp)
  413d98:	0c102025 	jal	408094 <_setoserror>
  413d9c:	00000000 	nop
  413da0:	0c10519b 	jal	41466c <__usunblockallsigs>
  413da4:	27a40020 	addiu	$a0,$sp,32
  413da8:	87a2001e 	lh	$v0,30($sp)
  413dac:	00000000 	nop
  413db0:	8fbf0014 	lw	$ra,20($sp)
  413db4:	27bd0038 	addiu	$sp,$sp,56
  413db8:	03e00008 	jr	$ra
  413dbc:	00000000 	nop

00413dc0 <_usretsfd>:
  413dc0:	27bdffe8 	addiu	$sp,$sp,-24
  413dc4:	afbf0014 	sw	$ra,20($sp)
  413dc8:	0c104999 	jal	412664 <_usgettid>
  413dcc:	afa40018 	sw	$a0,24($sp)
  413dd0:	00021c00 	sll	$v1,$v0,0x10
  413dd4:	00037403 	sra	$t6,$v1,0x10
  413dd8:	2401ffff 	li	$at,-1
  413ddc:	14410003 	bne	$v0,$at,413dec <_usretsfd+0x2c>
  413de0:	01c01825 	move	$v1,$t6
  413de4:	10000008 	b	413e08 <_usretsfd+0x48>
  413de8:	2402ffff 	li	$v0,-1
  413dec:	8faf0018 	lw	$t7,24($sp)
  413df0:	0003c8c0 	sll	$t9,$v1,0x3
  413df4:	8df8000c 	lw	$t8,12($t7)
  413df8:	00000000 	nop
  413dfc:	03194021 	addu	$t0,$t8,$t9
  413e00:	85020006 	lh	$v0,6($t0)
  413e04:	00000000 	nop
  413e08:	8fbf0014 	lw	$ra,20($sp)
  413e0c:	27bd0018 	addiu	$sp,$sp,24
  413e10:	03e00008 	jr	$ra
  413e14:	00000000 	nop
  413e18:	27bdff48 	addiu	$sp,$sp,-184
  413e1c:	afa400b8 	sw	$a0,184($sp)
  413e20:	afbf0024 	sw	$ra,36($sp)
  413e24:	3c040042 	lui	$a0,0x42
  413e28:	afb00020 	sw	$s0,32($sp)
  413e2c:	2484cb7c 	addiu	$a0,$a0,-13444
  413e30:	0c10411c 	jal	410470 <_open>
  413e34:	24050002 	li	$a1,2
  413e38:	0441000b 	bgez	$v0,413e68 <_usretsfd+0xa8>
  413e3c:	00408025 	move	$s0,$v0
  413e40:	8f8e8ab0 	lw	$t6,-30032($gp)
  413e44:	24040001 	li	$a0,1
  413e48:	11c00005 	beqz	$t6,413e60 <_usretsfd+0xa0>
  413e4c:	3c050042 	lui	$a1,0x42
  413e50:	3c060042 	lui	$a2,0x42
  413e54:	24c6cba8 	addiu	$a2,$a2,-13400
  413e58:	0c1050fc 	jal	4143f0 <_uprint>
  413e5c:	24a5cb8c 	addiu	$a1,$a1,-13428
  413e60:	10000024 	b	413ef4 <_usretsfd+0x134>
  413e64:	2402ffff 	li	$v0,-1
  413e68:	02002025 	move	$a0,$s0
  413e6c:	24050002 	li	$a1,2
  413e70:	0c1040ec 	jal	4103b0 <_fcntl>
  413e74:	24060001 	li	$a2,1
  413e78:	02002025 	move	$a0,$s0
  413e7c:	0c1040e0 	jal	410380 <_fchmod>
  413e80:	24050180 	li	$a1,384
  413e84:	02002025 	move	$a0,$s0
  413e88:	0c104154 	jal	410550 <_fstat>
  413e8c:	27a5002c 	addiu	$a1,$sp,44
  413e90:	1040000b 	beqz	$v0,413ec0 <_usretsfd+0x100>
  413e94:	00000000 	nop
  413e98:	8f8f8ab0 	lw	$t7,-30032($gp)
  413e9c:	24040001 	li	$a0,1
  413ea0:	11e00003 	beqz	$t7,413eb0 <_usretsfd+0xf0>
  413ea4:	3c050042 	lui	$a1,0x42
  413ea8:	0c1050fc 	jal	4143f0 <_uprint>
  413eac:	24a5cbb8 	addiu	$a1,$a1,-13384
  413eb0:	0c101ae0 	jal	406b80 <_close>
  413eb4:	02002025 	move	$a0,$s0
  413eb8:	1000000e 	b	413ef4 <_usretsfd+0x134>
  413ebc:	2402ffff 	li	$v0,-1
  413ec0:	8f98af30 	lw	$t8,-20688($gp)
  413ec4:	00002025 	move	$a0,$zero
  413ec8:	13000006 	beqz	$t8,413ee4 <_usretsfd+0x124>
  413ecc:	3c050042 	lui	$a1,0x42
  413ed0:	8fa600b8 	lw	$a2,184($sp)
  413ed4:	8fa70050 	lw	$a3,80($sp)
  413ed8:	24a5cbe8 	addiu	$a1,$a1,-13336
  413edc:	0c1050fc 	jal	4143f0 <_uprint>
  413ee0:	afb00010 	sw	$s0,16($sp)
  413ee4:	8fb90050 	lw	$t9,80($sp)
  413ee8:	8fa800b8 	lw	$t0,184($sp)
  413eec:	02001025 	move	$v0,$s0
  413ef0:	ad190a68 	sw	$t9,2664($t0)
  413ef4:	8fbf0024 	lw	$ra,36($sp)
  413ef8:	8fb00020 	lw	$s0,32($sp)
  413efc:	03e00008 	jr	$ra
  413f00:	27bd00b8 	addiu	$sp,$sp,184
  413f04:	27bdff30 	addiu	$sp,$sp,-208
  413f08:	afbf002c 	sw	$ra,44($sp)
  413f0c:	afb40028 	sw	$s4,40($sp)
  413f10:	0080a025 	move	$s4,$a0
  413f14:	afb30024 	sw	$s3,36($sp)
  413f18:	afb20020 	sw	$s2,32($sp)
  413f1c:	afb1001c 	sw	$s1,28($sp)
  413f20:	afb00018 	sw	$s0,24($sp)
  413f24:	0c10626c 	jal	4189b0 <_getdtablehi>
  413f28:	afa500d4 	sw	$a1,212($sp)
  413f2c:	00409825 	move	$s3,$v0
  413f30:	18400017 	blez	$v0,413f90 <_usretsfd+0x1d0>
  413f34:	00008025 	move	$s0,$zero
  413f38:	24122000 	li	$s2,8192
  413f3c:	27b10038 	addiu	$s1,$sp,56
  413f40:	02002025 	move	$a0,$s0
  413f44:	0c104154 	jal	410550 <_fstat>
  413f48:	02202825 	move	$a1,$s1
  413f4c:	1440000c 	bnez	$v0,413f80 <_usretsfd+0x1c0>
  413f50:	00000000 	nop
  413f54:	8fae004c 	lw	$t6,76($sp)
  413f58:	8fb8005c 	lw	$t8,92($sp)
  413f5c:	31cff000 	andi	$t7,$t6,0xf000
  413f60:	164f0007 	bne	$s2,$t7,413f80 <_usretsfd+0x1c0>
  413f64:	00000000 	nop
  413f68:	8e990a68 	lw	$t9,2664($s4)
  413f6c:	00000000 	nop
  413f70:	17190003 	bne	$t8,$t9,413f80 <_usretsfd+0x1c0>
  413f74:	00000000 	nop
  413f78:	10000045 	b	414090 <_usretsfd+0x2d0>
  413f7c:	02001025 	move	$v0,$s0
  413f80:	26100001 	addiu	$s0,$s0,1
  413f84:	0213082a 	slt	$at,$s0,$s3
  413f88:	1420ffee 	bnez	$at,413f44 <_usretsfd+0x184>
  413f8c:	02002025 	move	$a0,$s0
  413f90:	3c040042 	lui	$a0,0x42
  413f94:	2484cc20 	addiu	$a0,$a0,-13280
  413f98:	0c10411c 	jal	410470 <_open>
  413f9c:	24050002 	li	$a1,2
  413fa0:	0441000b 	bgez	$v0,413fd0 <_usretsfd+0x210>
  413fa4:	00408025 	move	$s0,$v0
  413fa8:	8f888ab0 	lw	$t0,-30032($gp)
  413fac:	24040001 	li	$a0,1
  413fb0:	11000005 	beqz	$t0,413fc8 <_usretsfd+0x208>
  413fb4:	3c050042 	lui	$a1,0x42
  413fb8:	3c060042 	lui	$a2,0x42
  413fbc:	24c6cc48 	addiu	$a2,$a2,-13240
  413fc0:	0c1050fc 	jal	4143f0 <_uprint>
  413fc4:	24a5cc2c 	addiu	$a1,$a1,-13268
  413fc8:	10000031 	b	414090 <_usretsfd+0x2d0>
  413fcc:	2402ffff 	li	$v0,-1
  413fd0:	8e890a68 	lw	$t1,2664($s4)
  413fd4:	3c050075 	lui	$a1,0x75
  413fd8:	34a57302 	ori	$a1,$a1,0x7302
  413fdc:	02002025 	move	$a0,$s0
  413fe0:	27a60030 	addiu	$a2,$sp,48
  413fe4:	0c1040f8 	jal	4103e0 <_ioctl>
  413fe8:	afa90030 	sw	$t1,48($sp)
  413fec:	00408825 	move	$s1,$v0
  413ff0:	0c101ae0 	jal	406b80 <_close>
  413ff4:	02002025 	move	$a0,$s0
  413ff8:	8fa400d4 	lw	$a0,212($sp)
  413ffc:	8e850424 	lw	$a1,1060($s4)
  414000:	0c104973 	jal	4125cc <_hrellock+0x258>
  414004:	00000000 	nop
  414008:	14400011 	bnez	$v0,414050 <_usretsfd+0x290>
  41400c:	00408025 	move	$s0,$v0
  414010:	8f8aaf30 	lw	$t2,-20688($gp)
  414014:	00002025 	move	$a0,$zero
  414018:	11400005 	beqz	$t2,414030 <_usretsfd+0x270>
  41401c:	3c050042 	lui	$a1,0x42
  414020:	3c0b0020 	lui	$t3,0x20
  414024:	8d660e00 	lw	$a2,3584($t3)
  414028:	0c1050fc 	jal	4143f0 <_uprint>
  41402c:	24a5cc54 	addiu	$a1,$a1,-13228
  414030:	12200003 	beqz	$s1,414040 <_usretsfd+0x280>
  414034:	00000000 	nop
  414038:	0c101ae0 	jal	406b80 <_close>
  41403c:	02202025 	move	$a0,$s1
  414040:	0c104f86 	jal	413e18 <_usretsfd+0x58>
  414044:	02802025 	move	$a0,$s4
  414048:	10000012 	b	414094 <_usretsfd+0x2d4>
  41404c:	8fbf002c 	lw	$ra,44($sp)
  414050:	0621000b 	bgez	$s1,414080 <_usretsfd+0x2c0>
  414054:	02202025 	move	$a0,$s1
  414058:	8f8c8ab0 	lw	$t4,-30032($gp)
  41405c:	24040001 	li	$a0,1
  414060:	11800005 	beqz	$t4,414078 <_usretsfd+0x2b8>
  414064:	3c050042 	lui	$a1,0x42
  414068:	8e860a68 	lw	$a2,2664($s4)
  41406c:	24a5cc88 	addiu	$a1,$a1,-13176
  414070:	0c1050fc 	jal	4143f0 <_uprint>
  414074:	02003825 	move	$a3,$s0
  414078:	10000005 	b	414090 <_usretsfd+0x2d0>
  41407c:	2402ffff 	li	$v0,-1
  414080:	24050002 	li	$a1,2
  414084:	0c1040ec 	jal	4103b0 <_fcntl>
  414088:	24060001 	li	$a2,1
  41408c:	02201025 	move	$v0,$s1
  414090:	8fbf002c 	lw	$ra,44($sp)
  414094:	8fb00018 	lw	$s0,24($sp)
  414098:	8fb1001c 	lw	$s1,28($sp)
  41409c:	8fb20020 	lw	$s2,32($sp)
  4140a0:	8fb30024 	lw	$s3,36($sp)
  4140a4:	8fb40028 	lw	$s4,40($sp)
  4140a8:	03e00008 	jr	$ra
  4140ac:	27bd00d0 	addiu	$sp,$sp,208
  4140b0:	27bdffc0 	addiu	$sp,$sp,-64
  4140b4:	8f8eaf30 	lw	$t6,-20688($gp)
  4140b8:	afb00020 	sw	$s0,32($sp)
  4140bc:	00808025 	move	$s0,$a0
  4140c0:	afbf0024 	sw	$ra,36($sp)
  4140c4:	afa50044 	sw	$a1,68($sp)
  4140c8:	afa60048 	sw	$a2,72($sp)
  4140cc:	11c0000b 	beqz	$t6,4140fc <_usretsfd+0x33c>
  4140d0:	afa7004c 	sw	$a3,76($sp)
  4140d4:	8fb80048 	lw	$t8,72($sp)
  4140d8:	3c0f0020 	lui	$t7,0x20
  4140dc:	8de60e00 	lw	$a2,3584($t7)
  4140e0:	3c050042 	lui	$a1,0x42
  4140e4:	2719f588 	addiu	$t9,$t8,-2680
  4140e8:	afb90010 	sw	$t9,16($sp)
  4140ec:	24a5ccc8 	addiu	$a1,$a1,-13112
  4140f0:	00002025 	move	$a0,$zero
  4140f4:	0c1050fc 	jal	4143f0 <_uprint>
  4140f8:	24070a78 	li	$a3,2680
  4140fc:	8fa50048 	lw	$a1,72($sp)
  414100:	8fa8004c 	lw	$t0,76($sp)
  414104:	26040a78 	addiu	$a0,$s0,2680
  414108:	11000003 	beqz	$t0,414118 <_usretsfd+0x358>
  41410c:	24a5f588 	addiu	$a1,$a1,-2680
  414110:	10000002 	b	41411c <_usretsfd+0x35c>
  414114:	00003025 	move	$a2,$zero
  414118:	24060004 	li	$a2,4
  41411c:	02003825 	move	$a3,$s0
  414120:	afa00010 	sw	$zero,16($sp)
  414124:	0c105377 	jal	414ddc <_acreate>
  414128:	afa50028 	sw	$a1,40($sp)
  41412c:	8fa50028 	lw	$a1,40($sp)
  414130:	8fa70044 	lw	$a3,68($sp)
  414134:	14400009 	bnez	$v0,41415c <_usretsfd+0x39c>
  414138:	ae020018 	sw	$v0,24($s0)
  41413c:	8f898ab0 	lw	$t1,-30032($gp)
  414140:	24040001 	li	$a0,1
  414144:	11200003 	beqz	$t1,414154 <_usretsfd+0x394>
  414148:	3c050042 	lui	$a1,0x42
  41414c:	0c1050fc 	jal	4143f0 <_uprint>
  414150:	24a5cd00 	addiu	$a1,$a1,-13056
  414154:	100000a2 	b	4143e0 <_usretsfd+0x620>
  414158:	00001025 	move	$v0,$zero
  41415c:	3401f588 	li	$at,0xf588
  414160:	00a1082b 	sltu	$at,$a1,$at
  414164:	1020000e 	beqz	$at,4141a0 <_usretsfd+0x3e0>
  414168:	00001825 	move	$v1,$zero
  41416c:	8e060018 	lw	$a2,24($s0)
  414170:	24040001 	li	$a0,1
  414174:	0c105795 	jal	415e54 <_amallopt>
  414178:	00002825 	move	$a1,$zero
  41417c:	8e060018 	lw	$a2,24($s0)
  414180:	afa20034 	sw	$v0,52($sp)
  414184:	24040005 	li	$a0,5
  414188:	0c105795 	jal	415e54 <_amallopt>
  41418c:	24050200 	li	$a1,512
  414190:	8fa30034 	lw	$v1,52($sp)
  414194:	8fa70044 	lw	$a3,68($sp)
  414198:	1000000b 	b	4141c8 <_usretsfd+0x408>
  41419c:	00621821 	addu	$v1,$v1,$v0
  4141a0:	3c010003 	lui	$at,0x3
  4141a4:	3421f588 	ori	$at,$at,0xf588
  4141a8:	00a1082b 	sltu	$at,$a1,$at
  4141ac:	10200006 	beqz	$at,4141c8 <_usretsfd+0x408>
  4141b0:	24040005 	li	$a0,5
  4141b4:	8e060018 	lw	$a2,24($s0)
  4141b8:	0c105795 	jal	415e54 <_amallopt>
  4141bc:	24050400 	li	$a1,1024
  4141c0:	8fa70044 	lw	$a3,68($sp)
  4141c4:	00401825 	move	$v1,$v0
  4141c8:	1060000b 	beqz	$v1,4141f8 <_usretsfd+0x438>
  4141cc:	000720c0 	sll	$a0,$a3,0x3
  4141d0:	8f8a8ab0 	lw	$t2,-30032($gp)
  4141d4:	00002025 	move	$a0,$zero
  4141d8:	11400003 	beqz	$t2,4141e8 <_usretsfd+0x428>
  4141dc:	3c050042 	lui	$a1,0x42
  4141e0:	0c1050fc 	jal	4143f0 <_uprint>
  4141e4:	24a5cd30 	addiu	$a1,$a1,-13008
  4141e8:	0c102025 	jal	408094 <_setoserror>
  4141ec:	24040016 	li	$a0,22
  4141f0:	1000007b 	b	4143e0 <_usretsfd+0x620>
  4141f4:	00001025 	move	$v0,$zero
  4141f8:	0c103110 	jal	40c440 <_usmalloc>
  4141fc:	02002825 	move	$a1,$s0
  414200:	8fa70044 	lw	$a3,68($sp)
  414204:	14400005 	bnez	$v0,41421c <_usretsfd+0x45c>
  414208:	ae02000c 	sw	$v0,12($s0)
  41420c:	0c102025 	jal	408094 <_setoserror>
  414210:	2404000c 	li	$a0,12
  414214:	10000072 	b	4143e0 <_usretsfd+0x620>
  414218:	00001025 	move	$v0,$zero
  41421c:	24ebffff 	addiu	$t3,$a3,-1
  414220:	01676024 	and	$t4,$t3,$a3
  414224:	11800008 	beqz	$t4,414248 <_usretsfd+0x488>
  414228:	00e03025 	move	$a2,$a3
  41422c:	24e2ffff 	addiu	$v0,$a3,-1
  414230:	00463025 	or	$a2,$v0,$a2
  414234:	24c60001 	addiu	$a2,$a2,1
  414238:	24c2ffff 	addiu	$v0,$a2,-1
  41423c:	00466824 	and	$t5,$v0,$a2
  414240:	15a0fffb 	bnez	$t5,414230 <_usretsfd+0x470>
  414244:	00000000 	nop
  414248:	000670c3 	sra	$t6,$a2,0x3
  41424c:	15c00002 	bnez	$t6,414258 <_usretsfd+0x498>
  414250:	01c03025 	move	$a2,$t6
  414254:	24060001 	li	$a2,1
  414258:	24cfffff 	addiu	$t7,$a2,-1
  41425c:	ae0f0014 	sw	$t7,20($s0)
  414260:	afa60038 	sw	$a2,56($sp)
  414264:	00062040 	sll	$a0,$a2,0x1
  414268:	0c103110 	jal	40c440 <_usmalloc>
  41426c:	02002825 	move	$a1,$s0
  414270:	8fa60038 	lw	$a2,56($sp)
  414274:	8fa70044 	lw	$a3,68($sp)
  414278:	14400005 	bnez	$v0,414290 <_usretsfd+0x4d0>
  41427c:	ae020010 	sw	$v0,16($s0)
  414280:	0c102025 	jal	408094 <_setoserror>
  414284:	2404000c 	li	$a0,12
  414288:	10000055 	b	4143e0 <_usretsfd+0x620>
  41428c:	00001025 	move	$v0,$zero
  414290:	18e00012 	blez	$a3,4142dc <_usretsfd+0x51c>
  414294:	00001825 	move	$v1,$zero
  414298:	2404ffff 	li	$a0,-1
  41429c:	8e18000c 	lw	$t8,12($s0)
  4142a0:	000310c0 	sll	$v0,$v1,0x3
  4142a4:	0302c821 	addu	$t9,$t8,$v0
  4142a8:	af240000 	sw	$a0,0($t9)
  4142ac:	8e08000c 	lw	$t0,12($s0)
  4142b0:	24630001 	addiu	$v1,$v1,1
  4142b4:	01024821 	addu	$t1,$t0,$v0
  4142b8:	a5240004 	sh	$a0,4($t1)
  4142bc:	8e0a000c 	lw	$t2,12($s0)
  4142c0:	00036400 	sll	$t4,$v1,0x10
  4142c4:	000c1c03 	sra	$v1,$t4,0x10
  4142c8:	0067082a 	slt	$at,$v1,$a3
  4142cc:	01425821 	addu	$t3,$t2,$v0
  4142d0:	1420fff2 	bnez	$at,41429c <_usretsfd+0x4dc>
  4142d4:	a5640006 	sh	$a0,6($t3)
  4142d8:	00001825 	move	$v1,$zero
  4142dc:	18c0000a 	blez	$a2,414308 <_usretsfd+0x548>
  4142e0:	2404ffff 	li	$a0,-1
  4142e4:	00037840 	sll	$t7,$v1,0x1
  4142e8:	24630001 	addiu	$v1,$v1,1
  4142ec:	8e0e0010 	lw	$t6,16($s0)
  4142f0:	0003cc00 	sll	$t9,$v1,0x10
  4142f4:	00191c03 	sra	$v1,$t9,0x10
  4142f8:	0066082a 	slt	$at,$v1,$a2
  4142fc:	01cfc021 	addu	$t8,$t6,$t7
  414300:	1420fff8 	bnez	$at,4142e4 <_usretsfd+0x524>
  414304:	a7040000 	sh	$a0,0($t8)
  414308:	3c090020 	lui	$t1,0x20
  41430c:	8d2a0e00 	lw	$t2,3584($t1)
  414310:	02002025 	move	$a0,$s0
  414314:	ae0a0a70 	sw	$t2,2672($s0)
  414318:	8f99aeec 	lw	$t9,-20756($gp)
  41431c:	00000000 	nop
  414320:	0320f809 	jalr	$t9
  414324:	00000000 	nop
  414328:	14400003 	bnez	$v0,414338 <_usretsfd+0x578>
  41432c:	ae020440 	sw	$v0,1088($s0)
  414330:	1000002b 	b	4143e0 <_usretsfd+0x620>
  414334:	00001025 	move	$v0,$zero
  414338:	ae00042c 	sw	$zero,1068($s0)
  41433c:	ae000430 	sw	$zero,1072($s0)
  414340:	ae000434 	sw	$zero,1076($s0)
  414344:	ae000438 	sw	$zero,1080($s0)
  414348:	ae00043c 	sw	$zero,1084($s0)
  41434c:	8f99aeec 	lw	$t9,-20756($gp)
  414350:	02002025 	move	$a0,$s0
  414354:	0320f809 	jalr	$t9
  414358:	00000000 	nop
  41435c:	14400003 	bnez	$v0,41436c <_usretsfd+0x5ac>
  414360:	ae020444 	sw	$v0,1092($s0)
  414364:	1000001e 	b	4143e0 <_usretsfd+0x620>
  414368:	00001025 	move	$v0,$zero
  41436c:	02002025 	move	$a0,$s0
  414370:	0c1025eb 	jal	4097ac <_usnewsema>
  414374:	24050001 	li	$a1,1
  414378:	14400003 	bnez	$v0,414388 <_usretsfd+0x5c8>
  41437c:	ae020a64 	sw	$v0,2660($s0)
  414380:	10000017 	b	4143e0 <_usretsfd+0x620>
  414384:	00001025 	move	$v0,$zero
  414388:	8f99aeec 	lw	$t9,-20756($gp)
  41438c:	02002025 	move	$a0,$s0
  414390:	0320f809 	jalr	$t9
  414394:	00000000 	nop
  414398:	14400003 	bnez	$v0,4143a8 <_usretsfd+0x5e8>
  41439c:	ae020448 	sw	$v0,1096($s0)
  4143a0:	1000000f 	b	4143e0 <_usretsfd+0x620>
  4143a4:	00001025 	move	$v0,$zero
  4143a8:	24040008 	li	$a0,8
  4143ac:	00002825 	move	$a1,$zero
  4143b0:	0c10313d 	jal	40c4f4 <_usmallopt>
  4143b4:	02003025 	move	$a2,$s0
  4143b8:	10400008 	beqz	$v0,4143dc <_usretsfd+0x61c>
  4143bc:	24040001 	li	$a0,1
  4143c0:	3c050042 	lui	$a1,0x42
  4143c4:	0c1050fc 	jal	4143f0 <_uprint>
  4143c8:	24a5cd68 	addiu	$a1,$a1,-12952
  4143cc:	0c102025 	jal	408094 <_setoserror>
  4143d0:	24040016 	li	$a0,22
  4143d4:	10000002 	b	4143e0 <_usretsfd+0x620>
  4143d8:	00001025 	move	$v0,$zero
  4143dc:	24020001 	li	$v0,1
  4143e0:	8fbf0024 	lw	$ra,36($sp)
  4143e4:	8fb00020 	lw	$s0,32($sp)
  4143e8:	03e00008 	jr	$ra
  4143ec:	27bd0040 	addiu	$sp,$sp,64

004143f0 <_uprint>:
  4143f0:	27bdfdd0 	addiu	$sp,$sp,-560
  4143f4:	afbf001c 	sw	$ra,28($sp)
  4143f8:	afb00018 	sw	$s0,24($sp)
  4143fc:	afa40230 	sw	$a0,560($sp)
  414400:	afa50234 	sw	$a1,564($sp)
  414404:	afa60238 	sw	$a2,568($sp)
  414408:	0c102020 	jal	408080 <_oserror>
  41440c:	afa7023c 	sw	$a3,572($sp)
  414410:	27b0002c 	addiu	$s0,$sp,44
  414414:	8fa50234 	lw	$a1,564($sp)
  414418:	afa20028 	sw	$v0,40($sp)
  41441c:	02002025 	move	$a0,$s0
  414420:	0c106008 	jal	418020 <_vsprintf>
  414424:	27a60238 	addiu	$a2,$sp,568
  414428:	8fae0230 	lw	$t6,560($sp)
  41442c:	02002025 	move	$a0,$s0
  414430:	19c00009 	blez	$t6,414458 <_uprint+0x68>
  414434:	00000000 	nop
  414438:	0c103fb4 	jal	40fed0 <strcat>
  41443c:	27858ae0 	addiu	$a1,$gp,-29984
  414440:	8fa40028 	lw	$a0,40($sp)
  414444:	0c104024 	jal	410090 <strerror>
  414448:	00000000 	nop
  41444c:	02002025 	move	$a0,$s0
  414450:	0c103fb4 	jal	40fed0 <strcat>
  414454:	00402825 	move	$a1,$v0
  414458:	02002025 	move	$a0,$s0
  41445c:	0c103fb4 	jal	40fed0 <strcat>
  414460:	27858ae4 	addiu	$a1,$gp,-29980
  414464:	8f8f8ae8 	lw	$t7,-29976($gp)
  414468:	24050003 	li	$a1,3
  41446c:	11e00009 	beqz	$t7,414494 <_uprint+0xa4>
  414470:	00000000 	nop
  414474:	8f848ab4 	lw	$a0,-30028($gp)
  414478:	0c1040ec 	jal	4103b0 <_fcntl>
  41447c:	af808ae8 	sw	$zero,-29976($gp)
  414480:	04400004 	bltz	$v0,414494 <_uprint+0xa4>
  414484:	24050004 	li	$a1,4
  414488:	8f848ab4 	lw	$a0,-30028($gp)
  41448c:	0c1040ec 	jal	4103b0 <_fcntl>
  414490:	34460008 	ori	$a2,$v0,0x8
  414494:	0c101ad0 	jal	406b40 <strlen>
  414498:	02002025 	move	$a0,$s0
  41449c:	8f848ab4 	lw	$a0,-30028($gp)
  4144a0:	02002825 	move	$a1,$s0
  4144a4:	0c101af8 	jal	406be0 <_write>
  4144a8:	00403025 	move	$a2,$v0
  4144ac:	8fa40028 	lw	$a0,40($sp)
  4144b0:	0c102025 	jal	408094 <_setoserror>
  4144b4:	00000000 	nop
  4144b8:	8fbf001c 	lw	$ra,28($sp)
  4144bc:	8fb00018 	lw	$s0,24($sp)
  4144c0:	27bd0230 	addiu	$sp,$sp,560
  4144c4:	03e00008 	jr	$ra
  4144c8:	00001025 	move	$v0,$zero

004144cc <__usdetach>:
  4144cc:	27bdffc0 	addiu	$sp,$sp,-64
  4144d0:	afbf001c 	sw	$ra,28($sp)
  4144d4:	afb00018 	sw	$s0,24($sp)
  4144d8:	8f828ab8 	lw	$v0,-30024($gp)
  4144dc:	8c8e041c 	lw	$t6,1052($a0)
  4144e0:	00808025 	move	$s0,$a0
  4144e4:	00402825 	move	$a1,$v0
  4144e8:	10400020 	beqz	$v0,41456c <__usdetach+0xa0>
  4144ec:	afae002c 	sw	$t6,44($sp)
  4144f0:	8fa30038 	lw	$v1,56($sp)
  4144f4:	00000000 	nop
  4144f8:	8caf0004 	lw	$t7,4($a1)
  4144fc:	00000000 	nop
  414500:	160f0014 	bne	$s0,$t7,414554 <__usdetach+0x88>
  414504:	00000000 	nop
  414508:	14a20004 	bne	$a1,$v0,41451c <__usdetach+0x50>
  41450c:	00000000 	nop
  414510:	8ca20008 	lw	$v0,8($a1)
  414514:	10000004 	b	414528 <__usdetach+0x5c>
  414518:	af828ab8 	sw	$v0,-30024($gp)
  41451c:	8cb80008 	lw	$t8,8($a1)
  414520:	00000000 	nop
  414524:	ac780008 	sw	$t8,8($v1)
  414528:	8cb90000 	lw	$t9,0($a1)
  41452c:	00000000 	nop
  414530:	afb90030 	sw	$t9,48($sp)
  414534:	8ca4000c 	lw	$a0,12($a1)
  414538:	0c101fc7 	jal	407f1c <_free>
  41453c:	afa50034 	sw	$a1,52($sp)
  414540:	8fa40034 	lw	$a0,52($sp)
  414544:	0c101fc7 	jal	407f1c <_free>
  414548:	00000000 	nop
  41454c:	10000007 	b	41456c <__usdetach+0xa0>
  414550:	00000000 	nop
  414554:	00a01825 	move	$v1,$a1
  414558:	8ca50008 	lw	$a1,8($a1)
  41455c:	00000000 	nop
  414560:	14a0ffe5 	bnez	$a1,4144f8 <__usdetach+0x2c>
  414564:	00000000 	nop
  414568:	afa30038 	sw	$v1,56($sp)
  41456c:	0c104999 	jal	412664 <_usgettid>
  414570:	02002025 	move	$a0,$s0
  414574:	00022c00 	sll	$a1,$v0,0x10
  414578:	2401ffff 	li	$at,-1
  41457c:	1041000c 	beq	$v0,$at,4145b0 <__usdetach+0xe4>
  414580:	00054403 	sra	$t0,$a1,0x10
  414584:	8e09000c 	lw	$t1,12($s0)
  414588:	000818c0 	sll	$v1,$t0,0x3
  41458c:	01235021 	addu	$t2,$t1,$v1
  414590:	85440006 	lh	$a0,6($t2)
  414594:	0c101ae0 	jal	406b80 <_close>
  414598:	afa30024 	sw	$v1,36($sp)
  41459c:	8fa30024 	lw	$v1,36($sp)
  4145a0:	8e0c000c 	lw	$t4,12($s0)
  4145a4:	240bffff 	li	$t3,-1
  4145a8:	01836821 	addu	$t5,$t4,$v1
  4145ac:	a5ab0006 	sh	$t3,6($t5)
  4145b0:	8e050854 	lw	$a1,2132($s0)
  4145b4:	2401ffff 	li	$at,-1
  4145b8:	10a10003 	beq	$a1,$at,4145c8 <__usdetach+0xfc>
  4145bc:	26040454 	addiu	$a0,$s0,1108
  4145c0:	0c102dcb 	jal	40b72c <_ushardlock_detach>
  4145c4:	2406ffff 	li	$a2,-1
  4145c8:	8fa5002c 	lw	$a1,44($sp)
  4145cc:	0c104110 	jal	410440 <_munmap>
  4145d0:	02002025 	move	$a0,$s0
  4145d4:	2401ffff 	li	$at,-1
  4145d8:	14410008 	bne	$v0,$at,4145fc <__usdetach+0x130>
  4145dc:	8fa40030 	lw	$a0,48($sp)
  4145e0:	8f8e8ab0 	lw	$t6,-30032($gp)
  4145e4:	24040001 	li	$a0,1
  4145e8:	11c00003 	beqz	$t6,4145f8 <__usdetach+0x12c>
  4145ec:	3c050042 	lui	$a1,0x42
  4145f0:	0c1050fc 	jal	4143f0 <_uprint>
  4145f4:	24a5cd98 	addiu	$a1,$a1,-12904
  4145f8:	8fa40030 	lw	$a0,48($sp)
  4145fc:	0c101ae0 	jal	406b80 <_close>
  414600:	00000000 	nop
  414604:	8fbf001c 	lw	$ra,28($sp)
  414608:	8fb00018 	lw	$s0,24($sp)
  41460c:	03e00008 	jr	$ra
  414610:	27bd0040 	addiu	$sp,$sp,64

00414614 <__usblockallsigs>:
  414614:	27bdffd8 	addiu	$sp,$sp,-40
  414618:	afbf0014 	sw	$ra,20($sp)
  41461c:	afa40028 	sw	$a0,40($sp)
  414620:	0c10606e 	jal	4181b8 <_sigfillset>
  414624:	27a40018 	addiu	$a0,$sp,24
  414628:	27a40018 	addiu	$a0,$sp,24
  41462c:	0c1060b6 	jal	4182d8 <_sigdelset>
  414630:	24050003 	li	$a1,3
  414634:	27a40018 	addiu	$a0,$sp,24
  414638:	0c1060b6 	jal	4182d8 <_sigdelset>
  41463c:	2405000b 	li	$a1,11
  414640:	27a40018 	addiu	$a0,$sp,24
  414644:	0c1060b6 	jal	4182d8 <_sigdelset>
  414648:	2405000a 	li	$a1,10
  41464c:	8fa60028 	lw	$a2,40($sp)
  414650:	24040003 	li	$a0,3
  414654:	0c10602c 	jal	4180b0 <_sigprocmask>
  414658:	27a50018 	addiu	$a1,$sp,24
  41465c:	8fbf0014 	lw	$ra,20($sp)
  414660:	27bd0028 	addiu	$sp,$sp,40
  414664:	03e00008 	jr	$ra
  414668:	00000000 	nop

0041466c <__usunblockallsigs>:
  41466c:	27bdffe8 	addiu	$sp,$sp,-24
  414670:	afbf0014 	sw	$ra,20($sp)
  414674:	00802825 	move	$a1,$a0
  414678:	24040003 	li	$a0,3
  41467c:	0c10602c 	jal	4180b0 <_sigprocmask>
  414680:	00003025 	move	$a2,$zero
  414684:	8fbf0014 	lw	$ra,20($sp)
  414688:	27bd0018 	addiu	$sp,$sp,24
  41468c:	03e00008 	jr	$ra
  414690:	00000000 	nop
  414694:	27bddfd0 	addiu	$sp,$sp,-8240
  414698:	afb20020 	sw	$s2,32($sp)
  41469c:	afb1001c 	sw	$s1,28($sp)
  4146a0:	afb00018 	sw	$s0,24($sp)
  4146a4:	00a08025 	move	$s0,$a1
  4146a8:	00808825 	move	$s1,$a0
  4146ac:	27b20030 	addiu	$s2,$sp,48
  4146b0:	afbf0024 	sw	$ra,36($sp)
  4146b4:	02402025 	move	$a0,$s2
  4146b8:	0c1061c8 	jal	418720 <_blkclr>
  4146bc:	24052000 	li	$a1,8192
  4146c0:	02202025 	move	$a0,$s1
  4146c4:	00002825 	move	$a1,$zero
  4146c8:	0c101aec 	jal	406bb0 <_lseek>
  4146cc:	00003025 	move	$a2,$zero
  4146d0:	1a00000e 	blez	$s0,41470c <__usunblockallsigs+0xa0>
  4146d4:	2a012001 	slti	$at,$s0,8193
  4146d8:	14200003 	bnez	$at,4146e8 <__usunblockallsigs+0x7c>
  4146dc:	02202025 	move	$a0,$s1
  4146e0:	10000002 	b	4146ec <__usunblockallsigs+0x80>
  4146e4:	24062000 	li	$a2,8192
  4146e8:	02003025 	move	$a2,$s0
  4146ec:	0c101af8 	jal	406be0 <_write>
  4146f0:	02402825 	move	$a1,$s2
  4146f4:	04410003 	bgez	$v0,414704 <__usunblockallsigs+0x98>
  4146f8:	02028023 	subu	$s0,$s0,$v0
  4146fc:	10000004 	b	414710 <__usunblockallsigs+0xa4>
  414700:	2402ffff 	li	$v0,-1
  414704:	1e00fff4 	bgtz	$s0,4146d8 <__usunblockallsigs+0x6c>
  414708:	2a012001 	slti	$at,$s0,8193
  41470c:	00001025 	move	$v0,$zero
  414710:	8fbf0024 	lw	$ra,36($sp)
  414714:	8fb00018 	lw	$s0,24($sp)
  414718:	8fb1001c 	lw	$s1,28($sp)
  41471c:	8fb20020 	lw	$s2,32($sp)
  414720:	03e00008 	jr	$ra
  414724:	27bd2030 	addiu	$sp,$sp,8240
	...

00414730 <_usconfig>:
  414730:	27bdffd0 	addiu	$sp,$sp,-48
  414734:	248fffff 	addiu	$t7,$a0,-1
  414738:	afa60038 	sw	$a2,56($sp)
  41473c:	2de10015 	sltiu	$at,$t7,21
  414740:	afbf0024 	sw	$ra,36($sp)
  414744:	afb20020 	sw	$s2,32($sp)
  414748:	afb1001c 	sw	$s1,28($sp)
  41474c:	afb00018 	sw	$s0,24($sp)
  414750:	afa40030 	sw	$a0,48($sp)
  414754:	afa50034 	sw	$a1,52($sp)
  414758:	afa7003c 	sw	$a3,60($sp)
  41475c:	10200115 	beqz	$at,414bb4 <_usconfig+0x484>
  414760:	00003025 	move	$a2,$zero
  414764:	000f7880 	sll	$t7,$t7,0x2
  414768:	3c010042 	lui	$at,0x42
  41476c:	002f0821 	addu	$at,$at,$t7
  414770:	8c2fcdc0 	lw	$t7,-12864($at)
  414774:	00000000 	nop
  414778:	01e00008 	jr	$t7
  41477c:	00000000 	nop
  414780:	2407fffc 	li	$a3,-4
  414784:	27b80037 	addiu	$t8,$sp,55
  414788:	03071024 	and	$v0,$t8,$a3
  41478c:	8c430000 	lw	$v1,0($v0)
  414790:	8f868af8 	lw	$a2,-29960($gp)
  414794:	2c610003 	sltiu	$at,$v1,3
  414798:	14200005 	bnez	$at,4147b0 <_usconfig+0x80>
  41479c:	24420004 	addiu	$v0,$v0,4
  4147a0:	0c102025 	jal	408094 <_setoserror>
  4147a4:	24040016 	li	$a0,22
  4147a8:	10000106 	b	414bc4 <_usconfig+0x494>
  4147ac:	2402ffff 	li	$v0,-1
  4147b0:	10000103 	b	414bc0 <_usconfig+0x490>
  4147b4:	af838af8 	sw	$v1,-29960($gp)
  4147b8:	2407fffc 	li	$a3,-4
  4147bc:	27b90037 	addiu	$t9,$sp,55
  4147c0:	03271024 	and	$v0,$t9,$a3
  4147c4:	8c430000 	lw	$v1,0($v0)
  4147c8:	24420004 	addiu	$v0,$v0,4
  4147cc:	10600003 	beqz	$v1,4147dc <_usconfig+0xac>
  4147d0:	2c612711 	sltiu	$at,$v1,10001
  4147d4:	14200005 	bnez	$at,4147ec <_usconfig+0xbc>
  4147d8:	00000000 	nop
  4147dc:	0c102025 	jal	408094 <_setoserror>
  4147e0:	24040016 	li	$a0,22
  4147e4:	100000f7 	b	414bc4 <_usconfig+0x494>
  4147e8:	2402ffff 	li	$v0,-1
  4147ec:	8f868af4 	lw	$a2,-29964($gp)
  4147f0:	100000f3 	b	414bc0 <_usconfig+0x490>
  4147f4:	af838af4 	sw	$v1,-29964($gp)
  4147f8:	2407fffc 	li	$a3,-4
  4147fc:	27a80037 	addiu	$t0,$sp,55
  414800:	01071024 	and	$v0,$t0,$a3
  414804:	8c430000 	lw	$v1,0($v0)
  414808:	8f868af0 	lw	$a2,-29968($gp)
  41480c:	2c611000 	sltiu	$at,$v1,4096
  414810:	10200005 	beqz	$at,414828 <_usconfig+0xf8>
  414814:	24420004 	addiu	$v0,$v0,4
  414818:	0c102025 	jal	408094 <_setoserror>
  41481c:	24040016 	li	$a0,22
  414820:	100000e8 	b	414bc4 <_usconfig+0x494>
  414824:	2402ffff 	li	$v0,-1
  414828:	24690a78 	addiu	$t1,$v1,2680
  41482c:	24c6f588 	addiu	$a2,$a2,-2680
  414830:	100000e3 	b	414bc0 <_usconfig+0x490>
  414834:	af898af0 	sw	$t1,-29968($gp)
  414838:	2407fffc 	li	$a3,-4
  41483c:	27aa0037 	addiu	$t2,$sp,55
  414840:	01471024 	and	$v0,$t2,$a3
  414844:	8c520000 	lw	$s2,0($v0)
  414848:	24420004 	addiu	$v0,$v0,4
  41484c:	8e460424 	lw	$a2,1060($s2)
  414850:	100000dc 	b	414bc4 <_usconfig+0x494>
  414854:	00c01025 	move	$v0,$a2
  414858:	2407fffc 	li	$a3,-4
  41485c:	27ab0037 	addiu	$t3,$sp,55
  414860:	01671024 	and	$v0,$t3,$a3
  414864:	8c520000 	lw	$s2,0($v0)
  414868:	24420004 	addiu	$v0,$v0,4
  41486c:	8e46041c 	lw	$a2,1052($s2)
  414870:	100000d3 	b	414bc0 <_usconfig+0x490>
  414874:	24c6f588 	addiu	$a2,$a2,-2680
  414878:	2407fffc 	li	$a3,-4
  41487c:	27ac0037 	addiu	$t4,$sp,55
  414880:	01871024 	and	$v0,$t4,$a3
  414884:	8c520000 	lw	$s2,0($v0)
  414888:	24420004 	addiu	$v0,$v0,4
  41488c:	8e4d0428 	lw	$t5,1064($s2)
  414890:	00000000 	nop
  414894:	35ae0004 	ori	$t6,$t5,0x4
  414898:	100000c9 	b	414bc0 <_usconfig+0x490>
  41489c:	ae4e0428 	sw	$t6,1064($s2)
  4148a0:	2407fffc 	li	$a3,-4
  4148a4:	27af0037 	addiu	$t7,$sp,55
  4148a8:	01e71024 	and	$v0,$t7,$a3
  4148ac:	8c520000 	lw	$s2,0($v0)
  4148b0:	2401fffb 	li	$at,-5
  4148b4:	8e580428 	lw	$t8,1064($s2)
  4148b8:	24420004 	addiu	$v0,$v0,4
  4148bc:	0301c824 	and	$t9,$t8,$at
  4148c0:	100000bf 	b	414bc0 <_usconfig+0x490>
  4148c4:	ae590428 	sw	$t9,1064($s2)
  4148c8:	2407fffc 	li	$a3,-4
  4148cc:	27a80037 	addiu	$t0,$sp,55
  4148d0:	01071024 	and	$v0,$t0,$a3
  4148d4:	8c520000 	lw	$s2,0($v0)
  4148d8:	24490007 	addiu	$t1,$v0,7
  4148dc:	01271024 	and	$v0,$t1,$a3
  4148e0:	8c430000 	lw	$v1,0($v0)
  4148e4:	8e46043c 	lw	$a2,1084($s2)
  4148e8:	24420004 	addiu	$v0,$v0,4
  4148ec:	100000b4 	b	414bc0 <_usconfig+0x490>
  4148f0:	ae43043c 	sw	$v1,1084($s2)
  4148f4:	2407fffc 	li	$a3,-4
  4148f8:	27aa0037 	addiu	$t2,$sp,55
  4148fc:	01471024 	and	$v0,$t2,$a3
  414900:	8c520000 	lw	$s2,0($v0)
  414904:	24420004 	addiu	$v0,$v0,4
  414908:	8e4b0428 	lw	$t3,1064($s2)
  41490c:	244d0003 	addiu	$t5,$v0,3
  414910:	316c0004 	andi	$t4,$t3,0x4
  414914:	1180000b 	beqz	$t4,414944 <_usconfig+0x214>
  414918:	01a71024 	and	$v0,$t5,$a3
  41491c:	8c430000 	lw	$v1,0($v0)
  414920:	8e4e0430 	lw	$t6,1072($s2)
  414924:	24420004 	addiu	$v0,$v0,4
  414928:	ac6e0000 	sw	$t6,0($v1)
  41492c:	8e4f0434 	lw	$t7,1076($s2)
  414930:	00000000 	nop
  414934:	ac6f0004 	sw	$t7,4($v1)
  414938:	8e580438 	lw	$t8,1080($s2)
  41493c:	100000a0 	b	414bc0 <_usconfig+0x490>
  414940:	ac780008 	sw	$t8,8($v1)
  414944:	0c102025 	jal	408094 <_setoserror>
  414948:	24040016 	li	$a0,22
  41494c:	1000009c 	b	414bc0 <_usconfig+0x490>
  414950:	2406ffff 	li	$a2,-1
  414954:	2407fffc 	li	$a3,-4
  414958:	27b90037 	addiu	$t9,$sp,55
  41495c:	03271024 	and	$v0,$t9,$a3
  414960:	8c520000 	lw	$s2,0($v0)
  414964:	24420004 	addiu	$v0,$v0,4
  414968:	8e50042c 	lw	$s0,1068($s2)
  41496c:	00000000 	nop
  414970:	12000009 	beqz	$s0,414998 <_usconfig+0x268>
  414974:	00000000 	nop
  414978:	8e110018 	lw	$s1,24($s0)
  41497c:	afa60028 	sw	$a2,40($sp)
  414980:	02002025 	move	$a0,$s0
  414984:	0c103119 	jal	40c464 <_usfree>
  414988:	02402825 	move	$a1,$s2
  41498c:	8fa60028 	lw	$a2,40($sp)
  414990:	1620fff9 	bnez	$s1,414978 <_usconfig+0x248>
  414994:	02208025 	move	$s0,$s1
  414998:	ae40042c 	sw	$zero,1068($s2)
  41499c:	ae400430 	sw	$zero,1072($s2)
  4149a0:	ae400434 	sw	$zero,1076($s2)
  4149a4:	10000086 	b	414bc0 <_usconfig+0x490>
  4149a8:	ae400438 	sw	$zero,1080($s2)
  4149ac:	8f89aee0 	lw	$t1,-20768($gp)
  4149b0:	8f8688b0 	lw	$a2,-30544($gp)
  4149b4:	24080001 	li	$t0,1
  4149b8:	11200081 	beqz	$t1,414bc0 <_usconfig+0x490>
  4149bc:	af8888b0 	sw	$t0,-30544($gp)
  4149c0:	240a0001 	li	$t2,1
  4149c4:	1000007e 	b	414bc0 <_usconfig+0x490>
  4149c8:	af8a88b4 	sw	$t2,-30540($gp)
  4149cc:	8f8baee0 	lw	$t3,-20768($gp)
  4149d0:	8f8688b0 	lw	$a2,-30544($gp)
  4149d4:	1160007a 	beqz	$t3,414bc0 <_usconfig+0x490>
  4149d8:	af8088b0 	sw	$zero,-30544($gp)
  4149dc:	10000078 	b	414bc0 <_usconfig+0x490>
  4149e0:	af8088b4 	sw	$zero,-30540($gp)
  4149e4:	8f8daee0 	lw	$t5,-20768($gp)
  4149e8:	8f8688b8 	lw	$a2,-30536($gp)
  4149ec:	240c0001 	li	$t4,1
  4149f0:	11a00073 	beqz	$t5,414bc0 <_usconfig+0x490>
  4149f4:	af8c88b8 	sw	$t4,-30536($gp)
  4149f8:	240e0001 	li	$t6,1
  4149fc:	10000070 	b	414bc0 <_usconfig+0x490>
  414a00:	af8e88bc 	sw	$t6,-30532($gp)
  414a04:	8f8faee0 	lw	$t7,-20768($gp)
  414a08:	8f8688b8 	lw	$a2,-30536($gp)
  414a0c:	11e0006c 	beqz	$t7,414bc0 <_usconfig+0x490>
  414a10:	af8088b8 	sw	$zero,-30536($gp)
  414a14:	1000006a 	b	414bc0 <_usconfig+0x490>
  414a18:	af8088bc 	sw	$zero,-30532($gp)
  414a1c:	8f99aee0 	lw	$t9,-20768($gp)
  414a20:	8f8688c0 	lw	$a2,-30528($gp)
  414a24:	24180001 	li	$t8,1
  414a28:	13200065 	beqz	$t9,414bc0 <_usconfig+0x490>
  414a2c:	af9888c0 	sw	$t8,-30528($gp)
  414a30:	24080001 	li	$t0,1
  414a34:	10000062 	b	414bc0 <_usconfig+0x490>
  414a38:	af8888c4 	sw	$t0,-30524($gp)
  414a3c:	8f89aee0 	lw	$t1,-20768($gp)
  414a40:	8f8688c0 	lw	$a2,-30528($gp)
  414a44:	1120005e 	beqz	$t1,414bc0 <_usconfig+0x490>
  414a48:	af8088c0 	sw	$zero,-30528($gp)
  414a4c:	1000005c 	b	414bc0 <_usconfig+0x490>
  414a50:	af8088c4 	sw	$zero,-30524($gp)
  414a54:	2407fffc 	li	$a3,-4
  414a58:	27aa0037 	addiu	$t2,$sp,55
  414a5c:	01471024 	and	$v0,$t2,$a3
  414a60:	8c430000 	lw	$v1,0($v0)
  414a64:	24010001 	li	$at,1
  414a68:	10610007 	beq	$v1,$at,414a88 <_usconfig+0x358>
  414a6c:	24420004 	addiu	$v0,$v0,4
  414a70:	10600005 	beqz	$v1,414a88 <_usconfig+0x358>
  414a74:	00000000 	nop
  414a78:	0c102025 	jal	408094 <_setoserror>
  414a7c:	24040016 	li	$a0,22
  414a80:	10000050 	b	414bc4 <_usconfig+0x494>
  414a84:	2402ffff 	li	$v0,-1
  414a88:	8f868afc 	lw	$a2,-29956($gp)
  414a8c:	1000004c 	b	414bc0 <_usconfig+0x490>
  414a90:	af838afc 	sw	$v1,-29956($gp)
  414a94:	2407fffc 	li	$a3,-4
  414a98:	27ab0037 	addiu	$t3,$sp,55
  414a9c:	01671024 	and	$v0,$t3,$a3
  414aa0:	8c520000 	lw	$s2,0($v0)
  414aa4:	244c0007 	addiu	$t4,$v0,7
  414aa8:	01871024 	and	$v0,$t4,$a3
  414aac:	8c500000 	lw	$s0,0($v0)
  414ab0:	24420004 	addiu	$v0,$v0,4
  414ab4:	afa60028 	sw	$a2,40($sp)
  414ab8:	2644001c 	addiu	$a0,$s2,28
  414abc:	0c106218 	jal	418860 <_chmod>
  414ac0:	02002825 	move	$a1,$s0
  414ac4:	8fa60028 	lw	$a2,40($sp)
  414ac8:	10400003 	beqz	$v0,414ad8 <_usconfig+0x3a8>
  414acc:	00000000 	nop
  414ad0:	1000003c 	b	414bc4 <_usconfig+0x494>
  414ad4:	2402ffff 	li	$v0,-1
  414ad8:	8e4d0854 	lw	$t5,2132($s2)
  414adc:	2401ffff 	li	$at,-1
  414ae0:	11a10009 	beq	$t5,$at,414b08 <_usconfig+0x3d8>
  414ae4:	26440454 	addiu	$a0,$s2,1108
  414ae8:	02002825 	move	$a1,$s0
  414aec:	0c106218 	jal	418860 <_chmod>
  414af0:	afa60028 	sw	$a2,40($sp)
  414af4:	8fa60028 	lw	$a2,40($sp)
  414af8:	10400004 	beqz	$v0,414b0c <_usconfig+0x3dc>
  414afc:	02402025 	move	$a0,$s2
  414b00:	10000030 	b	414bc4 <_usconfig+0x494>
  414b04:	2402ffff 	li	$v0,-1
  414b08:	02402025 	move	$a0,$s2
  414b0c:	0c104f70 	jal	413dc0 <_usretsfd>
  414b10:	afa60028 	sw	$a2,40($sp)
  414b14:	8fa60028 	lw	$a2,40($sp)
  414b18:	2401ffff 	li	$at,-1
  414b1c:	14410005 	bne	$v0,$at,414b34 <_usconfig+0x404>
  414b20:	00402025 	move	$a0,$v0
  414b24:	0c102025 	jal	408094 <_setoserror>
  414b28:	24040016 	li	$a0,22
  414b2c:	10000025 	b	414bc4 <_usconfig+0x494>
  414b30:	2402ffff 	li	$v0,-1
  414b34:	02002825 	move	$a1,$s0
  414b38:	0c1040e0 	jal	410380 <_fchmod>
  414b3c:	afa60028 	sw	$a2,40($sp)
  414b40:	8fa60028 	lw	$a2,40($sp)
  414b44:	1040001f 	beqz	$v0,414bc4 <_usconfig+0x494>
  414b48:	00c01025 	move	$v0,$a2
  414b4c:	1000001d 	b	414bc4 <_usconfig+0x494>
  414b50:	2402ffff 	li	$v0,-1
  414b54:	2407fffc 	li	$a3,-4
  414b58:	27ae0037 	addiu	$t6,$sp,55
  414b5c:	01c71024 	and	$v0,$t6,$a3
  414b60:	8c4f0000 	lw	$t7,0($v0)
  414b64:	8f868b00 	lw	$a2,-29952($gp)
  414b68:	24420004 	addiu	$v0,$v0,4
  414b6c:	10000014 	b	414bc0 <_usconfig+0x490>
  414b70:	af8f8b00 	sw	$t7,-29952($gp)
  414b74:	2407fffc 	li	$a3,-4
  414b78:	27b80037 	addiu	$t8,$sp,55
  414b7c:	03071024 	and	$v0,$t8,$a3
  414b80:	8c590000 	lw	$t9,0($v0)
  414b84:	8f868b04 	lw	$a2,-29948($gp)
  414b88:	24420004 	addiu	$v0,$v0,4
  414b8c:	1000000c 	b	414bc0 <_usconfig+0x490>
  414b90:	af998b04 	sw	$t9,-29948($gp)
  414b94:	2407fffc 	li	$a3,-4
  414b98:	27a80037 	addiu	$t0,$sp,55
  414b9c:	01071024 	and	$v0,$t0,$a3
  414ba0:	8c490000 	lw	$t1,0($v0)
  414ba4:	8f868b08 	lw	$a2,-29944($gp)
  414ba8:	24420004 	addiu	$v0,$v0,4
  414bac:	10000004 	b	414bc0 <_usconfig+0x490>
  414bb0:	af898b08 	sw	$t1,-29944($gp)
  414bb4:	0c102025 	jal	408094 <_setoserror>
  414bb8:	24040016 	li	$a0,22
  414bbc:	2406ffff 	li	$a2,-1
  414bc0:	00c01025 	move	$v0,$a2
  414bc4:	8fbf0024 	lw	$ra,36($sp)
  414bc8:	8fb00018 	lw	$s0,24($sp)
  414bcc:	8fb1001c 	lw	$s1,28($sp)
  414bd0:	8fb20020 	lw	$s2,32($sp)
  414bd4:	03e00008 	jr	$ra
  414bd8:	27bd0030 	addiu	$sp,$sp,48

00414bdc <_usputinfo>:
  414bdc:	03e00008 	jr	$ra
  414be0:	ac850a60 	sw	$a1,2656($a0)

00414be4 <_usgetinfo>:
  414be4:	8c820a60 	lw	$v0,2656($a0)
  414be8:	03e00008 	jr	$ra
  414bec:	00000000 	nop

00414bf0 <_uscasinfo>:
  414bf0:	8f99af0c 	lw	$t9,-20724($gp)
  414bf4:	27bdffe8 	addiu	$sp,$sp,-24
  414bf8:	afbf0014 	sw	$ra,20($sp)
  414bfc:	00803825 	move	$a3,$a0
  414c00:	0320f809 	jalr	$t9
  414c04:	24840a60 	addiu	$a0,$a0,2656
  414c08:	8fbf0014 	lw	$ra,20($sp)
  414c0c:	27bd0018 	addiu	$sp,$sp,24
  414c10:	03e00008 	jr	$ra
	...

00414c20 <_amalloc>:
  414c20:	27bdffe0 	addiu	$sp,$sp,-32
  414c24:	afbf0014 	sw	$ra,20($sp)
  414c28:	8ca6009c 	lw	$a2,156($a1)
  414c2c:	00803825 	move	$a3,$a0
  414c30:	10c0000a 	beqz	$a2,414c5c <_amalloc+0x3c>
  414c34:	00001825 	move	$v1,$zero
  414c38:	8f99aee4 	lw	$t9,-20764($gp)
  414c3c:	00c02025 	move	$a0,$a2
  414c40:	afa50024 	sw	$a1,36($sp)
  414c44:	0320f809 	jalr	$t9
  414c48:	afa70020 	sw	$a3,32($sp)
  414c4c:	8fa50024 	lw	$a1,36($sp)
  414c50:	8fa70020 	lw	$a3,32($sp)
  414c54:	10000001 	b	414c5c <_amalloc+0x3c>
  414c58:	00401825 	move	$v1,$v0
  414c5c:	10600011 	beqz	$v1,414ca4 <_amalloc+0x84>
  414c60:	00e02025 	move	$a0,$a3
  414c64:	0c105411 	jal	415044 <_arecalloc+0x9c>
  414c68:	afa50024 	sw	$a1,36($sp)
  414c6c:	8fa50024 	lw	$a1,36($sp)
  414c70:	00401825 	move	$v1,$v0
  414c74:	8ca6009c 	lw	$a2,156($a1)
  414c78:	00000000 	nop
  414c7c:	10c00007 	beqz	$a2,414c9c <_amalloc+0x7c>
  414c80:	00000000 	nop
  414c84:	8f99aee8 	lw	$t9,-20760($gp)
  414c88:	00c02025 	move	$a0,$a2
  414c8c:	0320f809 	jalr	$t9
  414c90:	afa20018 	sw	$v0,24($sp)
  414c94:	8fa30018 	lw	$v1,24($sp)
  414c98:	00000000 	nop
  414c9c:	10000003 	b	414cac <_amalloc+0x8c>
  414ca0:	00601025 	move	$v0,$v1
  414ca4:	0c105411 	jal	415044 <_arecalloc+0x9c>
  414ca8:	00e02025 	move	$a0,$a3
  414cac:	8fbf0014 	lw	$ra,20($sp)
  414cb0:	27bd0020 	addiu	$sp,$sp,32
  414cb4:	03e00008 	jr	$ra
  414cb8:	00000000 	nop

00414cbc <_afree>:
  414cbc:	27bdffe8 	addiu	$sp,$sp,-24
  414cc0:	afbf0014 	sw	$ra,20($sp)
  414cc4:	afa40018 	sw	$a0,24($sp)
  414cc8:	8ca6009c 	lw	$a2,156($a1)
  414ccc:	00000000 	nop
  414cd0:	10c00008 	beqz	$a2,414cf4 <_afree+0x38>
  414cd4:	8fa40018 	lw	$a0,24($sp)
  414cd8:	8f99aee4 	lw	$t9,-20764($gp)
  414cdc:	00c02025 	move	$a0,$a2
  414ce0:	0320f809 	jalr	$t9
  414ce4:	afa5001c 	sw	$a1,28($sp)
  414ce8:	8fa5001c 	lw	$a1,28($sp)
  414cec:	00000000 	nop
  414cf0:	8fa40018 	lw	$a0,24($sp)
  414cf4:	0c10561c 	jal	415870 <_arecalloc+0x8c8>
  414cf8:	afa5001c 	sw	$a1,28($sp)
  414cfc:	8fa5001c 	lw	$a1,28($sp)
  414d00:	8f99aee8 	lw	$t9,-20760($gp)
  414d04:	8ca6009c 	lw	$a2,156($a1)
  414d08:	00000000 	nop
  414d0c:	10c00004 	beqz	$a2,414d20 <_afree+0x64>
  414d10:	8fbf0014 	lw	$ra,20($sp)
  414d14:	0320f809 	jalr	$t9
  414d18:	00c02025 	move	$a0,$a2
  414d1c:	8fbf0014 	lw	$ra,20($sp)
  414d20:	27bd0018 	addiu	$sp,$sp,24
  414d24:	03e00008 	jr	$ra
  414d28:	00000000 	nop
  414d2c:	27bdffe0 	addiu	$sp,$sp,-32
  414d30:	afbf0014 	sw	$ra,20($sp)
  414d34:	8ca200a0 	lw	$v0,160($a1)
  414d38:	00a03825 	move	$a3,$a1
  414d3c:	10400005 	beqz	$v0,414d54 <_afree+0x98>
  414d40:	00000000 	nop
  414d44:	0040f809 	jalr	$v0
  414d48:	00000000 	nop
  414d4c:	10000020 	b	414dd0 <_afree+0x114>
  414d50:	8fbf0014 	lw	$ra,20($sp)
  414d54:	8ce200a8 	lw	$v0,168($a3)
  414d58:	8cf800a4 	lw	$t8,164($a3)
  414d5c:	00477023 	subu	$t6,$v0,$a3
  414d60:	01c47821 	addu	$t7,$t6,$a0
  414d64:	01f8082b 	sltu	$at,$t7,$t8
  414d68:	14200003 	bnez	$at,414d78 <_afree+0xbc>
  414d6c:	00000000 	nop
  414d70:	10000016 	b	414dcc <_afree+0x110>
  414d74:	2402ffff 	li	$v0,-1
  414d78:	8cf90000 	lw	$t9,0($a3)
  414d7c:	00444021 	addu	$t0,$v0,$a0
  414d80:	33290004 	andi	$t1,$t9,0x4
  414d84:	1520000f 	bnez	$t1,414dc4 <_afree+0x108>
  414d88:	00002025 	move	$a0,$zero
  414d8c:	2506fff0 	addiu	$a2,$t0,-16
  414d90:	2401fff8 	li	$at,-8
  414d94:	00c15024 	and	$t2,$a2,$at
  414d98:	01403025 	move	$a2,$t2
  414d9c:	00002825 	move	$a1,$zero
  414da0:	afa70024 	sw	$a3,36($sp)
  414da4:	0c10602c 	jal	4180b0 <_sigprocmask>
  414da8:	afa80018 	sw	$t0,24($sp)
  414dac:	8fa70024 	lw	$a3,36($sp)
  414db0:	8fa80018 	lw	$t0,24($sp)
  414db4:	04410003 	bgez	$v0,414dc4 <_afree+0x108>
  414db8:	00000000 	nop
  414dbc:	10000003 	b	414dcc <_afree+0x110>
  414dc0:	2402ffff 	li	$v0,-1
  414dc4:	8ce200a8 	lw	$v0,168($a3)
  414dc8:	ace800a8 	sw	$t0,168($a3)
  414dcc:	8fbf0014 	lw	$ra,20($sp)
  414dd0:	27bd0020 	addiu	$sp,$sp,32
  414dd4:	03e00008 	jr	$ra
  414dd8:	00000000 	nop

00414ddc <_acreate>:
  414ddc:	27bdffd0 	addiu	$sp,$sp,-48
  414de0:	afb00018 	sw	$s0,24($sp)
  414de4:	00a08025 	move	$s0,$a1
  414de8:	afbf001c 	sw	$ra,28($sp)
  414dec:	afa40030 	sw	$a0,48($sp)
  414df0:	14e00008 	bnez	$a3,414e14 <_acreate+0x38>
  414df4:	afa60038 	sw	$a2,56($sp)
  414df8:	30cf0001 	andi	$t7,$a2,0x1
  414dfc:	11e00006 	beqz	$t7,414e18 <_acreate+0x3c>
  414e00:	2e010400 	sltiu	$at,$s0,1024
  414e04:	0c102025 	jal	408094 <_setoserror>
  414e08:	24040016 	li	$a0,22
  414e0c:	10000055 	b	414f64 <_acreate+0x188>
  414e10:	00001025 	move	$v0,$zero
  414e14:	2e010400 	sltiu	$at,$s0,1024
  414e18:	10200005 	beqz	$at,414e30 <_acreate+0x54>
  414e1c:	240500d8 	li	$a1,216
  414e20:	0c102025 	jal	408094 <_setoserror>
  414e24:	24040016 	li	$a0,22
  414e28:	1000004e 	b	414f64 <_acreate+0x188>
  414e2c:	00001025 	move	$v0,$zero
  414e30:	8fb80030 	lw	$t8,48($sp)
  414e34:	2401fff8 	li	$at,-8
  414e38:	27060007 	addiu	$a2,$t8,7
  414e3c:	00c12024 	and	$a0,$a2,$at
  414e40:	00984023 	subu	$t0,$a0,$t8
  414e44:	02088023 	subu	$s0,$s0,$t0
  414e48:	afa40024 	sw	$a0,36($sp)
  414e4c:	0c1061c8 	jal	418720 <_blkclr>
  414e50:	afa7003c 	sw	$a3,60($sp)
  414e54:	8fa60024 	lw	$a2,36($sp)
  414e58:	8fa90038 	lw	$t1,56($sp)
  414e5c:	8fa7003c 	lw	$a3,60($sp)
  414e60:	24030010 	li	$v1,16
  414e64:	24040064 	li	$a0,100
  414e68:	24050001 	li	$a1,1
  414e6c:	240a001c 	li	$t2,28
  414e70:	240b2000 	li	$t3,8192
  414e74:	240c0001 	li	$t4,1
  414e78:	24c2002c 	addiu	$v0,$a2,44
  414e7c:	24cd003c 	addiu	$t5,$a2,60
  414e80:	acd000a4 	sw	$s0,164($a2)
  414e84:	acc00094 	sw	$zero,148($a2)
  414e88:	acc30028 	sw	$v1,40($a2)
  414e8c:	acc30008 	sw	$v1,8($a2)
  414e90:	acc40004 	sw	$a0,4($a2)
  414e94:	acc00010 	sw	$zero,16($a2)
  414e98:	acca0014 	sw	$t2,20($a2)
  414e9c:	accb001c 	sw	$t3,28($a2)
  414ea0:	acc40020 	sw	$a0,32($a2)
  414ea4:	acc0000c 	sw	$zero,12($a2)
  414ea8:	accc0024 	sw	$t4,36($a2)
  414eac:	acc5003c 	sw	$a1,60($a2)
  414eb0:	acc20040 	sw	$v0,64($a2)
  414eb4:	acc5002c 	sw	$a1,44($a2)
  414eb8:	accd008c 	sw	$t5,140($a2)
  414ebc:	acc90000 	sw	$t1,0($a2)
  414ec0:	8fa30040 	lw	$v1,64($sp)
  414ec4:	2401fff0 	li	$at,-16
  414ec8:	24c800e7 	addiu	$t0,$a2,231
  414ecc:	01014824 	and	$t1,$t0,$at
  414ed0:	24ce005c 	addiu	$t6,$a2,92
  414ed4:	24cf004c 	addiu	$t7,$a2,76
  414ed8:	24d9007c 	addiu	$t9,$a2,124
  414edc:	24d8006c 	addiu	$t8,$a2,108
  414ee0:	acce0054 	sw	$t6,84($a2)
  414ee4:	acc2005c 	sw	$v0,92($a2)
  414ee8:	accf0068 	sw	$t7,104($a2)
  414eec:	acd90074 	sw	$t9,116($a2)
  414ef0:	acd80088 	sw	$t8,136($a2)
  414ef4:	14600007 	bnez	$v1,414f14 <_acreate+0x138>
  414ef8:	acc900a8 	sw	$t1,168($a2)
  414efc:	3c010001 	lui	$at,0x1
  414f00:	0201082b 	sltu	$at,$s0,$at
  414f04:	10200003 	beqz	$at,414f14 <_acreate+0x138>
  414f08:	240a0200 	li	$t2,512
  414f0c:	acca001c 	sw	$t2,28($a2)
  414f10:	acc00014 	sw	$zero,20($a2)
  414f14:	8ccb0014 	lw	$t3,20($a2)
  414f18:	8ccc0008 	lw	$t4,8($a2)
  414f1c:	8ccf0000 	lw	$t7,0($a2)
  414f20:	016c6821 	addu	$t5,$t3,$t4
  414f24:	25ae0001 	addiu	$t6,$t5,1
  414f28:	31f90001 	andi	$t9,$t7,0x1
  414f2c:	acc300a0 	sw	$v1,160($a2)
  414f30:	acce0018 	sw	$t6,24($a2)
  414f34:	1320000a 	beqz	$t9,414f60 <_acreate+0x184>
  414f38:	acc70098 	sw	$a3,152($a2)
  414f3c:	8f99aeec 	lw	$t9,-20756($gp)
  414f40:	00e02025 	move	$a0,$a3
  414f44:	0320f809 	jalr	$t9
  414f48:	afa60024 	sw	$a2,36($sp)
  414f4c:	8fa60024 	lw	$a2,36($sp)
  414f50:	14400003 	bnez	$v0,414f60 <_acreate+0x184>
  414f54:	acc2009c 	sw	$v0,156($a2)
  414f58:	10000002 	b	414f64 <_acreate+0x188>
  414f5c:	00001025 	move	$v0,$zero
  414f60:	00c01025 	move	$v0,$a2
  414f64:	8fbf001c 	lw	$ra,28($sp)
  414f68:	8fb00018 	lw	$s0,24($sp)
  414f6c:	03e00008 	jr	$ra
  414f70:	27bd0030 	addiu	$sp,$sp,48

00414f74 <_adelete>:
  414f74:	27bdffe8 	addiu	$sp,$sp,-24
  414f78:	afbf0014 	sw	$ra,20($sp)
  414f7c:	8c87009c 	lw	$a3,156($a0)
  414f80:	8f99aef4 	lw	$t9,-20748($gp)
  414f84:	10e00004 	beqz	$a3,414f98 <_adelete+0x24>
  414f88:	00803025 	move	$a2,$a0
  414f8c:	8cc50098 	lw	$a1,152($a2)
  414f90:	0320f809 	jalr	$t9
  414f94:	00e02025 	move	$a0,$a3
  414f98:	8fbf0014 	lw	$ra,20($sp)
  414f9c:	27bd0018 	addiu	$sp,$sp,24
  414fa0:	03e00008 	jr	$ra
  414fa4:	00000000 	nop

00414fa8 <_arecalloc>:
  414fa8:	00a60019 	multu	$a1,$a2
  414fac:	27bdffd8 	addiu	$sp,$sp,-40
  414fb0:	afb00014 	sw	$s0,20($sp)
  414fb4:	afbf001c 	sw	$ra,28($sp)
  414fb8:	afb10018 	sw	$s1,24($sp)
  414fbc:	00808825 	move	$s1,$a0
  414fc0:	afa70034 	sw	$a3,52($sp)
  414fc4:	00e02825 	move	$a1,$a3
  414fc8:	00008012 	mflo	$s0
  414fcc:	0c10592d 	jal	4164b4 <_amallocblksize>
  414fd0:	00000000 	nop
  414fd4:	8fa60034 	lw	$a2,52($sp)
  414fd8:	02202025 	move	$a0,$s1
  414fdc:	02002825 	move	$a1,$s0
  414fe0:	0c1056a3 	jal	415a8c <_arealloc>
  414fe4:	afa20020 	sw	$v0,32($sp)
  414fe8:	8fa50034 	lw	$a1,52($sp)
  414fec:	00408825 	move	$s1,$v0
  414ff0:	0c10592d 	jal	4164b4 <_amallocblksize>
  414ff4:	00402025 	move	$a0,$v0
  414ff8:	8fa30020 	lw	$v1,32($sp)
  414ffc:	1220000b 	beqz	$s1,41502c <_arecalloc+0x84>
  415000:	00403025 	move	$a2,$v0
  415004:	0062082b 	sltu	$at,$v1,$v0
  415008:	10200006 	beqz	$at,415024 <_arecalloc+0x7c>
  41500c:	02302021 	addu	$a0,$s1,$s0
  415010:	02232021 	addu	$a0,$s1,$v1
  415014:	0c1061c8 	jal	418720 <_blkclr>
  415018:	00432823 	subu	$a1,$v0,$v1
  41501c:	10000004 	b	415030 <_arecalloc+0x88>
  415020:	8fbf001c 	lw	$ra,28($sp)
  415024:	0c1061c8 	jal	418720 <_blkclr>
  415028:	00d02823 	subu	$a1,$a2,$s0
  41502c:	8fbf001c 	lw	$ra,28($sp)
  415030:	02201025 	move	$v0,$s1
  415034:	8fb10018 	lw	$s1,24($sp)
  415038:	8fb00014 	lw	$s0,20($sp)
  41503c:	03e00008 	jr	$ra
  415040:	27bd0028 	addiu	$sp,$sp,40
  415044:	27bdff88 	addiu	$sp,$sp,-120
  415048:	afb00018 	sw	$s0,24($sp)
  41504c:	00a08025 	move	$s0,$a1
  415050:	afbf001c 	sw	$ra,28($sp)
  415054:	00803825 	move	$a3,$a0
  415058:	14e00003 	bnez	$a3,415068 <_arecalloc+0xc0>
  41505c:	00000000 	nop
  415060:	100001ff 	b	415860 <_arecalloc+0x8b8>
  415064:	00001025 	move	$v0,$zero
  415068:	8e030014 	lw	$v1,20($s0)
  41506c:	00000000 	nop
  415070:	0067082b 	sltu	$at,$v1,$a3
  415074:	142000ad 	bnez	$at,41532c <_arecalloc+0x384>
  415078:	00603025 	move	$a2,$v1
  41507c:	8e02000c 	lw	$v0,12($s0)
  415080:	8e0800ac 	lw	$t0,172($s0)
  415084:	8e0900b0 	lw	$t1,176($s0)
  415088:	1440002b 	bnez	$v0,415138 <_arecalloc+0x190>
  41508c:	00000000 	nop
  415090:	8e020028 	lw	$v0,40($s0)
  415094:	ae03000c 	sw	$v1,12($s0)
  415098:	00c27021 	addu	$t6,$a2,$v0
  41509c:	25cf0003 	addiu	$t7,$t6,3
  4150a0:	01e2001b 	divu	$zero,$t7,$v0
  4150a4:	ae000014 	sw	$zero,20($s0)
  4150a8:	14400002 	bnez	$v0,4150b4 <_arecalloc+0x10c>
  4150ac:	00000000 	nop
  4150b0:	0007000d 	break	0x7
  4150b4:	02002825 	move	$a1,$s0
  4150b8:	0000c012 	mflo	$t8
  4150bc:	ae180010 	sw	$t8,16($s0)
  4150c0:	0018c880 	sll	$t9,$t8,0x2
  4150c4:	27240004 	addiu	$a0,$t9,4
  4150c8:	afa9005c 	sw	$t1,92($sp)
  4150cc:	afa80060 	sw	$t0,96($sp)
  4150d0:	0c105411 	jal	415044 <_arecalloc+0x9c>
  4150d4:	afa70078 	sw	$a3,120($sp)
  4150d8:	8fa70078 	lw	$a3,120($sp)
  4150dc:	8fa80060 	lw	$t0,96($sp)
  4150e0:	8fa9005c 	lw	$t1,92($sp)
  4150e4:	14400003 	bnez	$v0,4150f4 <_arecalloc+0x14c>
  4150e8:	ae020090 	sw	$v0,144($s0)
  4150ec:	1000ffda 	b	415058 <_arecalloc+0xb0>
  4150f0:	ae00000c 	sw	$zero,12($s0)
  4150f4:	8e0d0010 	lw	$t5,16($s0)
  4150f8:	8e0c000c 	lw	$t4,12($s0)
  4150fc:	25ae0001 	addiu	$t6,$t5,1
  415100:	29c10002 	slti	$at,$t6,2
  415104:	24020001 	li	$v0,1
  415108:	1420000b 	bnez	$at,415138 <_arecalloc+0x190>
  41510c:	ae0c0014 	sw	$t4,20($s0)
  415110:	24030004 	li	$v1,4
  415114:	8e0f0090 	lw	$t7,144($s0)
  415118:	24420001 	addiu	$v0,$v0,1
  41511c:	01e3c021 	addu	$t8,$t7,$v1
  415120:	af000000 	sw	$zero,0($t8)
  415124:	8e190010 	lw	$t9,16($s0)
  415128:	24630004 	addiu	$v1,$v1,4
  41512c:	0322082a 	slt	$at,$t9,$v0
  415130:	1020fff8 	beqz	$at,415114 <_arecalloc+0x16c>
  415134:	00000000 	nop
  415138:	11000009 	beqz	$t0,415160 <_arecalloc+0x1b8>
  41513c:	00e86021 	addu	$t4,$a3,$t0
  415140:	258d0004 	addiu	$t5,$t4,4
  415144:	8e0e0090 	lw	$t6,144($s0)
  415148:	012d3007 	srav	$a2,$t5,$t1
  41514c:	00067880 	sll	$t7,$a2,0x2
  415150:	01cfc021 	addu	$t8,$t6,$t7
  415154:	8f030000 	lw	$v1,0($t8)
  415158:	10000012 	b	4151a4 <_arecalloc+0x1fc>
  41515c:	01265004 	sllv	$t2,$a2,$t1
  415160:	8e040028 	lw	$a0,40($s0)
  415164:	8e0d0090 	lw	$t5,144($s0)
  415168:	00e4c821 	addu	$t9,$a3,$a0
  41516c:	272c0003 	addiu	$t4,$t9,3
  415170:	0184001b 	divu	$zero,$t4,$a0
  415174:	00801025 	move	$v0,$a0
  415178:	14400002 	bnez	$v0,415184 <_arecalloc+0x1dc>
  41517c:	00000000 	nop
  415180:	0007000d 	break	0x7
  415184:	00003012 	mflo	$a2
  415188:	00067080 	sll	$t6,$a2,0x2
  41518c:	01ae7821 	addu	$t7,$t5,$t6
  415190:	00860019 	multu	$a0,$a2
  415194:	8de30000 	lw	$v1,0($t7)
  415198:	00005012 	mflo	$t2
	...
  4151a4:	1060002a 	beqz	$v1,415250 <_arecalloc+0x2a8>
  4151a8:	00000000 	nop
  4151ac:	8c640008 	lw	$a0,8($v1)
  4151b0:	00000000 	nop
  4151b4:	10800026 	beqz	$a0,415250 <_arecalloc+0x2a8>
  4151b8:	00000000 	nop
  4151bc:	8c62000c 	lw	$v0,12($v1)
  4151c0:	00802825 	move	$a1,$a0
  4151c4:	0082082b 	sltu	$at,$a0,$v0
  4151c8:	1020000c 	beqz	$at,4151fc <_arecalloc+0x254>
  4151cc:	00000000 	nop
  4151d0:	8c820000 	lw	$v0,0($a0)
  4151d4:	2401fffd 	li	$at,-3
  4151d8:	0041c024 	and	$t8,$v0,$at
  4151dc:	17000019 	bnez	$t8,415244 <_arecalloc+0x29c>
  4151e0:	ac780008 	sw	$t8,8($v1)
  4151e4:	8e0c0090 	lw	$t4,144($s0)
  4151e8:	8c790000 	lw	$t9,0($v1)
  4151ec:	00066880 	sll	$t5,$a2,0x2
  4151f0:	018d7021 	addu	$t6,$t4,$t5
  4151f4:	10000013 	b	415244 <_arecalloc+0x29c>
  4151f8:	add90000 	sw	$t9,0($t6)
  4151fc:	8c6f0014 	lw	$t7,20($v1)
  415200:	004a2021 	addu	$a0,$v0,$t2
  415204:	248c0004 	addiu	$t4,$a0,4
  415208:	006fc021 	addu	$t8,$v1,$t7
  41520c:	0198082b 	sltu	$at,$t4,$t8
  415210:	10200004 	beqz	$at,415224 <_arecalloc+0x27c>
  415214:	000a68c0 	sll	$t5,$t2,0x3
  415218:	ac64000c 	sw	$a0,12($v1)
  41521c:	10000009 	b	415244 <_arecalloc+0x29c>
  415220:	ac640008 	sw	$a0,8($v1)
  415224:	004dc821 	addu	$t9,$v0,$t5
  415228:	ac600008 	sw	$zero,8($v1)
  41522c:	ac79000c 	sw	$t9,12($v1)
  415230:	8e0f0090 	lw	$t7,144($s0)
  415234:	8c6e0000 	lw	$t6,0($v1)
  415238:	0006c080 	sll	$t8,$a2,0x2
  41523c:	01f86021 	addu	$t4,$t7,$t8
  415240:	ad8e0000 	sw	$t6,0($t4)
  415244:	346d0003 	ori	$t5,$v1,0x3
  415248:	1000002e 	b	415304 <_arecalloc+0x35c>
  41524c:	acad0000 	sw	$t5,0($a1)
  415250:	8e190004 	lw	$t9,4($s0)
  415254:	afaa0074 	sw	$t2,116($sp)
  415258:	032a0019 	multu	$t9,$t2
  41525c:	afa60068 	sw	$a2,104($sp)
  415260:	afa30070 	sw	$v1,112($sp)
  415264:	02002825 	move	$a1,$s0
  415268:	00002012 	mflo	$a0
  41526c:	24840020 	addiu	$a0,$a0,32
  415270:	0c105411 	jal	415044 <_arecalloc+0x9c>
  415274:	00000000 	nop
  415278:	8faa0074 	lw	$t2,116($sp)
  41527c:	8fa30070 	lw	$v1,112($sp)
  415280:	8fa60068 	lw	$a2,104($sp)
  415284:	14400003 	bnez	$v0,415294 <_arecalloc+0x2ec>
  415288:	254dfffc 	addiu	$t5,$t2,-4
  41528c:	10000174 	b	415860 <_arecalloc+0x8b8>
  415290:	00001025 	move	$v0,$zero
  415294:	10600009 	beqz	$v1,4152bc <_arecalloc+0x314>
  415298:	00062080 	sll	$a0,$a2,0x2
  41529c:	ac430000 	sw	$v1,0($v0)
  4152a0:	8c6f0004 	lw	$t7,4($v1)
  4152a4:	00000000 	nop
  4152a8:	ac4f0004 	sw	$t7,4($v0)
  4152ac:	ac620004 	sw	$v0,4($v1)
  4152b0:	8c580004 	lw	$t8,4($v0)
  4152b4:	10000003 	b	4152c4 <_arecalloc+0x31c>
  4152b8:	af020000 	sw	$v0,0($t8)
  4152bc:	ac420004 	sw	$v0,4($v0)
  4152c0:	ac420000 	sw	$v0,0($v0)
  4152c4:	8e0e0090 	lw	$t6,144($s0)
  4152c8:	004a1821 	addu	$v1,$v0,$t2
  4152cc:	01c46021 	addu	$t4,$t6,$a0
  4152d0:	ad820000 	sw	$v0,0($t4)
  4152d4:	2463001c 	addiu	$v1,$v1,28
  4152d8:	ac43000c 	sw	$v1,12($v0)
  4152dc:	ac430008 	sw	$v1,8($v0)
  4152e0:	ac4d0010 	sw	$t5,16($v0)
  4152e4:	8e190004 	lw	$t9,4($s0)
  4152e8:	344e0003 	ori	$t6,$v0,0x3
  4152ec:	032a0019 	multu	$t9,$t2
  4152f0:	2445001c 	addiu	$a1,$v0,28
  4152f4:	ac4e001c 	sw	$t6,28($v0)
  4152f8:	00007812 	mflo	$t7
  4152fc:	25f80020 	addiu	$t8,$t7,32
  415300:	ac580014 	sw	$t8,20($v0)
  415304:	8e0c0094 	lw	$t4,148($s0)
  415308:	02002025 	move	$a0,$s0
  41530c:	11800005 	beqz	$t4,415324 <_arecalloc+0x37c>
  415310:	00000000 	nop
  415314:	0c1058e0 	jal	416380 <__acheckq>
  415318:	afa5006c 	sw	$a1,108($sp)
  41531c:	8fa5006c 	lw	$a1,108($sp)
  415320:	00000000 	nop
  415324:	1000014e 	b	415860 <_arecalloc+0x8b8>
  415328:	24a20004 	addiu	$v0,$a1,4
  41532c:	8e0d0008 	lw	$t5,8($s0)
  415330:	2401fff0 	li	$at,-16
  415334:	01a75021 	addu	$t2,$t5,$a3
  415338:	254a000f 	addiu	$t2,$t2,15
  41533c:	0141c824 	and	$t9,$t2,$at
  415340:	8e040020 	lw	$a0,32($s0)
  415344:	2f210011 	sltiu	$at,$t9,17
  415348:	00001825 	move	$v1,$zero
  41534c:	10200002 	beqz	$at,415358 <_arecalloc+0x3b0>
  415350:	03205025 	move	$t2,$t9
  415354:	240a0010 	li	$t2,16
  415358:	3c018000 	lui	$at,0x8000
  41535c:	34210001 	ori	$at,$at,0x1
  415360:	00e1082b 	sltu	$at,$a3,$at
  415364:	14200003 	bnez	$at,415374 <_arecalloc+0x3cc>
  415368:	260f004c 	addiu	$t7,$s0,76
  41536c:	1000013c 	b	415860 <_arecalloc+0x8b8>
  415370:	00001025 	move	$v0,$zero
  415374:	afaf0028 	sw	$t7,40($sp)
  415378:	01e03025 	move	$a2,$t7
  41537c:	8cc60008 	lw	$a2,8($a2)
  415380:	0064102a 	slt	$v0,$v1,$a0
  415384:	14400027 	bnez	$v0,415424 <_arecalloc+0x47c>
  415388:	24630001 	addiu	$v1,$v1,1
  41538c:	24c2ffa4 	addiu	$v0,$a2,-92
  415390:	1202002b 	beq	$s0,$v0,415440 <_arecalloc+0x498>
  415394:	00000000 	nop
  415398:	8e180054 	lw	$t8,84($s0)
  41539c:	8e0e0068 	lw	$t6,104($s0)
  4153a0:	2603005c 	addiu	$v1,$s0,92
  4153a4:	add80008 	sw	$t8,8($t6)
  4153a8:	8e0d0054 	lw	$t5,84($s0)
  4153ac:	8e0c0068 	lw	$t4,104($s0)
  4153b0:	00000000 	nop
  4153b4:	adac000c 	sw	$t4,12($t5)
  4153b8:	8cd9000c 	lw	$t9,12($a2)
  4153bc:	00000000 	nop
  4153c0:	af230008 	sw	$v1,8($t9)
  4153c4:	8ccf000c 	lw	$t7,12($a2)
  4153c8:	00000000 	nop
  4153cc:	ae0f0068 	sw	$t7,104($s0)
  4153d0:	8fb80028 	lw	$t8,40($sp)
  4153d4:	00000000 	nop
  4153d8:	acd8000c 	sw	$t8,12($a2)
  4153dc:	8e0e008c 	lw	$t6,140($s0)
  4153e0:	ae060054 	sw	$a2,84($s0)
  4153e4:	8dc60004 	lw	$a2,4($t6)
  4153e8:	00000000 	nop
  4153ec:	8cc20000 	lw	$v0,0($a2)
  4153f0:	00000000 	nop
  4153f4:	304c0001 	andi	$t4,$v0,0x1
  4153f8:	15800007 	bnez	$t4,415418 <_arecalloc+0x470>
  4153fc:	00000000 	nop
  415400:	00466823 	subu	$t5,$v0,$a2
  415404:	01aa082b 	sltu	$at,$t5,$t2
  415408:	14200003 	bnez	$at,415418 <_arecalloc+0x470>
  41540c:	00000000 	nop
  415410:	1000000b 	b	415440 <_arecalloc+0x498>
  415414:	24c2ffa4 	addiu	$v0,$a2,-92
  415418:	00603025 	move	$a2,$v1
  41541c:	10000008 	b	415440 <_arecalloc+0x498>
  415420:	2462ffa4 	addiu	$v0,$v1,-92
  415424:	8cd90000 	lw	$t9,0($a2)
  415428:	00000000 	nop
  41542c:	03267823 	subu	$t7,$t9,$a2
  415430:	01ea082b 	sltu	$at,$t7,$t2
  415434:	1420ffd1 	bnez	$at,41537c <_arecalloc+0x3d4>
  415438:	00000000 	nop
  41543c:	24c2ffa4 	addiu	$v0,$a2,-92
  415440:	160200a6 	bne	$s0,$v0,4156dc <_arecalloc+0x734>
  415444:	00000000 	nop
  415448:	8e08008c 	lw	$t0,140($s0)
  41544c:	00000000 	nop
  415450:	8d070004 	lw	$a3,4($t0)
  415454:	00000000 	nop
  415458:	8cf80000 	lw	$t8,0($a3)
  41545c:	00000000 	nop
  415460:	330e0001 	andi	$t6,$t8,0x1
  415464:	15c00048 	bnez	$t6,415588 <_arecalloc+0x5e0>
  415468:	00000000 	nop
  41546c:	8e02001c 	lw	$v0,28($s0)
  415470:	01076023 	subu	$t4,$t0,$a3
  415474:	014c2023 	subu	$a0,$t2,$t4
  415478:	00442021 	addu	$a0,$v0,$a0
  41547c:	2484ffff 	addiu	$a0,$a0,-1
  415480:	0082001b 	divu	$zero,$a0,$v0
  415484:	afaa0074 	sw	$t2,116($sp)
  415488:	14400002 	bnez	$v0,415494 <_arecalloc+0x4ec>
  41548c:	00000000 	nop
  415490:	0007000d 	break	0x7
  415494:	afa70034 	sw	$a3,52($sp)
  415498:	02002825 	move	$a1,$s0
  41549c:	00002012 	mflo	$a0
	...
  4154a8:	00820019 	multu	$a0,$v0
  4154ac:	00002012 	mflo	$a0
  4154b0:	afa4003c 	sw	$a0,60($sp)
  4154b4:	0c10534b 	jal	414d2c <_afree+0x70>
  4154b8:	00000000 	nop
  4154bc:	8fa4003c 	lw	$a0,60($sp)
  4154c0:	8fa70034 	lw	$a3,52($sp)
  4154c4:	8faa0074 	lw	$t2,116($sp)
  4154c8:	2401ffff 	li	$at,-1
  4154cc:	14410003 	bne	$v0,$at,4154dc <_arecalloc+0x534>
  4154d0:	00402825 	move	$a1,$v0
  4154d4:	100000e2 	b	415860 <_arecalloc+0x8b8>
  4154d8:	00001025 	move	$v0,$zero
  4154dc:	8e08008c 	lw	$t0,140($s0)
  4154e0:	3046000f 	andi	$a2,$v0,0xf
  4154e4:	250d0010 	addiu	$t5,$t0,16
  4154e8:	144d0005 	bne	$v0,$t5,415500 <_arecalloc+0x558>
  4154ec:	00441821 	addu	$v1,$v0,$a0
  4154f0:	260b003c 	addiu	$t3,$s0,60
  4154f4:	35790001 	ori	$t9,$t3,0x1
  4154f8:	10000067 	b	415698 <_arecalloc+0x6f0>
  4154fc:	03205825 	move	$t3,$t9
  415500:	10c00003 	beqz	$a2,415510 <_arecalloc+0x568>
  415504:	2463fff0 	addiu	$v1,$v1,-16
  415508:	00462823 	subu	$a1,$v0,$a2
  41550c:	24a50010 	addiu	$a1,$a1,16
  415510:	260f003c 	addiu	$t7,$s0,60
  415514:	35f80001 	ori	$t8,$t7,0x1
  415518:	ac780000 	sw	$t8,0($v1)
  41551c:	aca30000 	sw	$v1,0($a1)
  415520:	8e0c008c 	lw	$t4,140($s0)
  415524:	34ae0001 	ori	$t6,$a1,0x1
  415528:	ad8e0000 	sw	$t6,0($t4)
  41552c:	ac650004 	sw	$a1,4($v1)
  415530:	8e0d008c 	lw	$t5,140($s0)
  415534:	ae030040 	sw	$v1,64($s0)
  415538:	acad0004 	sw	$t5,4($a1)
  41553c:	8e190024 	lw	$t9,36($s0)
  415540:	ae03008c 	sw	$v1,140($s0)
  415544:	13200008 	beqz	$t9,415568 <_arecalloc+0x5c0>
  415548:	8fa40028 	lw	$a0,40($sp)
  41554c:	8fa40028 	lw	$a0,40($sp)
  415550:	0c10576e 	jal	415db8 <_arealloc+0x32c>
  415554:	afaa0074 	sw	$t2,116($sp)
  415558:	8faa0074 	lw	$t2,116($sp)
  41555c:	10000007 	b	41557c <_arecalloc+0x5d4>
  415560:	8e0f008c 	lw	$t7,140($s0)
  415564:	8fa40028 	lw	$a0,40($sp)
  415568:	0c105765 	jal	415d94 <_arealloc+0x308>
  41556c:	afaa0074 	sw	$t2,116($sp)
  415570:	8faa0074 	lw	$t2,116($sp)
  415574:	00000000 	nop
  415578:	8e0f008c 	lw	$t7,140($s0)
  41557c:	00000000 	nop
  415580:	8de70004 	lw	$a3,4($t7)
  415584:	00000000 	nop
  415588:	8e02001c 	lw	$v0,28($s0)
  41558c:	afaa0074 	sw	$t2,116($sp)
  415590:	004a2021 	addu	$a0,$v0,$t2
  415594:	2484001e 	addiu	$a0,$a0,30
  415598:	0082001b 	divu	$zero,$a0,$v0
  41559c:	afa70034 	sw	$a3,52($sp)
  4155a0:	14400002 	bnez	$v0,4155ac <_arecalloc+0x604>
  4155a4:	00000000 	nop
  4155a8:	0007000d 	break	0x7
  4155ac:	02002825 	move	$a1,$s0
  4155b0:	00002012 	mflo	$a0
	...
  4155bc:	00820019 	multu	$a0,$v0
  4155c0:	00002012 	mflo	$a0
  4155c4:	afa4003c 	sw	$a0,60($sp)
  4155c8:	0c10534b 	jal	414d2c <_afree+0x70>
  4155cc:	00000000 	nop
  4155d0:	8fa4003c 	lw	$a0,60($sp)
  4155d4:	8fa70034 	lw	$a3,52($sp)
  4155d8:	8faa0074 	lw	$t2,116($sp)
  4155dc:	2401ffff 	li	$at,-1
  4155e0:	14410003 	bne	$v0,$at,4155f0 <_arecalloc+0x648>
  4155e4:	00402825 	move	$a1,$v0
  4155e8:	1000009d 	b	415860 <_arecalloc+0x8b8>
  4155ec:	00001025 	move	$v0,$zero
  4155f0:	8e08008c 	lw	$t0,140($s0)
  4155f4:	260b003c 	addiu	$t3,$s0,60
  4155f8:	35780001 	ori	$t8,$t3,0x1
  4155fc:	250e0010 	addiu	$t6,$t0,16
  415600:	3046000f 	andi	$a2,$v0,0xf
  415604:	104e0013 	beq	$v0,$t6,415654 <_arecalloc+0x6ac>
  415608:	03005825 	move	$t3,$t8
  41560c:	00441821 	addu	$v1,$v0,$a0
  415610:	10c00003 	beqz	$a2,415620 <_arecalloc+0x678>
  415614:	2463fff0 	addiu	$v1,$v1,-16
  415618:	00462823 	subu	$a1,$v0,$a2
  41561c:	24a50010 	addiu	$a1,$a1,16
  415620:	ac6b0000 	sw	$t3,0($v1)
  415624:	aca30000 	sw	$v1,0($a1)
  415628:	8e0d008c 	lw	$t5,140($s0)
  41562c:	34ac0001 	ori	$t4,$a1,0x1
  415630:	adac0000 	sw	$t4,0($t5)
  415634:	ac650004 	sw	$a1,4($v1)
  415638:	8e19008c 	lw	$t9,140($s0)
  41563c:	ae030040 	sw	$v1,64($s0)
  415640:	acb90004 	sw	$t9,4($a1)
  415644:	ae03008c 	sw	$v1,140($s0)
  415648:	00a03025 	move	$a2,$a1
  41564c:	10000040 	b	415750 <_arecalloc+0x7a8>
  415650:	aca0000c 	sw	$zero,12($a1)
  415654:	8cef0000 	lw	$t7,0($a3)
  415658:	01041821 	addu	$v1,$t0,$a0
  41565c:	31f80001 	andi	$t8,$t7,0x1
  415660:	1300000d 	beqz	$t8,415698 <_arecalloc+0x6f0>
  415664:	00000000 	nop
  415668:	ac6b0000 	sw	$t3,0($v1)
  41566c:	8e0e008c 	lw	$t6,140($s0)
  415670:	00000000 	nop
  415674:	adc30000 	sw	$v1,0($t6)
  415678:	8e0c008c 	lw	$t4,140($s0)
  41567c:	00000000 	nop
  415680:	ac6c0004 	sw	$t4,4($v1)
  415684:	8e06008c 	lw	$a2,140($s0)
  415688:	ae030040 	sw	$v1,64($s0)
  41568c:	acc0000c 	sw	$zero,12($a2)
  415690:	1000002f 	b	415750 <_arecalloc+0x7a8>
  415694:	ae03008c 	sw	$v1,140($s0)
  415698:	01041821 	addu	$v1,$t0,$a0
  41569c:	ace30000 	sw	$v1,0($a3)
  4156a0:	ae03008c 	sw	$v1,140($s0)
  4156a4:	ac6b0000 	sw	$t3,0($v1)
  4156a8:	ac670004 	sw	$a3,4($v1)
  4156ac:	ae030040 	sw	$v1,64($s0)
  4156b0:	8cf9000c 	lw	$t9,12($a3)
  4156b4:	8ced0008 	lw	$t5,8($a3)
  4156b8:	00e03025 	move	$a2,$a3
  4156bc:	af2d0008 	sw	$t5,8($t9)
  4156c0:	8cef000c 	lw	$t7,12($a3)
  4156c4:	8cf80008 	lw	$t8,8($a3)
  4156c8:	00000000 	nop
  4156cc:	af0f000c 	sw	$t7,12($t8)
  4156d0:	ace0000c 	sw	$zero,12($a3)
  4156d4:	1000001e 	b	415750 <_arecalloc+0x7a8>
  4156d8:	ace00008 	sw	$zero,8($a3)
  4156dc:	8cc20008 	lw	$v0,8($a2)
  4156e0:	8cce000c 	lw	$t6,12($a2)
  4156e4:	2619005c 	addiu	$t9,$s0,92
  4156e8:	adc20008 	sw	$v0,8($t6)
  4156ec:	8ccc000c 	lw	$t4,12($a2)
  4156f0:	8ccd0008 	lw	$t5,8($a2)
  4156f4:	00000000 	nop
  4156f8:	adac000c 	sw	$t4,12($t5)
  4156fc:	acc0000c 	sw	$zero,12($a2)
  415700:	13220013 	beq	$t9,$v0,415750 <_arecalloc+0x7a8>
  415704:	acc00008 	sw	$zero,8($a2)
  415708:	8e0f0054 	lw	$t7,84($s0)
  41570c:	8e180068 	lw	$t8,104($s0)
  415710:	260d005c 	addiu	$t5,$s0,92
  415714:	af0f0008 	sw	$t7,8($t8)
  415718:	8e0c0054 	lw	$t4,84($s0)
  41571c:	8e0e0068 	lw	$t6,104($s0)
  415720:	00000000 	nop
  415724:	ad8e000c 	sw	$t6,12($t4)
  415728:	8c59000c 	lw	$t9,12($v0)
  41572c:	00000000 	nop
  415730:	af2d0008 	sw	$t5,8($t9)
  415734:	8c4f000c 	lw	$t7,12($v0)
  415738:	00000000 	nop
  41573c:	ae0f0068 	sw	$t7,104($s0)
  415740:	8fb80028 	lw	$t8,40($sp)
  415744:	00000000 	nop
  415748:	ac58000c 	sw	$t8,12($v0)
  41574c:	ae020054 	sw	$v0,84($s0)
  415750:	8cc20000 	lw	$v0,0($a2)
  415754:	00ca2821 	addu	$a1,$a2,$t2
  415758:	00467023 	subu	$t6,$v0,$a2
  41575c:	01ca3823 	subu	$a3,$t6,$t2
  415760:	2ce10010 	sltiu	$at,$a3,16
  415764:	14200032 	bnez	$at,415830 <_arecalloc+0x888>
  415768:	344e0001 	ori	$t6,$v0,0x1
  41576c:	aca20000 	sw	$v0,0($a1)
  415770:	34ac0001 	ori	$t4,$a1,0x1
  415774:	accc0000 	sw	$t4,0($a2)
  415778:	8e0d0018 	lw	$t5,24($s0)
  41577c:	00000000 	nop
  415780:	00ed082b 	sltu	$at,$a3,$t5
  415784:	14200014 	bnez	$at,4157d8 <_arecalloc+0x830>
  415788:	00000000 	nop
  41578c:	8e190024 	lw	$t9,36($s0)
  415790:	8fa40028 	lw	$a0,40($sp)
  415794:	13200009 	beqz	$t9,4157bc <_arecalloc+0x814>
  415798:	00000000 	nop
  41579c:	8fa40028 	lw	$a0,40($sp)
  4157a0:	afa50020 	sw	$a1,32($sp)
  4157a4:	0c10576e 	jal	415db8 <_arealloc+0x32c>
  4157a8:	afa60050 	sw	$a2,80($sp)
  4157ac:	8fa50020 	lw	$a1,32($sp)
  4157b0:	8fa60050 	lw	$a2,80($sp)
  4157b4:	1000001b 	b	415824 <_arecalloc+0x87c>
  4157b8:	8cb80000 	lw	$t8,0($a1)
  4157bc:	afa50020 	sw	$a1,32($sp)
  4157c0:	0c105765 	jal	415d94 <_arealloc+0x308>
  4157c4:	afa60050 	sw	$a2,80($sp)
  4157c8:	8fa50020 	lw	$a1,32($sp)
  4157cc:	8fa60050 	lw	$a2,80($sp)
  4157d0:	10000014 	b	415824 <_arecalloc+0x87c>
  4157d4:	8cb80000 	lw	$t8,0($a1)
  4157d8:	8e0f0024 	lw	$t7,36($s0)
  4157dc:	2604006c 	addiu	$a0,$s0,108
  4157e0:	11e00009 	beqz	$t7,415808 <_arecalloc+0x860>
  4157e4:	00000000 	nop
  4157e8:	2604006c 	addiu	$a0,$s0,108
  4157ec:	afa50020 	sw	$a1,32($sp)
  4157f0:	0c10576e 	jal	415db8 <_arealloc+0x32c>
  4157f4:	afa60050 	sw	$a2,80($sp)
  4157f8:	8fa50020 	lw	$a1,32($sp)
  4157fc:	8fa60050 	lw	$a2,80($sp)
  415800:	10000008 	b	415824 <_arecalloc+0x87c>
  415804:	8cb80000 	lw	$t8,0($a1)
  415808:	afa50020 	sw	$a1,32($sp)
  41580c:	0c105765 	jal	415d94 <_arealloc+0x308>
  415810:	afa60050 	sw	$a2,80($sp)
  415814:	8fa50020 	lw	$a1,32($sp)
  415818:	8fa60050 	lw	$a2,80($sp)
  41581c:	00000000 	nop
  415820:	8cb80000 	lw	$t8,0($a1)
  415824:	aca60004 	sw	$a2,4($a1)
  415828:	10000002 	b	415834 <_arecalloc+0x88c>
  41582c:	af050004 	sw	$a1,4($t8)
  415830:	acce0000 	sw	$t6,0($a2)
  415834:	8e0c0094 	lw	$t4,148($s0)
  415838:	02002025 	move	$a0,$s0
  41583c:	11800005 	beqz	$t4,415854 <_arecalloc+0x8ac>
  415840:	00000000 	nop
  415844:	0c1058e0 	jal	416380 <__acheckq>
  415848:	afa60050 	sw	$a2,80($sp)
  41584c:	8fa60050 	lw	$a2,80($sp)
  415850:	00000000 	nop
  415854:	8e0d0008 	lw	$t5,8($s0)
  415858:	00000000 	nop
  41585c:	00cd1021 	addu	$v0,$a2,$t5
  415860:	8fbf001c 	lw	$ra,28($sp)
  415864:	8fb00018 	lw	$s0,24($sp)
  415868:	03e00008 	jr	$ra
  41586c:	27bd0078 	addiu	$sp,$sp,120
  415870:	27bdffe0 	addiu	$sp,$sp,-32
  415874:	afb00018 	sw	$s0,24($sp)
  415878:	00a08025 	move	$s0,$a1
  41587c:	1080007f 	beqz	$a0,415a7c <_arecalloc+0xad4>
  415880:	afbf001c 	sw	$ra,28($sp)
  415884:	8cae00b4 	lw	$t6,180($a1)
  415888:	00000000 	nop
  41588c:	11c00009 	beqz	$t6,4158b4 <_arecalloc+0x90c>
  415890:	00000000 	nop
  415894:	0c105954 	jal	416550 <_amallocblksize+0x9c>
  415898:	afa40020 	sw	$a0,32($sp)
  41589c:	8fa40020 	lw	$a0,32($sp)
  4158a0:	8e0500b8 	lw	$a1,184($s0)
  4158a4:	0c1019bc 	jal	4066f0 <memset>
  4158a8:	00403025 	move	$a2,$v0
  4158ac:	8fa40020 	lw	$a0,32($sp)
  4158b0:	00000000 	nop
  4158b4:	8c8ffffc 	lw	$t7,-4($a0)
  4158b8:	2485fffc 	addiu	$a1,$a0,-4
  4158bc:	31f80002 	andi	$t8,$t7,0x2
  4158c0:	1300002d 	beqz	$t8,415978 <_arecalloc+0x9d0>
  4158c4:	2401fffe 	li	$at,-2
  4158c8:	00a1c824 	and	$t9,$a1,$at
  4158cc:	8f220000 	lw	$v0,0($t9)
  4158d0:	03202825 	move	$a1,$t9
  4158d4:	30480001 	andi	$t0,$v0,0x1
  4158d8:	11000068 	beqz	$t0,415a7c <_arecalloc+0xad4>
  4158dc:	2401fffc 	li	$at,-4
  4158e0:	00414824 	and	$t1,$v0,$at
  4158e4:	8d2a0008 	lw	$t2,8($t1)
  4158e8:	01201025 	move	$v0,$t1
  4158ec:	354b0002 	ori	$t3,$t2,0x2
  4158f0:	af2b0000 	sw	$t3,0($t9)
  4158f4:	8d2c0010 	lw	$t4,16($t1)
  4158f8:	ad390008 	sw	$t9,8($t1)
  4158fc:	8e0e0028 	lw	$t6,40($s0)
  415900:	258d0004 	addiu	$t5,$t4,4
  415904:	01ae001b 	divu	$zero,$t5,$t6
  415908:	8e0f0090 	lw	$t7,144($s0)
  41590c:	15c00002 	bnez	$t6,415918 <_arecalloc+0x970>
  415910:	00000000 	nop
  415914:	0007000d 	break	0x7
  415918:	00002012 	mflo	$a0
  41591c:	0004c080 	sll	$t8,$a0,0x2
  415920:	01f83021 	addu	$a2,$t7,$t8
  415924:	8cc30000 	lw	$v1,0($a2)
  415928:	00000000 	nop
  41592c:	1062004d 	beq	$v1,$v0,415a64 <_arecalloc+0xabc>
  415930:	00000000 	nop
  415934:	acc20000 	sw	$v0,0($a2)
  415938:	8c590004 	lw	$t9,4($v0)
  41593c:	8c480000 	lw	$t0,0($v0)
  415940:	00000000 	nop
  415944:	ad190004 	sw	$t9,4($t0)
  415948:	8c4a0004 	lw	$t2,4($v0)
  41594c:	8c490000 	lw	$t1,0($v0)
  415950:	00000000 	nop
  415954:	ad490000 	sw	$t1,0($t2)
  415958:	ac430000 	sw	$v1,0($v0)
  41595c:	8c6b0004 	lw	$t3,4($v1)
  415960:	00000000 	nop
  415964:	ac4b0004 	sw	$t3,4($v0)
  415968:	ac620004 	sw	$v0,4($v1)
  41596c:	8c4c0004 	lw	$t4,4($v0)
  415970:	1000003c 	b	415a64 <_arecalloc+0xabc>
  415974:	ad820000 	sw	$v0,0($t4)
  415978:	8e0d0008 	lw	$t5,8($s0)
  41597c:	2401fffe 	li	$at,-2
  415980:	008d2823 	subu	$a1,$a0,$t5
  415984:	8ca20000 	lw	$v0,0($a1)
  415988:	00000000 	nop
  41598c:	304e0001 	andi	$t6,$v0,0x1
  415990:	11c0003a 	beqz	$t6,415a7c <_arecalloc+0xad4>
  415994:	00417824 	and	$t7,$v0,$at
  415998:	acaf0000 	sw	$t7,0($a1)
  41599c:	8de30000 	lw	$v1,0($t7)
  4159a0:	00000000 	nop
  4159a4:	30780001 	andi	$t8,$v1,0x1
  4159a8:	1700000d 	bnez	$t8,4159e0 <_arecalloc+0xa38>
  4159ac:	00000000 	nop
  4159b0:	8df90008 	lw	$t9,8($t7)
  4159b4:	8de8000c 	lw	$t0,12($t7)
  4159b8:	00000000 	nop
  4159bc:	ad190008 	sw	$t9,8($t0)
  4159c0:	8de9000c 	lw	$t1,12($t7)
  4159c4:	8dea0008 	lw	$t2,8($t7)
  4159c8:	00000000 	nop
  4159cc:	ad49000c 	sw	$t1,12($t2)
  4159d0:	ade0000c 	sw	$zero,12($t7)
  4159d4:	ade00008 	sw	$zero,8($t7)
  4159d8:	aca30000 	sw	$v1,0($a1)
  4159dc:	ac650004 	sw	$a1,4($v1)
  4159e0:	8ca20004 	lw	$v0,4($a1)
  4159e4:	00000000 	nop
  4159e8:	8c4b0000 	lw	$t3,0($v0)
  4159ec:	00000000 	nop
  4159f0:	316c0001 	andi	$t4,$t3,0x1
  4159f4:	15800011 	bnez	$t4,415a3c <_arecalloc+0xa94>
  4159f8:	00000000 	nop
  4159fc:	8c4d0008 	lw	$t5,8($v0)
  415a00:	8c4e000c 	lw	$t6,12($v0)
  415a04:	00000000 	nop
  415a08:	adcd0008 	sw	$t5,8($t6)
  415a0c:	8c4f000c 	lw	$t7,12($v0)
  415a10:	8c580008 	lw	$t8,8($v0)
  415a14:	00000000 	nop
  415a18:	af0f000c 	sw	$t7,12($t8)
  415a1c:	ac40000c 	sw	$zero,12($v0)
  415a20:	ac400008 	sw	$zero,8($v0)
  415a24:	8cb90000 	lw	$t9,0($a1)
  415a28:	00000000 	nop
  415a2c:	ac590000 	sw	$t9,0($v0)
  415a30:	8ca80000 	lw	$t0,0($a1)
  415a34:	00402825 	move	$a1,$v0
  415a38:	ad020004 	sw	$v0,4($t0)
  415a3c:	8e090024 	lw	$t1,36($s0)
  415a40:	00000000 	nop
  415a44:	11200005 	beqz	$t1,415a5c <_arecalloc+0xab4>
  415a48:	00000000 	nop
  415a4c:	0c10576e 	jal	415db8 <_arealloc+0x32c>
  415a50:	2604004c 	addiu	$a0,$s0,76
  415a54:	10000004 	b	415a68 <_arecalloc+0xac0>
  415a58:	8e0a0094 	lw	$t2,148($s0)
  415a5c:	0c105765 	jal	415d94 <_arealloc+0x308>
  415a60:	2604004c 	addiu	$a0,$s0,76
  415a64:	8e0a0094 	lw	$t2,148($s0)
  415a68:	00000000 	nop
  415a6c:	11400004 	beqz	$t2,415a80 <_arecalloc+0xad8>
  415a70:	8fbf001c 	lw	$ra,28($sp)
  415a74:	0c1058e0 	jal	416380 <__acheckq>
  415a78:	02002025 	move	$a0,$s0
  415a7c:	8fbf001c 	lw	$ra,28($sp)
  415a80:	8fb00018 	lw	$s0,24($sp)
  415a84:	03e00008 	jr	$ra
  415a88:	27bd0020 	addiu	$sp,$sp,32

00415a8c <_arealloc>:
  415a8c:	27bdffc0 	addiu	$sp,$sp,-64
  415a90:	afb00018 	sw	$s0,24($sp)
  415a94:	00c08025 	move	$s0,$a2
  415a98:	afbf001c 	sw	$ra,28($sp)
  415a9c:	afa40040 	sw	$a0,64($sp)
  415aa0:	14800006 	bnez	$a0,415abc <_arealloc+0x30>
  415aa4:	afa50044 	sw	$a1,68($sp)
  415aa8:	00a02025 	move	$a0,$a1
  415aac:	0c105308 	jal	414c20 <_amalloc>
  415ab0:	00c02825 	move	$a1,$a2
  415ab4:	100000b4 	b	415d88 <_arealloc+0x2fc>
  415ab8:	8fbf001c 	lw	$ra,28($sp)
  415abc:	8faf0044 	lw	$t7,68($sp)
  415ac0:	8fa40040 	lw	$a0,64($sp)
  415ac4:	15e00005 	bnez	$t7,415adc <_arealloc+0x50>
  415ac8:	00000000 	nop
  415acc:	0c10532f 	jal	414cbc <_afree>
  415ad0:	02002825 	move	$a1,$s0
  415ad4:	100000ab 	b	415d84 <_arealloc+0x2f8>
  415ad8:	00001025 	move	$v0,$zero
  415adc:	8e04009c 	lw	$a0,156($s0)
  415ae0:	8f99aee4 	lw	$t9,-20764($gp)
  415ae4:	10800004 	beqz	$a0,415af8 <_arealloc+0x6c>
  415ae8:	8fb80040 	lw	$t8,64($sp)
  415aec:	0320f809 	jalr	$t9
  415af0:	00000000 	nop
  415af4:	8fb80040 	lw	$t8,64($sp)
  415af8:	2401fffe 	li	$at,-2
  415afc:	8f08fffc 	lw	$t0,-4($t8)
  415b00:	270afffc 	addiu	$t2,$t8,-4
  415b04:	31090002 	andi	$t1,$t0,0x2
  415b08:	1120001e 	beqz	$t1,415b84 <_arealloc+0xf8>
  415b0c:	01415824 	and	$t3,$t2,$at
  415b10:	8d6c0000 	lw	$t4,0($t3)
  415b14:	2401fffc 	li	$at,-4
  415b18:	8fa40044 	lw	$a0,68($sp)
  415b1c:	01816824 	and	$t5,$t4,$at
  415b20:	afad0030 	sw	$t5,48($sp)
  415b24:	0c105411 	jal	415044 <_arecalloc+0x9c>
  415b28:	02002825 	move	$a1,$s0
  415b2c:	10400087 	beqz	$v0,415d4c <_arealloc+0x2c0>
  415b30:	afa20038 	sw	$v0,56($sp)
  415b34:	8fae0040 	lw	$t6,64($sp)
  415b38:	8faf0030 	lw	$t7,48($sp)
  415b3c:	11c20083 	beq	$t6,$v0,415d4c <_arealloc+0x2c0>
  415b40:	00000000 	nop
  415b44:	8de20010 	lw	$v0,16($t7)
  415b48:	8fb90044 	lw	$t9,68($sp)
  415b4c:	8fa40038 	lw	$a0,56($sp)
  415b50:	0322082b 	sltu	$at,$t9,$v0
  415b54:	10200003 	beqz	$at,415b64 <_arealloc+0xd8>
  415b58:	00403025 	move	$a2,$v0
  415b5c:	10000001 	b	415b64 <_arealloc+0xd8>
  415b60:	03203025 	move	$a2,$t9
  415b64:	8fa50040 	lw	$a1,64($sp)
  415b68:	0c1019e0 	jal	406780 <memcpy>
  415b6c:	00000000 	nop
  415b70:	8fa40040 	lw	$a0,64($sp)
  415b74:	0c10561c 	jal	415870 <_arecalloc+0x8c8>
  415b78:	02002825 	move	$a1,$s0
  415b7c:	10000074 	b	415d50 <_arealloc+0x2c4>
  415b80:	8e180094 	lw	$t8,148($s0)
  415b84:	8e040008 	lw	$a0,8($s0)
  415b88:	8fa80044 	lw	$t0,68($sp)
  415b8c:	2401fff0 	li	$at,-16
  415b90:	00883021 	addu	$a2,$a0,$t0
  415b94:	24c6000f 	addiu	$a2,$a2,15
  415b98:	00c14824 	and	$t1,$a2,$at
  415b9c:	2d210010 	sltiu	$at,$t1,16
  415ba0:	10200002 	beqz	$at,415bac <_arealloc+0x120>
  415ba4:	01203025 	move	$a2,$t1
  415ba8:	24060010 	li	$a2,16
  415bac:	8fb80040 	lw	$t8,64($sp)
  415bb0:	2401fffe 	li	$at,-2
  415bb4:	03041823 	subu	$v1,$t8,$a0
  415bb8:	8c620000 	lw	$v0,0($v1)
  415bbc:	02002825 	move	$a1,$s0
  415bc0:	304a0001 	andi	$t2,$v0,0x1
  415bc4:	1540000c 	bnez	$t2,415bf8 <_arealloc+0x16c>
  415bc8:	0041c824 	and	$t9,$v0,$at
  415bcc:	8c6b0008 	lw	$t3,8($v1)
  415bd0:	8c6c000c 	lw	$t4,12($v1)
  415bd4:	344f0001 	ori	$t7,$v0,0x1
  415bd8:	ad8b0008 	sw	$t3,8($t4)
  415bdc:	8c6d000c 	lw	$t5,12($v1)
  415be0:	8c6e0008 	lw	$t6,8($v1)
  415be4:	00000000 	nop
  415be8:	adcd000c 	sw	$t5,12($t6)
  415bec:	ac60000c 	sw	$zero,12($v1)
  415bf0:	ac600008 	sw	$zero,8($v1)
  415bf4:	ac6f0000 	sw	$t7,0($v1)
  415bf8:	8f240000 	lw	$a0,0($t9)
  415bfc:	03201025 	move	$v0,$t9
  415c00:	30880001 	andi	$t0,$a0,0x1
  415c04:	15000012 	bnez	$t0,415c50 <_arealloc+0x1c4>
  415c08:	00833823 	subu	$a3,$a0,$v1
  415c0c:	00e6082b 	sltu	$at,$a3,$a2
  415c10:	14200010 	bnez	$at,415c54 <_arealloc+0x1c8>
  415c14:	00432023 	subu	$a0,$v0,$v1
  415c18:	8f290008 	lw	$t1,8($t9)
  415c1c:	8f38000c 	lw	$t8,12($t9)
  415c20:	00000000 	nop
  415c24:	af090008 	sw	$t1,8($t8)
  415c28:	8f2a000c 	lw	$t2,12($t9)
  415c2c:	8f2b0008 	lw	$t3,8($t9)
  415c30:	00000000 	nop
  415c34:	ad6a000c 	sw	$t2,12($t3)
  415c38:	8f220000 	lw	$v0,0($t9)
  415c3c:	af20000c 	sw	$zero,12($t9)
  415c40:	af200008 	sw	$zero,8($t9)
  415c44:	ac430004 	sw	$v1,4($v0)
  415c48:	344c0001 	ori	$t4,$v0,0x1
  415c4c:	ac6c0000 	sw	$t4,0($v1)
  415c50:	00432023 	subu	$a0,$v0,$v1
  415c54:	0086082b 	sltu	$at,$a0,$a2
  415c58:	14200028 	bnez	$at,415cfc <_arealloc+0x270>
  415c5c:	00803825 	move	$a3,$a0
  415c60:	00863823 	subu	$a3,$a0,$a2
  415c64:	2ce10010 	sltiu	$at,$a3,16
  415c68:	14200021 	bnez	$at,415cf0 <_arealloc+0x264>
  415c6c:	00662821 	addu	$a1,$v1,$a2
  415c70:	aca20000 	sw	$v0,0($a1)
  415c74:	34ad0001 	ori	$t5,$a1,0x1
  415c78:	ac6d0000 	sw	$t5,0($v1)
  415c7c:	ac450004 	sw	$a1,4($v0)
  415c80:	aca30004 	sw	$v1,4($a1)
  415c84:	8e0e0018 	lw	$t6,24($s0)
  415c88:	00000000 	nop
  415c8c:	01c7082b 	sltu	$at,$t6,$a3
  415c90:	1020000d 	beqz	$at,415cc8 <_arealloc+0x23c>
  415c94:	00000000 	nop
  415c98:	8e0f0024 	lw	$t7,36($s0)
  415c9c:	00000000 	nop
  415ca0:	11e00005 	beqz	$t7,415cb8 <_arealloc+0x22c>
  415ca4:	00000000 	nop
  415ca8:	0c10576e 	jal	415db8 <_arealloc+0x32c>
  415cac:	2604004c 	addiu	$a0,$s0,76
  415cb0:	10000010 	b	415cf4 <_arealloc+0x268>
  415cb4:	8fa80040 	lw	$t0,64($sp)
  415cb8:	0c105765 	jal	415d94 <_arealloc+0x308>
  415cbc:	2604004c 	addiu	$a0,$s0,76
  415cc0:	1000000c 	b	415cf4 <_arealloc+0x268>
  415cc4:	8fa80040 	lw	$t0,64($sp)
  415cc8:	8e190024 	lw	$t9,36($s0)
  415ccc:	00000000 	nop
  415cd0:	13200005 	beqz	$t9,415ce8 <_arealloc+0x25c>
  415cd4:	00000000 	nop
  415cd8:	0c10576e 	jal	415db8 <_arealloc+0x32c>
  415cdc:	2604006c 	addiu	$a0,$s0,108
  415ce0:	10000004 	b	415cf4 <_arealloc+0x268>
  415ce4:	8fa80040 	lw	$t0,64($sp)
  415ce8:	0c105765 	jal	415d94 <_arealloc+0x308>
  415cec:	2604006c 	addiu	$a0,$s0,108
  415cf0:	8fa80040 	lw	$t0,64($sp)
  415cf4:	10000015 	b	415d4c <_arealloc+0x2c0>
  415cf8:	afa80038 	sw	$t0,56($sp)
  415cfc:	8fa90044 	lw	$t1,68($sp)
  415d00:	00000000 	nop
  415d04:	0089082b 	sltu	$at,$a0,$t1
  415d08:	14200004 	bnez	$at,415d1c <_arealloc+0x290>
  415d0c:	8fa40044 	lw	$a0,68($sp)
  415d10:	8fa70044 	lw	$a3,68($sp)
  415d14:	00000000 	nop
  415d18:	8fa40044 	lw	$a0,68($sp)
  415d1c:	0c105411 	jal	415044 <_arecalloc+0x9c>
  415d20:	afa70024 	sw	$a3,36($sp)
  415d24:	8fa70024 	lw	$a3,36($sp)
  415d28:	10400008 	beqz	$v0,415d4c <_arealloc+0x2c0>
  415d2c:	afa20038 	sw	$v0,56($sp)
  415d30:	8fa50040 	lw	$a1,64($sp)
  415d34:	00402025 	move	$a0,$v0
  415d38:	0c1019e0 	jal	406780 <memcpy>
  415d3c:	00e03025 	move	$a2,$a3
  415d40:	8fa40040 	lw	$a0,64($sp)
  415d44:	0c10561c 	jal	415870 <_arecalloc+0x8c8>
  415d48:	02002825 	move	$a1,$s0
  415d4c:	8e180094 	lw	$t8,148($s0)
  415d50:	00000000 	nop
  415d54:	13000003 	beqz	$t8,415d64 <_arealloc+0x2d8>
  415d58:	00000000 	nop
  415d5c:	0c1058e0 	jal	416380 <__acheckq>
  415d60:	02002025 	move	$a0,$s0
  415d64:	8e04009c 	lw	$a0,156($s0)
  415d68:	8f99aee8 	lw	$t9,-20760($gp)
  415d6c:	10800004 	beqz	$a0,415d80 <_arealloc+0x2f4>
  415d70:	8fa20038 	lw	$v0,56($sp)
  415d74:	0320f809 	jalr	$t9
  415d78:	00000000 	nop
  415d7c:	8fa20038 	lw	$v0,56($sp)
  415d80:	00000000 	nop
  415d84:	8fbf001c 	lw	$ra,28($sp)
  415d88:	8fb00018 	lw	$s0,24($sp)
  415d8c:	03e00008 	jr	$ra
  415d90:	27bd0040 	addiu	$sp,$sp,64
  415d94:	aca4000c 	sw	$a0,12($a1)
  415d98:	8c8e0008 	lw	$t6,8($a0)
  415d9c:	00000000 	nop
  415da0:	acae0008 	sw	$t6,8($a1)
  415da4:	8c8f0008 	lw	$t7,8($a0)
  415da8:	00000000 	nop
  415dac:	ade5000c 	sw	$a1,12($t7)
  415db0:	03e00008 	jr	$ra
  415db4:	ac850008 	sw	$a1,8($a0)
  415db8:	248e0010 	addiu	$t6,$a0,16
  415dbc:	acae0008 	sw	$t6,8($a1)
  415dc0:	8c8f001c 	lw	$t7,28($a0)
  415dc4:	00000000 	nop
  415dc8:	acaf000c 	sw	$t7,12($a1)
  415dcc:	ade50008 	sw	$a1,8($t7)
  415dd0:	03e00008 	jr	$ra
  415dd4:	ac85001c 	sw	$a1,28($a0)

00415dd8 <_acalloc>:
  415dd8:	00850019 	multu	$a0,$a1
  415ddc:	27bdffe0 	addiu	$sp,$sp,-32
  415de0:	afbf0014 	sw	$ra,20($sp)
  415de4:	afa50024 	sw	$a1,36($sp)
  415de8:	00c02825 	move	$a1,$a2
  415dec:	00002012 	mflo	$a0
  415df0:	afa40020 	sw	$a0,32($sp)
  415df4:	0c105308 	jal	414c20 <_amalloc>
  415df8:	00000000 	nop
  415dfc:	8fa70020 	lw	$a3,32($sp)
  415e00:	14400003 	bnez	$v0,415e10 <_acalloc+0x38>
  415e04:	00402025 	move	$a0,$v0
  415e08:	10000006 	b	415e24 <_acalloc+0x4c>
  415e0c:	00001025 	move	$v0,$zero
  415e10:	00e02825 	move	$a1,$a3
  415e14:	0c1061c8 	jal	418720 <_blkclr>
  415e18:	afa4001c 	sw	$a0,28($sp)
  415e1c:	8fa2001c 	lw	$v0,28($sp)
  415e20:	00000000 	nop
  415e24:	8fbf0014 	lw	$ra,20($sp)
  415e28:	27bd0020 	addiu	$sp,$sp,32
  415e2c:	03e00008 	jr	$ra
  415e30:	00000000 	nop
  415e34:	10800005 	beqz	$a0,415e4c <_acalloc+0x74>
  415e38:	00001825 	move	$v1,$zero
  415e3c:	00047043 	sra	$t6,$a0,0x1
  415e40:	01c02025 	move	$a0,$t6
  415e44:	15c0fffd 	bnez	$t6,415e3c <_acalloc+0x64>
  415e48:	24630001 	addiu	$v1,$v1,1
  415e4c:	03e00008 	jr	$ra
  415e50:	2462ffff 	addiu	$v0,$v1,-1

00415e54 <_amallopt>:
  415e54:	27bdffe8 	addiu	$sp,$sp,-24
  415e58:	24010005 	li	$at,5
  415e5c:	10810013 	beq	$a0,$at,415eac <_amallopt+0x58>
  415e60:	afbf0014 	sw	$ra,20($sp)
  415e64:	24010006 	li	$at,6
  415e68:	1081001d 	beq	$a0,$at,415ee0 <_amallopt+0x8c>
  415e6c:	00001025 	move	$v0,$zero
  415e70:	24010007 	li	$at,7
  415e74:	10810017 	beq	$a0,$at,415ed4 <_amallopt+0x80>
  415e78:	2cb80001 	sltiu	$t8,$a1,1
  415e7c:	24010008 	li	$at,8
  415e80:	1081001d 	beq	$a0,$at,415ef8 <_amallopt+0xa4>
  415e84:	24010064 	li	$at,100
  415e88:	10810006 	beq	$a0,$at,415ea4 <_amallopt+0x50>
  415e8c:	00001025 	move	$v0,$zero
  415e90:	24010068 	li	$at,104
  415e94:	10810014 	beq	$a0,$at,415ee8 <_amallopt+0x94>
  415e98:	24190001 	li	$t9,1
  415e9c:	10000024 	b	415f30 <_amallopt+0xdc>
  415ea0:	24010001 	li	$at,1
  415ea4:	10000068 	b	416048 <_amallopt+0x1f4>
  415ea8:	acc50094 	sw	$a1,148($a2)
  415eac:	28a10200 	slti	$at,$a1,512
  415eb0:	10200003 	beqz	$at,415ec0 <_amallopt+0x6c>
  415eb4:	24ae000f 	addiu	$t6,$a1,15
  415eb8:	10000063 	b	416048 <_amallopt+0x1f4>
  415ebc:	24020001 	li	$v0,1
  415ec0:	2401fff0 	li	$at,-16
  415ec4:	01c17824 	and	$t7,$t6,$at
  415ec8:	accf001c 	sw	$t7,28($a2)
  415ecc:	1000005e 	b	416048 <_amallopt+0x1f4>
  415ed0:	00001025 	move	$v0,$zero
  415ed4:	acd80024 	sw	$t8,36($a2)
  415ed8:	1000005b 	b	416048 <_amallopt+0x1f4>
  415edc:	00001025 	move	$v0,$zero
  415ee0:	10000059 	b	416048 <_amallopt+0x1f4>
  415ee4:	acc50020 	sw	$a1,32($a2)
  415ee8:	acd900b4 	sw	$t9,180($a2)
  415eec:	acc500b8 	sw	$a1,184($a2)
  415ef0:	10000055 	b	416048 <_amallopt+0x1f4>
  415ef4:	00001025 	move	$v0,$zero
  415ef8:	8f99aeec 	lw	$t9,-20756($gp)
  415efc:	8cc40098 	lw	$a0,152($a2)
  415f00:	0320f809 	jalr	$t9
  415f04:	afa60020 	sw	$a2,32($sp)
  415f08:	8fa60020 	lw	$a2,32($sp)
  415f0c:	14400003 	bnez	$v0,415f1c <_amallopt+0xc8>
  415f10:	acc2009c 	sw	$v0,156($a2)
  415f14:	1000004c 	b	416048 <_amallopt+0x1f4>
  415f18:	24020001 	li	$v0,1
  415f1c:	8cc80000 	lw	$t0,0($a2)
  415f20:	00001025 	move	$v0,$zero
  415f24:	35090001 	ori	$t1,$t0,0x1
  415f28:	10000047 	b	416048 <_amallopt+0x1f4>
  415f2c:	acc90000 	sw	$t1,0($a2)
  415f30:	8cca000c 	lw	$t2,12($a2)
  415f34:	00000000 	nop
  415f38:	11400003 	beqz	$t2,415f48 <_amallopt+0xf4>
  415f3c:	00000000 	nop
  415f40:	10000041 	b	416048 <_amallopt+0x1f4>
  415f44:	24020001 	li	$v0,1
  415f48:	10810009 	beq	$a0,$at,415f70 <_amallopt+0x11c>
  415f4c:	24010002 	li	$at,2
  415f50:	10810011 	beq	$a0,$at,415f98 <_amallopt+0x144>
  415f54:	24010003 	li	$at,3
  415f58:	10810016 	beq	$a0,$at,415fb4 <_amallopt+0x160>
  415f5c:	24010004 	li	$at,4
  415f60:	10810027 	beq	$a0,$at,416000 <_amallopt+0x1ac>
  415f64:	00000000 	nop
  415f68:	10000037 	b	416048 <_amallopt+0x1f4>
  415f6c:	24020001 	li	$v0,1
  415f70:	04a10003 	bgez	$a1,415f80 <_amallopt+0x12c>
  415f74:	00000000 	nop
  415f78:	10000033 	b	416048 <_amallopt+0x1f4>
  415f7c:	24020001 	li	$v0,1
  415f80:	8ccb0008 	lw	$t3,8($a2)
  415f84:	acc50014 	sw	$a1,20($a2)
  415f88:	00ab6021 	addu	$t4,$a1,$t3
  415f8c:	258d0001 	addiu	$t5,$t4,1
  415f90:	1000002c 	b	416044 <_amallopt+0x1f0>
  415f94:	accd0018 	sw	$t5,24($a2)
  415f98:	28a10002 	slti	$at,$a1,2
  415f9c:	10200003 	beqz	$at,415fac <_amallopt+0x158>
  415fa0:	00000000 	nop
  415fa4:	10000028 	b	416048 <_amallopt+0x1f4>
  415fa8:	24020001 	li	$v0,1
  415fac:	10000025 	b	416044 <_amallopt+0x1f0>
  415fb0:	acc50004 	sw	$a1,4($a2)
  415fb4:	1ca00003 	bgtz	$a1,415fc4 <_amallopt+0x170>
  415fb8:	24a2000f 	addiu	$v0,$a1,15
  415fbc:	10000022 	b	416048 <_amallopt+0x1f4>
  415fc0:	24020001 	li	$v0,1
  415fc4:	2401fff0 	li	$at,-16
  415fc8:	00417024 	and	$t6,$v0,$at
  415fcc:	25cfffff 	addiu	$t7,$t6,-1
  415fd0:	01eec024 	and	$t8,$t7,$t6
  415fd4:	acce0028 	sw	$t6,40($a2)
  415fd8:	1700001a 	bnez	$t8,416044 <_amallopt+0x1f0>
  415fdc:	acc000ac 	sw	$zero,172($a2)
  415fe0:	25d9ffff 	addiu	$t9,$t6,-1
  415fe4:	acd900ac 	sw	$t9,172($a2)
  415fe8:	01c02025 	move	$a0,$t6
  415fec:	0c10578d 	jal	415e34 <_acalloc+0x5c>
  415ff0:	afa60020 	sw	$a2,32($sp)
  415ff4:	8fa60020 	lw	$a2,32($sp)
  415ff8:	10000012 	b	416044 <_amallopt+0x1f0>
  415ffc:	acc200b0 	sw	$v0,176($a2)
  416000:	8cc20008 	lw	$v0,8($a2)
  416004:	24080010 	li	$t0,16
  416008:	2c410010 	sltiu	$at,$v0,16
  41600c:	10200003 	beqz	$at,41601c <_amallopt+0x1c8>
  416010:	00000000 	nop
  416014:	10000002 	b	416020 <_amallopt+0x1cc>
  416018:	acc80008 	sw	$t0,8($a2)
  41601c:	acc20008 	sw	$v0,8($a2)
  416020:	8cc90014 	lw	$t1,20($a2)
  416024:	8cca0008 	lw	$t2,8($a2)
  416028:	00000000 	nop
  41602c:	012a5821 	addu	$t3,$t1,$t2
  416030:	256c0001 	addiu	$t4,$t3,1
  416034:	10000003 	b	416044 <_amallopt+0x1f0>
  416038:	accc0018 	sw	$t4,24($a2)
  41603c:	10000002 	b	416048 <_amallopt+0x1f4>
  416040:	24020001 	li	$v0,1
  416044:	00001025 	move	$v0,$zero
  416048:	8fbf0014 	lw	$ra,20($sp)
  41604c:	27bd0018 	addiu	$sp,$sp,24
  416050:	03e00008 	jr	$ra
  416054:	00000000 	nop

00416058 <_amallinfo>:
  416058:	27bdff78 	addiu	$sp,$sp,-136
  41605c:	afb20020 	sw	$s2,32($sp)
  416060:	afb00018 	sw	$s0,24($sp)
  416064:	00a09025 	move	$s2,$a1
  416068:	afbf002c 	sw	$ra,44($sp)
  41606c:	afa40088 	sw	$a0,136($sp)
  416070:	00a08025 	move	$s0,$a1
  416074:	afb40028 	sw	$s4,40($sp)
  416078:	afb30024 	sw	$s3,36($sp)
  41607c:	afb1001c 	sw	$s1,28($sp)
  416080:	24050028 	li	$a1,40
  416084:	0c1061c8 	jal	418720 <_blkclr>
  416088:	27a40050 	addiu	$a0,$sp,80
  41608c:	8e44009c 	lw	$a0,156($s2)
  416090:	8f99aee4 	lw	$t9,-20764($gp)
  416094:	10800003 	beqz	$a0,4160a4 <_amallinfo+0x4c>
  416098:	00000000 	nop
  41609c:	0320f809 	jalr	$t9
  4160a0:	00000000 	nop
  4160a4:	8e4e0054 	lw	$t6,84($s2)
  4160a8:	00000000 	nop
  4160ac:	15c00004 	bnez	$t6,4160c0 <_amallinfo+0x68>
  4160b0:	00000000 	nop
  4160b4:	8e44009c 	lw	$a0,156($s2)
  4160b8:	10000076 	b	416294 <_amallinfo+0x23c>
  4160bc:	00000000 	nop
  4160c0:	8e4f003c 	lw	$t7,60($s2)
  4160c4:	2404fffe 	li	$a0,-2
  4160c8:	01e41824 	and	$v1,$t7,$a0
  4160cc:	14600004 	bnez	$v1,4160e0 <_amallinfo+0x88>
  4160d0:	00000000 	nop
  4160d4:	8e44009c 	lw	$a0,156($s2)
  4160d8:	1000006e 	b	416294 <_amallinfo+0x23c>
  4160dc:	00000000 	nop
  4160e0:	8e58008c 	lw	$t8,140($s2)
  4160e4:	24090010 	li	$t1,16
  4160e8:	03034023 	subu	$t0,$t8,$v1
  4160ec:	afa80050 	sw	$t0,80($sp)
  4160f0:	8e420008 	lw	$v0,8($s2)
  4160f4:	00000000 	nop
  4160f8:	2c410011 	sltiu	$at,$v0,17
  4160fc:	14200003 	bnez	$at,41610c <_amallinfo+0xb4>
  416100:	0122a023 	subu	$s4,$t1,$v0
  416104:	10000001 	b	41610c <_amallinfo+0xb4>
  416108:	0000a025 	move	$s4,$zero
  41610c:	8c6a0000 	lw	$t2,0($v1)
  416110:	264b003c 	addiu	$t3,$s2,60
  416114:	01441024 	and	$v0,$t2,$a0
  416118:	11620019 	beq	$t3,$v0,416180 <_amallinfo+0x128>
  41611c:	00000000 	nop
  416120:	8fac0054 	lw	$t4,84($sp)
  416124:	8fab0070 	lw	$t3,112($sp)
  416128:	258d0001 	addiu	$t5,$t4,1
  41612c:	afad0054 	sw	$t5,84($sp)
  416130:	8c790000 	lw	$t9,0($v1)
  416134:	00436023 	subu	$t4,$v0,$v1
  416138:	332e0001 	andi	$t6,$t9,0x1
  41613c:	11c00009 	beqz	$t6,416164 <_amallinfo+0x10c>
  416140:	016c6821 	addu	$t5,$t3,$t4
  416144:	8faf006c 	lw	$t7,108($sp)
  416148:	8fa90074 	lw	$t1,116($sp)
  41614c:	0043c023 	subu	$t8,$v0,$v1
  416150:	01f84021 	addu	$t0,$t7,$t8
  416154:	01345021 	addu	$t2,$t1,$s4
  416158:	afa8006c 	sw	$t0,108($sp)
  41615c:	10000002 	b	416168 <_amallinfo+0x110>
  416160:	afaa0074 	sw	$t2,116($sp)
  416164:	afad0070 	sw	$t5,112($sp)
  416168:	8c590000 	lw	$t9,0($v0)
  41616c:	00401825 	move	$v1,$v0
  416170:	260e003c 	addiu	$t6,$s0,60
  416174:	03241024 	and	$v0,$t9,$a0
  416178:	15c2ffea 	bne	$t6,$v0,416124 <_amallinfo+0xcc>
  41617c:	8fac0054 	lw	$t4,84($sp)
  416180:	8e440090 	lw	$a0,144($s2)
  416184:	00000000 	nop
  416188:	1080002e 	beqz	$a0,416244 <_amallinfo+0x1ec>
  41618c:	8fab005c 	lw	$t3,92($sp)
  416190:	8e420010 	lw	$v0,16($s2)
  416194:	00000000 	nop
  416198:	18400029 	blez	$v0,416240 <_amallinfo+0x1e8>
  41619c:	00029880 	sll	$s3,$v0,0x2
  4161a0:	00931821 	addu	$v1,$a0,$s3
  4161a4:	8c700000 	lw	$s0,0($v1)
  4161a8:	00000000 	nop
  4161ac:	12000020 	beqz	$s0,416230 <_amallinfo+0x1d8>
  4161b0:	00000000 	nop
  4161b4:	8e110010 	lw	$s1,16($s0)
  4161b8:	00000000 	nop
  4161bc:	26310004 	addiu	$s1,$s1,4
  4161c0:	8faf005c 	lw	$t7,92($sp)
  4161c4:	02402025 	move	$a0,$s2
  4161c8:	25f80001 	addiu	$t8,$t7,1
  4161cc:	afb8005c 	sw	$t8,92($sp)
  4161d0:	0c1058c3 	jal	41630c <_amallinfo+0x2b4>
  4161d4:	02002825 	move	$a1,$s0
  4161d8:	8fa80068 	lw	$t0,104($sp)
  4161dc:	8faa0064 	lw	$t2,100($sp)
  4161e0:	01024821 	addu	$t1,$t0,$v0
  4161e4:	afa90068 	sw	$t1,104($sp)
  4161e8:	8e4b0004 	lw	$t3,4($s2)
  4161ec:	8fae0058 	lw	$t6,88($sp)
  4161f0:	01710019 	multu	$t3,$s1
  4161f4:	00006012 	mflo	$t4
  4161f8:	014c6821 	addu	$t5,$t2,$t4
  4161fc:	01a2c823 	subu	$t9,$t5,$v0
  416200:	afb90064 	sw	$t9,100($sp)
  416204:	8e4f0004 	lw	$t7,4($s2)
  416208:	00000000 	nop
  41620c:	01cfc021 	addu	$t8,$t6,$t7
  416210:	afb80058 	sw	$t8,88($sp)
  416214:	8e480090 	lw	$t0,144($s2)
  416218:	8e100000 	lw	$s0,0($s0)
  41621c:	01131821 	addu	$v1,$t0,$s3
  416220:	8c690000 	lw	$t1,0($v1)
  416224:	00000000 	nop
  416228:	1609ffe6 	bne	$s0,$t1,4161c4 <_amallinfo+0x16c>
  41622c:	8faf005c 	lw	$t7,92($sp)
  416230:	2673fffc 	addiu	$s3,$s3,-4
  416234:	2a610004 	slti	$at,$s3,4
  416238:	1020ffda 	beqz	$at,4161a4 <_amallinfo+0x14c>
  41623c:	2463fffc 	addiu	$v1,$v1,-4
  416240:	8fab005c 	lw	$t3,92($sp)
  416244:	8fac0054 	lw	$t4,84($sp)
  416248:	01740019 	multu	$t3,$s4
  41624c:	018b6823 	subu	$t5,$t4,$t3
  416250:	8fae006c 	lw	$t6,108($sp)
  416254:	25b9ffff 	addiu	$t9,$t5,-1
  416258:	8fb80064 	lw	$t8,100($sp)
  41625c:	000b5140 	sll	$t2,$t3,0x5
  416260:	8fa90068 	lw	$t1,104($sp)
  416264:	8fad0074 	lw	$t5,116($sp)
  416268:	afb90054 	sw	$t9,84($sp)
  41626c:	01ca7823 	subu	$t7,$t6,$t2
  416270:	01f84023 	subu	$t0,$t7,$t8
  416274:	01096023 	subu	$t4,$t0,$t1
  416278:	0000c812 	mflo	$t9
  41627c:	01b97023 	subu	$t6,$t5,$t9
  416280:	afaa0060 	sw	$t2,96($sp)
  416284:	afac006c 	sw	$t4,108($sp)
  416288:	afae0074 	sw	$t6,116($sp)
  41628c:	8e44009c 	lw	$a0,156($s2)
  416290:	00000000 	nop
  416294:	10800006 	beqz	$a0,4162b0 <_amallinfo+0x258>
  416298:	8fa30088 	lw	$v1,136($sp)
  41629c:	8f99aee8 	lw	$t9,-20760($gp)
  4162a0:	00000000 	nop
  4162a4:	0320f809 	jalr	$t9
  4162a8:	00000000 	nop
  4162ac:	8fa30088 	lw	$v1,136($sp)
  4162b0:	27aa0050 	addiu	$t2,$sp,80
  4162b4:	25480024 	addiu	$t0,$t2,36
  4162b8:	00604825 	move	$t1,$v1
  4162bc:	8d410000 	lw	$at,0($t2)
  4162c0:	254a000c 	addiu	$t2,$t2,12
  4162c4:	ad210000 	sw	$at,0($t1)
  4162c8:	8d41fff8 	lw	$at,-8($t2)
  4162cc:	2529000c 	addiu	$t1,$t1,12
  4162d0:	ad21fff8 	sw	$at,-8($t1)
  4162d4:	8d41fffc 	lw	$at,-4($t2)
  4162d8:	1548fff8 	bne	$t2,$t0,4162bc <_amallinfo+0x264>
  4162dc:	ad21fffc 	sw	$at,-4($t1)
  4162e0:	8d410000 	lw	$at,0($t2)
  4162e4:	00601025 	move	$v0,$v1
  4162e8:	ad210000 	sw	$at,0($t1)
  4162ec:	8fbf002c 	lw	$ra,44($sp)
  4162f0:	8fb40028 	lw	$s4,40($sp)
  4162f4:	8fb30024 	lw	$s3,36($sp)
  4162f8:	8fb20020 	lw	$s2,32($sp)
  4162fc:	8fb1001c 	lw	$s1,28($sp)
  416300:	8fb00018 	lw	$s0,24($sp)
  416304:	03e00008 	jr	$ra
  416308:	27bd0088 	addiu	$sp,$sp,136
  41630c:	afa40000 	sw	$a0,0($sp)
  416310:	8cae0008 	lw	$t6,8($a1)
  416314:	8ca40010 	lw	$a0,16($a1)
  416318:	8caf000c 	lw	$t7,12($a1)
  41631c:	2407fffd 	li	$a3,-3
  416320:	01c71024 	and	$v0,$t6,$a3
  416324:	00001825 	move	$v1,$zero
  416328:	24840004 	addiu	$a0,$a0,4
  41632c:	1040000a 	beqz	$v0,416358 <_amallinfo+0x300>
  416330:	01e73024 	and	$a2,$t7,$a3
  416334:	10460008 	beq	$v0,$a2,416358 <_amallinfo+0x300>
  416338:	00000000 	nop
  41633c:	8c580000 	lw	$t8,0($v0)
  416340:	00641821 	addu	$v1,$v1,$a0
  416344:	03071024 	and	$v0,$t8,$a3
  416348:	10400003 	beqz	$v0,416358 <_amallinfo+0x300>
  41634c:	00000000 	nop
  416350:	1446fffa 	bne	$v0,$a2,41633c <_amallinfo+0x2e4>
  416354:	00000000 	nop
  416358:	8ca20014 	lw	$v0,20($a1)
  41635c:	24c60004 	addiu	$a2,$a2,4
  416360:	00a2c821 	addu	$t9,$a1,$v0
  416364:	00d9082a 	slt	$at,$a2,$t9
  416368:	10200003 	beqz	$at,416378 <_amallinfo+0x320>
  41636c:	00654021 	addu	$t0,$v1,$a1
  416370:	01024821 	addu	$t1,$t0,$v0
  416374:	01261823 	subu	$v1,$t1,$a2
  416378:	03e00008 	jr	$ra
  41637c:	00601025 	move	$v0,$v1

00416380 <__acheckq>:
  416380:	27bdffd8 	addiu	$sp,$sp,-40
  416384:	afb20020 	sw	$s2,32($sp)
  416388:	2483fff0 	addiu	$v1,$a0,-16
  41638c:	00809025 	move	$s2,$a0
  416390:	afbf0024 	sw	$ra,36($sp)
  416394:	afb1001c 	sw	$s1,28($sp)
  416398:	afb00018 	sw	$s0,24($sp)
  41639c:	10830005 	beq	$a0,$v1,4163b4 <__acheckq+0x34>
  4163a0:	2482004c 	addiu	$v0,$a0,76
  4163a4:	8c420008 	lw	$v0,8($v0)
  4163a8:	264e005c 	addiu	$t6,$s2,92
  4163ac:	15c2fffd 	bne	$t6,$v0,4163a4 <__acheckq+0x24>
  4163b0:	00000000 	nop
  4163b4:	264f004c 	addiu	$t7,$s2,76
  4163b8:	11e20005 	beq	$t7,$v0,4163d0 <__acheckq+0x50>
  4163bc:	2648006c 	addiu	$t0,$s2,108
  4163c0:	8c42000c 	lw	$v0,12($v0)
  4163c4:	2658004c 	addiu	$t8,$s2,76
  4163c8:	1702fffd 	bne	$t8,$v0,4163c0 <__acheckq+0x40>
  4163cc:	00000000 	nop
  4163d0:	12430005 	beq	$s2,$v1,4163e8 <__acheckq+0x68>
  4163d4:	2642006c 	addiu	$v0,$s2,108
  4163d8:	8c420008 	lw	$v0,8($v0)
  4163dc:	2659007c 	addiu	$t9,$s2,124
  4163e0:	1722fffd 	bne	$t9,$v0,4163d8 <__acheckq+0x58>
  4163e4:	00000000 	nop
  4163e8:	11020005 	beq	$t0,$v0,416400 <__acheckq+0x80>
  4163ec:	00000000 	nop
  4163f0:	8c42000c 	lw	$v0,12($v0)
  4163f4:	2649006c 	addiu	$t1,$s2,108
  4163f8:	1522fffd 	bne	$t1,$v0,4163f0 <__acheckq+0x70>
  4163fc:	00000000 	nop
  416400:	8e4a003c 	lw	$t2,60($s2)
  416404:	2403fffe 	li	$v1,-2
  416408:	01432024 	and	$a0,$t2,$v1
  41640c:	8c8b0000 	lw	$t3,0($a0)
  416410:	264c003c 	addiu	$t4,$s2,60
  416414:	01631024 	and	$v0,$t3,$v1
  416418:	11820006 	beq	$t4,$v0,416434 <__acheckq+0xb4>
  41641c:	00000000 	nop
  416420:	8c4d0000 	lw	$t5,0($v0)
  416424:	264e003c 	addiu	$t6,$s2,60
  416428:	01a31024 	and	$v0,$t5,$v1
  41642c:	15c2fffc 	bne	$t6,$v0,416420 <__acheckq+0xa0>
  416430:	00000000 	nop
  416434:	8e430090 	lw	$v1,144($s2)
  416438:	00000000 	nop
  41643c:	10600018 	beqz	$v1,4164a0 <__acheckq+0x120>
  416440:	8fbf0024 	lw	$ra,36($sp)
  416444:	8e440010 	lw	$a0,16($s2)
  416448:	00000000 	nop
  41644c:	18800013 	blez	$a0,41649c <__acheckq+0x11c>
  416450:	00048880 	sll	$s1,$a0,0x2
  416454:	00711021 	addu	$v0,$v1,$s1
  416458:	8c500000 	lw	$s0,0($v0)
  41645c:	00000000 	nop
  416460:	1200000a 	beqz	$s0,41648c <__acheckq+0x10c>
  416464:	02402025 	move	$a0,$s2
  416468:	0c1058c3 	jal	41630c <_amallinfo+0x2b4>
  41646c:	02002825 	move	$a1,$s0
  416470:	8e4f0090 	lw	$t7,144($s2)
  416474:	8e100000 	lw	$s0,0($s0)
  416478:	01f11021 	addu	$v0,$t7,$s1
  41647c:	8c580000 	lw	$t8,0($v0)
  416480:	00000000 	nop
  416484:	1618fff8 	bne	$s0,$t8,416468 <__acheckq+0xe8>
  416488:	02402025 	move	$a0,$s2
  41648c:	2631fffc 	addiu	$s1,$s1,-4
  416490:	2a210004 	slti	$at,$s1,4
  416494:	1020fff0 	beqz	$at,416458 <__acheckq+0xd8>
  416498:	2442fffc 	addiu	$v0,$v0,-4
  41649c:	8fbf0024 	lw	$ra,36($sp)
  4164a0:	8fb00018 	lw	$s0,24($sp)
  4164a4:	8fb1001c 	lw	$s1,28($sp)
  4164a8:	8fb20020 	lw	$s2,32($sp)
  4164ac:	03e00008 	jr	$ra
  4164b0:	27bd0028 	addiu	$sp,$sp,40

004164b4 <_amallocblksize>:
  4164b4:	27bdffe0 	addiu	$sp,$sp,-32
  4164b8:	afbf0014 	sw	$ra,20($sp)
  4164bc:	8ca6009c 	lw	$a2,156($a1)
  4164c0:	00803825 	move	$a3,$a0
  4164c4:	10c0000a 	beqz	$a2,4164f0 <_amallocblksize+0x3c>
  4164c8:	00001825 	move	$v1,$zero
  4164cc:	8f99aee4 	lw	$t9,-20764($gp)
  4164d0:	00c02025 	move	$a0,$a2
  4164d4:	afa50024 	sw	$a1,36($sp)
  4164d8:	0320f809 	jalr	$t9
  4164dc:	afa70020 	sw	$a3,32($sp)
  4164e0:	8fa50024 	lw	$a1,36($sp)
  4164e4:	8fa70020 	lw	$a3,32($sp)
  4164e8:	10000001 	b	4164f0 <_amallocblksize+0x3c>
  4164ec:	00401825 	move	$v1,$v0
  4164f0:	10600011 	beqz	$v1,416538 <_amallocblksize+0x84>
  4164f4:	00e02025 	move	$a0,$a3
  4164f8:	0c105954 	jal	416550 <_amallocblksize+0x9c>
  4164fc:	afa50024 	sw	$a1,36($sp)
  416500:	8fa50024 	lw	$a1,36($sp)
  416504:	00401825 	move	$v1,$v0
  416508:	8ca6009c 	lw	$a2,156($a1)
  41650c:	00000000 	nop
  416510:	10c00007 	beqz	$a2,416530 <_amallocblksize+0x7c>
  416514:	00000000 	nop
  416518:	8f99aee8 	lw	$t9,-20760($gp)
  41651c:	00c02025 	move	$a0,$a2
  416520:	0320f809 	jalr	$t9
  416524:	afa20018 	sw	$v0,24($sp)
  416528:	8fa30018 	lw	$v1,24($sp)
  41652c:	00000000 	nop
  416530:	10000003 	b	416540 <_amallocblksize+0x8c>
  416534:	00601025 	move	$v0,$v1
  416538:	0c105954 	jal	416550 <_amallocblksize+0x9c>
  41653c:	00e02025 	move	$a0,$a3
  416540:	8fbf0014 	lw	$ra,20($sp)
  416544:	27bd0020 	addiu	$sp,$sp,32
  416548:	03e00008 	jr	$ra
  41654c:	00000000 	nop
  416550:	14800003 	bnez	$a0,416560 <_amallocblksize+0xac>
  416554:	00000000 	nop
  416558:	03e00008 	jr	$ra
  41655c:	00001025 	move	$v0,$zero
  416560:	8c8efffc 	lw	$t6,-4($a0)
  416564:	2498fffc 	addiu	$t8,$a0,-4
  416568:	31cf0002 	andi	$t7,$t6,0x2
  41656c:	11e0000c 	beqz	$t7,4165a0 <_amallocblksize+0xec>
  416570:	2401fffe 	li	$at,-2
  416574:	0301c824 	and	$t9,$t8,$at
  416578:	8f220000 	lw	$v0,0($t9)
  41657c:	2401fffc 	li	$at,-4
  416580:	30480001 	andi	$t0,$v0,0x1
  416584:	15000003 	bnez	$t0,416594 <_amallocblksize+0xe0>
  416588:	00414824 	and	$t1,$v0,$at
  41658c:	03e00008 	jr	$ra
  416590:	00001025 	move	$v0,$zero
  416594:	8d230010 	lw	$v1,16($t1)
  416598:	1000000d 	b	4165d0 <_amallocblksize+0x11c>
  41659c:	00601025 	move	$v0,$v1
  4165a0:	8caa0008 	lw	$t2,8($a1)
  4165a4:	2401fffe 	li	$at,-2
  4165a8:	008a1023 	subu	$v0,$a0,$t2
  4165ac:	8c460000 	lw	$a2,0($v0)
  4165b0:	00000000 	nop
  4165b4:	30cb0001 	andi	$t3,$a2,0x1
  4165b8:	15600003 	bnez	$t3,4165c8 <_amallocblksize+0x114>
  4165bc:	00c16024 	and	$t4,$a2,$at
  4165c0:	03e00008 	jr	$ra
  4165c4:	00001025 	move	$v0,$zero
  4165c8:	01841823 	subu	$v1,$t4,$a0
  4165cc:	00601025 	move	$v0,$v1
  4165d0:	03e00008 	jr	$ra
  4165d4:	00000000 	nop

004165d8 <_amemalign>:
  4165d8:	27bdffe0 	addiu	$sp,$sp,-32
  4165dc:	afbf0014 	sw	$ra,20($sp)
  4165e0:	afa40020 	sw	$a0,32($sp)
  4165e4:	8cc7009c 	lw	$a3,156($a2)
  4165e8:	00001825 	move	$v1,$zero
  4165ec:	10e00009 	beqz	$a3,416614 <_amemalign+0x3c>
  4165f0:	00e02025 	move	$a0,$a3
  4165f4:	8f99aee4 	lw	$t9,-20764($gp)
  4165f8:	afa50024 	sw	$a1,36($sp)
  4165fc:	0320f809 	jalr	$t9
  416600:	afa60028 	sw	$a2,40($sp)
  416604:	8fa50024 	lw	$a1,36($sp)
  416608:	8fa60028 	lw	$a2,40($sp)
  41660c:	10000001 	b	416614 <_amemalign+0x3c>
  416610:	00401825 	move	$v1,$v0
  416614:	10600013 	beqz	$v1,416664 <_amemalign+0x8c>
  416618:	8fa40020 	lw	$a0,32($sp)
  41661c:	8fa40020 	lw	$a0,32($sp)
  416620:	0c10599f 	jal	41667c <_amemalign+0xa4>
  416624:	afa60028 	sw	$a2,40($sp)
  416628:	8fa60028 	lw	$a2,40($sp)
  41662c:	00401825 	move	$v1,$v0
  416630:	8cc7009c 	lw	$a3,156($a2)
  416634:	00000000 	nop
  416638:	10e00007 	beqz	$a3,416658 <_amemalign+0x80>
  41663c:	00000000 	nop
  416640:	8f99aee8 	lw	$t9,-20760($gp)
  416644:	00e02025 	move	$a0,$a3
  416648:	0320f809 	jalr	$t9
  41664c:	afa20018 	sw	$v0,24($sp)
  416650:	8fa30018 	lw	$v1,24($sp)
  416654:	00000000 	nop
  416658:	10000004 	b	41666c <_amemalign+0x94>
  41665c:	00601025 	move	$v0,$v1
  416660:	8fa40020 	lw	$a0,32($sp)
  416664:	0c10599f 	jal	41667c <_amemalign+0xa4>
  416668:	00000000 	nop
  41666c:	8fbf0014 	lw	$ra,20($sp)
  416670:	27bd0020 	addiu	$sp,$sp,32
  416674:	03e00008 	jr	$ra
  416678:	00000000 	nop
  41667c:	27bdffb0 	addiu	$sp,$sp,-80
  416680:	afb00018 	sw	$s0,24($sp)
  416684:	00c08025 	move	$s0,$a2
  416688:	afbf001c 	sw	$ra,28($sp)
  41668c:	afa50054 	sw	$a1,84($sp)
  416690:	00803825 	move	$a3,$a0
  416694:	10a00006 	beqz	$a1,4166b0 <_amemalign+0xd8>
  416698:	00a07025 	move	$t6,$a1
  41669c:	308f0003 	andi	$t7,$a0,0x3
  4166a0:	15e00003 	bnez	$t7,4166b0 <_amemalign+0xd8>
  4166a4:	00000000 	nop
  4166a8:	14800005 	bnez	$a0,4166c0 <_amemalign+0xe8>
  4166ac:	2ce10011 	sltiu	$at,$a3,17
  4166b0:	0c102025 	jal	408094 <_setoserror>
  4166b4:	24040016 	li	$a0,22
  4166b8:	10000153 	b	416c08 <_amemalign+0x630>
  4166bc:	00001025 	move	$v0,$zero
  4166c0:	1020000d 	beqz	$at,4166f8 <_amemalign+0x120>
  4166c4:	24180010 	li	$t8,16
  4166c8:	0307001b 	divu	$zero,$t8,$a3
  4166cc:	8fa40054 	lw	$a0,84($sp)
  4166d0:	14e00002 	bnez	$a3,4166dc <_amemalign+0x104>
  4166d4:	00000000 	nop
  4166d8:	0007000d 	break	0x7
  4166dc:	0000c810 	mfhi	$t9
  4166e0:	17200006 	bnez	$t9,4166fc <_amemalign+0x124>
  4166e4:	8fa90054 	lw	$t1,84($sp)
  4166e8:	0c105411 	jal	415044 <_arecalloc+0x9c>
  4166ec:	02002825 	move	$a1,$s0
  4166f0:	10000146 	b	416c0c <_amemalign+0x634>
  4166f4:	8fbf001c 	lw	$ra,28($sp)
  4166f8:	8fa90054 	lw	$t1,84($sp)
  4166fc:	2401fff0 	li	$at,-16
  416700:	252a000f 	addiu	$t2,$t1,15
  416704:	01415824 	and	$t3,$t2,$at
  416708:	afab0054 	sw	$t3,84($sp)
  41670c:	8e020014 	lw	$v0,20($s0)
  416710:	02002825 	move	$a1,$s0
  416714:	004b082b 	sltu	$at,$v0,$t3
  416718:	14200002 	bnez	$at,416724 <_amemalign+0x14c>
  41671c:	244c0004 	addiu	$t4,$v0,4
  416720:	afac0054 	sw	$t4,84($sp)
  416724:	8fad0054 	lw	$t5,84($sp)
  416728:	afa70050 	sw	$a3,80($sp)
  41672c:	01a72021 	addu	$a0,$t5,$a3
  416730:	0c105411 	jal	415044 <_arecalloc+0x9c>
  416734:	24840020 	addiu	$a0,$a0,32
  416738:	8fa70050 	lw	$a3,80($sp)
  41673c:	8fa80054 	lw	$t0,84($sp)
  416740:	14400003 	bnez	$v0,416750 <_amemalign+0x178>
  416744:	afa20044 	sw	$v0,68($sp)
  416748:	1000012f 	b	416c08 <_amemalign+0x630>
  41674c:	00001025 	move	$v0,$zero
  416750:	00477021 	addu	$t6,$v0,$a3
  416754:	25cfffff 	addiu	$t7,$t6,-1
  416758:	01e7001b 	divu	$zero,$t7,$a3
  41675c:	2401fffe 	li	$at,-2
  416760:	14e00002 	bnez	$a3,41676c <_amemalign+0x194>
  416764:	00000000 	nop
  416768:	0007000d 	break	0x7
  41676c:	0000c012 	mflo	$t8
	...
  416778:	03070019 	multu	$t8,$a3
  41677c:	00002812 	mflo	$a1
  416780:	afa50040 	sw	$a1,64($sp)
  416784:	8e040008 	lw	$a0,8($s0)
  416788:	00000000 	nop
  41678c:	0044c823 	subu	$t9,$v0,$a0
  416790:	afb90038 	sw	$t9,56($sp)
  416794:	8f230000 	lw	$v1,0($t9)
  416798:	03204825 	move	$t1,$t9
  41679c:	00615024 	and	$t2,$v1,$at
  4167a0:	14450096 	bne	$v0,$a1,4169fc <_amemalign+0x424>
  4167a4:	01401825 	move	$v1,$t2
  4167a8:	01455823 	subu	$t3,$t2,$a1
  4167ac:	01686023 	subu	$t4,$t3,$t0
  4167b0:	2d810010 	sltiu	$at,$t4,16
  4167b4:	1420007b 	bnez	$at,4169a4 <_amemalign+0x3cc>
  4167b8:	00000000 	nop
  4167bc:	00a82021 	addu	$a0,$a1,$t0
  4167c0:	ac8a0000 	sw	$t2,0($a0)
  4167c4:	8fad0038 	lw	$t5,56($sp)
  4167c8:	00000000 	nop
  4167cc:	ac8d0004 	sw	$t5,4($a0)
  4167d0:	8d460000 	lw	$a2,0($t2)
  4167d4:	ad440004 	sw	$a0,4($t2)
  4167d8:	30ce0001 	andi	$t6,$a2,0x1
  4167dc:	15c0000d 	bnez	$t6,416814 <_amemalign+0x23c>
  4167e0:	00000000 	nop
  4167e4:	8d4f0008 	lw	$t7,8($t2)
  4167e8:	8d58000c 	lw	$t8,12($t2)
  4167ec:	00000000 	nop
  4167f0:	af0f0008 	sw	$t7,8($t8)
  4167f4:	8d59000c 	lw	$t9,12($t2)
  4167f8:	8d490008 	lw	$t1,8($t2)
  4167fc:	00000000 	nop
  416800:	ad39000c 	sw	$t9,12($t1)
  416804:	ad40000c 	sw	$zero,12($t2)
  416808:	ad400008 	sw	$zero,8($t2)
  41680c:	ac860000 	sw	$a2,0($a0)
  416810:	acc40004 	sw	$a0,4($a2)
  416814:	8c8a0000 	lw	$t2,0($a0)
  416818:	8e0c0018 	lw	$t4,24($s0)
  41681c:	01445823 	subu	$t3,$t2,$a0
  416820:	016c082a 	slt	$at,$t3,$t4
  416824:	1420002f 	bnez	$at,4168e4 <_amemalign+0x30c>
  416828:	00000000 	nop
  41682c:	8e0d0024 	lw	$t5,36($s0)
  416830:	00000000 	nop
  416834:	11a00016 	beqz	$t5,416890 <_amemalign+0x2b8>
  416838:	00000000 	nop
  41683c:	8fae0044 	lw	$t6,68($sp)
  416840:	2604004c 	addiu	$a0,$s0,76
  416844:	01c77821 	addu	$t7,$t6,$a3
  416848:	25f8ffff 	addiu	$t8,$t7,-1
  41684c:	0307001b 	divu	$zero,$t8,$a3
  416850:	afa70050 	sw	$a3,80($sp)
  416854:	14e00002 	bnez	$a3,416860 <_amemalign+0x288>
  416858:	00000000 	nop
  41685c:	0007000d 	break	0x7
  416860:	0000c812 	mflo	$t9
	...
  41686c:	03270019 	multu	$t9,$a3
  416870:	00004812 	mflo	$t1
  416874:	01282821 	addu	$a1,$t1,$t0
  416878:	0c10576e 	jal	415db8 <_arealloc+0x32c>
  41687c:	afa50024 	sw	$a1,36($sp)
  416880:	8fa50024 	lw	$a1,36($sp)
  416884:	8fa70050 	lw	$a3,80($sp)
  416888:	10000044 	b	41699c <_amemalign+0x3c4>
  41688c:	8fa90038 	lw	$t1,56($sp)
  416890:	8faa0044 	lw	$t2,68($sp)
  416894:	2604004c 	addiu	$a0,$s0,76
  416898:	01475821 	addu	$t3,$t2,$a3
  41689c:	256cffff 	addiu	$t4,$t3,-1
  4168a0:	0187001b 	divu	$zero,$t4,$a3
  4168a4:	afa70050 	sw	$a3,80($sp)
  4168a8:	14e00002 	bnez	$a3,4168b4 <_amemalign+0x2dc>
  4168ac:	00000000 	nop
  4168b0:	0007000d 	break	0x7
  4168b4:	00006812 	mflo	$t5
	...
  4168c0:	01a70019 	multu	$t5,$a3
  4168c4:	00007012 	mflo	$t6
  4168c8:	01c82821 	addu	$a1,$t6,$t0
  4168cc:	0c105765 	jal	415d94 <_arealloc+0x308>
  4168d0:	afa50024 	sw	$a1,36($sp)
  4168d4:	8fa50024 	lw	$a1,36($sp)
  4168d8:	8fa70050 	lw	$a3,80($sp)
  4168dc:	1000002f 	b	41699c <_amemalign+0x3c4>
  4168e0:	8fa90038 	lw	$t1,56($sp)
  4168e4:	8e0f0024 	lw	$t7,36($s0)
  4168e8:	00000000 	nop
  4168ec:	11e00016 	beqz	$t7,416948 <_amemalign+0x370>
  4168f0:	00000000 	nop
  4168f4:	8fb80044 	lw	$t8,68($sp)
  4168f8:	2604006c 	addiu	$a0,$s0,108
  4168fc:	0307c821 	addu	$t9,$t8,$a3
  416900:	2729ffff 	addiu	$t1,$t9,-1
  416904:	0127001b 	divu	$zero,$t1,$a3
  416908:	afa70050 	sw	$a3,80($sp)
  41690c:	14e00002 	bnez	$a3,416918 <_amemalign+0x340>
  416910:	00000000 	nop
  416914:	0007000d 	break	0x7
  416918:	00005012 	mflo	$t2
	...
  416924:	01470019 	multu	$t2,$a3
  416928:	00005812 	mflo	$t3
  41692c:	01682821 	addu	$a1,$t3,$t0
  416930:	0c10576e 	jal	415db8 <_arealloc+0x32c>
  416934:	afa50024 	sw	$a1,36($sp)
  416938:	8fa50024 	lw	$a1,36($sp)
  41693c:	8fa70050 	lw	$a3,80($sp)
  416940:	10000016 	b	41699c <_amemalign+0x3c4>
  416944:	8fa90038 	lw	$t1,56($sp)
  416948:	8fac0044 	lw	$t4,68($sp)
  41694c:	2604006c 	addiu	$a0,$s0,108
  416950:	01876821 	addu	$t5,$t4,$a3
  416954:	25aeffff 	addiu	$t6,$t5,-1
  416958:	01c7001b 	divu	$zero,$t6,$a3
  41695c:	afa70050 	sw	$a3,80($sp)
  416960:	14e00002 	bnez	$a3,41696c <_amemalign+0x394>
  416964:	00000000 	nop
  416968:	0007000d 	break	0x7
  41696c:	00007812 	mflo	$t7
	...
  416978:	01e70019 	multu	$t7,$a3
  41697c:	0000c012 	mflo	$t8
  416980:	03082821 	addu	$a1,$t8,$t0
  416984:	0c105765 	jal	415d94 <_arealloc+0x308>
  416988:	afa50024 	sw	$a1,36($sp)
  41698c:	8fa50024 	lw	$a1,36($sp)
  416990:	8fa70050 	lw	$a3,80($sp)
  416994:	00000000 	nop
  416998:	8fa90038 	lw	$t1,56($sp)
  41699c:	34b90001 	ori	$t9,$a1,0x1
  4169a0:	ad390000 	sw	$t9,0($t1)
  4169a4:	8faa0044 	lw	$t2,68($sp)
  4169a8:	8e0e0094 	lw	$t6,148($s0)
  4169ac:	01475821 	addu	$t3,$t2,$a3
  4169b0:	256cffff 	addiu	$t4,$t3,-1
  4169b4:	0187001b 	divu	$zero,$t4,$a3
  4169b8:	02002025 	move	$a0,$s0
  4169bc:	14e00002 	bnez	$a3,4169c8 <_amemalign+0x3f0>
  4169c0:	00000000 	nop
  4169c4:	0007000d 	break	0x7
  4169c8:	00006812 	mflo	$t5
	...
  4169d4:	01a70019 	multu	$t5,$a3
  4169d8:	00001812 	mflo	$v1
  4169dc:	11c00005 	beqz	$t6,4169f4 <_amemalign+0x41c>
  4169e0:	00000000 	nop
  4169e4:	0c1058e0 	jal	416380 <__acheckq>
  4169e8:	afa30024 	sw	$v1,36($sp)
  4169ec:	8fa30024 	lw	$v1,36($sp)
  4169f0:	00000000 	nop
  4169f4:	10000084 	b	416c08 <_amemalign+0x630>
  4169f8:	00601025 	move	$v0,$v1
  4169fc:	00a27823 	subu	$t7,$a1,$v0
  416a00:	2de10010 	sltiu	$at,$t7,16
  416a04:	10200002 	beqz	$at,416a10 <_amemalign+0x438>
  416a08:	00a7c021 	addu	$t8,$a1,$a3
  416a0c:	afb80040 	sw	$t8,64($sp)
  416a10:	8fb90040 	lw	$t9,64($sp)
  416a14:	2401fff0 	li	$at,-16
  416a18:	03243823 	subu	$a3,$t9,$a0
  416a1c:	ace0000c 	sw	$zero,12($a3)
  416a20:	8fa60040 	lw	$a2,64($sp)
  416a24:	00000000 	nop
  416a28:	24c6000f 	addiu	$a2,$a2,15
  416a2c:	00c14824 	and	$t1,$a2,$at
  416a30:	00695023 	subu	$t2,$v1,$t1
  416a34:	01485823 	subu	$t3,$t2,$t0
  416a38:	2d610010 	sltiu	$at,$t3,16
  416a3c:	14200042 	bnez	$at,416b48 <_amemalign+0x570>
  416a40:	01282821 	addu	$a1,$t1,$t0
  416a44:	aca30000 	sw	$v1,0($a1)
  416a48:	aca70004 	sw	$a3,4($a1)
  416a4c:	8c620000 	lw	$v0,0($v1)
  416a50:	ac650004 	sw	$a1,4($v1)
  416a54:	304c0001 	andi	$t4,$v0,0x1
  416a58:	1580000d 	bnez	$t4,416a90 <_amemalign+0x4b8>
  416a5c:	00000000 	nop
  416a60:	8c6d0008 	lw	$t5,8($v1)
  416a64:	8c6e000c 	lw	$t6,12($v1)
  416a68:	00000000 	nop
  416a6c:	adcd0008 	sw	$t5,8($t6)
  416a70:	8c6f000c 	lw	$t7,12($v1)
  416a74:	8c780008 	lw	$t8,8($v1)
  416a78:	00000000 	nop
  416a7c:	af0f000c 	sw	$t7,12($t8)
  416a80:	ac60000c 	sw	$zero,12($v1)
  416a84:	ac600008 	sw	$zero,8($v1)
  416a88:	aca20000 	sw	$v0,0($a1)
  416a8c:	ac450004 	sw	$a1,4($v0)
  416a90:	8cb90000 	lw	$t9,0($a1)
  416a94:	8e0a0018 	lw	$t2,24($s0)
  416a98:	03254823 	subu	$t1,$t9,$a1
  416a9c:	012a082a 	slt	$at,$t1,$t2
  416aa0:	14200014 	bnez	$at,416af4 <_amemalign+0x51c>
  416aa4:	00000000 	nop
  416aa8:	8e0b0024 	lw	$t3,36($s0)
  416aac:	2604004c 	addiu	$a0,$s0,76
  416ab0:	11600009 	beqz	$t3,416ad8 <_amemalign+0x500>
  416ab4:	00000000 	nop
  416ab8:	2604004c 	addiu	$a0,$s0,76
  416abc:	afa50024 	sw	$a1,36($sp)
  416ac0:	0c10576e 	jal	415db8 <_arealloc+0x32c>
  416ac4:	afa7003c 	sw	$a3,60($sp)
  416ac8:	8fa50024 	lw	$a1,36($sp)
  416acc:	8fa7003c 	lw	$a3,60($sp)
  416ad0:	1000001b 	b	416b40 <_amemalign+0x568>
  416ad4:	34ad0001 	ori	$t5,$a1,0x1
  416ad8:	afa50024 	sw	$a1,36($sp)
  416adc:	0c105765 	jal	415d94 <_arealloc+0x308>
  416ae0:	afa7003c 	sw	$a3,60($sp)
  416ae4:	8fa50024 	lw	$a1,36($sp)
  416ae8:	8fa7003c 	lw	$a3,60($sp)
  416aec:	10000014 	b	416b40 <_amemalign+0x568>
  416af0:	34ad0001 	ori	$t5,$a1,0x1
  416af4:	8e0c0024 	lw	$t4,36($s0)
  416af8:	2604006c 	addiu	$a0,$s0,108
  416afc:	11800009 	beqz	$t4,416b24 <_amemalign+0x54c>
  416b00:	00000000 	nop
  416b04:	2604006c 	addiu	$a0,$s0,108
  416b08:	afa50024 	sw	$a1,36($sp)
  416b0c:	0c10576e 	jal	415db8 <_arealloc+0x32c>
  416b10:	afa7003c 	sw	$a3,60($sp)
  416b14:	8fa50024 	lw	$a1,36($sp)
  416b18:	8fa7003c 	lw	$a3,60($sp)
  416b1c:	10000008 	b	416b40 <_amemalign+0x568>
  416b20:	34ad0001 	ori	$t5,$a1,0x1
  416b24:	afa50024 	sw	$a1,36($sp)
  416b28:	0c105765 	jal	415d94 <_arealloc+0x308>
  416b2c:	afa7003c 	sw	$a3,60($sp)
  416b30:	8fa50024 	lw	$a1,36($sp)
  416b34:	8fa7003c 	lw	$a3,60($sp)
  416b38:	00000000 	nop
  416b3c:	34ad0001 	ori	$t5,$a1,0x1
  416b40:	10000007 	b	416b60 <_amemalign+0x588>
  416b44:	aced0000 	sw	$t5,0($a3)
  416b48:	ac670004 	sw	$a3,4($v1)
  416b4c:	8fae0038 	lw	$t6,56($sp)
  416b50:	00000000 	nop
  416b54:	8dcf0000 	lw	$t7,0($t6)
  416b58:	00000000 	nop
  416b5c:	acef0000 	sw	$t7,0($a3)
  416b60:	8fb80038 	lw	$t8,56($sp)
  416b64:	2401fffe 	li	$at,-2
  416b68:	acf80004 	sw	$t8,4($a3)
  416b6c:	8fb90038 	lw	$t9,56($sp)
  416b70:	00e11024 	and	$v0,$a3,$at
  416b74:	af220000 	sw	$v0,0($t9)
  416b78:	8e0a0018 	lw	$t2,24($s0)
  416b7c:	00594823 	subu	$t1,$v0,$t9
  416b80:	012a082a 	slt	$at,$t1,$t2
  416b84:	1420000d 	bnez	$at,416bbc <_amemalign+0x5e4>
  416b88:	00000000 	nop
  416b8c:	8e0b0024 	lw	$t3,36($s0)
  416b90:	8fa50038 	lw	$a1,56($sp)
  416b94:	11600005 	beqz	$t3,416bac <_amemalign+0x5d4>
  416b98:	2604004c 	addiu	$a0,$s0,76
  416b9c:	0c10576e 	jal	415db8 <_arealloc+0x32c>
  416ba0:	03202825 	move	$a1,$t9
  416ba4:	10000011 	b	416bec <_amemalign+0x614>
  416ba8:	8e0d0094 	lw	$t5,148($s0)
  416bac:	0c105765 	jal	415d94 <_arealloc+0x308>
  416bb0:	00000000 	nop
  416bb4:	1000000d 	b	416bec <_amemalign+0x614>
  416bb8:	8e0d0094 	lw	$t5,148($s0)
  416bbc:	8e0c0024 	lw	$t4,36($s0)
  416bc0:	8fa50038 	lw	$a1,56($sp)
  416bc4:	11800006 	beqz	$t4,416be0 <_amemalign+0x608>
  416bc8:	2604006c 	addiu	$a0,$s0,108
  416bcc:	8fa50038 	lw	$a1,56($sp)
  416bd0:	0c10576e 	jal	415db8 <_arealloc+0x32c>
  416bd4:	00000000 	nop
  416bd8:	10000004 	b	416bec <_amemalign+0x614>
  416bdc:	8e0d0094 	lw	$t5,148($s0)
  416be0:	0c105765 	jal	415d94 <_arealloc+0x308>
  416be4:	00000000 	nop
  416be8:	8e0d0094 	lw	$t5,148($s0)
  416bec:	00000000 	nop
  416bf0:	11a00004 	beqz	$t5,416c04 <_amemalign+0x62c>
  416bf4:	8fa20040 	lw	$v0,64($sp)
  416bf8:	0c1058e0 	jal	416380 <__acheckq>
  416bfc:	02002025 	move	$a0,$s0
  416c00:	8fa20040 	lw	$v0,64($sp)
  416c04:	00000000 	nop
  416c08:	8fbf001c 	lw	$ra,28($sp)
  416c0c:	8fb00018 	lw	$s0,24($sp)
  416c10:	03e00008 	jr	$ra
  416c14:	27bd0050 	addiu	$sp,$sp,80
	...
  416c20:	8c820008 	lw	$v0,8($a0)
  416c24:	03e00008 	jr	$ra
  416c28:	00000000 	nop

00416c2c <_usr4klocks_init>:
  416c2c:	3c0e0041 	lui	$t6,0x41
  416c30:	3c0f0041 	lui	$t7,0x41
  416c34:	3c180041 	lui	$t8,0x41
  416c38:	3c190041 	lui	$t9,0x41
  416c3c:	3c080041 	lui	$t0,0x41
  416c40:	25ce83d0 	addiu	$t6,$t6,-31792
  416c44:	25ef8530 	addiu	$t7,$t7,-31440
  416c48:	271881dc 	addiu	$t8,$t8,-32292
  416c4c:	27398140 	addiu	$t9,$t9,-32448
  416c50:	25088300 	addiu	$t0,$t0,-32000
  416c54:	24010002 	li	$at,2
  416c58:	afa40000 	sw	$a0,0($sp)
  416c5c:	af8eaf04 	sw	$t6,-20732($gp)
  416c60:	af8faf08 	sw	$t7,-20728($gp)
  416c64:	af98aeec 	sw	$t8,-20756($gp)
  416c68:	af99aef0 	sw	$t9,-20752($gp)
  416c6c:	14a10011 	bne	$a1,$at,416cb4 <_usr4klocks_init+0x88>
  416c70:	af88aef4 	sw	$t0,-20748($gp)
  416c74:	3c090042 	lui	$t1,0x42
  416c78:	3c0a0042 	lui	$t2,0x42
  416c7c:	3c0b0042 	lui	$t3,0x42
  416c80:	3c0c0041 	lui	$t4,0x41
  416c84:	3c0d0041 	lui	$t5,0x41
  416c88:	25299840 	addiu	$t1,$t1,-26560
  416c8c:	254a9980 	addiu	$t2,$t2,-26240
  416c90:	256b9904 	addiu	$t3,$t3,-26364
  416c94:	258c8384 	addiu	$t4,$t4,-31868
  416c98:	25ad83a8 	addiu	$t5,$t5,-31832
  416c9c:	af89aee4 	sw	$t1,-20764($gp)
  416ca0:	af8aaee8 	sw	$t2,-20760($gp)
  416ca4:	af8baefc 	sw	$t3,-20740($gp)
  416ca8:	af8caef8 	sw	$t4,-20744($gp)
  416cac:	10000016 	b	416d08 <_usr4klocks_init+0xdc>
  416cb0:	af8daf00 	sw	$t5,-20736($gp)
  416cb4:	3c0e0042 	lui	$t6,0x42
  416cb8:	3c0f0042 	lui	$t7,0x42
  416cbc:	3c180042 	lui	$t8,0x42
  416cc0:	3c190042 	lui	$t9,0x42
  416cc4:	3c080041 	lui	$t0,0x41
  416cc8:	3c090042 	lui	$t1,0x42
  416ccc:	3c0a0042 	lui	$t2,0x42
  416cd0:	25ce9b3c 	addiu	$t6,$t6,-25796
  416cd4:	25ef9c34 	addiu	$t7,$t7,-25548
  416cd8:	27189be0 	addiu	$t8,$t8,-25632
  416cdc:	27399ac0 	addiu	$t9,$t9,-25920
  416ce0:	25086c20 	addiu	$t0,$t0,27680
  416ce4:	25299a98 	addiu	$t1,$t1,-25960
  416ce8:	254a9ab8 	addiu	$t2,$t2,-25928
  416cec:	af8eaee4 	sw	$t6,-20764($gp)
  416cf0:	af8faee8 	sw	$t7,-20760($gp)
  416cf4:	af98aefc 	sw	$t8,-20740($gp)
  416cf8:	af99aef8 	sw	$t9,-20744($gp)
  416cfc:	af88af00 	sw	$t0,-20736($gp)
  416d00:	af89af14 	sw	$t1,-20716($gp)
  416d04:	af8aaf18 	sw	$t2,-20712($gp)
  416d08:	3c020042 	lui	$v0,0x42
  416d0c:	24429a78 	addiu	$v0,$v0,-25992
  416d10:	24010005 	li	$at,5
  416d14:	af82af0c 	sw	$v0,-20724($gp)
  416d18:	14a10008 	bne	$a1,$at,416d3c <_usr4klocks_init+0x110>
  416d1c:	af82af10 	sw	$v0,-20720($gp)
  416d20:	3c020041 	lui	$v0,0x41
  416d24:	3c0b0041 	lui	$t3,0x41
  416d28:	24426dcc 	addiu	$v0,$v0,28108
  416d2c:	256b6e48 	addiu	$t3,$t3,28232
  416d30:	af8baf14 	sw	$t3,-20716($gp)
  416d34:	af82af0c 	sw	$v0,-20724($gp)
  416d38:	af82af10 	sw	$v0,-20720($gp)
  416d3c:	03e00008 	jr	$ra
  416d40:	00000000 	nop

00416d44 <_r4k_llwarinit>:
  416d44:	248504e3 	addiu	$a1,$a0,1251
  416d48:	2401ff80 	li	$at,-128
  416d4c:	00a17024 	and	$t6,$a1,$at
  416d50:	27bdffd8 	addiu	$sp,$sp,-40
  416d54:	25c30080 	addiu	$v1,$t6,128
  416d58:	0064c023 	subu	$t8,$v1,$a0
  416d5c:	afbf0024 	sw	$ra,36($sp)
  416d60:	afb00020 	sw	$s0,32($sp)
  416d64:	24630080 	addiu	$v1,$v1,128
  416d68:	0064c823 	subu	$t9,$v1,$a0
  416d6c:	24630080 	addiu	$v1,$v1,128
  416d70:	00644023 	subu	$t0,$v1,$a0
  416d74:	01c47823 	subu	$t7,$t6,$a0
  416d78:	ac880460 	sw	$t0,1120($a0)
  416d7c:	ac99045c 	sw	$t9,1116($a0)
  416d80:	ac980458 	sw	$t8,1112($a0)
  416d84:	ac8f0454 	sw	$t7,1108($a0)
  416d88:	8f89af30 	lw	$t1,-20688($gp)
  416d8c:	00808025 	move	$s0,$a0
  416d90:	1120000a 	beqz	$t1,416dbc <_r4k_llwarinit+0x78>
  416d94:	00002025 	move	$a0,$zero
  416d98:	8e0a045c 	lw	$t2,1116($s0)
  416d9c:	8e060454 	lw	$a2,1108($s0)
  416da0:	8e070458 	lw	$a3,1112($s0)
  416da4:	afaa0010 	sw	$t2,16($sp)
  416da8:	8e0b0460 	lw	$t3,1120($s0)
  416dac:	3c050042 	lui	$a1,0x42
  416db0:	24a5ce20 	addiu	$a1,$a1,-12768
  416db4:	0c1050fc 	jal	4143f0 <_uprint>
  416db8:	afab0014 	sw	$t3,20($sp)
  416dbc:	8fbf0024 	lw	$ra,36($sp)
  416dc0:	8fb00020 	lw	$s0,32($sp)
  416dc4:	03e00008 	jr	$ra
  416dc8:	27bd0028 	addiu	$sp,$sp,40
  416dcc:	27bdffe0 	addiu	$sp,$sp,-32
  416dd0:	00047883 	sra	$t7,$a0,0x2
  416dd4:	31f80003 	andi	$t8,$t7,0x3
  416dd8:	0018c880 	sll	$t9,$t8,0x2
  416ddc:	afbf0014 	sw	$ra,20($sp)
  416de0:	afa40020 	sw	$a0,32($sp)
  416de4:	afa50024 	sw	$a1,36($sp)
  416de8:	afa60028 	sw	$a2,40($sp)
  416dec:	00f94021 	addu	$t0,$a3,$t9
  416df0:	8d040454 	lw	$a0,1108($t0)
  416df4:	3c090020 	lui	$t1,0x20
  416df8:	8d250e00 	lw	$a1,3584($t1)
  416dfc:	00872021 	addu	$a0,$a0,$a3
  416e00:	0c106717 	jal	419c5c <_r4kmpllwar_grablock>
  416e04:	afa40018 	sw	$a0,24($sp)
  416e08:	8fa30020 	lw	$v1,32($sp)
  416e0c:	8faa0024 	lw	$t2,36($sp)
  416e10:	8c6b0000 	lw	$t3,0($v1)
  416e14:	8fa40018 	lw	$a0,24($sp)
  416e18:	154b0006 	bne	$t2,$t3,416e34 <_r4k_llwarinit+0xf0>
  416e1c:	00001025 	move	$v0,$zero
  416e20:	8fac0028 	lw	$t4,40($sp)
  416e24:	24020001 	li	$v0,1
  416e28:	ac6c0000 	sw	$t4,0($v1)
  416e2c:	10000002 	b	416e38 <_r4k_llwarinit+0xf4>
  416e30:	ac800000 	sw	$zero,0($a0)
  416e34:	ac800000 	sw	$zero,0($a0)
  416e38:	8fbf0014 	lw	$ra,20($sp)
  416e3c:	27bd0020 	addiu	$sp,$sp,32
  416e40:	03e00008 	jr	$ra
  416e44:	00000000 	nop
  416e48:	27bdffe0 	addiu	$sp,$sp,-32
  416e4c:	00803025 	move	$a2,$a0
  416e50:	afbf0014 	sw	$ra,20($sp)
  416e54:	00067083 	sra	$t6,$a2,0x2
  416e58:	8cc20000 	lw	$v0,0($a2)
  416e5c:	31cf0003 	andi	$t7,$t6,0x3
  416e60:	000fc080 	sll	$t8,$t7,0x2
  416e64:	0058c821 	addu	$t9,$v0,$t8
  416e68:	8f240454 	lw	$a0,1108($t9)
  416e6c:	3c080020 	lui	$t0,0x20
  416e70:	8d050e00 	lw	$a1,3584($t0)
  416e74:	00822021 	addu	$a0,$a0,$v0
  416e78:	afa40018 	sw	$a0,24($sp)
  416e7c:	0c106717 	jal	419c5c <_r4kmpllwar_grablock>
  416e80:	afa60020 	sw	$a2,32($sp)
  416e84:	8fa60020 	lw	$a2,32($sp)
  416e88:	8fa40018 	lw	$a0,24($sp)
  416e8c:	8cc90008 	lw	$t1,8($a2)
  416e90:	240a0001 	li	$t2,1
  416e94:	11200004 	beqz	$t1,416ea8 <_r4k_llwarinit+0x164>
  416e98:	00001025 	move	$v0,$zero
  416e9c:	ac800000 	sw	$zero,0($a0)
  416ea0:	10000003 	b	416eb0 <_r4k_llwarinit+0x16c>
  416ea4:	24020001 	li	$v0,1
  416ea8:	acca0008 	sw	$t2,8($a2)
  416eac:	ac800000 	sw	$zero,0($a0)
  416eb0:	8fbf0014 	lw	$ra,20($sp)
  416eb4:	27bd0020 	addiu	$sp,$sp,32
  416eb8:	03e00008 	jr	$ra
  416ebc:	00000000 	nop

00416ec0 <_syncinit>:
  416ec0:	27bdffe8 	addiu	$sp,$sp,-24
  416ec4:	24010002 	li	$at,2
  416ec8:	10810048 	beq	$a0,$at,416fec <_syncinit+0x12c>
  416ecc:	afbf0014 	sw	$ra,20($sp)
  416ed0:	24010004 	li	$at,4
  416ed4:	10810045 	beq	$a0,$at,416fec <_syncinit+0x12c>
  416ed8:	24010006 	li	$at,6
  416edc:	10810043 	beq	$a0,$at,416fec <_syncinit+0x12c>
  416ee0:	24010007 	li	$at,7
  416ee4:	10810041 	beq	$a0,$at,416fec <_syncinit+0x12c>
  416ee8:	24010005 	li	$at,5
  416eec:	1081003f 	beq	$a0,$at,416fec <_syncinit+0x12c>
  416ef0:	3c020020 	lui	$v0,0x20
  416ef4:	3c0e0041 	lui	$t6,0x41
  416ef8:	3c0f0041 	lui	$t7,0x41
  416efc:	3c180041 	lui	$t8,0x41
  416f00:	3c190041 	lui	$t9,0x41
  416f04:	3c080041 	lui	$t0,0x41
  416f08:	3c090041 	lui	$t1,0x41
  416f0c:	3c0a0041 	lui	$t2,0x41
  416f10:	3c0b0041 	lui	$t3,0x41
  416f14:	3c0c0041 	lui	$t4,0x41
  416f18:	3c0d0041 	lui	$t5,0x41
  416f1c:	25ce20d0 	addiu	$t6,$t6,8400
  416f20:	25ef2348 	addiu	$t7,$t7,9032
  416f24:	271820e0 	addiu	$t8,$t8,8416
  416f28:	27392104 	addiu	$t9,$t9,8452
  416f2c:	250821a0 	addiu	$t0,$t0,8608
  416f30:	252921d0 	addiu	$t1,$t1,8656
  416f34:	254a2124 	addiu	$t2,$t2,8484
  416f38:	256b2130 	addiu	$t3,$t3,8496
  416f3c:	258c220c 	addiu	$t4,$t4,8716
  416f40:	25ad2248 	addiu	$t5,$t5,8776
  416f44:	ac4e0e18 	sw	$t6,3608($v0)
  416f48:	ac4f0e1c 	sw	$t7,3612($v0)
  416f4c:	ac580e20 	sw	$t8,3616($v0)
  416f50:	ac590e24 	sw	$t9,3620($v0)
  416f54:	ac480e4c 	sw	$t0,3660($v0)
  416f58:	ac490e50 	sw	$t1,3664($v0)
  416f5c:	ac4a0e28 	sw	$t2,3624($v0)
  416f60:	ac4b0e2c 	sw	$t3,3628($v0)
  416f64:	ac4c0e30 	sw	$t4,3632($v0)
  416f68:	ac4d0e34 	sw	$t5,3636($v0)
  416f6c:	3c0e0041 	lui	$t6,0x41
  416f70:	3c0f0041 	lui	$t7,0x41
  416f74:	3c180041 	lui	$t8,0x41
  416f78:	3c190041 	lui	$t9,0x41
  416f7c:	3c080041 	lui	$t0,0x41
  416f80:	3c090041 	lui	$t1,0x41
  416f84:	3c0a0041 	lui	$t2,0x41
  416f88:	3c0b0041 	lui	$t3,0x41
  416f8c:	3c0c0041 	lui	$t4,0x41
  416f90:	3c0d0041 	lui	$t5,0x41
  416f94:	25ce2264 	addiu	$t6,$t6,8804
  416f98:	25ef2270 	addiu	$t7,$t7,8816
  416f9c:	271822f8 	addiu	$t8,$t8,8952
  416fa0:	273922e0 	addiu	$t9,$t9,8928
  416fa4:	250822f8 	addiu	$t0,$t0,8952
  416fa8:	2529233c 	addiu	$t1,$t1,9020
  416fac:	254a2308 	addiu	$t2,$t2,8968
  416fb0:	256b2330 	addiu	$t3,$t3,9008
  416fb4:	258c230c 	addiu	$t4,$t4,8972
  416fb8:	25ad231c 	addiu	$t5,$t5,8988
  416fbc:	ac4e0e38 	sw	$t6,3640($v0)
  416fc0:	ac4f0e3c 	sw	$t7,3644($v0)
  416fc4:	ac580e48 	sw	$t8,3656($v0)
  416fc8:	ac590e40 	sw	$t9,3648($v0)
  416fcc:	ac480e44 	sw	$t0,3652($v0)
  416fd0:	ac490e5c 	sw	$t1,3676($v0)
  416fd4:	ac4a0e54 	sw	$t2,3668($v0)
  416fd8:	ac4b0e58 	sw	$t3,3672($v0)
  416fdc:	ac4c0e60 	sw	$t4,3680($v0)
  416fe0:	ac4d0e64 	sw	$t5,3684($v0)
  416fe4:	0c1015dc 	jal	405770 <_prctl>
  416fe8:	24040007 	li	$a0,7
  416fec:	8fbf0014 	lw	$ra,20($sp)
  416ff0:	27bd0018 	addiu	$sp,$sp,24
  416ff4:	03e00008 	jr	$ra
	...

00417000 <_usfreadlock>:
  417000:	27bdffa8 	addiu	$sp,$sp,-88
  417004:	afb50028 	sw	$s5,40($sp)
  417008:	afb40024 	sw	$s4,36($sp)
  41700c:	afb30020 	sw	$s3,32($sp)
  417010:	afb2001c 	sw	$s2,28($sp)
  417014:	afb10018 	sw	$s1,24($sp)
  417018:	00808825 	move	$s1,$a0
  41701c:	00a09025 	move	$s2,$a1
  417020:	afbf002c 	sw	$ra,44($sp)
  417024:	afb00014 	sw	$s0,20($sp)
  417028:	27b30034 	addiu	$s3,$sp,52
  41702c:	24140004 	li	$s4,4
  417030:	2415ffff 	li	$s5,-1
  417034:	240e0001 	li	$t6,1
  417038:	240f0001 	li	$t7,1
  41703c:	a7ae0034 	sh	$t6,52($sp)
  417040:	a7a00036 	sh	$zero,54($sp)
  417044:	afb10038 	sw	$s1,56($sp)
  417048:	afaf003c 	sw	$t7,60($sp)
  41704c:	02402025 	move	$a0,$s2
  417050:	24050007 	li	$a1,7
  417054:	0c1040ec 	jal	4103b0 <_fcntl>
  417058:	02603025 	move	$a2,$s3
  41705c:	14550005 	bne	$v0,$s5,417074 <_usfreadlock+0x74>
  417060:	00408025 	move	$s0,$v0
  417064:	0c102020 	jal	408080 <_oserror>
  417068:	00000000 	nop
  41706c:	1054fff2 	beq	$v0,$s4,417038 <_usfreadlock+0x38>
  417070:	240e0001 	li	$t6,1
  417074:	16150003 	bne	$s0,$s5,417084 <_usfreadlock+0x84>
  417078:	00001025 	move	$v0,$zero
  41707c:	10000001 	b	417084 <_usfreadlock+0x84>
  417080:	2402ffff 	li	$v0,-1
  417084:	8fbf002c 	lw	$ra,44($sp)
  417088:	8fb00014 	lw	$s0,20($sp)
  41708c:	8fb10018 	lw	$s1,24($sp)
  417090:	8fb2001c 	lw	$s2,28($sp)
  417094:	8fb30020 	lw	$s3,32($sp)
  417098:	8fb40024 	lw	$s4,36($sp)
  41709c:	8fb50028 	lw	$s5,40($sp)
  4170a0:	03e00008 	jr	$ra
  4170a4:	27bd0058 	addiu	$sp,$sp,88

004170a8 <_usfsplock>:
  4170a8:	27bdffa8 	addiu	$sp,$sp,-88
  4170ac:	afb50028 	sw	$s5,40($sp)
  4170b0:	afb40024 	sw	$s4,36($sp)
  4170b4:	afb30020 	sw	$s3,32($sp)
  4170b8:	afb2001c 	sw	$s2,28($sp)
  4170bc:	afb10018 	sw	$s1,24($sp)
  4170c0:	00808825 	move	$s1,$a0
  4170c4:	00a09025 	move	$s2,$a1
  4170c8:	afbf002c 	sw	$ra,44($sp)
  4170cc:	afb00014 	sw	$s0,20($sp)
  4170d0:	27b30034 	addiu	$s3,$sp,52
  4170d4:	24140004 	li	$s4,4
  4170d8:	2415ffff 	li	$s5,-1
  4170dc:	240e0002 	li	$t6,2
  4170e0:	240f0001 	li	$t7,1
  4170e4:	a7ae0034 	sh	$t6,52($sp)
  4170e8:	a7a00036 	sh	$zero,54($sp)
  4170ec:	afb10038 	sw	$s1,56($sp)
  4170f0:	afaf003c 	sw	$t7,60($sp)
  4170f4:	02402025 	move	$a0,$s2
  4170f8:	24050007 	li	$a1,7
  4170fc:	0c1040ec 	jal	4103b0 <_fcntl>
  417100:	02603025 	move	$a2,$s3
  417104:	14550005 	bne	$v0,$s5,41711c <_usfsplock+0x74>
  417108:	00408025 	move	$s0,$v0
  41710c:	0c102020 	jal	408080 <_oserror>
  417110:	00000000 	nop
  417114:	1054fff2 	beq	$v0,$s4,4170e0 <_usfsplock+0x38>
  417118:	240e0002 	li	$t6,2
  41711c:	16150003 	bne	$s0,$s5,41712c <_usfsplock+0x84>
  417120:	00001025 	move	$v0,$zero
  417124:	10000001 	b	41712c <_usfsplock+0x84>
  417128:	2402ffff 	li	$v0,-1
  41712c:	8fbf002c 	lw	$ra,44($sp)
  417130:	8fb00014 	lw	$s0,20($sp)
  417134:	8fb10018 	lw	$s1,24($sp)
  417138:	8fb2001c 	lw	$s2,28($sp)
  41713c:	8fb30020 	lw	$s3,32($sp)
  417140:	8fb40024 	lw	$s4,36($sp)
  417144:	8fb50028 	lw	$s5,40($sp)
  417148:	03e00008 	jr	$ra
  41714c:	27bd0058 	addiu	$sp,$sp,88

00417150 <_usfunsplock>:
  417150:	27bdffb8 	addiu	$sp,$sp,-72
  417154:	afa40048 	sw	$a0,72($sp)
  417158:	afa40028 	sw	$a0,40($sp)
  41715c:	afbf001c 	sw	$ra,28($sp)
  417160:	afa5004c 	sw	$a1,76($sp)
  417164:	240e0003 	li	$t6,3
  417168:	24180001 	li	$t8,1
  41716c:	00a02025 	move	$a0,$a1
  417170:	a7ae0024 	sh	$t6,36($sp)
  417174:	a7a00026 	sh	$zero,38($sp)
  417178:	afb8002c 	sw	$t8,44($sp)
  41717c:	24050006 	li	$a1,6
  417180:	0c1040ec 	jal	4103b0 <_fcntl>
  417184:	27a60024 	addiu	$a2,$sp,36
  417188:	2401ffff 	li	$at,-1
  41718c:	1441000f 	bne	$v0,$at,4171cc <_usfunsplock+0x7c>
  417190:	00001025 	move	$v0,$zero
  417194:	8f998ab0 	lw	$t9,-30032($gp)
  417198:	24040001 	li	$a0,1
  41719c:	13200008 	beqz	$t9,4171c0 <_usfunsplock+0x70>
  4171a0:	3c050042 	lui	$a1,0x42
  4171a4:	3c080020 	lui	$t0,0x20
  4171a8:	8d090e00 	lw	$t1,3584($t0)
  4171ac:	8fa6004c 	lw	$a2,76($sp)
  4171b0:	8fa70048 	lw	$a3,72($sp)
  4171b4:	24a5ce50 	addiu	$a1,$a1,-12720
  4171b8:	0c1050fc 	jal	4143f0 <_uprint>
  4171bc:	afa90010 	sw	$t1,16($sp)
  4171c0:	10000002 	b	4171cc <_usfunsplock+0x7c>
  4171c4:	2402ffff 	li	$v0,-1
  4171c8:	00001025 	move	$v0,$zero
  4171cc:	8fbf001c 	lw	$ra,28($sp)
  4171d0:	27bd0048 	addiu	$sp,$sp,72
  4171d4:	03e00008 	jr	$ra
  4171d8:	00000000 	nop

004171dc <_usfgetlock>:
  4171dc:	27bdffb8 	addiu	$sp,$sp,-72
  4171e0:	afa40048 	sw	$a0,72($sp)
  4171e4:	afa40028 	sw	$a0,40($sp)
  4171e8:	afbf001c 	sw	$ra,28($sp)
  4171ec:	afa5004c 	sw	$a1,76($sp)
  4171f0:	240e0002 	li	$t6,2
  4171f4:	24180001 	li	$t8,1
  4171f8:	00a02025 	move	$a0,$a1
  4171fc:	a7ae0024 	sh	$t6,36($sp)
  417200:	a7a00026 	sh	$zero,38($sp)
  417204:	afb8002c 	sw	$t8,44($sp)
  417208:	2405000e 	li	$a1,14
  41720c:	0c1040ec 	jal	4103b0 <_fcntl>
  417210:	27a60024 	addiu	$a2,$sp,36
  417214:	2401ffff 	li	$at,-1
  417218:	1441000f 	bne	$v0,$at,417258 <_usfgetlock+0x7c>
  41721c:	87aa0024 	lh	$t2,36($sp)
  417220:	8f998ab0 	lw	$t9,-30032($gp)
  417224:	24040001 	li	$a0,1
  417228:	13200008 	beqz	$t9,41724c <_usfgetlock+0x70>
  41722c:	3c050042 	lui	$a1,0x42
  417230:	3c080020 	lui	$t0,0x20
  417234:	8d090e00 	lw	$t1,3584($t0)
  417238:	8fa6004c 	lw	$a2,76($sp)
  41723c:	8fa70048 	lw	$a3,72($sp)
  417240:	24a5ce78 	addiu	$a1,$a1,-12680
  417244:	0c1050fc 	jal	4143f0 <_uprint>
  417248:	afa90010 	sw	$t1,16($sp)
  41724c:	10000009 	b	417274 <_usfgetlock+0x98>
  417250:	2402ffff 	li	$v0,-1
  417254:	87aa0024 	lh	$t2,36($sp)
  417258:	24010003 	li	$at,3
  41725c:	15410004 	bne	$t2,$at,417270 <_usfgetlock+0x94>
  417260:	8fa20034 	lw	$v0,52($sp)
  417264:	10000003 	b	417274 <_usfgetlock+0x98>
  417268:	00001025 	move	$v0,$zero
  41726c:	8fa20034 	lw	$v0,52($sp)
  417270:	00000000 	nop
  417274:	8fbf001c 	lw	$ra,28($sp)
  417278:	27bd0048 	addiu	$sp,$sp,72
  41727c:	03e00008 	jr	$ra
	...

00417290 <_getsystype>:
  417290:	27bdffc8 	addiu	$sp,$sp,-56
  417294:	afbf0014 	sw	$ra,20($sp)
  417298:	240effff 	li	$t6,-1
  41729c:	afae0030 	sw	$t6,48($sp)
  4172a0:	afa0001c 	sw	$zero,28($sp)
  4172a4:	0c106288 	jal	418a20 <_sysconf>
  4172a8:	2404000e 	li	$a0,14
  4172ac:	1c400003 	bgtz	$v0,4172bc <_getsystype+0x2c>
  4172b0:	afa20034 	sw	$v0,52($sp)
  4172b4:	10000060 	b	417438 <_getsystype+0x1a8>
  4172b8:	00001025 	move	$v0,$zero
  4172bc:	0c1062db 	jal	418b6c <_setinvent_r>
  4172c0:	27a4001c 	addiu	$a0,$sp,28
  4172c4:	10400004 	beqz	$v0,4172d8 <_getsystype+0x48>
  4172c8:	8fa4001c 	lw	$a0,28($sp)
  4172cc:	1000005a 	b	417438 <_getsystype+0x1a8>
  4172d0:	00001025 	move	$v0,$zero
  4172d4:	8fa4001c 	lw	$a0,28($sp)
  4172d8:	0c10635b 	jal	418d6c <_getinvent_r>
  4172dc:	00000000 	nop
  4172e0:	10400017 	beqz	$v0,417340 <_getsystype+0xb0>
  4172e4:	8fa4001c 	lw	$a0,28($sp)
  4172e8:	8c4f0004 	lw	$t7,4($v0)
  4172ec:	24010001 	li	$at,1
  4172f0:	15e1000e 	bne	$t7,$at,41732c <_getsystype+0x9c>
  4172f4:	8fa4001c 	lw	$a0,28($sp)
  4172f8:	8c580008 	lw	$t8,8($v0)
  4172fc:	24010002 	li	$at,2
  417300:	1701000a 	bne	$t8,$at,41732c <_getsystype+0x9c>
  417304:	8fa4001c 	lw	$a0,28($sp)
  417308:	8c430014 	lw	$v1,20($v0)
  41730c:	00000000 	nop
  417310:	00034103 	sra	$t0,$v1,0x4
  417314:	3109000f 	andi	$t1,$t0,0xf
  417318:	0003ca03 	sra	$t9,$v1,0x8
  41731c:	afb90030 	sw	$t9,48($sp)
  417320:	10000006 	b	41733c <_getsystype+0xac>
  417324:	afa90024 	sw	$t1,36($sp)
  417328:	8fa4001c 	lw	$a0,28($sp)
  41732c:	0c10635b 	jal	418d6c <_getinvent_r>
  417330:	00000000 	nop
  417334:	1440ffec 	bnez	$v0,4172e8 <_getsystype+0x58>
  417338:	00000000 	nop
  41733c:	8fa4001c 	lw	$a0,28($sp)
  417340:	0c1062c0 	jal	418b00 <_endinvent_r>
  417344:	00000000 	nop
  417348:	8faa0030 	lw	$t2,48($sp)
  41734c:	00000000 	nop
  417350:	2d410021 	sltiu	$at,$t2,33
  417354:	10200028 	beqz	$at,4173f8 <_getsystype+0x168>
  417358:	000a5080 	sll	$t2,$t2,0x2
  41735c:	3c010042 	lui	$at,0x42
  417360:	002a0821 	addu	$at,$at,$t2
  417364:	8c2acec8 	lw	$t2,-12600($at)
  417368:	00000000 	nop
  41736c:	01400008 	jr	$t2
  417370:	00000000 	nop
  417374:	8fab0034 	lw	$t3,52($sp)
  417378:	00000000 	nop
  41737c:	29610002 	slti	$at,$t3,2
  417380:	14200003 	bnez	$at,417390 <_getsystype+0x100>
  417384:	00000000 	nop
  417388:	1000002a 	b	417434 <_getsystype+0x1a4>
  41738c:	24030003 	li	$v1,3
  417390:	10000028 	b	417434 <_getsystype+0x1a4>
  417394:	24030001 	li	$v1,1
  417398:	8fac0034 	lw	$t4,52($sp)
  41739c:	8fad0024 	lw	$t5,36($sp)
  4173a0:	29810002 	slti	$at,$t4,2
  4173a4:	14200007 	bnez	$at,4173c4 <_getsystype+0x134>
  4173a8:	29a10004 	slti	$at,$t5,4
  4173ac:	10200003 	beqz	$at,4173bc <_getsystype+0x12c>
  4173b0:	00000000 	nop
  4173b4:	1000001f 	b	417434 <_getsystype+0x1a4>
  4173b8:	24030005 	li	$v1,5
  4173bc:	1000001d 	b	417434 <_getsystype+0x1a4>
  4173c0:	24030004 	li	$v1,4
  4173c4:	1000001b 	b	417434 <_getsystype+0x1a4>
  4173c8:	24030002 	li	$v1,2
  4173cc:	10000019 	b	417434 <_getsystype+0x1a4>
  4173d0:	24030002 	li	$v1,2
  4173d4:	8fae0034 	lw	$t6,52($sp)
  4173d8:	00000000 	nop
  4173dc:	29c10002 	slti	$at,$t6,2
  4173e0:	14200003 	bnez	$at,4173f0 <_getsystype+0x160>
  4173e4:	00000000 	nop
  4173e8:	10000012 	b	417434 <_getsystype+0x1a4>
  4173ec:	24030007 	li	$v1,7
  4173f0:	10000010 	b	417434 <_getsystype+0x1a4>
  4173f4:	24030006 	li	$v1,6
  4173f8:	8faf0034 	lw	$t7,52($sp)
  4173fc:	8f988ab0 	lw	$t8,-30032($gp)
  417400:	29e10002 	slti	$at,$t7,2
  417404:	14200003 	bnez	$at,417414 <_getsystype+0x184>
  417408:	24030002 	li	$v1,2
  41740c:	10000001 	b	417414 <_getsystype+0x184>
  417410:	24030004 	li	$v1,4
  417414:	13000007 	beqz	$t8,417434 <_getsystype+0x1a4>
  417418:	00002025 	move	$a0,$zero
  41741c:	3c050042 	lui	$a1,0x42
  417420:	24a5cea0 	addiu	$a1,$a1,-12640
  417424:	0c1050fc 	jal	4143f0 <_uprint>
  417428:	afa30020 	sw	$v1,32($sp)
  41742c:	8fa30020 	lw	$v1,32($sp)
  417430:	00000000 	nop
  417434:	00601025 	move	$v0,$v1
  417438:	8fbf0014 	lw	$ra,20($sp)
  41743c:	27bd0038 	addiu	$sp,$sp,56
  417440:	03e00008 	jr	$ra
	...
  417450:	27bdffe8 	addiu	$sp,$sp,-24
  417454:	afbf0014 	sw	$ra,20($sp)
  417458:	00802825 	move	$a1,$a0
  41745c:	0c105c77 	jal	4171dc <_usfgetlock>
  417460:	24040001 	li	$a0,1
  417464:	8fbf0014 	lw	$ra,20($sp)
  417468:	10400003 	beqz	$v0,417478 <_getsystype+0x1e8>
  41746c:	00000000 	nop
  417470:	10000002 	b	41747c <_getsystype+0x1ec>
  417474:	00000000 	nop
  417478:	00001025 	move	$v0,$zero
  41747c:	03e00008 	jr	$ra
  417480:	27bd0018 	addiu	$sp,$sp,24

00417484 <_uscasaddme>:
  417484:	27bdfec0 	addiu	$sp,$sp,-320
  417488:	afb00018 	sw	$s0,24($sp)
  41748c:	3c100042 	lui	$s0,0x42
  417490:	2610db90 	addiu	$s0,$s0,-9328
  417494:	8e030000 	lw	$v1,0($s0)
  417498:	8e020004 	lw	$v0,4($s0)
  41749c:	10600007 	beqz	$v1,4174bc <_uscasaddme+0x38>
  4174a0:	afbf001c 	sw	$ra,28($sp)
  4174a4:	04400005 	bltz	$v0,4174bc <_uscasaddme+0x38>
  4174a8:	00000000 	nop
  4174ac:	8f84af34 	lw	$a0,-20684($gp)
  4174b0:	00000000 	nop
  4174b4:	14800004 	bnez	$a0,4174c8 <_uscasaddme+0x44>
  4174b8:	00000000 	nop
  4174bc:	af80af44 	sw	$zero,-20668($gp)
  4174c0:	1000006a 	b	41766c <_uscasaddme+0x1e8>
  4174c4:	ae000000 	sw	$zero,0($s0)
  4174c8:	afa2013c 	sw	$v0,316($sp)
  4174cc:	0c105bb0 	jal	416ec0 <_syncinit>
  4174d0:	afa30134 	sw	$v1,308($sp)
  4174d4:	8fa5013c 	lw	$a1,316($sp)
  4174d8:	0c105c2a 	jal	4170a8 <_usfsplock>
  4174dc:	00002025 	move	$a0,$zero
  4174e0:	2401ffff 	li	$at,-1
  4174e4:	14410005 	bne	$v0,$at,4174fc <_uscasaddme+0x78>
  4174e8:	00000000 	nop
  4174ec:	0c102020 	jal	408080 <_oserror>
  4174f0:	00000000 	nop
  4174f4:	1000004d 	b	41762c <_uscasaddme+0x1a8>
  4174f8:	00000000 	nop
  4174fc:	8f84af34 	lw	$a0,-20684($gp)
  417500:	24010003 	li	$at,3
  417504:	14810031 	bne	$a0,$at,4175cc <_uscasaddme+0x148>
  417508:	8fa5013c 	lw	$a1,316($sp)
  41750c:	8e040008 	lw	$a0,8($s0)
  417510:	0c104154 	jal	410550 <_fstat>
  417514:	27a500ac 	addiu	$a1,$sp,172
  417518:	8fa40134 	lw	$a0,308($sp)
  41751c:	27a50024 	addiu	$a1,$sp,36
  417520:	0c10627c 	jal	4189f0 <_stat>
  417524:	24840454 	addiu	$a0,$a0,1108
  417528:	8fae00d0 	lw	$t6,208($sp)
  41752c:	8faf0048 	lw	$t7,72($sp)
  417530:	00000000 	nop
  417534:	11cf0025 	beq	$t6,$t7,4175cc <_uscasaddme+0x148>
  417538:	8fa5013c 	lw	$a1,316($sp)
  41753c:	8e040004 	lw	$a0,4($s0)
  417540:	0c101ae0 	jal	406b80 <_close>
  417544:	00000000 	nop
  417548:	8fa40134 	lw	$a0,308($sp)
  41754c:	2418ffff 	li	$t8,-1
  417550:	ae180004 	sw	$t8,4($s0)
  417554:	8c85041c 	lw	$a1,1052($a0)
  417558:	0c104110 	jal	410440 <_munmap>
  41755c:	00000000 	nop
  417560:	8e05000c 	lw	$a1,12($s0)
  417564:	2401ffff 	li	$at,-1
  417568:	10a1000b 	beq	$a1,$at,417598 <_uscasaddme+0x114>
  41756c:	00000000 	nop
  417570:	8e060008 	lw	$a2,8($s0)
  417574:	0c102dcb 	jal	40b72c <_ushardlock_detach>
  417578:	00002025 	move	$a0,$zero
  41757c:	8e040008 	lw	$a0,8($s0)
  417580:	0c101ae0 	jal	406b80 <_close>
  417584:	00000000 	nop
  417588:	2419ffff 	li	$t9,-1
  41758c:	2408ffff 	li	$t0,-1
  417590:	ae190008 	sw	$t9,8($s0)
  417594:	ae08000c 	sw	$t0,12($s0)
  417598:	af80af44 	sw	$zero,-20668($gp)
  41759c:	ae000000 	sw	$zero,0($s0)
  4175a0:	8f89af30 	lw	$t1,-20688($gp)
  4175a4:	00002025 	move	$a0,$zero
  4175a8:	11200030 	beqz	$t1,41766c <_uscasaddme+0x1e8>
  4175ac:	3c050042 	lui	$a1,0x42
  4175b0:	3c0a0020 	lui	$t2,0x20
  4175b4:	8d460e00 	lw	$a2,3584($t2)
  4175b8:	0c1050fc 	jal	4143f0 <_uprint>
  4175bc:	24a5cf50 	addiu	$a1,$a1,-12464
  4175c0:	1000002b 	b	417670 <_uscasaddme+0x1ec>
  4175c4:	8fbf001c 	lw	$ra,28($sp)
  4175c8:	8fa5013c 	lw	$a1,316($sp)
  4175cc:	0c105c00 	jal	417000 <_usfreadlock>
  4175d0:	24040001 	li	$a0,1
  4175d4:	2401ffff 	li	$at,-1
  4175d8:	14410005 	bne	$v0,$at,4175f0 <_uscasaddme+0x16c>
  4175dc:	00000000 	nop
  4175e0:	0c102020 	jal	408080 <_oserror>
  4175e4:	00000000 	nop
  4175e8:	10000010 	b	41762c <_uscasaddme+0x1a8>
  4175ec:	00000000 	nop
  4175f0:	8f8baf30 	lw	$t3,-20688($gp)
  4175f4:	00002025 	move	$a0,$zero
  4175f8:	11600007 	beqz	$t3,417618 <_uscasaddme+0x194>
  4175fc:	3c050042 	lui	$a1,0x42
  417600:	8fa70134 	lw	$a3,308($sp)
  417604:	3c0c0020 	lui	$t4,0x20
  417608:	8d860e00 	lw	$a2,3584($t4)
  41760c:	24a5cf7c 	addiu	$a1,$a1,-12420
  417610:	0c1050fc 	jal	4143f0 <_uprint>
  417614:	24e7001c 	addiu	$a3,$a3,28
  417618:	8fa5013c 	lw	$a1,316($sp)
  41761c:	0c105c54 	jal	417150 <_usfunsplock>
  417620:	00002025 	move	$a0,$zero
  417624:	10000012 	b	417670 <_uscasaddme+0x1ec>
  417628:	8fbf001c 	lw	$ra,28($sp)
  41762c:	8f8d8ab0 	lw	$t5,-30032($gp)
  417630:	24040001 	li	$a0,1
  417634:	11a00007 	beqz	$t5,417654 <_uscasaddme+0x1d0>
  417638:	3c050042 	lui	$a1,0x42
  41763c:	8fa70134 	lw	$a3,308($sp)
  417640:	3c0e0020 	lui	$t6,0x20
  417644:	8dc60e00 	lw	$a2,3584($t6)
  417648:	24a5cfa4 	addiu	$a1,$a1,-12380
  41764c:	0c1050fc 	jal	4143f0 <_uprint>
  417650:	24e7001c 	addiu	$a3,$a3,28
  417654:	8fa5013c 	lw	$a1,316($sp)
  417658:	0c105c54 	jal	417150 <_usfunsplock>
  41765c:	00002025 	move	$a0,$zero
  417660:	af80af44 	sw	$zero,-20668($gp)
  417664:	0c104194 	jal	410650 <abort>
  417668:	ae000000 	sw	$zero,0($s0)
  41766c:	8fbf001c 	lw	$ra,28($sp)
  417670:	8fb00018 	lw	$s0,24($sp)
  417674:	03e00008 	jr	$ra
  417678:	27bd0140 	addiu	$sp,$sp,320

0041767c <__uscasarenainit>:
  41767c:	27bdeeb8 	addiu	$sp,$sp,-4424
  417680:	8f85af34 	lw	$a1,-20684($gp)
  417684:	240effff 	li	$t6,-1
  417688:	240f0004 	li	$t7,4
  41768c:	afbf0054 	sw	$ra,84($sp)
  417690:	afbe0050 	sw	$s8,80($sp)
  417694:	afb7004c 	sw	$s7,76($sp)
  417698:	afb60048 	sw	$s6,72($sp)
  41769c:	afb50044 	sw	$s5,68($sp)
  4176a0:	afb40040 	sw	$s4,64($sp)
  4176a4:	afb3003c 	sw	$s3,60($sp)
  4176a8:	afb20038 	sw	$s2,56($sp)
  4176ac:	afb10034 	sw	$s1,52($sp)
  4176b0:	afb00030 	sw	$s0,48($sp)
  4176b4:	afae0114 	sw	$t6,276($sp)
  4176b8:	afa0010c 	sw	$zero,268($sp)
  4176bc:	afaf0100 	sw	$t7,256($sp)
  4176c0:	14a00007 	bnez	$a1,4176e0 <__uscasarenainit+0x64>
  4176c4:	afa000f0 	sw	$zero,240($sp)
  4176c8:	0c105ca4 	jal	417290 <_getsystype>
  4176cc:	00000000 	nop
  4176d0:	14400003 	bnez	$v0,4176e0 <__uscasarenainit+0x64>
  4176d4:	00402825 	move	$a1,$v0
  4176d8:	100001f5 	b	417eb0 <__uscasarenainit+0x834>
  4176dc:	af82af34 	sw	$v0,-20684($gp)
  4176e0:	8f98af44 	lw	$t8,-20668($gp)
  4176e4:	00000000 	nop
  4176e8:	13000003 	beqz	$t8,4176f8 <__uscasarenainit+0x7c>
  4176ec:	00000000 	nop
  4176f0:	100001f1 	b	417eb8 <__uscasarenainit+0x83c>
  4176f4:	af85af34 	sw	$a1,-20684($gp)
  4176f8:	3c120042 	lui	$s2,0x42
  4176fc:	2652db90 	addiu	$s2,$s2,-9328
  417700:	ae450014 	sw	$a1,20($s2)
  417704:	24010002 	li	$at,2
  417708:	10a1000a 	beq	$a1,$at,417734 <__uscasarenainit+0xb8>
  41770c:	af85af34 	sw	$a1,-20684($gp)
  417710:	24010004 	li	$at,4
  417714:	10a10007 	beq	$a1,$at,417734 <__uscasarenainit+0xb8>
  417718:	af85af34 	sw	$a1,-20684($gp)
  41771c:	24010006 	li	$at,6
  417720:	10a10004 	beq	$a1,$at,417734 <__uscasarenainit+0xb8>
  417724:	af85af34 	sw	$a1,-20684($gp)
  417728:	24010007 	li	$at,7
  41772c:	14a1000a 	bne	$a1,$at,417758 <__uscasarenainit+0xdc>
  417730:	af85af34 	sw	$a1,-20684($gp)
  417734:	3c020042 	lui	$v0,0x42
  417738:	24429a78 	addiu	$v0,$v0,-25992
  41773c:	24190001 	li	$t9,1
  417740:	af82af0c 	sw	$v0,-20724($gp)
  417744:	af82af10 	sw	$v0,-20720($gp)
  417748:	af99af44 	sw	$t9,-20668($gp)
  41774c:	24080001 	li	$t0,1
  417750:	100001d9 	b	417eb8 <__uscasarenainit+0x83c>
  417754:	ae480000 	sw	$t0,0($s2)
  417758:	0c1041e0 	jal	410780 <getenv>
  41775c:	27848b10 	addiu	$a0,$gp,-29936
  417760:	10400006 	beqz	$v0,41777c <__uscasarenainit+0x100>
  417764:	24090006 	li	$t1,6
  417768:	240a0001 	li	$t2,1
  41776c:	240b0001 	li	$t3,1
  417770:	afa90100 	sw	$t1,256($sp)
  417774:	af8aaf30 	sw	$t2,-20688($gp)
  417778:	af8b8ab0 	sw	$t3,-30032($gp)
  41777c:	0c1041e0 	jal	410780 <getenv>
  417780:	27848b18 	addiu	$a0,$gp,-29928
  417784:	10400003 	beqz	$v0,417794 <__uscasarenainit+0x118>
  417788:	3c040042 	lui	$a0,0x42
  41778c:	240c0001 	li	$t4,1
  417790:	af8c8ab0 	sw	$t4,-30032($gp)
  417794:	0c1041e0 	jal	410780 <getenv>
  417798:	2484cfcc 	addiu	$a0,$a0,-12340
  41779c:	3c100042 	lui	$s0,0x42
  4177a0:	00401825 	move	$v1,$v0
  4177a4:	2610cfd8 	addiu	$s0,$s0,-12328
  4177a8:	241e0003 	li	$s8,3
  4177ac:	2417ffff 	li	$s7,-1
  4177b0:	27b60120 	addiu	$s6,$sp,288
  4177b4:	3c150020 	lui	$s5,0x20
  4177b8:	2414ffff 	li	$s4,-1
  4177bc:	27b3112c 	addiu	$s3,$sp,4396
  4177c0:	1060000d 	beqz	$v1,4177f8 <__uscasarenainit+0x17c>
  4177c4:	00000000 	nop
  4177c8:	906d0000 	lbu	$t5,0($v1)
  4177cc:	02602025 	move	$a0,$s3
  4177d0:	11a00009 	beqz	$t5,4177f8 <__uscasarenainit+0x17c>
  4177d4:	3c050042 	lui	$a1,0x42
  4177d8:	24a5cfe8 	addiu	$a1,$a1,-12312
  4177dc:	02003025 	move	$a2,$s0
  4177e0:	27878b20 	addiu	$a3,$gp,-29920
  4177e4:	afa30010 	sw	$v1,16($sp)
  4177e8:	0c103cf4 	jal	40f3d0 <sprintf>
  4177ec:	afa300f8 	sw	$v1,248($sp)
  4177f0:	10000009 	b	417818 <__uscasarenainit+0x19c>
  4177f4:	02602025 	move	$a0,$s3
  4177f8:	0c106020 	jal	418080 <_geteuid>
  4177fc:	afa300f8 	sw	$v1,248($sp)
  417800:	02602025 	move	$a0,$s3
  417804:	27858b24 	addiu	$a1,$gp,-29916
  417808:	02003025 	move	$a2,$s0
  41780c:	0c103cf4 	jal	40f3d0 <sprintf>
  417810:	00403825 	move	$a3,$v0
  417814:	02602025 	move	$a0,$s3
  417818:	0c10411c 	jal	410470 <_open>
  41781c:	24050002 	li	$a1,2
  417820:	1454002f 	bne	$v0,$s4,4178e0 <__uscasarenainit+0x264>
  417824:	00408825 	move	$s1,$v0
  417828:	3c040042 	lui	$a0,0x42
  41782c:	241001a0 	li	$s0,416
  417830:	0c1041e0 	jal	410780 <getenv>
  417834:	2484cff4 	addiu	$a0,$a0,-12300
  417838:	10400008 	beqz	$v0,41785c <__uscasarenainit+0x1e0>
  41783c:	00402025 	move	$a0,$v0
  417840:	904e0000 	lbu	$t6,0($v0)
  417844:	00002825 	move	$a1,$zero
  417848:	11c00004 	beqz	$t6,41785c <__uscasarenainit+0x1e0>
  41784c:	00000000 	nop
  417850:	0c1064f8 	jal	4193e0 <strtoul>
  417854:	00003025 	move	$a2,$zero
  417858:	00408025 	move	$s0,$v0
  41785c:	02602025 	move	$a0,$s3
  417860:	24050102 	li	$a1,258
  417864:	0c10411c 	jal	410470 <_open>
  417868:	02003025 	move	$a2,$s0
  41786c:	14540018 	bne	$v0,$s4,4178d0 <__uscasarenainit+0x254>
  417870:	00408825 	move	$s1,$v0
  417874:	8faf00f0 	lw	$t7,240($sp)
  417878:	24180001 	li	$t8,1
  41787c:	15e00005 	bnez	$t7,417894 <__uscasarenainit+0x218>
  417880:	3c100042 	lui	$s0,0x42
  417884:	8fa300f8 	lw	$v1,248($sp)
  417888:	afb800f0 	sw	$t8,240($sp)
  41788c:	1000ffcc 	b	4177c0 <__uscasarenainit+0x144>
  417890:	2610d008 	addiu	$s0,$s0,-12280
  417894:	0c102020 	jal	408080 <_oserror>
  417898:	00000000 	nop
  41789c:	8f998ab0 	lw	$t9,-30032($gp)
  4178a0:	afa20110 	sw	$v0,272($sp)
  4178a4:	13200005 	beqz	$t9,4178bc <__uscasarenainit+0x240>
  4178a8:	24040001 	li	$a0,1
  4178ac:	3c050042 	lui	$a1,0x42
  4178b0:	24a5d014 	addiu	$a1,$a1,-12268
  4178b4:	0c1050fc 	jal	4143f0 <_uprint>
  4178b8:	02603025 	move	$a2,$s3
  4178bc:	8fa40110 	lw	$a0,272($sp)
  4178c0:	0c102025 	jal	408094 <_setoserror>
  4178c4:	00000000 	nop
  4178c8:	10000179 	b	417eb0 <__uscasarenainit+0x834>
  4178cc:	00000000 	nop
  4178d0:	8fa8010c 	lw	$t0,268($sp)
  4178d4:	00000000 	nop
  4178d8:	25090001 	addiu	$t1,$t0,1
  4178dc:	afa9010c 	sw	$t1,268($sp)
  4178e0:	02202025 	move	$a0,$s1
  4178e4:	24050002 	li	$a1,2
  4178e8:	0c1040ec 	jal	4103b0 <_fcntl>
  4178ec:	24060001 	li	$a2,1
  4178f0:	00002025 	move	$a0,$zero
  4178f4:	0c105c2a 	jal	4170a8 <_usfsplock>
  4178f8:	02202825 	move	$a1,$s1
  4178fc:	1454000d 	bne	$v0,$s4,417934 <__uscasarenainit+0x2b8>
  417900:	02c02025 	move	$a0,$s6
  417904:	0c102020 	jal	408080 <_oserror>
  417908:	00000000 	nop
  41790c:	8f8a8ab0 	lw	$t2,-30032($gp)
  417910:	afa20110 	sw	$v0,272($sp)
  417914:	11400153 	beqz	$t2,417e64 <__uscasarenainit+0x7e8>
  417918:	24040001 	li	$a0,1
  41791c:	3c050042 	lui	$a1,0x42
  417920:	24a5d03c 	addiu	$a1,$a1,-12228
  417924:	0c1050fc 	jal	4143f0 <_uprint>
  417928:	02603025 	move	$a2,$s3
  41792c:	1000014e 	b	417e68 <__uscasarenainit+0x7ec>
  417930:	8faa010c 	lw	$t2,268($sp)
  417934:	0c1061c8 	jal	418720 <_blkclr>
  417938:	24051000 	li	$a1,4096
  41793c:	02202025 	move	$a0,$s1
  417940:	02c02825 	move	$a1,$s6
  417944:	0c10623c 	jal	4188f0 <_read>
  417948:	24061000 	li	$a2,4096
  41794c:	8fab0124 	lw	$t3,292($sp)
  417950:	3c01dead 	lui	$at,0xdead
  417954:	3421babe 	ori	$at,$at,0xbabe
  417958:	1561008d 	bne	$t3,$at,417b90 <__uscasarenainit+0x514>
  41795c:	00000000 	nop
  417960:	0c105d14 	jal	417450 <_getsystype+0x1c0>
  417964:	02202025 	move	$a0,$s1
  417968:	10400089 	beqz	$v0,417b90 <__uscasarenainit+0x514>
  41796c:	00000000 	nop
  417970:	8f8caf30 	lw	$t4,-20688($gp)
  417974:	00002025 	move	$a0,$zero
  417978:	11800005 	beqz	$t4,417990 <__uscasarenainit+0x314>
  41797c:	3c050042 	lui	$a1,0x42
  417980:	8ea60e00 	lw	$a2,3584($s5)
  417984:	24a5d068 	addiu	$a1,$a1,-12184
  417988:	0c1050fc 	jal	4143f0 <_uprint>
  41798c:	02603825 	move	$a3,$s3
  417990:	8fad0128 	lw	$t5,296($sp)
  417994:	24010004 	li	$at,4
  417998:	11a1000a 	beq	$t5,$at,4179c4 <__uscasarenainit+0x348>
  41799c:	00002025 	move	$a0,$zero
  4179a0:	8f8e8ab0 	lw	$t6,-30032($gp)
  4179a4:	00002025 	move	$a0,$zero
  4179a8:	11c00003 	beqz	$t6,4179b8 <__uscasarenainit+0x33c>
  4179ac:	3c050042 	lui	$a1,0x42
  4179b0:	0c1050fc 	jal	4143f0 <_uprint>
  4179b4:	24a5d094 	addiu	$a1,$a1,-12140
  4179b8:	240f0016 	li	$t7,22
  4179bc:	10000129 	b	417e64 <__uscasarenainit+0x7e8>
  4179c0:	afaf0110 	sw	$t7,272($sp)
  4179c4:	8fb8056c 	lw	$t8,1388($sp)
  4179c8:	24052000 	li	$a1,8192
  4179cc:	13d8000b 	beq	$s8,$t8,4179fc <__uscasarenainit+0x380>
  4179d0:	03c03025 	move	$a2,$s8
  4179d4:	8f998ab0 	lw	$t9,-30032($gp)
  4179d8:	00002025 	move	$a0,$zero
  4179dc:	13200004 	beqz	$t9,4179f0 <__uscasarenainit+0x374>
  4179e0:	3c050042 	lui	$a1,0x42
  4179e4:	24a5d0bc 	addiu	$a1,$a1,-12100
  4179e8:	0c1050fc 	jal	4143f0 <_uprint>
  4179ec:	02603025 	move	$a2,$s3
  4179f0:	24080016 	li	$t0,22
  4179f4:	1000011b 	b	417e64 <__uscasarenainit+0x7e8>
  4179f8:	afa80110 	sw	$t0,272($sp)
  4179fc:	24070001 	li	$a3,1
  417a00:	afb10010 	sw	$s1,16($sp)
  417a04:	0c104104 	jal	410410 <_mmap>
  417a08:	afa00014 	sw	$zero,20($sp)
  417a0c:	1457000c 	bne	$v0,$s7,417a40 <__uscasarenainit+0x3c4>
  417a10:	00408025 	move	$s0,$v0
  417a14:	0c102020 	jal	408080 <_oserror>
  417a18:	00000000 	nop
  417a1c:	8f898ab0 	lw	$t1,-30032($gp)
  417a20:	afa20110 	sw	$v0,272($sp)
  417a24:	1120010f 	beqz	$t1,417e64 <__uscasarenainit+0x7e8>
  417a28:	24040001 	li	$a0,1
  417a2c:	3c050042 	lui	$a1,0x42
  417a30:	0c1050fc 	jal	4143f0 <_uprint>
  417a34:	24a5d0e4 	addiu	$a1,$a1,-12060
  417a38:	1000010b 	b	417e68 <__uscasarenainit+0x7ec>
  417a3c:	8faa010c 	lw	$t2,268($sp)
  417a40:	8f85af34 	lw	$a1,-20684($gp)
  417a44:	03c02025 	move	$a0,$s8
  417a48:	14be0040 	bne	$a1,$s8,417b4c <__uscasarenainit+0x4d0>
  417a4c:	24010001 	li	$at,1
  417a50:	0c1030ac 	jal	40c2b0 <_ushardlocks_init>
  417a54:	af85af34 	sw	$a1,-20684($gp)
  417a58:	3c050042 	lui	$a1,0x42
  417a5c:	ae57000c 	sw	$s7,12($s2)
  417a60:	24a5db9c 	addiu	$a1,$a1,-9316
  417a64:	0c102d4f 	jal	40b53c <_ushardlock_attach>
  417a68:	26040454 	addiu	$a0,$s0,1108
  417a6c:	04410004 	bgez	$v0,417a80 <__uscasarenainit+0x404>
  417a70:	afa20114 	sw	$v0,276($sp)
  417a74:	0c102020 	jal	408080 <_oserror>
  417a78:	00000000 	nop
  417a7c:	afa20110 	sw	$v0,272($sp)
  417a80:	8faa0114 	lw	$t2,276($sp)
  417a84:	8e4e000c 	lw	$t6,12($s2)
  417a88:	ae4a0008 	sw	$t2,8($s2)
  417a8c:	8e0c0854 	lw	$t4,2132($s0)
  417a90:	8e0b0000 	lw	$t3,0($s0)
  417a94:	02202025 	move	$a0,$s1
  417a98:	016c6823 	subu	$t5,$t3,$t4
  417a9c:	01ae7821 	addu	$t7,$t5,$t6
  417aa0:	ae4f0010 	sw	$t7,16($s2)
  417aa4:	0c105d14 	jal	417450 <_getsystype+0x1c0>
  417aa8:	af8faf40 	sw	$t7,-20672($gp)
  417aac:	1440001f 	bnez	$v0,417b2c <__uscasarenainit+0x4b0>
  417ab0:	8fa90114 	lw	$t1,276($sp)
  417ab4:	8fb90114 	lw	$t9,276($sp)
  417ab8:	00000000 	nop
  417abc:	0720000a 	bltz	$t9,417ae8 <__uscasarenainit+0x46c>
  417ac0:	02002025 	move	$a0,$s0
  417ac4:	8e45000c 	lw	$a1,12($s2)
  417ac8:	8e460008 	lw	$a2,8($s2)
  417acc:	0c102dcb 	jal	40b72c <_ushardlock_detach>
  417ad0:	00002025 	move	$a0,$zero
  417ad4:	8fa40114 	lw	$a0,276($sp)
  417ad8:	0c101ae0 	jal	406b80 <_close>
  417adc:	00000000 	nop
  417ae0:	ae540008 	sw	$s4,8($s2)
  417ae4:	02002025 	move	$a0,$s0
  417ae8:	0c104110 	jal	410440 <_munmap>
  417aec:	24052000 	li	$a1,8192
  417af0:	00002025 	move	$a0,$zero
  417af4:	0c105c54 	jal	417150 <_usfunsplock>
  417af8:	02202825 	move	$a1,$s1
  417afc:	8f88af30 	lw	$t0,-20688($gp)
  417b00:	00002025 	move	$a0,$zero
  417b04:	11000004 	beqz	$t0,417b18 <__uscasarenainit+0x49c>
  417b08:	3c050042 	lui	$a1,0x42
  417b0c:	8ea60e00 	lw	$a2,3584($s5)
  417b10:	0c1050fc 	jal	4143f0 <_uprint>
  417b14:	24a5d108 	addiu	$a1,$a1,-12024
  417b18:	0c101ae0 	jal	406b80 <_close>
  417b1c:	02202025 	move	$a0,$s1
  417b20:	1000ff3d 	b	417818 <__uscasarenainit+0x19c>
  417b24:	02602025 	move	$a0,$s3
  417b28:	8fa90114 	lw	$t1,276($sp)
  417b2c:	02002025 	move	$a0,$s0
  417b30:	052100ac 	bgez	$t1,417de4 <__uscasarenainit+0x768>
  417b34:	00000000 	nop
  417b38:	0c104110 	jal	410440 <_munmap>
  417b3c:	24052000 	li	$a1,8192
  417b40:	100000c9 	b	417e68 <__uscasarenainit+0x7ec>
  417b44:	8faa010c 	lw	$t2,268($sp)
  417b48:	24010001 	li	$at,1
  417b4c:	14a10005 	bne	$a1,$at,417b64 <__uscasarenainit+0x4e8>
  417b50:	24040003 	li	$a0,3
  417b54:	0c102303 	jal	408c0c <_ussoftlocks_init>
  417b58:	af85af34 	sw	$a1,-20684($gp)
  417b5c:	100000a1 	b	417de4 <__uscasarenainit+0x768>
  417b60:	00000000 	nop
  417b64:	24010005 	li	$at,5
  417b68:	14a10005 	bne	$a1,$at,417b80 <__uscasarenainit+0x504>
  417b6c:	24040003 	li	$a0,3
  417b70:	0c105b0b 	jal	416c2c <_usr4klocks_init>
  417b74:	af85af34 	sw	$a1,-20684($gp)
  417b78:	1000009a 	b	417de4 <__uscasarenainit+0x768>
  417b7c:	00000000 	nop
  417b80:	0c104194 	jal	410650 <abort>
  417b84:	af85af34 	sw	$a1,-20684($gp)
  417b88:	10000096 	b	417de4 <__uscasarenainit+0x768>
  417b8c:	00000000 	nop
  417b90:	8f8aaf30 	lw	$t2,-20688($gp)
  417b94:	00002025 	move	$a0,$zero
  417b98:	11400005 	beqz	$t2,417bb0 <__uscasarenainit+0x534>
  417b9c:	3c050042 	lui	$a1,0x42
  417ba0:	8ea60e00 	lw	$a2,3584($s5)
  417ba4:	24a5d144 	addiu	$a1,$a1,-11964
  417ba8:	0c1050fc 	jal	4143f0 <_uprint>
  417bac:	02603825 	move	$a3,$s3
  417bb0:	8fab010c 	lw	$t3,268($sp)
  417bb4:	02202025 	move	$a0,$s1
  417bb8:	15600025 	bnez	$t3,417c50 <__uscasarenainit+0x5d4>
  417bbc:	00000000 	nop
  417bc0:	0c104154 	jal	410550 <_fstat>
  417bc4:	27a50060 	addiu	$a1,$sp,96
  417bc8:	0c106020 	jal	418080 <_geteuid>
  417bcc:	00000000 	nop
  417bd0:	8fac007c 	lw	$t4,124($sp)
  417bd4:	8f8daf30 	lw	$t5,-20688($gp)
  417bd8:	104c001d 	beq	$v0,$t4,417c50 <__uscasarenainit+0x5d4>
  417bdc:	00002025 	move	$a0,$zero
  417be0:	11a00005 	beqz	$t5,417bf8 <__uscasarenainit+0x57c>
  417be4:	3c050042 	lui	$a1,0x42
  417be8:	8ea60e00 	lw	$a2,3584($s5)
  417bec:	24a5d16c 	addiu	$a1,$a1,-11924
  417bf0:	0c1050fc 	jal	4143f0 <_uprint>
  417bf4:	02603825 	move	$a3,$s3
  417bf8:	0c106248 	jal	418920 <_unlink>
  417bfc:	02602025 	move	$a0,$s3
  417c00:	1040000d 	beqz	$v0,417c38 <__uscasarenainit+0x5bc>
  417c04:	00002025 	move	$a0,$zero
  417c08:	8f8e8ab0 	lw	$t6,-30032($gp)
  417c0c:	24040001 	li	$a0,1
  417c10:	11c00004 	beqz	$t6,417c24 <__uscasarenainit+0x5a8>
  417c14:	3c050042 	lui	$a1,0x42
  417c18:	24a5d1b8 	addiu	$a1,$a1,-11848
  417c1c:	0c1050fc 	jal	4143f0 <_uprint>
  417c20:	02603025 	move	$a2,$s3
  417c24:	0c10202d 	jal	4080b4 <__oserror>
  417c28:	00000000 	nop
  417c2c:	8c4f0000 	lw	$t7,0($v0)
  417c30:	1000008c 	b	417e64 <__uscasarenainit+0x7e8>
  417c34:	afaf0110 	sw	$t7,272($sp)
  417c38:	0c105c54 	jal	417150 <_usfunsplock>
  417c3c:	02202825 	move	$a1,$s1
  417c40:	0c101ae0 	jal	406b80 <_close>
  417c44:	02202025 	move	$a0,$s1
  417c48:	1000fef3 	b	417818 <__uscasarenainit+0x19c>
  417c4c:	02602025 	move	$a0,$s3
  417c50:	8f85af34 	lw	$a1,-20684($gp)
  417c54:	3c040042 	lui	$a0,0x42
  417c58:	14be0021 	bne	$a1,$s8,417ce0 <__uscasarenainit+0x664>
  417c5c:	24010001 	li	$at,1
  417c60:	2484d1ec 	addiu	$a0,$a0,-11796
  417c64:	0c10411c 	jal	410470 <_open>
  417c68:	24050002 	li	$a1,2
  417c6c:	0441000c 	bgez	$v0,417ca0 <__uscasarenainit+0x624>
  417c70:	afa20114 	sw	$v0,276($sp)
  417c74:	8f988ab0 	lw	$t8,-30032($gp)
  417c78:	24040001 	li	$a0,1
  417c7c:	13000003 	beqz	$t8,417c8c <__uscasarenainit+0x610>
  417c80:	3c050042 	lui	$a1,0x42
  417c84:	0c1050fc 	jal	4143f0 <_uprint>
  417c88:	24a5d200 	addiu	$a1,$a1,-11776
  417c8c:	0c10202d 	jal	4080b4 <__oserror>
  417c90:	00000000 	nop
  417c94:	8c590000 	lw	$t9,0($v0)
  417c98:	10000072 	b	417e64 <__uscasarenainit+0x7e8>
  417c9c:	afb90110 	sw	$t9,272($sp)
  417ca0:	8fa40114 	lw	$a0,276($sp)
  417ca4:	24050002 	li	$a1,2
  417ca8:	0c1040ec 	jal	4103b0 <_fcntl>
  417cac:	24060001 	li	$a2,1
  417cb0:	8f85af34 	lw	$a1,-20684($gp)
  417cb4:	0c1030ac 	jal	40c2b0 <_ushardlocks_init>
  417cb8:	24040003 	li	$a0,3
  417cbc:	8f88af30 	lw	$t0,-20688($gp)
  417cc0:	00002025 	move	$a0,$zero
  417cc4:	11000023 	beqz	$t0,417d54 <__uscasarenainit+0x6d8>
  417cc8:	3c050042 	lui	$a1,0x42
  417ccc:	8ea60e00 	lw	$a2,3584($s5)
  417cd0:	0c1050fc 	jal	4143f0 <_uprint>
  417cd4:	24a5d234 	addiu	$a1,$a1,-11724
  417cd8:	1000001f 	b	417d58 <__uscasarenainit+0x6dc>
  417cdc:	8fa50114 	lw	$a1,276($sp)
  417ce0:	14a1000c 	bne	$a1,$at,417d14 <__uscasarenainit+0x698>
  417ce4:	24040003 	li	$a0,3
  417ce8:	0c102303 	jal	408c0c <_ussoftlocks_init>
  417cec:	af85af34 	sw	$a1,-20684($gp)
  417cf0:	8f89af30 	lw	$t1,-20688($gp)
  417cf4:	00002025 	move	$a0,$zero
  417cf8:	11200016 	beqz	$t1,417d54 <__uscasarenainit+0x6d8>
  417cfc:	3c050042 	lui	$a1,0x42
  417d00:	8ea60e00 	lw	$a2,3584($s5)
  417d04:	0c1050fc 	jal	4143f0 <_uprint>
  417d08:	24a5d264 	addiu	$a1,$a1,-11676
  417d0c:	10000012 	b	417d58 <__uscasarenainit+0x6dc>
  417d10:	8fa50114 	lw	$a1,276($sp)
  417d14:	24010005 	li	$at,5
  417d18:	14a1000c 	bne	$a1,$at,417d4c <__uscasarenainit+0x6d0>
  417d1c:	24040003 	li	$a0,3
  417d20:	0c105b0b 	jal	416c2c <_usr4klocks_init>
  417d24:	af85af34 	sw	$a1,-20684($gp)
  417d28:	8f8aaf30 	lw	$t2,-20688($gp)
  417d2c:	00002025 	move	$a0,$zero
  417d30:	11400008 	beqz	$t2,417d54 <__uscasarenainit+0x6d8>
  417d34:	3c050042 	lui	$a1,0x42
  417d38:	8ea60e00 	lw	$a2,3584($s5)
  417d3c:	0c1050fc 	jal	4143f0 <_uprint>
  417d40:	24a5d294 	addiu	$a1,$a1,-11628
  417d44:	10000004 	b	417d58 <__uscasarenainit+0x6dc>
  417d48:	8fa50114 	lw	$a1,276($sp)
  417d4c:	0c104194 	jal	410650 <abort>
  417d50:	af85af34 	sw	$a1,-20684($gp)
  417d54:	8fa50114 	lw	$a1,276($sp)
  417d58:	8fa60100 	lw	$a2,256($sp)
  417d5c:	240b0003 	li	$t3,3
  417d60:	240cffff 	li	$t4,-1
  417d64:	afac0020 	sw	$t4,32($sp)
  417d68:	afab0010 	sw	$t3,16($sp)
  417d6c:	02202025 	move	$a0,$s1
  417d70:	24072000 	li	$a3,8192
  417d74:	afa00014 	sw	$zero,20($sp)
  417d78:	afa00018 	sw	$zero,24($sp)
  417d7c:	0c104b50 	jal	412d40 <_usinit_mapfile>
  417d80:	afa0001c 	sw	$zero,28($sp)
  417d84:	14400008 	bnez	$v0,417da8 <__uscasarenainit+0x72c>
  417d88:	00408025 	move	$s0,$v0
  417d8c:	0c102020 	jal	408080 <_oserror>
  417d90:	00000000 	nop
  417d94:	8fad010c 	lw	$t5,268($sp)
  417d98:	afa20110 	sw	$v0,272($sp)
  417d9c:	25ae0001 	addiu	$t6,$t5,1
  417da0:	10000030 	b	417e64 <__uscasarenainit+0x7e8>
  417da4:	afae010c 	sw	$t6,268($sp)
  417da8:	8faf0114 	lw	$t7,276($sp)
  417dac:	2604001c 	addiu	$a0,$s0,28
  417db0:	ae4f0008 	sw	$t7,8($s2)
  417db4:	8e180854 	lw	$t8,2132($s0)
  417db8:	02602825 	move	$a1,$s3
  417dbc:	ae58000c 	sw	$t8,12($s2)
  417dc0:	8e190000 	lw	$t9,0($s0)
  417dc4:	00000000 	nop
  417dc8:	ae590010 	sw	$t9,16($s2)
  417dcc:	0c101aa4 	jal	406a90 <strcpy>
  417dd0:	af99af40 	sw	$t9,-20672($gp)
  417dd4:	02002025 	move	$a0,$s0
  417dd8:	24050a78 	li	$a1,2680
  417ddc:	0c106230 	jal	4188c0 <_msync>
  417de0:	24060002 	li	$a2,2
  417de4:	8f84af34 	lw	$a0,-20684($gp)
  417de8:	0c105bb0 	jal	416ec0 <_syncinit>
  417dec:	00000000 	nop
  417df0:	24040001 	li	$a0,1
  417df4:	0c105c00 	jal	417000 <_usfreadlock>
  417df8:	02202825 	move	$a1,$s1
  417dfc:	14540009 	bne	$v0,$s4,417e24 <__uscasarenainit+0x7a8>
  417e00:	00002025 	move	$a0,$zero
  417e04:	0c102020 	jal	408080 <_oserror>
  417e08:	00000000 	nop
  417e0c:	afa20110 	sw	$v0,272($sp)
  417e10:	02002025 	move	$a0,$s0
  417e14:	0c104110 	jal	410440 <_munmap>
  417e18:	24052000 	li	$a1,8192
  417e1c:	10000012 	b	417e68 <__uscasarenainit+0x7ec>
  417e20:	8faa010c 	lw	$t2,268($sp)
  417e24:	af90af44 	sw	$s0,-20668($gp)
  417e28:	ae500000 	sw	$s0,0($s2)
  417e2c:	ae510004 	sw	$s1,4($s2)
  417e30:	0c105c54 	jal	417150 <_usfunsplock>
  417e34:	02202825 	move	$a1,$s1
  417e38:	8f89af30 	lw	$t1,-20688($gp)
  417e3c:	00002025 	move	$a0,$zero
  417e40:	1120001d 	beqz	$t1,417eb8 <__uscasarenainit+0x83c>
  417e44:	3c050042 	lui	$a1,0x42
  417e48:	8ea60e00 	lw	$a2,3584($s5)
  417e4c:	afb00010 	sw	$s0,16($sp)
  417e50:	24a5d2c8 	addiu	$a1,$a1,-11576
  417e54:	0c1050fc 	jal	4143f0 <_uprint>
  417e58:	02603825 	move	$a3,$s3
  417e5c:	10000017 	b	417ebc <__uscasarenainit+0x840>
  417e60:	8fbf0054 	lw	$ra,84($sp)
  417e64:	8faa010c 	lw	$t2,268($sp)
  417e68:	00000000 	nop
  417e6c:	11400004 	beqz	$t2,417e80 <__uscasarenainit+0x804>
  417e70:	8fa40114 	lw	$a0,276($sp)
  417e74:	0c106248 	jal	418920 <_unlink>
  417e78:	02602025 	move	$a0,$s3
  417e7c:	8fa40114 	lw	$a0,276($sp)
  417e80:	00000000 	nop
  417e84:	04800003 	bltz	$a0,417e94 <__uscasarenainit+0x818>
  417e88:	00000000 	nop
  417e8c:	0c101ae0 	jal	406b80 <_close>
  417e90:	00000000 	nop
  417e94:	06200004 	bltz	$s1,417ea8 <__uscasarenainit+0x82c>
  417e98:	8fa40110 	lw	$a0,272($sp)
  417e9c:	0c101ae0 	jal	406b80 <_close>
  417ea0:	02202025 	move	$a0,$s1
  417ea4:	8fa40110 	lw	$a0,272($sp)
  417ea8:	0c102025 	jal	408094 <_setoserror>
  417eac:	00000000 	nop
  417eb0:	0c104194 	jal	410650 <abort>
  417eb4:	00000000 	nop
  417eb8:	8fbf0054 	lw	$ra,84($sp)
  417ebc:	8fb00030 	lw	$s0,48($sp)
  417ec0:	8fb10034 	lw	$s1,52($sp)
  417ec4:	8fb20038 	lw	$s2,56($sp)
  417ec8:	8fb3003c 	lw	$s3,60($sp)
  417ecc:	8fb40040 	lw	$s4,64($sp)
  417ed0:	8fb50044 	lw	$s5,68($sp)
  417ed4:	8fb60048 	lw	$s6,72($sp)
  417ed8:	8fb7004c 	lw	$s7,76($sp)
  417edc:	8fbe0050 	lw	$s8,80($sp)
  417ee0:	03e00008 	jr	$ra
  417ee4:	27bd1148 	addiu	$sp,$sp,4424

00417ee8 <__uscas_rldinit>:
  417ee8:	3c020042 	lui	$v0,0x42
  417eec:	8c42db94 	lw	$v0,-9324($v0)
  417ef0:	27bdffe8 	addiu	$sp,$sp,-24
  417ef4:	2401ffff 	li	$at,-1
  417ef8:	10410009 	beq	$v0,$at,417f20 <__uscas_rldinit+0x38>
  417efc:	afbf0014 	sw	$ra,20($sp)
  417f00:	8c8e0004 	lw	$t6,4($a0)
  417f04:	00000000 	nop
  417f08:	104e0005 	beq	$v0,$t6,417f20 <__uscas_rldinit+0x38>
  417f0c:	00000000 	nop
  417f10:	0c104194 	jal	410650 <abort>
  417f14:	afa40018 	sw	$a0,24($sp)
  417f18:	8fa40018 	lw	$a0,24($sp)
  417f1c:	00000000 	nop
  417f20:	8c810000 	lw	$at,0($a0)
  417f24:	3c0f0042 	lui	$t7,0x42
  417f28:	25efdb90 	addiu	$t7,$t7,-9328
  417f2c:	ade10000 	sw	$at,0($t7)
  417f30:	8c880004 	lw	$t0,4($a0)
  417f34:	00000000 	nop
  417f38:	ade80004 	sw	$t0,4($t7)
  417f3c:	8c810008 	lw	$at,8($a0)
  417f40:	00000000 	nop
  417f44:	ade10008 	sw	$at,8($t7)
  417f48:	8c88000c 	lw	$t0,12($a0)
  417f4c:	00000000 	nop
  417f50:	ade8000c 	sw	$t0,12($t7)
  417f54:	8c810010 	lw	$at,16($a0)
  417f58:	00000000 	nop
  417f5c:	ade10010 	sw	$at,16($t7)
  417f60:	8c880014 	lw	$t0,20($a0)
  417f64:	24010003 	li	$at,3
  417f68:	ade80014 	sw	$t0,20($t7)
  417f6c:	8c890000 	lw	$t1,0($a0)
  417f70:	00000000 	nop
  417f74:	af89af44 	sw	$t1,-20668($gp)
  417f78:	8c8a0010 	lw	$t2,16($a0)
  417f7c:	00000000 	nop
  417f80:	af8aaf40 	sw	$t2,-20672($gp)
  417f84:	8c8b0014 	lw	$t3,20($a0)
  417f88:	24040003 	li	$a0,3
  417f8c:	15610005 	bne	$t3,$at,417fa4 <__uscas_rldinit+0xbc>
  417f90:	af8baf34 	sw	$t3,-20684($gp)
  417f94:	0c1030ac 	jal	40c2b0 <_ushardlocks_init>
  417f98:	01602825 	move	$a1,$t3
  417f9c:	1000001c 	b	418010 <__uscas_rldinit+0x128>
  417fa0:	8fbf0014 	lw	$ra,20($sp)
  417fa4:	8f85af34 	lw	$a1,-20684($gp)
  417fa8:	24010001 	li	$at,1
  417fac:	14a10006 	bne	$a1,$at,417fc8 <__uscas_rldinit+0xe0>
  417fb0:	24010002 	li	$at,2
  417fb4:	0c102303 	jal	408c0c <_ussoftlocks_init>
  417fb8:	24040003 	li	$a0,3
  417fbc:	10000014 	b	418010 <__uscas_rldinit+0x128>
  417fc0:	8fbf0014 	lw	$ra,20($sp)
  417fc4:	24010002 	li	$at,2
  417fc8:	10a10007 	beq	$a1,$at,417fe8 <__uscas_rldinit+0x100>
  417fcc:	3c020042 	lui	$v0,0x42
  417fd0:	24010004 	li	$at,4
  417fd4:	10a10004 	beq	$a1,$at,417fe8 <__uscas_rldinit+0x100>
  417fd8:	24010006 	li	$at,6
  417fdc:	10a10002 	beq	$a1,$at,417fe8 <__uscas_rldinit+0x100>
  417fe0:	24010007 	li	$at,7
  417fe4:	14a10004 	bne	$a1,$at,417ff8 <__uscas_rldinit+0x110>
  417fe8:	24429a78 	addiu	$v0,$v0,-25992
  417fec:	af82af0c 	sw	$v0,-20724($gp)
  417ff0:	10000006 	b	41800c <__uscas_rldinit+0x124>
  417ff4:	af82af10 	sw	$v0,-20720($gp)
  417ff8:	24010005 	li	$at,5
  417ffc:	14a10004 	bne	$a1,$at,418010 <__uscas_rldinit+0x128>
  418000:	8fbf0014 	lw	$ra,20($sp)
  418004:	0c105b0b 	jal	416c2c <_usr4klocks_init>
  418008:	24040003 	li	$a0,3
  41800c:	8fbf0014 	lw	$ra,20($sp)
  418010:	27bd0018 	addiu	$sp,$sp,24
  418014:	03e00008 	jr	$ra
	...

00418020 <_vsprintf>:
  418020:	27bdffd0 	addiu	$sp,$sp,-48
  418024:	afa40020 	sw	$a0,32($sp)
  418028:	afa40024 	sw	$a0,36($sp)
  41802c:	afa50034 	sw	$a1,52($sp)
  418030:	3c0e7fff 	lui	$t6,0x7fff
  418034:	00a02025 	move	$a0,$a1
  418038:	afbf0014 	sw	$ra,20($sp)
  41803c:	afa60038 	sw	$a2,56($sp)
  418040:	35ceffff 	ori	$t6,$t6,0xffff
  418044:	240f0001 	li	$t7,1
  418048:	00c02825 	move	$a1,$a2
  41804c:	afae001c 	sw	$t6,28($sp)
  418050:	a3af0028 	sb	$t7,40($sp)
  418054:	0c1031e7 	jal	40c79c <_doprnt>
  418058:	27a6001c 	addiu	$a2,$sp,28
  41805c:	8fb80020 	lw	$t8,32($sp)
  418060:	00000000 	nop
  418064:	a3000000 	sb	$zero,0($t8)
  418068:	8fbf0014 	lw	$ra,20($sp)
  41806c:	27bd0030 	addiu	$sp,$sp,48
  418070:	03e00008 	jr	$ra
	...

00418080 <_geteuid>:
  418080:	24020400 	li	$v0,1024
  418084:	0000000c 	syscall
  418088:	14e00004 	bnez	$a3,41809c <_geteuid+0x1c>
  41808c:	00000000 	nop
  418090:	00601025 	move	$v0,$v1
  418094:	03e00008 	jr	$ra
  418098:	00000000 	nop
  41809c:	3c190040 	lui	$t9,0x40
  4180a0:	27396b60 	addiu	$t9,$t9,27488
  4180a4:	03200008 	jr	$t9
	...

004180b0 <_sigprocmask>:
  4180b0:	2402048c 	li	$v0,1164
  4180b4:	0000000c 	syscall
  4180b8:	14e00003 	bnez	$a3,4180c8 <_sigprocmask+0x18>
  4180bc:	00000000 	nop
  4180c0:	03e00008 	jr	$ra
  4180c4:	00000000 	nop
  4180c8:	3c190040 	lui	$t9,0x40
  4180cc:	27396b60 	addiu	$t9,$t9,27488
  4180d0:	03200008 	jr	$t9
	...

004180e0 <raise>:
  4180e0:	27bdffe8 	addiu	$sp,$sp,-24
  4180e4:	afbf0014 	sw	$ra,20($sp)
  4180e8:	0c106738 	jal	419ce0 <_getpid>
  4180ec:	afa40018 	sw	$a0,24($sp)
  4180f0:	8fa50018 	lw	$a1,24($sp)
  4180f4:	0c106744 	jal	419d10 <_kill>
  4180f8:	00402025 	move	$a0,$v0
  4180fc:	8fbf0014 	lw	$ra,20($sp)
  418100:	27bd0018 	addiu	$sp,$sp,24
  418104:	03e00008 	jr	$ra
	...
  418110:	27bdffe8 	addiu	$sp,$sp,-24
  418114:	afbf0014 	sw	$ra,20($sp)
  418118:	18800004 	blez	$a0,41812c <raise+0x4c>
  41811c:	00802825 	move	$a1,$a0
  418120:	2c810081 	sltiu	$at,$a0,129
  418124:	14200003 	bnez	$at,418134 <raise+0x54>
  418128:	00000000 	nop
  41812c:	1000001e 	b	4181a8 <raise+0xc8>
  418130:	00001025 	move	$v0,$zero
  418134:	8f8e8b30 	lw	$t6,-29904($gp)
  418138:	3c040042 	lui	$a0,0x42
  41813c:	15c00007 	bnez	$t6,41815c <raise+0x7c>
  418140:	2484dbb0 	addiu	$a0,$a0,-9296
  418144:	0c10675c 	jal	419d70 <__sigfillset>
  418148:	afa50018 	sw	$a1,24($sp)
  41814c:	8f8f8b30 	lw	$t7,-29904($gp)
  418150:	8fa50018 	lw	$a1,24($sp)
  418154:	25f80001 	addiu	$t8,$t7,1
  418158:	af988b30 	sw	$t8,-29904($gp)
  41815c:	24a3ffff 	addiu	$v1,$a1,-1
  418160:	04610003 	bgez	$v1,418170 <raise+0x90>
  418164:	0003c943 	sra	$t9,$v1,0x5
  418168:	2461001f 	addiu	$at,$v1,31
  41816c:	0001c943 	sra	$t9,$at,0x5
  418170:	00194080 	sll	$t0,$t9,0x2
  418174:	3c090042 	lui	$t1,0x42
  418178:	01284821 	addu	$t1,$t1,$t0
  41817c:	8d29dbb0 	lw	$t1,-9296($t1)
  418180:	04610004 	bgez	$v1,418194 <raise+0xb4>
  418184:	306a001f 	andi	$t2,$v1,0x1f
  418188:	11400002 	beqz	$t2,418194 <raise+0xb4>
  41818c:	00000000 	nop
  418190:	254affe0 	addiu	$t2,$t2,-32
  418194:	240b0001 	li	$t3,1
  418198:	014b6004 	sllv	$t4,$t3,$t2
  41819c:	012c1024 	and	$v0,$t1,$t4
  4181a0:	0002682b 	sltu	$t5,$zero,$v0
  4181a4:	01a01025 	move	$v0,$t5
  4181a8:	8fbf0014 	lw	$ra,20($sp)
  4181ac:	27bd0018 	addiu	$sp,$sp,24
  4181b0:	03e00008 	jr	$ra
  4181b4:	00000000 	nop

004181b8 <_sigfillset>:
  4181b8:	8f8e8b30 	lw	$t6,-29904($gp)
  4181bc:	27bdffe8 	addiu	$sp,$sp,-24
  4181c0:	afbf0014 	sw	$ra,20($sp)
  4181c4:	15c00008 	bnez	$t6,4181e8 <_sigfillset+0x30>
  4181c8:	afa40018 	sw	$a0,24($sp)
  4181cc:	3c040042 	lui	$a0,0x42
  4181d0:	0c10675c 	jal	419d70 <__sigfillset>
  4181d4:	2484dbb0 	addiu	$a0,$a0,-9296
  4181d8:	8f8f8b30 	lw	$t7,-29904($gp)
  4181dc:	00000000 	nop
  4181e0:	25f80001 	addiu	$t8,$t7,1
  4181e4:	af988b30 	sw	$t8,-29904($gp)
  4181e8:	3c080042 	lui	$t0,0x42
  4181ec:	2508dbb0 	addiu	$t0,$t0,-9296
  4181f0:	8d010000 	lw	$at,0($t0)
  4181f4:	8fb90018 	lw	$t9,24($sp)
  4181f8:	00001025 	move	$v0,$zero
  4181fc:	af210000 	sw	$at,0($t9)
  418200:	8d0b0004 	lw	$t3,4($t0)
  418204:	00000000 	nop
  418208:	af2b0004 	sw	$t3,4($t9)
  41820c:	8d010008 	lw	$at,8($t0)
  418210:	00000000 	nop
  418214:	af210008 	sw	$at,8($t9)
  418218:	8d0b000c 	lw	$t3,12($t0)
  41821c:	00000000 	nop
  418220:	af2b000c 	sw	$t3,12($t9)
  418224:	8fbf0014 	lw	$ra,20($sp)
  418228:	27bd0018 	addiu	$sp,$sp,24
  41822c:	03e00008 	jr	$ra
  418230:	00000000 	nop

00418234 <_sigemptyset>:
  418234:	ac800000 	sw	$zero,0($a0)
  418238:	ac800004 	sw	$zero,4($a0)
  41823c:	ac800008 	sw	$zero,8($a0)
  418240:	ac80000c 	sw	$zero,12($a0)
  418244:	03e00008 	jr	$ra
  418248:	00001025 	move	$v0,$zero

0041824c <_sigaddset>:
  41824c:	27bdffe8 	addiu	$sp,$sp,-24
  418250:	afbf0014 	sw	$ra,20($sp)
  418254:	afa40018 	sw	$a0,24($sp)
  418258:	afa5001c 	sw	$a1,28($sp)
  41825c:	0c106044 	jal	418110 <raise+0x30>
  418260:	00a02025 	move	$a0,$a1
  418264:	14400005 	bnez	$v0,41827c <_sigaddset+0x30>
  418268:	24090001 	li	$t1,1
  41826c:	0c102025 	jal	408094 <_setoserror>
  418270:	24040016 	li	$a0,22
  418274:	10000014 	b	4182c8 <_sigaddset+0x7c>
  418278:	2402ffff 	li	$v0,-1
  41827c:	8fa3001c 	lw	$v1,28($sp)
  418280:	8fae0018 	lw	$t6,24($sp)
  418284:	2463ffff 	addiu	$v1,$v1,-1
  418288:	04610003 	bgez	$v1,418298 <_sigaddset+0x4c>
  41828c:	00037943 	sra	$t7,$v1,0x5
  418290:	2461001f 	addiu	$at,$v1,31
  418294:	00017943 	sra	$t7,$at,0x5
  418298:	000fc080 	sll	$t8,$t7,0x2
  41829c:	01d82021 	addu	$a0,$t6,$t8
  4182a0:	8c990000 	lw	$t9,0($a0)
  4182a4:	04610004 	bgez	$v1,4182b8 <_sigaddset+0x6c>
  4182a8:	3068001f 	andi	$t0,$v1,0x1f
  4182ac:	11000002 	beqz	$t0,4182b8 <_sigaddset+0x6c>
  4182b0:	00000000 	nop
  4182b4:	2508ffe0 	addiu	$t0,$t0,-32
  4182b8:	01095004 	sllv	$t2,$t1,$t0
  4182bc:	032a5825 	or	$t3,$t9,$t2
  4182c0:	ac8b0000 	sw	$t3,0($a0)
  4182c4:	00001025 	move	$v0,$zero
  4182c8:	8fbf0014 	lw	$ra,20($sp)
  4182cc:	27bd0018 	addiu	$sp,$sp,24
  4182d0:	03e00008 	jr	$ra
  4182d4:	00000000 	nop

004182d8 <_sigdelset>:
  4182d8:	27bdffe8 	addiu	$sp,$sp,-24
  4182dc:	afbf0014 	sw	$ra,20($sp)
  4182e0:	afa40018 	sw	$a0,24($sp)
  4182e4:	afa5001c 	sw	$a1,28($sp)
  4182e8:	0c106044 	jal	418110 <raise+0x30>
  4182ec:	00a02025 	move	$a0,$a1
  4182f0:	14400005 	bnez	$v0,418308 <_sigdelset+0x30>
  4182f4:	24090001 	li	$t1,1
  4182f8:	0c102025 	jal	408094 <_setoserror>
  4182fc:	24040016 	li	$a0,22
  418300:	10000015 	b	418358 <_sigdelset+0x80>
  418304:	2402ffff 	li	$v0,-1
  418308:	8fa3001c 	lw	$v1,28($sp)
  41830c:	8fae0018 	lw	$t6,24($sp)
  418310:	2463ffff 	addiu	$v1,$v1,-1
  418314:	04610003 	bgez	$v1,418324 <_sigdelset+0x4c>
  418318:	00037943 	sra	$t7,$v1,0x5
  41831c:	2461001f 	addiu	$at,$v1,31
  418320:	00017943 	sra	$t7,$at,0x5
  418324:	000fc080 	sll	$t8,$t7,0x2
  418328:	01d82021 	addu	$a0,$t6,$t8
  41832c:	8c990000 	lw	$t9,0($a0)
  418330:	04610004 	bgez	$v1,418344 <_sigdelset+0x6c>
  418334:	3068001f 	andi	$t0,$v1,0x1f
  418338:	11000002 	beqz	$t0,418344 <_sigdelset+0x6c>
  41833c:	00000000 	nop
  418340:	2508ffe0 	addiu	$t0,$t0,-32
  418344:	01095004 	sllv	$t2,$t1,$t0
  418348:	01405827 	nor	$t3,$t2,$zero
  41834c:	032b6024 	and	$t4,$t9,$t3
  418350:	ac8c0000 	sw	$t4,0($a0)
  418354:	00001025 	move	$v0,$zero
  418358:	8fbf0014 	lw	$ra,20($sp)
  41835c:	27bd0018 	addiu	$sp,$sp,24
  418360:	03e00008 	jr	$ra
  418364:	00000000 	nop

00418368 <_sigismember>:
  418368:	27bdffe8 	addiu	$sp,$sp,-24
  41836c:	afbf0014 	sw	$ra,20($sp)
  418370:	afa40018 	sw	$a0,24($sp)
  418374:	afa5001c 	sw	$a1,28($sp)
  418378:	0c106044 	jal	418110 <raise+0x30>
  41837c:	00a02025 	move	$a0,$a1
  418380:	14400005 	bnez	$v0,418398 <_sigismember+0x30>
  418384:	240a0001 	li	$t2,1
  418388:	0c102025 	jal	408094 <_setoserror>
  41838c:	24040016 	li	$a0,22
  418390:	10000014 	b	4183e4 <_sigismember+0x7c>
  418394:	2402ffff 	li	$v0,-1
  418398:	8fa3001c 	lw	$v1,28($sp)
  41839c:	8fae0018 	lw	$t6,24($sp)
  4183a0:	2463ffff 	addiu	$v1,$v1,-1
  4183a4:	04610003 	bgez	$v1,4183b4 <_sigismember+0x4c>
  4183a8:	00037943 	sra	$t7,$v1,0x5
  4183ac:	2461001f 	addiu	$at,$v1,31
  4183b0:	00017943 	sra	$t7,$at,0x5
  4183b4:	000fc080 	sll	$t8,$t7,0x2
  4183b8:	01d8c821 	addu	$t9,$t6,$t8
  4183bc:	8f280000 	lw	$t0,0($t9)
  4183c0:	04610004 	bgez	$v1,4183d4 <_sigismember+0x6c>
  4183c4:	3069001f 	andi	$t1,$v1,0x1f
  4183c8:	11200002 	beqz	$t1,4183d4 <_sigismember+0x6c>
  4183cc:	00000000 	nop
  4183d0:	2529ffe0 	addiu	$t1,$t1,-32
  4183d4:	012a5804 	sllv	$t3,$t2,$t1
  4183d8:	010b1024 	and	$v0,$t0,$t3
  4183dc:	0002602b 	sltu	$t4,$zero,$v0
  4183e0:	01801025 	move	$v0,$t4
  4183e4:	8fbf0014 	lw	$ra,20($sp)
  4183e8:	27bd0018 	addiu	$sp,$sp,24
  4183ec:	03e00008 	jr	$ra
	...

00418400 <signal>:
  418400:	27bdff98 	addiu	$sp,$sp,-104
  418404:	3c0e0042 	lui	$t6,0x42
  418408:	afbf0014 	sw	$ra,20($sp)
  41840c:	afa5006c 	sw	$a1,108($sp)
  418410:	25cedbc0 	addiu	$t6,$t6,-9280
  418414:	8dc10000 	lw	$at,0($t6)
  418418:	27a60018 	addiu	$a2,$sp,24
  41841c:	acc10000 	sw	$at,0($a2)
  418420:	8dd90004 	lw	$t9,4($t6)
  418424:	00803825 	move	$a3,$a0
  418428:	acd90004 	sw	$t9,4($a2)
  41842c:	8dc10008 	lw	$at,8($t6)
  418430:	00000000 	nop
  418434:	acc10008 	sw	$at,8($a2)
  418438:	8dd9000c 	lw	$t9,12($t6)
  41843c:	1880000a 	blez	$a0,418468 <signal+0x68>
  418440:	acd9000c 	sw	$t9,12($a2)
  418444:	28810041 	slti	$at,$a0,65
  418448:	10200007 	beqz	$at,418468 <signal+0x68>
  41844c:	00c02025 	move	$a0,$a2
  418450:	00e02825 	move	$a1,$a3
  418454:	0c1060da 	jal	418368 <_sigismember>
  418458:	afa70068 	sw	$a3,104($sp)
  41845c:	8fa70068 	lw	$a3,104($sp)
  418460:	10400005 	beqz	$v0,418478 <signal+0x78>
  418464:	24080012 	li	$t0,18
  418468:	0c102025 	jal	408094 <_setoserror>
  41846c:	24040016 	li	$a0,22
  418470:	1000000e 	b	4184ac <signal+0xac>
  418474:	2402ffff 	li	$v0,-1
  418478:	8fa9006c 	lw	$t1,108($sp)
  41847c:	afa80048 	sw	$t0,72($sp)
  418480:	00e02025 	move	$a0,$a3
  418484:	27a50048 	addiu	$a1,$sp,72
  418488:	27a60028 	addiu	$a2,$sp,40
  41848c:	0c106130 	jal	4184c0 <_ssig>
  418490:	afa9004c 	sw	$t1,76($sp)
  418494:	10400004 	beqz	$v0,4184a8 <signal+0xa8>
  418498:	8fa2002c 	lw	$v0,44($sp)
  41849c:	10000003 	b	4184ac <signal+0xac>
  4184a0:	2402ffff 	li	$v0,-1
  4184a4:	8fa2002c 	lw	$v0,44($sp)
  4184a8:	00000000 	nop
  4184ac:	8fbf0014 	lw	$ra,20($sp)
  4184b0:	27bd0068 	addiu	$sp,$sp,104
  4184b4:	03e00008 	jr	$ra
	...

004184c0 <_ssig>:
  4184c0:	27bdffe8 	addiu	$sp,$sp,-24
  4184c4:	afbf0014 	sw	$ra,20($sp)
  4184c8:	afa40018 	sw	$a0,24($sp)
  4184cc:	afa60020 	sw	$a2,32($sp)
  4184d0:	24a40008 	addiu	$a0,$a1,8
  4184d4:	0c10608d 	jal	418234 <_sigemptyset>
  4184d8:	afa5001c 	sw	$a1,28($sp)
  4184dc:	8fa40018 	lw	$a0,24($sp)
  4184e0:	8fa5001c 	lw	$a1,28($sp)
  4184e4:	24010012 	li	$at,18
  4184e8:	1481000c 	bne	$a0,$at,41851c <_ssig+0x5c>
  4184ec:	8fa60020 	lw	$a2,32($sp)
  4184f0:	8cae0000 	lw	$t6,0($a1)
  4184f4:	3c010002 	lui	$at,0x2
  4184f8:	8cb80004 	lw	$t8,4($a1)
  4184fc:	01c17825 	or	$t7,$t6,$at
  418500:	24010001 	li	$at,1
  418504:	17010004 	bne	$t8,$at,418518 <_ssig+0x58>
  418508:	acaf0000 	sw	$t7,0($a1)
  41850c:	3c010001 	lui	$at,0x1
  418510:	01e14025 	or	$t0,$t7,$at
  418514:	aca80000 	sw	$t0,0($a1)
  418518:	8fa60020 	lw	$a2,32($sp)
  41851c:	0c106750 	jal	419d40 <_sigaction>
  418520:	00000000 	nop
  418524:	8fbf0014 	lw	$ra,20($sp)
  418528:	27bd0018 	addiu	$sp,$sp,24
  41852c:	03e00008 	jr	$ra
	...

00418540 <_mktemp>:
  418540:	8f8e88b4 	lw	$t6,-30540($gp)
  418544:	27bdffc8 	addiu	$sp,$sp,-56
  418548:	afb10018 	sw	$s1,24($sp)
  41854c:	00808825 	move	$s1,$a0
  418550:	afbf001c 	sw	$ra,28($sp)
  418554:	11c00008 	beqz	$t6,418578 <_mktemp+0x38>
  418558:	afb00014 	sw	$s0,20($sp)
  41855c:	8f84aed0 	lw	$a0,-20784($gp)
  418560:	0c102034 	jal	4080d0 <_uspsema>
  418564:	00000000 	nop
  418568:	384f0001 	xori	$t7,$v0,0x1
  41856c:	2def0001 	sltiu	$t7,$t7,1
  418570:	10000002 	b	41857c <_mktemp+0x3c>
  418574:	afaf0024 	sw	$t7,36($sp)
  418578:	afa00024 	sw	$zero,36($sp)
  41857c:	0c106738 	jal	419ce0 <_getpid>
  418580:	00000000 	nop
  418584:	02202025 	move	$a0,$s1
  418588:	0c101ad0 	jal	406b40 <strlen>
  41858c:	afa20030 	sw	$v0,48($sp)
  418590:	02228021 	addu	$s0,$s1,$v0
  418594:	9218ffff 	lbu	$t8,-1($s0)
  418598:	8fa50030 	lw	$a1,48($sp)
  41859c:	24070058 	li	$a3,88
  4185a0:	14f8001f 	bne	$a3,$t8,418620 <_mktemp+0xe0>
  4185a4:	2610ffff 	addiu	$s0,$s0,-1
  4185a8:	24030001 	li	$v1,1
  4185ac:	2c610007 	sltiu	$at,$v1,7
  4185b0:	1020001b 	beqz	$at,418620 <_mktemp+0xe0>
  4185b4:	2406002d 	li	$a2,45
  4185b8:	24040060 	li	$a0,96
  4185bc:	30a2003f 	andi	$v0,$a1,0x3f
  4185c0:	2c410024 	sltiu	$at,$v0,36
  4185c4:	14200004 	bnez	$at,4185d8 <_mktemp+0x98>
  4185c8:	00055983 	sra	$t3,$a1,0x6
  4185cc:	2459003b 	addiu	$t9,$v0,59
  4185d0:	10000008 	b	4185f4 <_mktemp+0xb4>
  4185d4:	a2190000 	sb	$t9,0($s0)
  4185d8:	2c41000a 	sltiu	$at,$v0,10
  4185dc:	14200004 	bnez	$at,4185f0 <_mktemp+0xb0>
  4185e0:	24490030 	addiu	$t1,$v0,48
  4185e4:	24480037 	addiu	$t0,$v0,55
  4185e8:	10000002 	b	4185f4 <_mktemp+0xb4>
  4185ec:	a2080000 	sb	$t0,0($s0)
  4185f0:	a2090000 	sb	$t1,0($s0)
  4185f4:	920a0000 	lbu	$t2,0($s0)
  4185f8:	24630001 	addiu	$v1,$v1,1
  4185fc:	148a0002 	bne	$a0,$t2,418608 <_mktemp+0xc8>
  418600:	2c610007 	sltiu	$at,$v1,7
  418604:	a2060000 	sb	$a2,0($s0)
  418608:	920cffff 	lbu	$t4,-1($s0)
  41860c:	01602825 	move	$a1,$t3
  418610:	14ec0003 	bne	$a3,$t4,418620 <_mktemp+0xe0>
  418614:	2610ffff 	addiu	$s0,$s0,-1
  418618:	1420ffe9 	bnez	$at,4185c0 <_mktemp+0x80>
  41861c:	30a2003f 	andi	$v0,$a1,0x3f
  418620:	920d0001 	lbu	$t5,1($s0)
  418624:	26100001 	addiu	$s0,$s0,1
  418628:	11a00017 	beqz	$t5,418688 <_mktemp+0x148>
  41862c:	02202025 	move	$a0,$s1
  418630:	240e0061 	li	$t6,97
  418634:	a20e0000 	sb	$t6,0($s0)
  418638:	02202025 	move	$a0,$s1
  41863c:	0c1040d4 	jal	410350 <_access>
  418640:	00002825 	move	$a1,$zero
  418644:	14400016 	bnez	$v0,4186a0 <_mktemp+0x160>
  418648:	8fa80024 	lw	$t0,36($sp)
  41864c:	920f0000 	lbu	$t7,0($s0)
  418650:	02202025 	move	$a0,$s1
  418654:	25f80001 	addiu	$t8,$t7,1
  418658:	331900ff 	andi	$t9,$t8,0xff
  41865c:	2b21007b 	slti	$at,$t9,123
  418660:	14200003 	bnez	$at,418670 <_mktemp+0x130>
  418664:	a2180000 	sb	$t8,0($s0)
  418668:	1000000c 	b	41869c <_mktemp+0x15c>
  41866c:	a2200000 	sb	$zero,0($s1)
  418670:	0c1040d4 	jal	410350 <_access>
  418674:	00002825 	move	$a1,$zero
  418678:	1040fff4 	beqz	$v0,41864c <_mktemp+0x10c>
  41867c:	00000000 	nop
  418680:	10000007 	b	4186a0 <_mktemp+0x160>
  418684:	8fa80024 	lw	$t0,36($sp)
  418688:	0c1040d4 	jal	410350 <_access>
  41868c:	00002825 	move	$a1,$zero
  418690:	14400003 	bnez	$v0,4186a0 <_mktemp+0x160>
  418694:	8fa80024 	lw	$t0,36($sp)
  418698:	a2200000 	sb	$zero,0($s1)
  41869c:	8fa80024 	lw	$t0,36($sp)
  4186a0:	8f84aed0 	lw	$a0,-20784($gp)
  4186a4:	11000004 	beqz	$t0,4186b8 <_mktemp+0x178>
  4186a8:	8fbf001c 	lw	$ra,28($sp)
  4186ac:	0c10203c 	jal	4080f0 <_usvsema>
  4186b0:	00000000 	nop
  4186b4:	8fbf001c 	lw	$ra,28($sp)
  4186b8:	02201025 	move	$v0,$s1
  4186bc:	8fb10018 	lw	$s1,24($sp)
  4186c0:	8fb00014 	lw	$s0,20($sp)
  4186c4:	03e00008 	jr	$ra
  4186c8:	27bd0038 	addiu	$sp,$sp,56
  4186cc:	00000000 	nop

004186d0 <strcmp>:
  4186d0:	90880000 	lbu	$t0,0($a0)
  4186d4:	90a90000 	lbu	$t1,0($a1)
  4186d8:	1100000a 	beqz	$t0,418704 <strcmp+0x34>
  4186dc:	20840002 	addi	$a0,$a0,2
  4186e0:	1509000a 	bne	$t0,$t1,41870c <strcmp+0x3c>
  4186e4:	908affff 	lbu	$t2,-1($a0)
  4186e8:	90a90001 	lbu	$t1,1($a1)
  4186ec:	11400005 	beqz	$t2,418704 <strcmp+0x34>
  4186f0:	20a50002 	addi	$a1,$a1,2
  4186f4:	1149fff7 	beq	$t2,$t1,4186d4 <strcmp+0x4>
  4186f8:	90880000 	lbu	$t0,0($a0)
  4186fc:	03e00008 	jr	$ra
  418700:	01491023 	subu	$v0,$t2,$t1
  418704:	03e00008 	jr	$ra
  418708:	00091023 	negu	$v0,$t1
  41870c:	03e00008 	jr	$ra
  418710:	01091023 	subu	$v0,$t0,$t1
	...

00418720 <_blkclr>:
  418720:	28a1000c 	slti	$at,$a1,12
  418724:	1420001d 	bnez	$at,41879c <_blkclr+0x7c>
  418728:	00041823 	negu	$v1,$a0
  41872c:	30630003 	andi	$v1,$v1,0x3
  418730:	10600003 	beqz	$v1,418740 <_blkclr+0x20>
  418734:	00a32823 	subu	$a1,$a1,$v1
  418738:	a8800000 	swl	$zero,0($a0)
  41873c:	00832021 	addu	$a0,$a0,$v1
  418740:	2401ffe0 	li	$at,-32
  418744:	00a13824 	and	$a3,$a1,$at
  418748:	10e0000c 	beqz	$a3,41877c <_blkclr+0x5c>
  41874c:	00a72823 	subu	$a1,$a1,$a3
  418750:	00e43821 	addu	$a3,$a3,$a0
  418754:	24840020 	addiu	$a0,$a0,32
  418758:	ac80ffe0 	sw	$zero,-32($a0)
  41875c:	ac80ffe4 	sw	$zero,-28($a0)
  418760:	ac80ffe8 	sw	$zero,-24($a0)
  418764:	ac80ffec 	sw	$zero,-20($a0)
  418768:	ac80fff0 	sw	$zero,-16($a0)
  41876c:	ac80fff4 	sw	$zero,-12($a0)
  418770:	ac80fff8 	sw	$zero,-8($a0)
  418774:	1487fff7 	bne	$a0,$a3,418754 <_blkclr+0x34>
  418778:	ac80fffc 	sw	$zero,-4($a0)
  41877c:	2401fffc 	li	$at,-4
  418780:	00a13824 	and	$a3,$a1,$at
  418784:	10e00005 	beqz	$a3,41879c <_blkclr+0x7c>
  418788:	00a72823 	subu	$a1,$a1,$a3
  41878c:	00e43821 	addu	$a3,$a3,$a0
  418790:	24840004 	addiu	$a0,$a0,4
  418794:	1487fffe 	bne	$a0,$a3,418790 <_blkclr+0x70>
  418798:	ac80fffc 	sw	$zero,-4($a0)
  41879c:	18a00005 	blez	$a1,4187b4 <_blkclr+0x94>
  4187a0:	00000000 	nop
  4187a4:	00a42821 	addu	$a1,$a1,$a0
  4187a8:	24840001 	addiu	$a0,$a0,1
  4187ac:	1485fffe 	bne	$a0,$a1,4187a8 <_blkclr+0x88>
  4187b0:	a080ffff 	sb	$zero,-1($a0)
  4187b4:	03e00008 	jr	$ra
	...

004187c0 <strncpy>:
  4187c0:	24c60000 	addiu	$a2,$a2,0
  4187c4:	10c0000e 	beqz	$a2,418800 <strncpy+0x40>
  4187c8:	00801825 	move	$v1,$a0
  4187cc:	90a20000 	lbu	$v0,0($a1)
  4187d0:	24840001 	addiu	$a0,$a0,1
  4187d4:	24a50001 	addiu	$a1,$a1,1
  4187d8:	10400009 	beqz	$v0,418800 <strncpy+0x40>
  4187dc:	a082ffff 	sb	$v0,-1($a0)
  4187e0:	24c6ffff 	addiu	$a2,$a2,-1
  4187e4:	10c00006 	beqz	$a2,418800 <strncpy+0x40>
  4187e8:	00000000 	nop
  4187ec:	90a20000 	lbu	$v0,0($a1)
  4187f0:	24840001 	addiu	$a0,$a0,1
  4187f4:	24a50001 	addiu	$a1,$a1,1
  4187f8:	1440fff9 	bnez	$v0,4187e0 <strncpy+0x20>
  4187fc:	a082ffff 	sb	$v0,-1($a0)
  418800:	10c00012 	beqz	$a2,41884c <strncpy+0x8c>
  418804:	24c6ffff 	addiu	$a2,$a2,-1
  418808:	10c00010 	beqz	$a2,41884c <strncpy+0x8c>
  41880c:	30c50003 	andi	$a1,$a2,0x3
  418810:	00052823 	negu	$a1,$a1
  418814:	10a00006 	beqz	$a1,418830 <strncpy+0x70>
  418818:	00a61021 	addu	$v0,$a1,$a2
  41881c:	24c6ffff 	addiu	$a2,$a2,-1
  418820:	a0800000 	sb	$zero,0($a0)
  418824:	1446fffd 	bne	$v0,$a2,41881c <strncpy+0x5c>
  418828:	24840001 	addiu	$a0,$a0,1
  41882c:	10c00007 	beqz	$a2,41884c <strncpy+0x8c>
  418830:	24c6fffc 	addiu	$a2,$a2,-4
  418834:	a0800000 	sb	$zero,0($a0)
  418838:	a0800001 	sb	$zero,1($a0)
  41883c:	a0800002 	sb	$zero,2($a0)
  418840:	a0800003 	sb	$zero,3($a0)
  418844:	14c0fffa 	bnez	$a2,418830 <strncpy+0x70>
  418848:	24840004 	addiu	$a0,$a0,4
  41884c:	03e00008 	jr	$ra
  418850:	00601025 	move	$v0,$v1
	...

00418860 <_chmod>:
  418860:	240203f7 	li	$v0,1015
  418864:	0000000c 	syscall
  418868:	14e00004 	bnez	$a3,41887c <_chmod+0x1c>
  41886c:	00000000 	nop
  418870:	00001025 	move	$v0,$zero
  418874:	03e00008 	jr	$ra
  418878:	00000000 	nop
  41887c:	3c190040 	lui	$t9,0x40
  418880:	27396b60 	addiu	$t9,$t9,27488
  418884:	03200008 	jr	$t9
	...

00418890 <_fxstat>:
  418890:	24020488 	li	$v0,1160
  418894:	0000000c 	syscall
  418898:	14e00004 	bnez	$a3,4188ac <_fxstat+0x1c>
  41889c:	00000000 	nop
  4188a0:	00001025 	move	$v0,$zero
  4188a4:	03e00008 	jr	$ra
  4188a8:	00000000 	nop
  4188ac:	3c190040 	lui	$t9,0x40
  4188b0:	27396b60 	addiu	$t9,$t9,27488
  4188b4:	03200008 	jr	$t9
	...

004188c0 <_msync>:
  4188c0:	24020471 	li	$v0,1137
  4188c4:	0000000c 	syscall
  4188c8:	14e00003 	bnez	$a3,4188d8 <_msync+0x18>
  4188cc:	00000000 	nop
  4188d0:	03e00008 	jr	$ra
  4188d4:	00000000 	nop
  4188d8:	3c190040 	lui	$t9,0x40
  4188dc:	27396b60 	addiu	$t9,$t9,27488
  4188e0:	03200008 	jr	$t9
	...

004188f0 <_read>:
  4188f0:	240203eb 	li	$v0,1003
  4188f4:	0000000c 	syscall
  4188f8:	14e00003 	bnez	$a3,418908 <_read+0x18>
  4188fc:	00000000 	nop
  418900:	03e00008 	jr	$ra
  418904:	00000000 	nop
  418908:	3c190040 	lui	$t9,0x40
  41890c:	27396b60 	addiu	$t9,$t9,27488
  418910:	03200008 	jr	$t9
	...

00418920 <_unlink>:
  418920:	240203f2 	li	$v0,1010
  418924:	0000000c 	syscall
  418928:	14e00004 	bnez	$a3,41893c <_unlink+0x1c>
  41892c:	00000000 	nop
  418930:	00001025 	move	$v0,$zero
  418934:	03e00008 	jr	$ra
  418938:	00000000 	nop
  41893c:	3c190040 	lui	$t9,0x40
  418940:	27396b60 	addiu	$t9,$t9,27488
  418944:	03200008 	jr	$t9
	...

00418950 <_ftruncate>:
  418950:	24020459 	li	$v0,1113
  418954:	0000000c 	syscall
  418958:	14e00004 	bnez	$a3,41896c <_ftruncate+0x1c>
  41895c:	00000000 	nop
  418960:	00001025 	move	$v0,$zero
  418964:	03e00008 	jr	$ra
  418968:	00000000 	nop
  41896c:	3c190040 	lui	$t9,0x40
  418970:	27396b60 	addiu	$t9,$t9,27488
  418974:	03200008 	jr	$t9
	...

00418980 <_syscall>:
  418980:	240203e8 	li	$v0,1000
  418984:	0000000c 	syscall
  418988:	14e00003 	bnez	$a3,418998 <_syscall+0x18>
  41898c:	00000000 	nop
  418990:	03e00008 	jr	$ra
  418994:	00000000 	nop
  418998:	3c190040 	lui	$t9,0x40
  41899c:	27396b60 	addiu	$t9,$t9,27488
  4189a0:	03200008 	jr	$t9
	...

004189b0 <_getdtablehi>:
  4189b0:	27bdffe8 	addiu	$sp,$sp,-24
  4189b4:	afbf0014 	sw	$ra,20($sp)
  4189b8:	0c106770 	jal	419dc0 <_syssgi>
  4189bc:	2404006d 	li	$a0,109
  4189c0:	1c400004 	bgtz	$v0,4189d4 <_getdtablehi+0x24>
  4189c4:	00401825 	move	$v1,$v0
  4189c8:	0c10677c 	jal	419df0 <_getdtablesize>
  4189cc:	00000000 	nop
  4189d0:	00401825 	move	$v1,$v0
  4189d4:	8fbf0014 	lw	$ra,20($sp)
  4189d8:	27bd0018 	addiu	$sp,$sp,24
  4189dc:	03e00008 	jr	$ra
  4189e0:	00601025 	move	$v0,$v1
	...

004189f0 <_stat>:
  4189f0:	27bdffe8 	addiu	$sp,$sp,-24
  4189f4:	00a03025 	move	$a2,$a1
  4189f8:	00802825 	move	$a1,$a0
  4189fc:	afbf0014 	sw	$ra,20($sp)
  418a00:	afa40018 	sw	$a0,24($sp)
  418a04:	0c106764 	jal	419d90 <_xstat>
  418a08:	24040002 	li	$a0,2
  418a0c:	8fbf0014 	lw	$ra,20($sp)
  418a10:	27bd0018 	addiu	$sp,$sp,24
  418a14:	03e00008 	jr	$ra
	...

00418a20 <_sysconf>:
  418a20:	248efffa 	addiu	$t6,$a0,-6
  418a24:	27bdffe8 	addiu	$sp,$sp,-24
  418a28:	2dc10012 	sltiu	$at,$t6,18
  418a2c:	afbf0014 	sw	$ra,20($sp)
  418a30:	1020002b 	beqz	$at,418ae0 <_sysconf+0xc0>
  418a34:	00802825 	move	$a1,$a0
  418a38:	000e7080 	sll	$t6,$t6,0x2
  418a3c:	3c010042 	lui	$at,0x42
  418a40:	002e0821 	addu	$at,$at,$t6
  418a44:	8c2ed310 	lw	$t6,-11504($at)
  418a48:	00000000 	nop
  418a4c:	01c00008 	jr	$t6
  418a50:	00000000 	nop
  418a54:	10000024 	b	418ae8 <_sysconf+0xc8>
  418a58:	24020001 	li	$v0,1
  418a5c:	10000022 	b	418ae8 <_sysconf+0xc8>
  418a60:	24020001 	li	$v0,1
  418a64:	10000020 	b	418ae8 <_sysconf+0xc8>
  418a68:	24020001 	li	$v0,1
  418a6c:	1000001e 	b	418ae8 <_sysconf+0xc8>
  418a70:	24020001 	li	$v0,1
  418a74:	1000001c 	b	418ae8 <_sysconf+0xc8>
  418a78:	240200ff 	li	$v0,255
  418a7c:	1000001a 	b	418ae8 <_sysconf+0xc8>
  418a80:	24020004 	li	$v0,4
  418a84:	10000018 	b	418ae8 <_sysconf+0xc8>
  418a88:	24020010 	li	$v0,16
  418a8c:	10000016 	b	418ae8 <_sysconf+0xc8>
  418a90:	24020008 	li	$v0,8
  418a94:	10000014 	b	418ae8 <_sysconf+0xc8>
  418a98:	24020008 	li	$v0,8
  418a9c:	10000012 	b	418ae8 <_sysconf+0xc8>
  418aa0:	00001025 	move	$v0,$zero
  418aa4:	0c104168 	jal	4105a0 <_sysmp>
  418aa8:	24040001 	li	$a0,1
  418aac:	1000000f 	b	418aec <_sysconf+0xcc>
  418ab0:	8fbf0014 	lw	$ra,20($sp)
  418ab4:	0c104168 	jal	4105a0 <_sysmp>
  418ab8:	24040002 	li	$a0,2
  418abc:	1000000b 	b	418aec <_sysconf+0xcc>
  418ac0:	8fbf0014 	lw	$ra,20($sp)
  418ac4:	10000008 	b	418ae8 <_sysconf+0xc8>
  418ac8:	24020008 	li	$v0,8
  418acc:	24040016 	li	$a0,22
  418ad0:	0c106770 	jal	419dc0 <_syssgi>
  418ad4:	24050005 	li	$a1,5
  418ad8:	10000004 	b	418aec <_sysconf+0xcc>
  418adc:	8fbf0014 	lw	$ra,20($sp)
  418ae0:	0c106770 	jal	419dc0 <_syssgi>
  418ae4:	24040016 	li	$a0,22
  418ae8:	8fbf0014 	lw	$ra,20($sp)
  418aec:	27bd0018 	addiu	$sp,$sp,24
  418af0:	03e00008 	jr	$ra
	...

00418b00 <_endinvent_r>:
  418b00:	27bdffe8 	addiu	$sp,$sp,-24
  418b04:	afbf0014 	sw	$ra,20($sp)
  418b08:	1080000b 	beqz	$a0,418b38 <_endinvent_r+0x38>
  418b0c:	00802825 	move	$a1,$a0
  418b10:	8c840004 	lw	$a0,4($a0)
  418b14:	00000000 	nop
  418b18:	10800005 	beqz	$a0,418b30 <_endinvent_r+0x30>
  418b1c:	00000000 	nop
  418b20:	0c101fc7 	jal	407f1c <_free>
  418b24:	afa50018 	sw	$a1,24($sp)
  418b28:	8fa50018 	lw	$a1,24($sp)
  418b2c:	00000000 	nop
  418b30:	0c101fc7 	jal	407f1c <_free>
  418b34:	00a02025 	move	$a0,$a1
  418b38:	8fbf0014 	lw	$ra,20($sp)
  418b3c:	27bd0018 	addiu	$sp,$sp,24
  418b40:	03e00008 	jr	$ra
  418b44:	00000000 	nop

00418b48 <_endinvent>:
  418b48:	27bdffe8 	addiu	$sp,$sp,-24
  418b4c:	afbf0014 	sw	$ra,20($sp)
  418b50:	8f84af50 	lw	$a0,-20656($gp)
  418b54:	0c1062c0 	jal	418b00 <_endinvent_r>
  418b58:	00000000 	nop
  418b5c:	8fbf0014 	lw	$ra,20($sp)
  418b60:	af80af50 	sw	$zero,-20656($gp)
  418b64:	03e00008 	jr	$ra
  418b68:	27bd0018 	addiu	$sp,$sp,24

00418b6c <_setinvent_r>:
  418b6c:	27bdffc0 	addiu	$sp,$sp,-64
  418b70:	afbf002c 	sw	$ra,44($sp)
  418b74:	afb50028 	sw	$s5,40($sp)
  418b78:	afb40024 	sw	$s4,36($sp)
  418b7c:	afb30020 	sw	$s3,32($sp)
  418b80:	afb2001c 	sw	$s2,28($sp)
  418b84:	afb10018 	sw	$s1,24($sp)
  418b88:	afb00014 	sw	$s0,20($sp)
  418b8c:	afa40040 	sw	$a0,64($sp)
  418b90:	8c950000 	lw	$s5,0($a0)
  418b94:	00001025 	move	$v0,$zero
  418b98:	12a00003 	beqz	$s5,418ba8 <_setinvent_r+0x3c>
  418b9c:	00000000 	nop
  418ba0:	10000061 	b	418d28 <_setinvent_r+0x1bc>
  418ba4:	aea00008 	sw	$zero,8($s5)
  418ba8:	0c101bd2 	jal	406f48 <_malloc>
  418bac:	2404000c 	li	$a0,12
  418bb0:	0040a825 	move	$s5,$v0
  418bb4:	0c101bd2 	jal	406f48 <_malloc>
  418bb8:	24045dc0 	li	$a0,24000
  418bbc:	afa20030 	sw	$v0,48($sp)
  418bc0:	24040005 	li	$a0,5
  418bc4:	0c106770 	jal	419dc0 <_syssgi>
  418bc8:	24050001 	li	$a1,1
  418bcc:	12a00050 	beqz	$s5,418d10 <_setinvent_r+0x1a4>
  418bd0:	00409825 	move	$s3,$v0
  418bd4:	8faf0030 	lw	$t7,48($sp)
  418bd8:	2410ffff 	li	$s0,-1
  418bdc:	11e0004d 	beqz	$t7,418d14 <_setinvent_r+0x1a8>
  418be0:	8fa40030 	lw	$a0,48($sp)
  418be4:	1050004a 	beq	$v0,$s0,418d10 <_setinvent_r+0x1a4>
  418be8:	24040005 	li	$a0,5
  418bec:	24050002 	li	$a1,2
  418bf0:	01e03025 	move	$a2,$t7
  418bf4:	0c106770 	jal	419dc0 <_syssgi>
  418bf8:	24075dc0 	li	$a3,24000
  418bfc:	10500044 	beq	$v0,$s0,418d10 <_setinvent_r+0x1a4>
  418c00:	0040a025 	move	$s4,$v0
  418c04:	0053001a 	div	$zero,$v0,$s3
  418c08:	24050018 	li	$a1,24
  418c0c:	16600002 	bnez	$s3,418c18 <_setinvent_r+0xac>
  418c10:	00000000 	nop
  418c14:	0007000d 	break	0x7
  418c18:	2401ffff 	li	$at,-1
  418c1c:	16610004 	bne	$s3,$at,418c30 <_setinvent_r+0xc4>
  418c20:	3c018000 	lui	$at,0x8000
  418c24:	16810002 	bne	$s4,$at,418c30 <_setinvent_r+0xc4>
  418c28:	00000000 	nop
  418c2c:	0006000d 	break	0x6
  418c30:	0000a012 	mflo	$s4
  418c34:	02802025 	move	$a0,$s4
  418c38:	0c1041bc 	jal	4106f0 <_calloc>
  418c3c:	00000000 	nop
  418c40:	10400033 	beqz	$v0,418d10 <_setinvent_r+0x1a4>
  418c44:	aea20004 	sw	$v0,4($s5)
  418c48:	2e610019 	sltiu	$at,$s3,25
  418c4c:	14200011 	bnez	$at,418c94 <_setinvent_r+0x128>
  418c50:	2e610018 	sltiu	$at,$s3,24
  418c54:	1a800025 	blez	$s4,418cec <_setinvent_r+0x180>
  418c58:	00008025 	move	$s0,$zero
  418c5c:	8fb20030 	lw	$s2,48($sp)
  418c60:	00008825 	move	$s1,$zero
  418c64:	8eb80004 	lw	$t8,4($s5)
  418c68:	02402825 	move	$a1,$s2
  418c6c:	24060018 	li	$a2,24
  418c70:	0c1019e0 	jal	406780 <memcpy>
  418c74:	03112021 	addu	$a0,$t8,$s1
  418c78:	26100001 	addiu	$s0,$s0,1
  418c7c:	26310018 	addiu	$s1,$s1,24
  418c80:	1614fff8 	bne	$s0,$s4,418c64 <_setinvent_r+0xf8>
  418c84:	02539021 	addu	$s2,$s2,$s3
  418c88:	10000019 	b	418cf0 <_setinvent_r+0x184>
  418c8c:	aea00008 	sw	$zero,8($s5)
  418c90:	2e610018 	sltiu	$at,$s3,24
  418c94:	10200010 	beqz	$at,418cd8 <_setinvent_r+0x16c>
  418c98:	00143080 	sll	$a2,$s4,0x2
  418c9c:	1a800013 	blez	$s4,418cec <_setinvent_r+0x180>
  418ca0:	00008025 	move	$s0,$zero
  418ca4:	8fb20030 	lw	$s2,48($sp)
  418ca8:	00008825 	move	$s1,$zero
  418cac:	8eb90004 	lw	$t9,4($s5)
  418cb0:	02402825 	move	$a1,$s2
  418cb4:	02603025 	move	$a2,$s3
  418cb8:	0c1019e0 	jal	406780 <memcpy>
  418cbc:	03312021 	addu	$a0,$t9,$s1
  418cc0:	26100001 	addiu	$s0,$s0,1
  418cc4:	26310018 	addiu	$s1,$s1,24
  418cc8:	1614fff8 	bne	$s0,$s4,418cac <_setinvent_r+0x140>
  418ccc:	02539021 	addu	$s2,$s2,$s3
  418cd0:	10000007 	b	418cf0 <_setinvent_r+0x184>
  418cd4:	aea00008 	sw	$zero,8($s5)
  418cd8:	8ea40004 	lw	$a0,4($s5)
  418cdc:	8fa50030 	lw	$a1,48($sp)
  418ce0:	00d43023 	subu	$a2,$a2,$s4
  418ce4:	0c1019e0 	jal	406780 <memcpy>
  418ce8:	000630c0 	sll	$a2,$a2,0x3
  418cec:	aea00008 	sw	$zero,8($s5)
  418cf0:	aeb40000 	sw	$s4,0($s5)
  418cf4:	8fa40030 	lw	$a0,48($sp)
  418cf8:	0c101fc7 	jal	407f1c <_free>
  418cfc:	00000000 	nop
  418d00:	8fa80040 	lw	$t0,64($sp)
  418d04:	00001025 	move	$v0,$zero
  418d08:	10000007 	b	418d28 <_setinvent_r+0x1bc>
  418d0c:	ad150000 	sw	$s5,0($t0)
  418d10:	8fa40030 	lw	$a0,48($sp)
  418d14:	0c101fc7 	jal	407f1c <_free>
  418d18:	00000000 	nop
  418d1c:	0c101fc7 	jal	407f1c <_free>
  418d20:	02a02025 	move	$a0,$s5
  418d24:	2402ffff 	li	$v0,-1
  418d28:	8fbf002c 	lw	$ra,44($sp)
  418d2c:	8fb00014 	lw	$s0,20($sp)
  418d30:	8fb10018 	lw	$s1,24($sp)
  418d34:	8fb2001c 	lw	$s2,28($sp)
  418d38:	8fb30020 	lw	$s3,32($sp)
  418d3c:	8fb40024 	lw	$s4,36($sp)
  418d40:	8fb50028 	lw	$s5,40($sp)
  418d44:	03e00008 	jr	$ra
  418d48:	27bd0040 	addiu	$sp,$sp,64

00418d4c <_setinvent>:
  418d4c:	27bdffe8 	addiu	$sp,$sp,-24
  418d50:	afbf0014 	sw	$ra,20($sp)
  418d54:	0c1062db 	jal	418b6c <_setinvent_r>
  418d58:	2784af50 	addiu	$a0,$gp,-20656
  418d5c:	8fbf0014 	lw	$ra,20($sp)
  418d60:	27bd0018 	addiu	$sp,$sp,24
  418d64:	03e00008 	jr	$ra
  418d68:	00000000 	nop

00418d6c <_getinvent_r>:
  418d6c:	8c830008 	lw	$v1,8($a0)
  418d70:	8c8e0000 	lw	$t6,0($a0)
  418d74:	00001025 	move	$v0,$zero
  418d78:	006e082a 	slt	$at,$v1,$t6
  418d7c:	10200008 	beqz	$at,418da0 <_getinvent_r+0x34>
  418d80:	00037880 	sll	$t7,$v1,0x2
  418d84:	8c980004 	lw	$t8,4($a0)
  418d88:	01e37823 	subu	$t7,$t7,$v1
  418d8c:	000f78c0 	sll	$t7,$t7,0x3
  418d90:	24790001 	addiu	$t9,$v1,1
  418d94:	ac990008 	sw	$t9,8($a0)
  418d98:	03e00008 	jr	$ra
  418d9c:	01f81021 	addu	$v0,$t7,$t8
  418da0:	03e00008 	jr	$ra
  418da4:	00000000 	nop

00418da8 <_getinvent>:
  418da8:	8f8eaf50 	lw	$t6,-20656($gp)
  418dac:	27bdffe8 	addiu	$sp,$sp,-24
  418db0:	15c00007 	bnez	$t6,418dd0 <_getinvent+0x28>
  418db4:	afbf0014 	sw	$ra,20($sp)
  418db8:	0c1062db 	jal	418b6c <_setinvent_r>
  418dbc:	2784af50 	addiu	$a0,$gp,-20656
  418dc0:	10400003 	beqz	$v0,418dd0 <_getinvent+0x28>
  418dc4:	00000000 	nop
  418dc8:	10000004 	b	418ddc <_getinvent+0x34>
  418dcc:	00001025 	move	$v0,$zero
  418dd0:	8f84af50 	lw	$a0,-20656($gp)
  418dd4:	0c10635b 	jal	418d6c <_getinvent_r>
  418dd8:	00000000 	nop
  418ddc:	8fbf0014 	lw	$ra,20($sp)
  418de0:	27bd0018 	addiu	$sp,$sp,24
  418de4:	03e00008 	jr	$ra
	...

00418df0 <_dtoa>:
  418df0:	27bdffe0 	addiu	$sp,$sp,-32
  418df4:	afbf001c 	sw	$ra,28($sp)
  418df8:	04c10002 	bgez	$a2,418e04 <_dtoa+0x14>
  418dfc:	24090020 	li	$t1,32
  418e00:	2409002d 	li	$t1,45
  418e04:	00066840 	sll	$t5,$a2,0x1
  418e08:	000747c2 	srl	$t0,$a3,0x1f
  418e0c:	01a86825 	or	$t5,$t5,$t0
  418e10:	a0890000 	sb	$t1,0($a0)
  418e14:	3c017fe0 	lui	$at,0x7fe0
  418e18:	01a14823 	subu	$t1,$t5,$at
  418e1c:	00076040 	sll	$t4,$a3,0x1
  418e20:	24840001 	addiu	$a0,$a0,1
  418e24:	05210002 	bgez	$t1,418e30 <_dtoa+0x40>
  418e28:	240a0268 	li	$t2,616
  418e2c:	254a0001 	addiu	$t2,$t2,1
  418e30:	000dc542 	srl	$t8,$t5,0x15
  418e34:	13000098 	beqz	$t8,419098 <_dtoa+0x2a8>
  418e38:	012a0018 	mult	$t1,$t2
  418e3c:	240107ff 	li	$at,2047
  418e40:	130100b6 	beq	$t8,$at,41911c <_dtoa+0x32c>
  418e44:	00000000 	nop
  418e48:	000d6ac0 	sll	$t5,$t5,0xb
  418e4c:	00001010 	mfhi	$v0
  418e50:	000d6ac2 	srl	$t5,$t5,0xb
  418e54:	3c010020 	lui	$at,0x20
  418e58:	01a16825 	or	$t5,$t5,$at
  418e5c:	0c106788 	jal	419e20 <_tenscale>
  418e60:	00024022 	neg	$t0,$v0
  418e64:	2718fbed 	addiu	$t8,$t8,-1043
  418e68:	0303c021 	addu	$t8,$t8,$v1
  418e6c:	0018c022 	neg	$t8,$t8
  418e70:	8fac0030 	lw	$t4,48($sp)
  418e74:	030b3006 	srlv	$a2,$t3,$t8
  418e78:	03063804 	sllv	$a3,$a2,$t8
  418e7c:	1180001b 	beqz	$t4,418eec <_dtoa+0xfc>
  418e80:	01675823 	subu	$t3,$t3,$a3
  418e84:	2ccc000a 	sltiu	$t4,$a2,10
  418e88:	01826023 	subu	$t4,$t4,$v0
  418e8c:	00ac2823 	subu	$a1,$a1,$t4
  418e90:	24a50002 	addiu	$a1,$a1,2
  418e94:	1ca00011 	bgtz	$a1,418edc <_dtoa+0xec>
  418e98:	2cc1000a 	sltiu	$at,$a2,10
  418e9c:	14200005 	bnez	$at,418eb4 <_dtoa+0xc4>
  418ea0:	2401000a 	li	$at,10
  418ea4:	00c1001b 	divu	$zero,$a2,$at
  418ea8:	00003012 	mflo	$a2
	...
  418eb4:	24c60030 	addiu	$a2,$a2,48
  418eb8:	2cc10035 	sltiu	$at,$a2,53
  418ebc:	a0860000 	sb	$a2,0($a0)
  418ec0:	24840001 	addiu	$a0,$a0,1
  418ec4:	14200053 	bnez	$at,419014 <_dtoa+0x224>
  418ec8:	a0800000 	sb	$zero,0($a0)
  418ecc:	24060039 	li	$a2,57
  418ed0:	2489ffff 	addiu	$t1,$a0,-1
  418ed4:	10000054 	b	419028 <_dtoa+0x238>
  418ed8:	a1260000 	sb	$a2,0($t1)
  418edc:	28a10012 	slti	$at,$a1,18
  418ee0:	14200003 	bnez	$at,418ef0 <_dtoa+0x100>
  418ee4:	00a42821 	addu	$a1,$a1,$a0
  418ee8:	24050011 	li	$a1,17
  418eec:	00a42821 	addu	$a1,$a1,$a0
  418ef0:	2cc1000a 	sltiu	$at,$a2,10
  418ef4:	14200010 	bnez	$at,418f38 <_dtoa+0x148>
  418ef8:	2401000a 	li	$at,10
  418efc:	00c1001b 	divu	$zero,$a2,$at
  418f00:	24840001 	addiu	$a0,$a0,1
  418f04:	24420001 	addiu	$v0,$v0,1
  418f08:	00003812 	mflo	$a3
  418f0c:	00003010 	mfhi	$a2
  418f10:	24e70030 	addiu	$a3,$a3,48
  418f14:	14850008 	bne	$a0,$a1,418f38 <_dtoa+0x148>
  418f18:	a087ffff 	sb	$a3,-1($a0)
  418f1c:	2cc10005 	sltiu	$at,$a2,5
  418f20:	1420003c 	bnez	$at,419014 <_dtoa+0x224>
  418f24:	2cc10006 	sltiu	$at,$a2,6
  418f28:	1020003f 	beqz	$at,419028 <_dtoa+0x238>
  418f2c:	00000000 	nop
  418f30:	1000002e 	b	418fec <_dtoa+0x1fc>
  418f34:	00000000 	nop
  418f38:	24c60030 	addiu	$a2,$a2,48
  418f3c:	24840001 	addiu	$a0,$a0,1
  418f40:	10850026 	beq	$a0,$a1,418fdc <_dtoa+0x1ec>
  418f44:	a086ffff 	sb	$a2,-1($a0)
  418f48:	00086880 	sll	$t5,$t0,0x2
  418f4c:	01a07027 	nor	$t6,$t5,$zero
  418f50:	00087f82 	srl	$t7,$t0,0x1e
  418f54:	01c8702b 	sltu	$t6,$t6,$t0
  418f58:	010d4021 	addu	$t0,$t0,$t5
  418f5c:	01ee6021 	addu	$t4,$t7,$t6
  418f60:	00096880 	sll	$t5,$t1,0x2
  418f64:	01a07027 	nor	$t6,$t5,$zero
  418f68:	01c9702b 	sltu	$t6,$t6,$t1
  418f6c:	00097f82 	srl	$t7,$t1,0x1e
  418f70:	01ee7821 	addu	$t7,$t7,$t6
  418f74:	012d4821 	addu	$t1,$t1,$t5
  418f78:	01807027 	nor	$t6,$t4,$zero
  418f7c:	01c9702b 	sltu	$t6,$t6,$t1
  418f80:	012c4821 	addu	$t1,$t1,$t4
  418f84:	01ee6021 	addu	$t4,$t7,$t6
  418f88:	000a6880 	sll	$t5,$t2,0x2
  418f8c:	01a07027 	nor	$t6,$t5,$zero
  418f90:	000a7f82 	srl	$t7,$t2,0x1e
  418f94:	01ca702b 	sltu	$t6,$t6,$t2
  418f98:	014d5021 	addu	$t2,$t2,$t5
  418f9c:	01ee7821 	addu	$t7,$t7,$t6
  418fa0:	01807027 	nor	$t6,$t4,$zero
  418fa4:	01ca702b 	sltu	$t6,$t6,$t2
  418fa8:	014c5021 	addu	$t2,$t2,$t4
  418fac:	000b6880 	sll	$t5,$t3,0x2
  418fb0:	01ee6021 	addu	$t4,$t7,$t6
  418fb4:	016d5821 	addu	$t3,$t3,$t5
  418fb8:	016c5821 	addu	$t3,$t3,$t4
  418fbc:	2718ffff 	addiu	$t8,$t8,-1
  418fc0:	030b3006 	srlv	$a2,$t3,$t8
  418fc4:	03063804 	sllv	$a3,$a2,$t8
  418fc8:	24c60030 	addiu	$a2,$a2,48
  418fcc:	24840001 	addiu	$a0,$a0,1
  418fd0:	01675823 	subu	$t3,$t3,$a3
  418fd4:	1485ffdc 	bne	$a0,$a1,418f48 <_dtoa+0x158>
  418fd8:	a086ffff 	sb	$a2,-1($a0)
  418fdc:	2718ffff 	addiu	$t8,$t8,-1
  418fe0:	030b3806 	srlv	$a3,$t3,$t8
  418fe4:	10e0000b 	beqz	$a3,419014 <_dtoa+0x224>
  418fe8:	00000000 	nop
  418fec:	1540000e 	bnez	$t2,419028 <_dtoa+0x238>
  418ff0:	00000000 	nop
  418ff4:	1520000c 	bnez	$t1,419028 <_dtoa+0x238>
  418ff8:	2567ffff 	addiu	$a3,$t3,-1
  418ffc:	1500000a 	bnez	$t0,419028 <_dtoa+0x238>
  419000:	00eb3824 	and	$a3,$a3,$t3
  419004:	14e00008 	bnez	$a3,419028 <_dtoa+0x238>
  419008:	30c60001 	andi	$a2,$a2,0x1
  41900c:	14c00006 	bnez	$a2,419028 <_dtoa+0x238>
  419010:	00000000 	nop
  419014:	a0800000 	sb	$zero,0($a0)
  419018:	8fbf001c 	lw	$ra,28($sp)
  41901c:	27bd0020 	addiu	$sp,$sp,32
  419020:	03e00008 	jr	$ra
  419024:	00000000 	nop
  419028:	2489ffff 	addiu	$t1,$a0,-1
  41902c:	91280000 	lbu	$t0,0($t1)
  419030:	00000000 	nop
  419034:	24010039 	li	$at,57
  419038:	1101000a 	beq	$t0,$at,419064 <_dtoa+0x274>
  41903c:	00000000 	nop
  419040:	2d010030 	sltiu	$at,$t0,48
  419044:	1420000b 	bnez	$at,419074 <_dtoa+0x284>
  419048:	25080001 	addiu	$t0,$t0,1
  41904c:	a1280000 	sb	$t0,0($t1)
  419050:	a0800000 	sb	$zero,0($a0)
  419054:	8fbf001c 	lw	$ra,28($sp)
  419058:	27bd0020 	addiu	$sp,$sp,32
  41905c:	03e00008 	jr	$ra
  419060:	00000000 	nop
  419064:	24080030 	li	$t0,48
  419068:	a1280000 	sb	$t0,0($t1)
  41906c:	1000ffef 	b	41902c <_dtoa+0x23c>
  419070:	2529ffff 	addiu	$t1,$t1,-1
  419074:	24080031 	li	$t0,49
  419078:	a1280001 	sb	$t0,1($t1)
  41907c:	24080030 	li	$t0,48
  419080:	a0880000 	sb	$t0,0($a0)
  419084:	a0800001 	sb	$zero,1($a0)
  419088:	8fbf001c 	lw	$ra,28($sp)
  41908c:	24420001 	addiu	$v0,$v0,1
  419090:	03e00008 	jr	$ra
  419094:	27bd0020 	addiu	$sp,$sp,32
  419098:	15a0000e 	bnez	$t5,4190d4 <_dtoa+0x2e4>
  41909c:	00000000 	nop
  4190a0:	1580000c 	bnez	$t4,4190d4 <_dtoa+0x2e4>
  4190a4:	00000000 	nop
  4190a8:	18a00005 	blez	$a1,4190c0 <_dtoa+0x2d0>
  4190ac:	24080030 	li	$t0,48
  4190b0:	00a42821 	addu	$a1,$a1,$a0
  4190b4:	24840001 	addiu	$a0,$a0,1
  4190b8:	1485fffe 	bne	$a0,$a1,4190b4 <_dtoa+0x2c4>
  4190bc:	a088ffff 	sb	$t0,-1($a0)
  4190c0:	a0800000 	sb	$zero,0($a0)
  4190c4:	8fbf001c 	lw	$ra,28($sp)
  4190c8:	24020000 	li	$v0,0
  4190cc:	03e00008 	jr	$ra
  4190d0:	27bd0020 	addiu	$sp,$sp,32
  4190d4:	2418fc02 	li	$t8,-1022
  4190d8:	3c0a0020 	lui	$t2,0x20
  4190dc:	000d6840 	sll	$t5,$t5,0x1
  4190e0:	000c47c2 	srl	$t0,$t4,0x1f
  4190e4:	01a86825 	or	$t5,$t5,$t0
  4190e8:	01aa4024 	and	$t0,$t5,$t2
  4190ec:	2718ffff 	addiu	$t8,$t8,-1
  4190f0:	1100fffa 	beqz	$t0,4190dc <_dtoa+0x2ec>
  4190f4:	000c6040 	sll	$t4,$t4,0x1
  4190f8:	00184d00 	sll	$t1,$t8,0x14
  4190fc:	012d4821 	addu	$t1,$t1,$t5
  419100:	012a4823 	subu	$t1,$t1,$t2
  419104:	240a04d2 	li	$t2,1234
  419108:	012a0018 	mult	$t1,$t2
  41910c:	271803ff 	addiu	$t8,$t8,1023
  419110:	00001010 	mfhi	$v0
  419114:	1000ff51 	b	418e5c <_dtoa+0x6c>
  419118:	00000000 	nop
  41911c:	3c080042 	lui	$t0,0x42
  419120:	00a42821 	addu	$a1,$a1,$a0
  419124:	15800006 	bnez	$t4,419140 <_dtoa+0x350>
  419128:	2508d364 	addiu	$t0,$t0,-11420
  41912c:	000d4ac0 	sll	$t1,$t5,0xb
  419130:	15200003 	bnez	$t1,419140 <_dtoa+0x350>
  419134:	00000000 	nop
  419138:	3c080042 	lui	$t0,0x42
  41913c:	2508d360 	addiu	$t0,$t0,-11424
  419140:	91090000 	lbu	$t1,0($t0)
  419144:	24840001 	addiu	$a0,$a0,1
  419148:	11200003 	beqz	$t1,419158 <_dtoa+0x368>
  41914c:	a089ffff 	sb	$t1,-1($a0)
  419150:	1485fffb 	bne	$a0,$a1,419140 <_dtoa+0x350>
  419154:	25080001 	addiu	$t0,$t0,1
  419158:	8fbf001c 	lw	$ra,28($sp)
  41915c:	3c028000 	lui	$v0,0x8000
  419160:	03e00008 	jr	$ra
  419164:	27bd0020 	addiu	$sp,$sp,32
	...

00419170 <__ull_divrem_6416>:
  419170:	8faa0014 	lw	$t2,20($sp)
  419174:	8fab0010 	lw	$t3,16($sp)
  419178:	00e04025 	move	$t0,$a3
  41917c:	010a001b 	divu	$zero,$t0,$t2
  419180:	00c04825 	move	$t1,$a2
  419184:	1560002e 	bnez	$t3,419240 <__ull_divrem_6416+0xd0>
  419188:	000867c3 	sra	$t4,$t0,0x1f
  41918c:	15200009 	bnez	$t1,4191b4 <__ull_divrem_6416+0x44>
  419190:	000a6402 	srl	$t4,$t2,0x10
  419194:	00001012 	mflo	$v0
  419198:	00006010 	mfhi	$t4
  41919c:	ac820004 	sw	$v0,4($a0)
  4191a0:	ac800000 	sw	$zero,0($a0)
  4191a4:	acac0004 	sw	$t4,4($a1)
  4191a8:	03e00008 	jr	$ra
  4191ac:	aca00000 	sw	$zero,0($a1)
  4191b0:	000a6402 	srl	$t4,$t2,0x10
  4191b4:	15800023 	bnez	$t4,419244 <__ull_divrem_6416+0xd4>
  4191b8:	8fa80010 	lw	$t0,16($sp)
  4191bc:	00c01025 	move	$v0,$a2
  4191c0:	00021402 	srl	$v0,$v0,0x10
  4191c4:	004a001b 	divu	$zero,$v0,$t2
  4191c8:	00064400 	sll	$t0,$a2,0x10
  4191cc:	00084402 	srl	$t0,$t0,0x10
  4191d0:	00001010 	mfhi	$v0
  4191d4:	00001812 	mflo	$v1
  4191d8:	00021400 	sll	$v0,$v0,0x10
  4191dc:	00481025 	or	$v0,$v0,$t0
  4191e0:	004a001b 	divu	$zero,$v0,$t2
  4191e4:	a4830000 	sh	$v1,0($a0)
  4191e8:	00e04025 	move	$t0,$a3
  4191ec:	00084402 	srl	$t0,$t0,0x10
  4191f0:	00001010 	mfhi	$v0
  4191f4:	00001812 	mflo	$v1
  4191f8:	00021400 	sll	$v0,$v0,0x10
  4191fc:	00481025 	or	$v0,$v0,$t0
  419200:	004a001b 	divu	$zero,$v0,$t2
  419204:	a4830002 	sh	$v1,2($a0)
  419208:	00074400 	sll	$t0,$a3,0x10
  41920c:	00084402 	srl	$t0,$t0,0x10
  419210:	00001010 	mfhi	$v0
  419214:	00001812 	mflo	$v1
  419218:	00021400 	sll	$v0,$v0,0x10
  41921c:	00481025 	or	$v0,$v0,$t0
  419220:	004a001b 	divu	$zero,$v0,$t2
  419224:	a4830004 	sh	$v1,4($a0)
  419228:	00001812 	mflo	$v1
  41922c:	00001010 	mfhi	$v0
  419230:	a4830006 	sh	$v1,6($a0)
  419234:	aca00000 	sw	$zero,0($a1)
  419238:	03e00008 	jr	$ra
  41923c:	aca20004 	sw	$v0,4($a1)
  419240:	8fa80010 	lw	$t0,16($sp)
  419244:	00000000 	nop
  419248:	0106082b 	sltu	$at,$t0,$a2
  41924c:	1420000d 	bnez	$at,419284 <__ull_divrem_6416+0x114>
  419250:	00c8082b 	sltu	$at,$a2,$t0
  419254:	14200006 	bnez	$at,419270 <__ull_divrem_6416+0x100>
  419258:	00000000 	nop
  41925c:	8fa80014 	lw	$t0,20($sp)
  419260:	00000000 	nop
  419264:	00e8082b 	sltu	$at,$a3,$t0
  419268:	10200006 	beqz	$at,419284 <__ull_divrem_6416+0x114>
  41926c:	00000000 	nop
  419270:	ac800004 	sw	$zero,4($a0)
  419274:	ac800000 	sw	$zero,0($a0)
  419278:	aca70004 	sw	$a3,4($a1)
  41927c:	03e00008 	jr	$ra
  419280:	aca60000 	sw	$a2,0($a1)
  419284:	0000000d 	break

00419288 <__ull_divrem_5353>:
  419288:	8faa0014 	lw	$t2,20($sp)
  41928c:	8fab0010 	lw	$t3,16($sp)
  419290:	00e04025 	move	$t0,$a3
  419294:	00c04825 	move	$t1,$a2
  419298:	4443f800 	cfc1	$v1,$31
  41929c:	240d0001 	li	$t5,1
  4192a0:	44cdf800 	ctc1	$t5,$31
  4192a4:	44880000 	mtc1	$t0,$f0
  4192a8:	44891000 	mtc1	$t1,$f2
  4192ac:	c7898b40 	lwc1	$f9,-29888($gp)
  4192b0:	c7888b44 	lwc1	$f8,-29884($gp)
  4192b4:	46800021 	cvt.d.w	$f0,$f0
  4192b8:	05010002 	bgez	$t0,4192c4 <__ull_divrem_5353+0x3c>
  4192bc:	468010a1 	cvt.d.w	$f2,$f2
  4192c0:	46280000 	add.d	$f0,$f0,$f8
  4192c4:	46281082 	mul.d	$f2,$f2,$f8
  4192c8:	448a2000 	mtc1	$t2,$f4
  4192cc:	448b3000 	mtc1	$t3,$f6
  4192d0:	46220000 	add.d	$f0,$f0,$f2
  4192d4:	46802121 	cvt.d.w	$f4,$f4
  4192d8:	05410002 	bgez	$t2,4192e4 <__ull_divrem_5353+0x5c>
  4192dc:	468031a1 	cvt.d.w	$f6,$f6
  4192e0:	46282100 	add.d	$f4,$f4,$f8
  4192e4:	46283182 	mul.d	$f6,$f6,$f8
  4192e8:	46262100 	add.d	$f4,$f4,$f6
  4192ec:	4459f800 	cfc1	$t9,$31
  4192f0:	00000000 	nop
  4192f4:	33390004 	andi	$t9,$t9,0x4
  4192f8:	17200024 	bnez	$t9,41938c <__ull_divrem_5353+0x104>
	...
  419304:	46240083 	div.d	$f2,$f0,$f4
  419308:	c7878b48 	lwc1	$f7,-29880($gp)
  41930c:	c7868b4c 	lwc1	$f6,-29876($gp)
  419310:	44191800 	mfc1	$t9,$f3
  419314:	00000000 	nop
  419318:	07210002 	bgez	$t9,419324 <__ull_divrem_5353+0x9c>
  41931c:	00000000 	nop
  419320:	46203187 	neg.d	$f6,$f6
  419324:	46261080 	add.d	$f2,$f2,$f6
  419328:	3c01000f 	lui	$at,0xf
  41932c:	440c1000 	mfc1	$t4,$f2
  419330:	440d1800 	mfc1	$t5,$f3
  419334:	018a0019 	multu	$t4,$t2
  419338:	3421ffff 	ori	$at,$at,0xffff
  41933c:	01a16824 	and	$t5,$t5,$at
  419340:	ac8d0000 	sw	$t5,0($a0)
  419344:	44c3f800 	ctc1	$v1,$31
  419348:	ac8c0004 	sw	$t4,4($a0)
  41934c:	00007012 	mflo	$t6
  419350:	00007810 	mfhi	$t7
  419354:	010ec82b 	sltu	$t9,$t0,$t6
  419358:	010e7023 	subu	$t6,$t0,$t6
  41935c:	018b0019 	multu	$t4,$t3
  419360:	acae0004 	sw	$t6,4($a1)
  419364:	0000c012 	mflo	$t8
  419368:	01f87821 	addu	$t7,$t7,$t8
  41936c:	00000000 	nop
  419370:	01aa0019 	multu	$t5,$t2
  419374:	0000c012 	mflo	$t8
  419378:	01f87821 	addu	$t7,$t7,$t8
  41937c:	012f7823 	subu	$t7,$t1,$t7
  419380:	01f97823 	subu	$t7,$t7,$t9
  419384:	03e00008 	jr	$ra
  419388:	acaf0000 	sw	$t7,0($a1)
  41938c:	8fa80010 	lw	$t0,16($sp)
  419390:	00000000 	nop
  419394:	0106082b 	sltu	$at,$t0,$a2
  419398:	1420000d 	bnez	$at,4193d0 <__ull_divrem_5353+0x148>
  41939c:	00c8082b 	sltu	$at,$a2,$t0
  4193a0:	14200006 	bnez	$at,4193bc <__ull_divrem_5353+0x134>
  4193a4:	00000000 	nop
  4193a8:	8fa80014 	lw	$t0,20($sp)
  4193ac:	00000000 	nop
  4193b0:	00e8082b 	sltu	$at,$a3,$t0
  4193b4:	10200006 	beqz	$at,4193d0 <__ull_divrem_5353+0x148>
  4193b8:	00000000 	nop
  4193bc:	ac800004 	sw	$zero,4($a0)
  4193c0:	ac800000 	sw	$zero,0($a0)
  4193c4:	aca70004 	sw	$a3,4($a1)
  4193c8:	03e00008 	jr	$ra
  4193cc:	aca60000 	sw	$a2,0($a1)
  4193d0:	0000000d 	break
	...

004193e0 <strtoul>:
  4193e0:	27bdffe0 	addiu	$sp,$sp,-32
  4193e4:	afb10018 	sw	$s1,24($sp)
  4193e8:	afb00014 	sw	$s0,20($sp)
  4193ec:	00808025 	move	$s0,$a0
  4193f0:	00c08825 	move	$s1,$a2
  4193f4:	afbf001c 	sw	$ra,28($sp)
  4193f8:	afa50024 	sw	$a1,36($sp)
  4193fc:	00005825 	move	$t3,$zero
  419400:	10a00002 	beqz	$a1,41940c <strtoul+0x2c>
  419404:	00a07025 	move	$t6,$a1
  419408:	aca40000 	sw	$a0,0($a1)
  41940c:	06200005 	bltz	$s1,419424 <strtoul+0x44>
  419410:	2a210025 	slti	$at,$s1,37
  419414:	10200003 	beqz	$at,419424 <strtoul+0x44>
  419418:	24010001 	li	$at,1
  41941c:	16210005 	bne	$s1,$at,419434 <strtoul+0x54>
  419420:	3c0a0042 	lui	$t2,0x42
  419424:	0c102025 	jal	408094 <_setoserror>
  419428:	24040016 	li	$a0,22
  41942c:	100000fc 	b	419820 <strtoul+0x440>
  419430:	00001025 	move	$v0,$zero
  419434:	92040000 	lbu	$a0,0($s0)
  419438:	254ad900 	addiu	$t2,$t2,-9984
  41943c:	008a7821 	addu	$t7,$a0,$t2
  419440:	91e60001 	lbu	$a2,1($t7)
  419444:	2401002b 	li	$at,43
  419448:	30d80007 	andi	$t8,$a2,0x7
  41944c:	17000016 	bnez	$t8,4194a8 <strtoul+0xc8>
  419450:	00000000 	nop
  419454:	30d90008 	andi	$t9,$a2,0x8
  419458:	13200009 	beqz	$t9,419480 <strtoul+0xa0>
  41945c:	00000000 	nop
  419460:	92040001 	lbu	$a0,1($s0)
  419464:	26100001 	addiu	$s0,$s0,1
  419468:	01446021 	addu	$t4,$t2,$a0
  41946c:	91860001 	lbu	$a2,1($t4)
  419470:	00000000 	nop
  419474:	30cd0008 	andi	$t5,$a2,0x8
  419478:	15a0fff9 	bnez	$t5,419460 <strtoul+0x80>
  41947c:	00000000 	nop
  419480:	10810004 	beq	$a0,$at,419494 <strtoul+0xb4>
  419484:	2401002d 	li	$at,45
  419488:	14810007 	bne	$a0,$at,4194a8 <strtoul+0xc8>
  41948c:	00000000 	nop
  419490:	240b0001 	li	$t3,1
  419494:	92040001 	lbu	$a0,1($s0)
  419498:	26100001 	addiu	$s0,$s0,1
  41949c:	008a7021 	addu	$t6,$a0,$t2
  4194a0:	91c60001 	lbu	$a2,1($t6)
  4194a4:	00000000 	nop
  4194a8:	1620000e 	bnez	$s1,4194e4 <strtoul+0x104>
  4194ac:	30c70004 	andi	$a3,$a2,0x4
  4194b0:	24010030 	li	$at,48
  4194b4:	10810003 	beq	$a0,$at,4194c4 <strtoul+0xe4>
  4194b8:	00000000 	nop
  4194bc:	10000009 	b	4194e4 <strtoul+0x104>
  4194c0:	2411000a 	li	$s1,10
  4194c4:	92020001 	lbu	$v0,1($s0)
  4194c8:	24010078 	li	$at,120
  4194cc:	10410003 	beq	$v0,$at,4194dc <strtoul+0xfc>
  4194d0:	24010058 	li	$at,88
  4194d4:	14410003 	bne	$v0,$at,4194e4 <strtoul+0x104>
  4194d8:	24110008 	li	$s1,8
  4194dc:	10000001 	b	4194e4 <strtoul+0x104>
  4194e0:	24110010 	li	$s1,16
  4194e4:	14e00009 	bnez	$a3,41950c <strtoul+0x12c>
  4194e8:	28810061 	slti	$at,$a0,97
  4194ec:	14200002 	bnez	$at,4194f8 <strtoul+0x118>
  4194f0:	2881007b 	slti	$at,$a0,123
  4194f4:	14200005 	bnez	$at,41950c <strtoul+0x12c>
  4194f8:	28810041 	slti	$at,$a0,65
  4194fc:	14200010 	bnez	$at,419540 <strtoul+0x160>
  419500:	2881005b 	slti	$at,$a0,91
  419504:	1020000e 	beqz	$at,419540 <strtoul+0x160>
  419508:	00000000 	nop
  41950c:	10e00003 	beqz	$a3,41951c <strtoul+0x13c>
  419510:	00000000 	nop
  419514:	10000007 	b	419534 <strtoul+0x154>
  419518:	2483ffd0 	addiu	$v1,$a0,-48
  41951c:	30cf0002 	andi	$t7,$a2,0x2
  419520:	11e00003 	beqz	$t7,419530 <strtoul+0x150>
  419524:	2482ffc9 	addiu	$v0,$a0,-55
  419528:	10000001 	b	419530 <strtoul+0x150>
  41952c:	2482ffa9 	addiu	$v0,$a0,-87
  419530:	00401825 	move	$v1,$v0
  419534:	0071082a 	slt	$at,$v1,$s1
  419538:	14200004 	bnez	$at,41954c <strtoul+0x16c>
  41953c:	24010010 	li	$at,16
  419540:	100000b7 	b	419820 <strtoul+0x440>
  419544:	00001025 	move	$v0,$zero
  419548:	24010010 	li	$at,16
  41954c:	16210017 	bne	$s1,$at,4195ac <strtoul+0x1cc>
  419550:	24010030 	li	$at,48
  419554:	14810015 	bne	$a0,$at,4195ac <strtoul+0x1cc>
  419558:	00000000 	nop
  41955c:	92020001 	lbu	$v0,1($s0)
  419560:	24010078 	li	$at,120
  419564:	10410003 	beq	$v0,$at,419574 <strtoul+0x194>
  419568:	24010058 	li	$at,88
  41956c:	1441000f 	bne	$v0,$at,4195ac <strtoul+0x1cc>
  419570:	00000000 	nop
  419574:	92180002 	lbu	$t8,2($s0)
  419578:	00000000 	nop
  41957c:	030ac821 	addu	$t9,$t8,$t2
  419580:	932c0001 	lbu	$t4,1($t9)
  419584:	00000000 	nop
  419588:	318d0080 	andi	$t5,$t4,0x80
  41958c:	11a00007 	beqz	$t5,4195ac <strtoul+0x1cc>
  419590:	00000000 	nop
  419594:	92040002 	lbu	$a0,2($s0)
  419598:	26100002 	addiu	$s0,$s0,2
  41959c:	008a7021 	addu	$t6,$a0,$t2
  4195a0:	91c60001 	lbu	$a2,1($t6)
  4195a4:	00000000 	nop
  4195a8:	30c70004 	andi	$a3,$a2,0x4
  4195ac:	10e00003 	beqz	$a3,4195bc <strtoul+0x1dc>
  4195b0:	00000000 	nop
  4195b4:	10000007 	b	4195d4 <strtoul+0x1f4>
  4195b8:	2485ffd0 	addiu	$a1,$a0,-48
  4195bc:	30cf0002 	andi	$t7,$a2,0x2
  4195c0:	11e00003 	beqz	$t7,4195d0 <strtoul+0x1f0>
  4195c4:	2483ffc9 	addiu	$v1,$a0,-55
  4195c8:	10000001 	b	4195d0 <strtoul+0x1f0>
  4195cc:	2483ffa9 	addiu	$v1,$a0,-87
  4195d0:	00602825 	move	$a1,$v1
  4195d4:	92040001 	lbu	$a0,1($s0)
  4195d8:	26100001 	addiu	$s0,$s0,1
  4195dc:	0144c021 	addu	$t8,$t2,$a0
  4195e0:	93060001 	lbu	$a2,1($t8)
  4195e4:	28810061 	slti	$at,$a0,97
  4195e8:	30c70004 	andi	$a3,$a2,0x4
  4195ec:	14e00009 	bnez	$a3,419614 <strtoul+0x234>
  4195f0:	00000000 	nop
  4195f4:	14200002 	bnez	$at,419600 <strtoul+0x220>
  4195f8:	2881007b 	slti	$at,$a0,123
  4195fc:	14200005 	bnez	$at,419614 <strtoul+0x234>
  419600:	28810041 	slti	$at,$a0,65
  419604:	1420003d 	bnez	$at,4196fc <strtoul+0x31c>
  419608:	2881005b 	slti	$at,$a0,91
  41960c:	1020003b 	beqz	$at,4196fc <strtoul+0x31c>
  419610:	00000000 	nop
  419614:	10e00003 	beqz	$a3,419624 <strtoul+0x244>
  419618:	240cffff 	li	$t4,-1
  41961c:	10000007 	b	41963c <strtoul+0x25c>
  419620:	2483ffd0 	addiu	$v1,$a0,-48
  419624:	30d90002 	andi	$t9,$a2,0x2
  419628:	13200003 	beqz	$t9,419638 <strtoul+0x258>
  41962c:	2482ffc9 	addiu	$v0,$a0,-55
  419630:	10000001 	b	419638 <strtoul+0x258>
  419634:	2482ffa9 	addiu	$v0,$a0,-87
  419638:	00401825 	move	$v1,$v0
  41963c:	0071082a 	slt	$at,$v1,$s1
  419640:	1020002e 	beqz	$at,4196fc <strtoul+0x31c>
  419644:	00000000 	nop
  419648:	0191001b 	divu	$zero,$t4,$s1
  41964c:	2409ffff 	li	$t1,-1
  419650:	16200002 	bnez	$s1,41965c <strtoul+0x27c>
  419654:	00000000 	nop
  419658:	0007000d 	break	0x7
  41965c:	00004012 	mflo	$t0
	...
  419668:	0105082b 	sltu	$at,$t0,$a1
  41966c:	1420002e 	bnez	$at,419728 <strtoul+0x348>
  419670:	00000000 	nop
  419674:	00b10019 	multu	$a1,$s1
  419678:	00002812 	mflo	$a1
  41967c:	01256823 	subu	$t5,$t1,$a1
  419680:	01a3082b 	sltu	$at,$t5,$v1
  419684:	14200028 	bnez	$at,419728 <strtoul+0x348>
  419688:	00000000 	nop
  41968c:	92040001 	lbu	$a0,1($s0)
  419690:	00a32821 	addu	$a1,$a1,$v1
  419694:	01447021 	addu	$t6,$t2,$a0
  419698:	91c60001 	lbu	$a2,1($t6)
  41969c:	26100001 	addiu	$s0,$s0,1
  4196a0:	30c70004 	andi	$a3,$a2,0x4
  4196a4:	14e00009 	bnez	$a3,4196cc <strtoul+0x2ec>
  4196a8:	28810061 	slti	$at,$a0,97
  4196ac:	14200002 	bnez	$at,4196b8 <strtoul+0x2d8>
  4196b0:	2881007b 	slti	$at,$a0,123
  4196b4:	14200005 	bnez	$at,4196cc <strtoul+0x2ec>
  4196b8:	28810041 	slti	$at,$a0,65
  4196bc:	1420000f 	bnez	$at,4196fc <strtoul+0x31c>
  4196c0:	2881005b 	slti	$at,$a0,91
  4196c4:	1020000e 	beqz	$at,419700 <strtoul+0x320>
  4196c8:	8fb80024 	lw	$t8,36($sp)
  4196cc:	10e00003 	beqz	$a3,4196dc <strtoul+0x2fc>
  4196d0:	30cf0002 	andi	$t7,$a2,0x2
  4196d4:	10000006 	b	4196f0 <strtoul+0x310>
  4196d8:	2483ffd0 	addiu	$v1,$a0,-48
  4196dc:	11e00003 	beqz	$t7,4196ec <strtoul+0x30c>
  4196e0:	2482ffc9 	addiu	$v0,$a0,-55
  4196e4:	10000001 	b	4196ec <strtoul+0x30c>
  4196e8:	2482ffa9 	addiu	$v0,$a0,-87
  4196ec:	00401825 	move	$v1,$v0
  4196f0:	0071082a 	slt	$at,$v1,$s1
  4196f4:	1420ffdd 	bnez	$at,41966c <strtoul+0x28c>
  4196f8:	0105082b 	sltu	$at,$t0,$a1
  4196fc:	8fb80024 	lw	$t8,36($sp)
  419700:	00a01825 	move	$v1,$a1
  419704:	13000002 	beqz	$t8,419710 <strtoul+0x330>
  419708:	00000000 	nop
  41970c:	af100000 	sw	$s0,0($t8)
  419710:	11600003 	beqz	$t3,419720 <strtoul+0x340>
  419714:	00000000 	nop
  419718:	10000041 	b	419820 <strtoul+0x440>
  41971c:	00051023 	negu	$v0,$a1
  419720:	1000003f 	b	419820 <strtoul+0x440>
  419724:	00601025 	move	$v0,$v1
  419728:	92040001 	lbu	$a0,1($s0)
  41972c:	8faf0024 	lw	$t7,36($sp)
  419730:	0144c821 	addu	$t9,$t2,$a0
  419734:	93260001 	lbu	$a2,1($t9)
  419738:	26100001 	addiu	$s0,$s0,1
  41973c:	30c70004 	andi	$a3,$a2,0x4
  419740:	14e00009 	bnez	$a3,419768 <strtoul+0x388>
  419744:	28810061 	slti	$at,$a0,97
  419748:	14200002 	bnez	$at,419754 <strtoul+0x374>
  41974c:	2881007b 	slti	$at,$a0,123
  419750:	14200005 	bnez	$at,419768 <strtoul+0x388>
  419754:	28810041 	slti	$at,$a0,65
  419758:	1420002b 	bnez	$at,419808 <strtoul+0x428>
  41975c:	2881005b 	slti	$at,$a0,91
  419760:	10200029 	beqz	$at,419808 <strtoul+0x428>
  419764:	00000000 	nop
  419768:	10e00003 	beqz	$a3,419778 <strtoul+0x398>
  41976c:	30cc0002 	andi	$t4,$a2,0x2
  419770:	10000006 	b	41978c <strtoul+0x3ac>
  419774:	2483ffd0 	addiu	$v1,$a0,-48
  419778:	11800003 	beqz	$t4,419788 <strtoul+0x3a8>
  41977c:	2482ffc9 	addiu	$v0,$a0,-55
  419780:	10000001 	b	419788 <strtoul+0x3a8>
  419784:	2482ffa9 	addiu	$v0,$a0,-87
  419788:	00401825 	move	$v1,$v0
  41978c:	0071082a 	slt	$at,$v1,$s1
  419790:	1020001d 	beqz	$at,419808 <strtoul+0x428>
  419794:	00000000 	nop
  419798:	92040001 	lbu	$a0,1($s0)
  41979c:	26100001 	addiu	$s0,$s0,1
  4197a0:	01446821 	addu	$t5,$t2,$a0
  4197a4:	91a60001 	lbu	$a2,1($t5)
  4197a8:	28810061 	slti	$at,$a0,97
  4197ac:	30c70004 	andi	$a3,$a2,0x4
  4197b0:	14e00009 	bnez	$a3,4197d8 <strtoul+0x3f8>
  4197b4:	00000000 	nop
  4197b8:	14200002 	bnez	$at,4197c4 <strtoul+0x3e4>
  4197bc:	2881007b 	slti	$at,$a0,123
  4197c0:	14200005 	bnez	$at,4197d8 <strtoul+0x3f8>
  4197c4:	28810041 	slti	$at,$a0,65
  4197c8:	1420000f 	bnez	$at,419808 <strtoul+0x428>
  4197cc:	2881005b 	slti	$at,$a0,91
  4197d0:	1020000d 	beqz	$at,419808 <strtoul+0x428>
  4197d4:	00000000 	nop
  4197d8:	10e00003 	beqz	$a3,4197e8 <strtoul+0x408>
  4197dc:	30ce0002 	andi	$t6,$a2,0x2
  4197e0:	10000006 	b	4197fc <strtoul+0x41c>
  4197e4:	2483ffd0 	addiu	$v1,$a0,-48
  4197e8:	11c00003 	beqz	$t6,4197f8 <strtoul+0x418>
  4197ec:	2482ffc9 	addiu	$v0,$a0,-55
  4197f0:	10000001 	b	4197f8 <strtoul+0x418>
  4197f4:	2482ffa9 	addiu	$v0,$a0,-87
  4197f8:	00401825 	move	$v1,$v0
  4197fc:	0071082a 	slt	$at,$v1,$s1
  419800:	1420ffe5 	bnez	$at,419798 <strtoul+0x3b8>
  419804:	00000000 	nop
  419808:	11e00002 	beqz	$t7,419814 <strtoul+0x434>
  41980c:	00000000 	nop
  419810:	adf00000 	sw	$s0,0($t7)
  419814:	0c102025 	jal	408094 <_setoserror>
  419818:	24040022 	li	$a0,34
  41981c:	2402ffff 	li	$v0,-1
  419820:	8fbf001c 	lw	$ra,28($sp)
  419824:	8fb00014 	lw	$s0,20($sp)
  419828:	8fb10018 	lw	$s1,24($sp)
  41982c:	03e00008 	jr	$ra
  419830:	27bd0020 	addiu	$sp,$sp,32
	...

00419840 <_r4kup_setlock>:
  419840:	848d0012 	lh	$t5,18($a0)
  419844:	848c0010 	lh	$t4,16($a0)
  419848:	15a0002a 	bnez	$t5,4198f4 <_r4kup_setlock+0xb4>
  41984c:	00000000 	nop
  419850:	c085000c 	lwc0	$5,12($a0)
  419854:	3c020001 	lui	$v0,0x1
  419858:	00057c02 	srl	$t7,$a1,0x10
  41985c:	11ec0003 	beq	$t7,$t4,41986c <_r4kup_setlock+0x2c>
  419860:	30aeffff 	andi	$t6,$a1,0xffff
  419864:	10000002 	b	419870 <_r4kup_setlock+0x30>
  419868:	00453021 	addu	$a2,$v0,$a1
  41986c:	01c03025 	move	$a2,$t6
  419870:	e086000c 	swc0	$6,12($a0)
  419874:	10c0fff6 	beqz	$a2,419850 <_r4kup_setlock+0x10>
  419878:	00000000 	nop
  41987c:	15ee0003 	bne	$t7,$t6,41988c <_r4kup_setlock+0x4c>
  419880:	00000000 	nop
  419884:	03e00008 	jr	$ra
  419888:	24020001 	li	$v0,1
  41988c:	3c0a0020 	lui	$t2,0x20
  419890:	8d460e00 	lw	$a2,3584($t2)
  419894:	000f1080 	sll	$v0,$t7,0x2
  419898:	00825821 	addu	$t3,$a0,$v0
  41989c:	c165001c 	lwc0	$5,28($t3)
  4198a0:	00c06825 	move	$t5,$a2
  4198a4:	e16d001c 	swc0	$13,28($t3)
  4198a8:	11a0fffc 	beqz	$t5,41989c <_r4kup_setlock+0x5c>
  4198ac:	24030001 	li	$v1,1
  4198b0:	10a3000c 	beq	$a1,$v1,4198e4 <_r4kup_setlock+0xa4>
  4198b4:	00000000 	nop
  4198b8:	27bdffe0 	addiu	$sp,$sp,-32
  4198bc:	afbf001c 	sw	$ra,28($sp)
  4198c0:	3c070042 	lui	$a3,0x42
  4198c4:	8c840000 	lw	$a0,0($a0)
  4198c8:	00002825 	move	$a1,$zero
  4198cc:	00c03025 	move	$a2,$a2
  4198d0:	0c102aa2 	jal	40aa88 <_usblock>
  4198d4:	24e7dbd0 	addiu	$a3,$a3,-9264
  4198d8:	8fbf001c 	lw	$ra,28($sp)
  4198dc:	14400003 	bnez	$v0,4198ec <_r4kup_setlock+0xac>
  4198e0:	27bd0020 	addiu	$sp,$sp,32
  4198e4:	03e00008 	jr	$ra
  4198e8:	24020001 	li	$v0,1
  4198ec:	03e00008 	jr	$ra
  4198f0:	2402ffff 	li	$v0,-1
  4198f4:	3c190041 	lui	$t9,0x41
  4198f8:	27398640 	addiu	$t9,$t9,-31168
  4198fc:	03200008 	jr	$t9
  419900:	03e02825 	move	$a1,$ra

00419904 <_r4kup_csetlock>:
  419904:	848d0012 	lh	$t5,18($a0)
  419908:	848c0010 	lh	$t4,16($a0)
  41990c:	15a00018 	bnez	$t5,419970 <_r4kup_csetlock+0x6c>
  419910:	00000000 	nop
  419914:	10a00014 	beqz	$a1,419968 <_r4kup_csetlock+0x64>
  419918:	00000000 	nop
  41991c:	c087000c 	lwc0	$7,12($a0)
  419920:	3c020001 	lui	$v0,0x1
  419924:	00077c02 	srl	$t7,$a3,0x10
  419928:	30eeffff 	andi	$t6,$a3,0xffff
  41992c:	15ee000b 	bne	$t7,$t6,41995c <_r4kup_csetlock+0x58>
  419930:	00000000 	nop
  419934:	11ec0003 	beq	$t7,$t4,419944 <_r4kup_csetlock+0x40>
  419938:	00000000 	nop
  41993c:	10000002 	b	419948 <_r4kup_csetlock+0x44>
  419940:	00473021 	addu	$a2,$v0,$a3
  419944:	01c03025 	move	$a2,$t6
  419948:	e086000c 	swc0	$6,12($a0)
  41994c:	10c0fff3 	beqz	$a2,41991c <_r4kup_csetlock+0x18>
  419950:	00000000 	nop
  419954:	03e00008 	jr	$ra
  419958:	24020001 	li	$v0,1
  41995c:	24a5ffff 	addiu	$a1,$a1,-1
  419960:	14a0ffee 	bnez	$a1,41991c <_r4kup_csetlock+0x18>
  419964:	00000000 	nop
  419968:	03e00008 	jr	$ra
  41996c:	00001025 	move	$v0,$zero
  419970:	3c190041 	lui	$t9,0x41
  419974:	27398a30 	addiu	$t9,$t9,-30160
  419978:	03200008 	jr	$t9
  41997c:	03e03025 	move	$a2,$ra

00419980 <_r4kup_unsetlock>:
  419980:	848b0012 	lh	$t3,18($a0)
  419984:	848c0010 	lh	$t4,16($a0)
  419988:	15600037 	bnez	$t3,419a68 <_r4kup_unsetlock+0xe8>
  41998c:	8c85000c 	lw	$a1,12($a0)
  419990:	00000000 	nop
  419994:	30aeffff 	andi	$t6,$a1,0xffff
  419998:	000e1080 	sll	$v0,$t6,0x2
  41999c:	00826821 	addu	$t5,$a0,$v0
  4199a0:	ada0001c 	sw	$zero,28($t5)
  4199a4:	c085000c 	lwc0	$5,12($a0)
  4199a8:	3c03ffff 	lui	$v1,0xffff
  4199ac:	30aeffff 	andi	$t6,$a1,0xffff
  4199b0:	00057c02 	srl	$t7,$a1,0x10
  4199b4:	11cf000c 	beq	$t6,$t7,4199e8 <_r4kup_unsetlock+0x68>
  4199b8:	00000000 	nop
  4199bc:	11cc0003 	beq	$t6,$t4,4199cc <_r4kup_unsetlock+0x4c>
  4199c0:	25d80001 	addiu	$t8,$t6,1
  4199c4:	10000003 	b	4199d4 <_r4kup_unsetlock+0x54>
  4199c8:	24a60001 	addiu	$a2,$a1,1
  4199cc:	0000c025 	move	$t8,$zero
  4199d0:	00a33024 	and	$a2,$a1,$v1
  4199d4:	e086000c 	swc0	$6,12($a0)
  4199d8:	10c0fff2 	beqz	$a2,4199a4 <_r4kup_unsetlock+0x24>
  4199dc:	00000000 	nop
  4199e0:	15f80003 	bne	$t7,$t8,4199f0 <_r4kup_unsetlock+0x70>
  4199e4:	00000000 	nop
  4199e8:	03e00008 	jr	$ra
  4199ec:	00001025 	move	$v0,$zero
  4199f0:	24060001 	li	$a2,1
  4199f4:	00181080 	sll	$v0,$t8,0x2
  4199f8:	00825821 	addu	$t3,$a0,$v0
  4199fc:	c16a001c 	lwc0	$10,28($t3)
  419a00:	00c04025 	move	$t0,$a2
  419a04:	e166001c 	swc0	$6,28($t3)
  419a08:	10c0fffc 	beqz	$a2,4199fc <_r4kup_unsetlock+0x7c>
  419a0c:	2d430002 	sltiu	$v1,$t2,2
  419a10:	1460000e 	bnez	$v1,419a4c <_r4kup_unsetlock+0xcc>
  419a14:	00000000 	nop
  419a18:	27bdffe0 	addiu	$sp,$sp,-32
  419a1c:	afbf001c 	sw	$ra,28($sp)
  419a20:	afa40014 	sw	$a0,20($sp)
  419a24:	3c070042 	lui	$a3,0x42
  419a28:	8c840000 	lw	$a0,0($a0)
  419a2c:	00002825 	move	$a1,$zero
  419a30:	01403025 	move	$a2,$t2
  419a34:	0c102af6 	jal	40abd8 <_usunblock>
  419a38:	24e7dbda 	addiu	$a3,$a3,-9254
  419a3c:	8fa40014 	lw	$a0,20($sp)
  419a40:	8fbf001c 	lw	$ra,28($sp)
  419a44:	14400003 	bnez	$v0,419a54 <_r4kup_unsetlock+0xd4>
  419a48:	27bd0020 	addiu	$sp,$sp,32
  419a4c:	03e00008 	jr	$ra
  419a50:	00001025 	move	$v0,$zero
  419a54:	24010001 	li	$at,1
  419a58:	1041ffd2 	beq	$v0,$at,4199a4 <_r4kup_unsetlock+0x24>
  419a5c:	848c0010 	lh	$t4,16($a0)
  419a60:	03e00008 	jr	$ra
  419a64:	00000000 	nop
  419a68:	3c190041 	lui	$t9,0x41
  419a6c:	27398850 	addiu	$t9,$t9,-30640
  419a70:	03200008 	jr	$t9
  419a74:	03e02825 	move	$a1,$ra

00419a78 <_r4k_cas>:
  419a78:	c0880000 	lwc0	$8,0($a0)
  419a7c:	00000000 	nop
  419a80:	15050003 	bne	$t0,$a1,419a90 <_r4k_cas+0x18>
  419a84:	00c01025 	move	$v0,$a2
  419a88:	03e00008 	jr	$ra
  419a8c:	e0820000 	swc0	$2,0($a0)
  419a90:	03e00008 	jr	$ra
  419a94:	00001025 	move	$v0,$zero

00419a98 <_r4kmp_grablock>:
  419a98:	c0820008 	lwc0	$2,8($a0)
  419a9c:	14400004 	bnez	$v0,419ab0 <_r4kmp_grablock+0x18>
  419aa0:	24080001 	li	$t0,1
  419aa4:	e0880008 	swc0	$8,8($a0)
  419aa8:	1100fffb 	beqz	$t0,419a98 <_r4kmp_grablock>
  419aac:	00001025 	move	$v0,$zero
  419ab0:	03e00008 	jr	$ra
  419ab4:	00000000 	nop

00419ab8 <_r4kmp_rellock>:
  419ab8:	03e00008 	jr	$ra
  419abc:	ac800008 	sw	$zero,8($a0)

00419ac0 <_r4kmp_wsetlock>:
  419ac0:	84880012 	lh	$t0,18($a0)
  419ac4:	00000000 	nop
  419ac8:	15000018 	bnez	$t0,419b2c <_r4kmp_wsetlock+0x6c>
  419acc:	00a05025 	move	$t2,$a1
  419ad0:	c08b0008 	lwc0	$11,8($a0)
  419ad4:	240c0001 	li	$t4,1
  419ad8:	55600006 	0x55600006
  419adc:	254affff 	addiu	$t2,$t2,-1
  419ae0:	e08c0008 	swc0	$12,8($a0)
  419ae4:	1180fffa 	beqz	$t4,419ad0 <_r4kmp_wsetlock+0x10>
  419ae8:	00000000 	nop
  419aec:	03e00008 	jr	$ra
  419af0:	24020001 	li	$v0,1
  419af4:	1d40fff6 	bgtz	$t2,419ad0 <_r4kmp_wsetlock+0x10>
  419af8:	00000000 	nop
  419afc:	27bdffe0 	addiu	$sp,$sp,-32
  419b00:	afbf001c 	sw	$ra,28($sp)
  419b04:	afa40014 	sw	$a0,20($sp)
  419b08:	afa50010 	sw	$a1,16($sp)
  419b0c:	0c104148 	jal	410520 <_sginap>
  419b10:	00002025 	move	$a0,$zero
  419b14:	8fa50010 	lw	$a1,16($sp)
  419b18:	8fa40014 	lw	$a0,20($sp)
  419b1c:	8fbf001c 	lw	$ra,28($sp)
  419b20:	27bd0020 	addiu	$sp,$sp,32
  419b24:	1000ffea 	b	419ad0 <_r4kmp_wsetlock+0x10>
  419b28:	00a05025 	move	$t2,$a1
  419b2c:	3c190041 	lui	$t9,0x41
  419b30:	2739beb8 	addiu	$t9,$t9,-16712
  419b34:	03200008 	jr	$t9
  419b38:	03e03025 	move	$a2,$ra

00419b3c <_r4kmp_setlock>:
  419b3c:	84880012 	lh	$t0,18($a0)
  419b40:	3c090042 	lui	$t1,0x42
  419b44:	8d29e4b0 	lw	$t1,-6992($t1)
  419b48:	3c0a0042 	lui	$t2,0x42
  419b4c:	8d4ae4b4 	lw	$t2,-6988($t2)
  419b50:	1500001f 	bnez	$t0,419bd0 <_r4kmp_setlock+0x94>
  419b54:	00000000 	nop
  419b58:	c08b0008 	lwc0	$11,8($a0)
  419b5c:	240c0001 	li	$t4,1
  419b60:	55600006 	0x55600006
  419b64:	2529ffff 	addiu	$t1,$t1,-1
  419b68:	e08c0008 	swc0	$12,8($a0)
  419b6c:	11800003 	beqz	$t4,419b7c <_r4kmp_setlock+0x40>
  419b70:	2529ffff 	addiu	$t1,$t1,-1
  419b74:	03e00008 	jr	$ra
  419b78:	24020001 	li	$v0,1
  419b7c:	1d20fff6 	bgtz	$t1,419b58 <_r4kmp_setlock+0x1c>
  419b80:	00000000 	nop
  419b84:	254affff 	addiu	$t2,$t2,-1
  419b88:	1d400004 	bgtz	$t2,419b9c <_r4kmp_setlock+0x60>
  419b8c:	240d0000 	li	$t5,0
  419b90:	240d0001 	li	$t5,1
  419b94:	3c0a0042 	lui	$t2,0x42
  419b98:	8d4ae4b4 	lw	$t2,-6988($t2)
  419b9c:	27bdffe0 	addiu	$sp,$sp,-32
  419ba0:	afbf001c 	sw	$ra,28($sp)
  419ba4:	afa40014 	sw	$a0,20($sp)
  419ba8:	afaa0010 	sw	$t2,16($sp)
  419bac:	0c104148 	jal	410520 <_sginap>
  419bb0:	01a02025 	move	$a0,$t5
  419bb4:	8faa0010 	lw	$t2,16($sp)
  419bb8:	8fa40014 	lw	$a0,20($sp)
  419bbc:	8fbf001c 	lw	$ra,28($sp)
  419bc0:	3c090042 	lui	$t1,0x42
  419bc4:	27bd0020 	addiu	$sp,$sp,32
  419bc8:	1000ffe3 	b	419b58 <_r4kmp_setlock+0x1c>
  419bcc:	8d29e4b0 	lw	$t1,-6992($t1)
  419bd0:	3c190041 	lui	$t9,0x41
  419bd4:	2739c0e4 	addiu	$t9,$t9,-16156
  419bd8:	03200008 	jr	$t9
  419bdc:	03e02825 	move	$a1,$ra

00419be0 <_r4kmp_csetlock>:
  419be0:	84880012 	lh	$t0,18($a0)
  419be4:	00000000 	nop
  419be8:	1500000e 	bnez	$t0,419c24 <_r4kmp_csetlock+0x44>
  419bec:	00000000 	nop
  419bf0:	c08b0008 	lwc0	$11,8($a0)
  419bf4:	240c0001 	li	$t4,1
  419bf8:	55600006 	0x55600006
  419bfc:	24a5ffff 	addiu	$a1,$a1,-1
  419c00:	e08c0008 	swc0	$12,8($a0)
  419c04:	1180fffa 	beqz	$t4,419bf0 <_r4kmp_csetlock+0x10>
  419c08:	00000000 	nop
  419c0c:	03e00008 	jr	$ra
  419c10:	24020001 	li	$v0,1
  419c14:	1ca0fff6 	bgtz	$a1,419bf0 <_r4kmp_csetlock+0x10>
  419c18:	24020000 	li	$v0,0
  419c1c:	03e00008 	jr	$ra
  419c20:	00000000 	nop
  419c24:	3c190041 	lui	$t9,0x41
  419c28:	2739c064 	addiu	$t9,$t9,-16284
  419c2c:	03200008 	jr	$t9
  419c30:	03e03025 	move	$a2,$ra

00419c34 <_r4kmp_unsetlock>:
  419c34:	84880012 	lh	$t0,18($a0)
  419c38:	00001025 	move	$v0,$zero
  419c3c:	15000003 	bnez	$t0,419c4c <_r4kmp_unsetlock+0x18>
  419c40:	00000000 	nop
  419c44:	03e00008 	jr	$ra
  419c48:	ac800008 	sw	$zero,8($a0)
  419c4c:	3c190041 	lui	$t9,0x41
  419c50:	2739c1e8 	addiu	$t9,$t9,-15896
  419c54:	03200008 	jr	$t9
  419c58:	03e02825 	move	$a1,$ra

00419c5c <_r4kmpllwar_grablock>:
  419c5c:	c0820000 	lwc0	$2,0($a0)
  419c60:	00000000 	nop
  419c64:	14400009 	bnez	$v0,419c8c <_r4kmpllwar_grablock+0x30>
  419c68:	00a04025 	move	$t0,$a1
  419c6c:	e0880000 	swc0	$8,0($a0)
  419c70:	15000004 	bnez	$t0,419c84 <_r4kmpllwar_grablock+0x28>
  419c74:	8c820000 	lw	$v0,0($a0)
  419c78:	00000000 	nop
  419c7c:	1445fff7 	bne	$v0,$a1,419c5c <_r4kmpllwar_grablock>
  419c80:	00000000 	nop
  419c84:	03e00008 	jr	$ra
	...
  419ccc:	1000ffe3 	b	419c5c <_r4kmpllwar_grablock>
	...

00419ce0 <_getpid>:
  419ce0:	240203fc 	li	$v0,1020
  419ce4:	0000000c 	syscall
  419ce8:	14e00003 	bnez	$a3,419cf8 <_getpid+0x18>
  419cec:	00000000 	nop
  419cf0:	03e00008 	jr	$ra
  419cf4:	00000000 	nop
  419cf8:	3c190040 	lui	$t9,0x40
  419cfc:	27396b60 	addiu	$t9,$t9,27488
  419d00:	03200008 	jr	$t9
	...

00419d10 <_kill>:
  419d10:	2402040d 	li	$v0,1037
  419d14:	0000000c 	syscall
  419d18:	14e00004 	bnez	$a3,419d2c <_kill+0x1c>
  419d1c:	00000000 	nop
  419d20:	00001025 	move	$v0,$zero
  419d24:	03e00008 	jr	$ra
  419d28:	00000000 	nop
  419d2c:	3c190040 	lui	$t9,0x40
  419d30:	27396b60 	addiu	$t9,$t9,27488
  419d34:	03200008 	jr	$t9
	...

00419d40 <_sigaction>:
  419d40:	27bdffe8 	addiu	$sp,$sp,-24
  419d44:	afbf0014 	sw	$ra,20($sp)
  419d48:	3c070042 	lui	$a3,0x42
  419d4c:	0c106800 	jal	41a000 <_ksigaction>
  419d50:	24e7a030 	addiu	$a3,$a3,-24528
  419d54:	8fbf0014 	lw	$ra,20($sp)
  419d58:	27bd0018 	addiu	$sp,$sp,24
  419d5c:	03e00008 	jr	$ra
	...

00419d70 <__sigfillset>:
  419d70:	2402ffff 	li	$v0,-1
  419d74:	ac820000 	sw	$v0,0($a0)
  419d78:	ac820004 	sw	$v0,4($a0)
  419d7c:	ac800008 	sw	$zero,8($a0)
  419d80:	03e00008 	jr	$ra
  419d84:	ac80000c 	sw	$zero,12($a0)
	...

00419d90 <_xstat>:
  419d90:	24020486 	li	$v0,1158
  419d94:	0000000c 	syscall
  419d98:	14e00004 	bnez	$a3,419dac <_xstat+0x1c>
  419d9c:	00000000 	nop
  419da0:	00001025 	move	$v0,$zero
  419da4:	03e00008 	jr	$ra
  419da8:	00000000 	nop
  419dac:	3c190040 	lui	$t9,0x40
  419db0:	27396b60 	addiu	$t9,$t9,27488
  419db4:	03200008 	jr	$t9
	...

00419dc0 <_syssgi>:
  419dc0:	24020410 	li	$v0,1040
  419dc4:	0000000c 	syscall
  419dc8:	14e00003 	bnez	$a3,419dd8 <_syssgi+0x18>
  419dcc:	00000000 	nop
  419dd0:	03e00008 	jr	$ra
  419dd4:	00000000 	nop
  419dd8:	3c190040 	lui	$t9,0x40
  419ddc:	27396b60 	addiu	$t9,$t9,27488
  419de0:	03200008 	jr	$t9
	...

00419df0 <_getdtablesize>:
  419df0:	27bdffe8 	addiu	$sp,$sp,-24
  419df4:	afbf0014 	sw	$ra,20($sp)
  419df8:	24040004 	li	$a0,4
  419dfc:	0c106820 	jal	41a080 <_ulimit>
  419e00:	00002825 	move	$a1,$zero
  419e04:	8fbf0014 	lw	$ra,20($sp)
  419e08:	27bd0018 	addiu	$sp,$sp,24
  419e0c:	03e00008 	jr	$ra
	...

00419e20 <_tenscale>:
  419e20:	27bdffd8 	addiu	$sp,$sp,-40
  419e24:	05000013 	bltz	$t0,419e74 <_tenscale+0x54>
  419e28:	afbf0024 	sw	$ra,36($sp)
  419e2c:	2508ffe5 	addiu	$t0,$t0,-27
  419e30:	1d000010 	bgtz	$t0,419e74 <_tenscale+0x54>
  419e34:	00000000 	nop
  419e38:	00084040 	sll	$t0,$t0,0x1
  419e3c:	3c030042 	lui	$v1,0x42
  419e40:	00681821 	addu	$v1,$v1,$t0
  419e44:	00084080 	sll	$t0,$t0,0x2
  419e48:	3c010042 	lui	$at,0x42
  419e4c:	00280821 	addu	$at,$at,$t0
  419e50:	8463d5fc 	lh	$v1,-10756($v1)
  419e54:	8c2ed4b0 	lw	$t6,-11088($at)
  419e58:	8c2fd4b4 	lw	$t7,-11084($at)
  419e5c:	04110049 	bal	419f84 <_tenscale+0x164>
  419e60:	00000000 	nop
  419e64:	8fbf0024 	lw	$ra,36($sp)
  419e68:	27bd0028 	addiu	$sp,$sp,40
  419e6c:	03e00008 	jr	$ra
  419e70:	00000000 	nop
  419e74:	00085903 	sra	$t3,$t0,0x4
  419e78:	000b5880 	sll	$t3,$t3,0x2
  419e7c:	3c010042 	lui	$at,0x42
  419e80:	002b0821 	addu	$at,$at,$t3
  419e84:	8c2bd560 	lw	$t3,-10912($at)
  419e88:	00085040 	sll	$t2,$t0,0x1
  419e8c:	014b5804 	sllv	$t3,$t3,$t2
  419e90:	000b5f83 	sra	$t3,$t3,0x1e
  419e94:	afac001c 	sw	$t4,28($sp)
  419e98:	afad0018 	sw	$t5,24($sp)
  419e9c:	05000033 	bltz	$t0,419f6c <_tenscale+0x14c>
  419ea0:	afab0014 	sw	$t3,20($sp)
  419ea4:	24090034 	li	$t1,52
  419ea8:	2508ffe4 	addiu	$t0,$t0,-28
  419eac:	0501fffe 	bgez	$t0,419ea8 <_tenscale+0x88>
  419eb0:	25290002 	addiu	$t1,$t1,2
  419eb4:	3c030042 	lui	$v1,0x42
  419eb8:	00084040 	sll	$t0,$t0,0x1
  419ebc:	3c0a0042 	lui	$t2,0x42
  419ec0:	00691821 	addu	$v1,$v1,$t1
  419ec4:	01485021 	addu	$t2,$t2,$t0
  419ec8:	00094880 	sll	$t1,$t1,0x2
  419ecc:	00084080 	sll	$t0,$t0,0x2
  419ed0:	8463d5c6 	lh	$v1,-10810($v1)
  419ed4:	854ad5fe 	lh	$t2,-10754($t2)
  419ed8:	3c0e0042 	lui	$t6,0x42
  419edc:	3c0f0042 	lui	$t7,0x42
  419ee0:	3c0c0042 	lui	$t4,0x42
  419ee4:	3c0d0042 	lui	$t5,0x42
  419ee8:	01c97021 	addu	$t6,$t6,$t1
  419eec:	01e97821 	addu	$t7,$t7,$t1
  419ef0:	01886021 	addu	$t4,$t4,$t0
  419ef4:	01a86821 	addu	$t5,$t5,$t0
  419ef8:	8dced3d8 	lw	$t6,-11304($t6)
  419efc:	8defd3dc 	lw	$t7,-11300($t7)
  419f00:	8d8cd4b8 	lw	$t4,-11080($t4)
  419f04:	8dadd4bc 	lw	$t5,-11076($t5)
  419f08:	006a1821 	addu	$v1,$v1,$t2
  419f0c:	0411001d 	bal	419f84 <_tenscale+0x164>
  419f10:	24630001 	addiu	$v1,$v1,1
  419f14:	0560000a 	bltz	$t3,419f40 <_tenscale+0x120>
  419f18:	8fa80014 	lw	$t0,20($sp)
  419f1c:	000b5840 	sll	$t3,$t3,0x1
  419f20:	000a47c2 	srl	$t0,$t2,0x1f
  419f24:	01685825 	or	$t3,$t3,$t0
  419f28:	000947c2 	srl	$t0,$t1,0x1f
  419f2c:	000a5040 	sll	$t2,$t2,0x1
  419f30:	01485025 	or	$t2,$t2,$t0
  419f34:	00094840 	sll	$t1,$t1,0x1
  419f38:	2463ffff 	addiu	$v1,$v1,-1
  419f3c:	8fa80014 	lw	$t0,20($sp)
  419f40:	00094fc2 	srl	$t1,$t1,0x1f
  419f44:	01497021 	addu	$t6,$t2,$t1
  419f48:	8fac001c 	lw	$t4,28($sp)
  419f4c:	8fad0018 	lw	$t5,24($sp)
  419f50:	01607825 	move	$t7,$t3
  419f54:	0411000b 	bal	419f84 <_tenscale+0x164>
  419f58:	01c87021 	addu	$t6,$t6,$t0
  419f5c:	8fbf0024 	lw	$ra,36($sp)
  419f60:	27bd0028 	addiu	$sp,$sp,40
  419f64:	03e00008 	jr	$ra
  419f68:	00000000 	nop
  419f6c:	24090000 	li	$t1,0
  419f70:	2508001c 	addiu	$t0,$t0,28
  419f74:	0500fffe 	bltz	$t0,419f70 <_tenscale+0x150>
  419f78:	2529fffe 	addiu	$t1,$t1,-2
  419f7c:	1000ffcd 	b	419eb4 <_tenscale+0x94>
  419f80:	2508ffe4 	addiu	$t0,$t0,-28
  419f84:	018e0019 	multu	$t4,$t6
  419f88:	00004012 	mflo	$t0
  419f8c:	00004810 	mfhi	$t1
  419f90:	01203827 	nor	$a3,$t1,$zero
  419f94:	00000000 	nop
  419f98:	01ae0019 	multu	$t5,$t6
  419f9c:	00003012 	mflo	$a2
  419fa0:	00005010 	mfhi	$t2
  419fa4:	00e6382b 	sltu	$a3,$a3,$a2
  419fa8:	01264821 	addu	$t1,$t1,$a2
  419fac:	018f0019 	multu	$t4,$t7
  419fb0:	01475020 	add	$t2,$t2,$a3
  419fb4:	01203827 	nor	$a3,$t1,$zero
  419fb8:	00003012 	mflo	$a2
  419fbc:	00005810 	mfhi	$t3
  419fc0:	00e6382b 	sltu	$a3,$a3,$a2
  419fc4:	01264821 	addu	$t1,$t1,$a2
  419fc8:	01af0019 	multu	$t5,$t7
  419fcc:	01475020 	add	$t2,$t2,$a3
  419fd0:	01403027 	nor	$a2,$t2,$zero
  419fd4:	00cb302b 	sltu	$a2,$a2,$t3
  419fd8:	014b5021 	addu	$t2,$t2,$t3
  419fdc:	01403827 	nor	$a3,$t2,$zero
  419fe0:	00005810 	mfhi	$t3
  419fe4:	01665820 	add	$t3,$t3,$a2
  419fe8:	00003012 	mflo	$a2
  419fec:	00e6382b 	sltu	$a3,$a3,$a2
  419ff0:	01675820 	add	$t3,$t3,$a3
  419ff4:	03e00008 	jr	$ra
  419ff8:	01465021 	addu	$t2,$t2,$a2
  419ffc:	00000000 	nop

0041a000 <_ksigaction>:
  41a000:	2402048a 	li	$v0,1162
  41a004:	0000000c 	syscall
  41a008:	14e00003 	bnez	$a3,41a018 <_ksigaction+0x18>
  41a00c:	00000000 	nop
  41a010:	03e00008 	jr	$ra
  41a014:	00000000 	nop
  41a018:	3c190040 	lui	$t9,0x40
  41a01c:	27396b60 	addiu	$t9,$t9,27488
  41a020:	03200008 	jr	$t9
	...

0041a030 <_sigtramp>:
  41a030:	3c088000 	lui	$t0,0x8000
  41a034:	27bdffe8 	addiu	$sp,$sp,-24
  41a038:	00884024 	and	$t0,$a0,$t0
  41a03c:	11000005 	beqz	$t0,41a054 <_sigtramp+0x24>
  41a040:	afa60014 	sw	$a2,20($sp)
  41a044:	01004027 	nor	$t0,$t0,$zero
  41a048:	afa00010 	sw	$zero,16($sp)
  41a04c:	10000002 	b	41a058 <_sigtramp+0x28>
  41a050:	00882024 	and	$a0,$a0,$t0
  41a054:	afa60010 	sw	$a2,16($sp)
  41a058:	00e0c825 	move	$t9,$a3
  41a05c:	0320f809 	jalr	$t9
  41a060:	00000000 	nop
  41a064:	8fa40010 	lw	$a0,16($sp)
  41a068:	8fa50014 	lw	$a1,20($sp)
  41a06c:	00000000 	nop
  41a070:	24020440 	li	$v0,1088
  41a074:	0000000c 	syscall
	...

0041a080 <_ulimit>:
  41a080:	24020427 	li	$v0,1063
  41a084:	0000000c 	syscall
  41a088:	14e00003 	bnez	$a3,41a098 <_ulimit+0x18>
  41a08c:	00000000 	nop
  41a090:	03e00008 	jr	$ra
  41a094:	00000000 	nop
  41a098:	3c190040 	lui	$t9,0x40
  41a09c:	27396b60 	addiu	$t9,$t9,27488
  41a0a0:	03200008 	jr	$t9
	...
Disassembly of section .rodata:

0041a0b0 <_sys_index-0x1ec0>:
  41a0b0:	24526576 	addiu	$s2,$v0,25974
  41a0b4:	6973696f 	0x6973696f
  41a0b8:	6e3a2031 	0x6e3a2031
  41a0bc:	2e343920 	sltiu	$s4,$s1,14624
  41a0c0:	24000000 	li	$zero,0
  41a0c4:	68747470 	0x68747470
  41a0c8:	733a2f2f 	0x733a2f2f
  41a0cc:	7777772e 	jalx	ddddcb8 <_gp+0xd9b80d8>
  41a0d0:	7475746f 	jalx	1d5d1bc <_gp+0x19375dc>
  41a0d4:	7269616c 	0x7269616c
  41a0d8:	73706f69 	0x73706f69
  41a0dc:	6e742e63 	0x6e742e63
  41a0e0:	6f6d0000 	0x6f6d0000
  41a0e4:	48656c6f 	0x48656c6f
  41a0e8:	6f6f6f21 	0x6f6f6f21
  41a0ec:	21000000 	addi	$zero,$t0,0
  41a0f0:	4265666f 	c0	0x65666f
  41a0f4:	7265206d 	0x7265206d
  41a0f8:	656d6370 	0x656d6370
  41a0fc:	79206465 	0x79206465
  41a100:	7374203d 	0x7374203d
  41a104:	2025730a 	addi	$a1,$at,29450
  41a108:	00000000 	nop
  41a10c:	41667465 	0x41667465
  41a110:	72206d65 	0x72206d65
  41a114:	6d637079 	0x6d637079
  41a118:	20646573 	addi	$a0,$v1,25971
  41a11c:	74203d20 	jalx	80f480 <_gp+0x3e98a0>
  41a120:	25730a00 	addiu	$s3,$t3,2560
	...
  41a130:	24526576 	addiu	$s2,$v0,25974
  41a134:	6973696f 	0x6973696f
  41a138:	6e3a2031 	0x6e3a2031
  41a13c:	2e343920 	sltiu	$s4,$s1,14624
  41a140:	24000000 	li	$zero,0
	...
  41a150:	25733a20 	addiu	$s3,$t3,14880
  41a154:	4c4f434b 	0x4c4f434b
  41a158:	44554d50 	0x44554d50
  41a15c:	20617420 	addi	$at,$v1,29728
  41a160:	25237820 	addiu	$v1,$t1,30752
  41a164:	286c6173 	slti	$t4,$v1,24947
  41a168:	74206f77 	jalx	81bddc <_gp+0x3f61fc>
  41a16c:	6e657220 	0x6e657220
  41a170:	3d202564 	0x3d202564
  41a174:	290a0000 	slti	$t2,$t0,0
  41a178:	20206c6f 	addi	$zero,$at,27759
  41a17c:	636b2068 	0x636b2068
  41a180:	656c640a 	0x656c640a
  41a184:	00000000 	nop
  41a188:	20206c6f 	addi	$zero,$at,27759
  41a18c:	636b2066 	0x636b2066
  41a190:	7265650a 	0x7265650a
  41a194:	00000000 	nop
  41a198:	20206c6f 	addi	$zero,$at,27759
  41a19c:	636b206d 	0x636b206d
  41a1a0:	65746572 	0x65746572
  41a1a4:	3a202074 	xori	$zero,$s1,0x2074
  41a1a8:	72696573 	0x72696573
  41a1ac:	20256420 	addi	$a1,$at,25632
  41a1b0:	7370696e 	0x7370696e
  41a1b4:	73202564 	0x73202564
  41a1b8:	20686974 	addi	$t0,$v1,26996
  41a1bc:	73202564 	0x73202564
  41a1c0:	0a000000 	j	8000000 <_gp+0x7bda420>
  41a1c4:	20206c6f 	addi	$zero,$at,27759
  41a1c8:	636b2064 	0x636b2064
  41a1cc:	65627567 	0x65627567
  41a1d0:	3a20206f 	xori	$zero,$s1,0x206f
  41a1d4:	776e6572 	jalx	db995c8 <_gp+0xd7739e8>
  41a1d8:	20706964 	addi	$s0,$v1,26980
  41a1dc:	20256420 	addi	$a1,$at,25632
  41a1e0:	0a000000 	j	8000000 <_gp+0x7bda420>
  41a1e4:	446f7562 	0x446f7562
  41a1e8:	6c652074 	0x6c652074
  41a1ec:	72697070 	0x72697070
  41a1f0:	6564206f 	0x6564206f
  41a1f4:	6e206c6f 	0x6e206c6f
  41a1f8:	636b2040 	0x636b2040
  41a1fc:	20307825 	addi	$s0,$at,30757
  41a200:	78206279 	0x78206279
  41a204:	20706964 	addi	$s0,$v1,26980
  41a208:	20256420 	addi	$a1,$at,25632
  41a20c:	63616c6c 	0x63616c6c
  41a210:	65642066 	0x65642066
  41a214:	726f6d20 	0x726f6d20
  41a218:	30782578 	andi	$t8,$v1,0x2578
  41a21c:	00000000 	nop
  41a220:	75737365 	jalx	5cdcd94 <_gp+0x58b71b4>
  41a224:	746c6f63 	jalx	1b1bd8c <_gp+0x16f61ac>
  41a228:	6b000000 	0x6b000000
  41a22c:	556e7365 	0x556e7365
  41a230:	74206c6f 	jalx	81b1bc <_gp+0x3f55dc>
  41a234:	636b2c20 	0x636b2c20
  41a238:	62757420 	0x62757420
  41a23c:	6c6f636b 	0x6c6f636b
  41a240:	206e6f74 	addi	$t6,$v1,28532
  41a244:	206c6f63 	addi	$t4,$v1,28515
  41a248:	6b65642e 	0x6b65642e
  41a24c:	206c6f63 	addi	$t4,$v1,28515
  41a250:	6b204020 	0x6b204020
  41a254:	30782578 	andi	$t8,$v1,0x2578
  41a258:	20706964 	addi	$s0,$v1,26980
  41a25c:	20256420 	addi	$a1,$at,25632
  41a260:	63616c6c 	0x63616c6c
  41a264:	65642066 	0x65642066
  41a268:	726f6d20 	0x726f6d20
  41a26c:	30782578 	andi	$t8,$v1,0x2578
  41a270:	00000000 	nop
  41a274:	556e6c6f 	0x556e6c6f
  41a278:	636b696e 	0x636b696e
  41a27c:	67206c6f 	0x67206c6f
  41a280:	636b2074 	0x636b2074
  41a284:	68617420 	0x68617420
  41a288:	6f746865 	0x6f746865
  41a28c:	72207072 	0x72207072
  41a290:	6f636573 	0x6f636573
  41a294:	73206c6f 	0x73206c6f
  41a298:	636b6564 	0x636b6564
  41a29c:	2e206c6f 	sltiu	$zero,$s1,27759
  41a2a0:	636b2040 	0x636b2040
  41a2a4:	20307825 	addi	$s0,$at,30757
  41a2a8:	78206279 	0x78206279
  41a2ac:	20706964 	addi	$s0,$v1,26980
  41a2b0:	20256420 	addi	$a1,$at,25632
  41a2b4:	63616c6c 	0x63616c6c
  41a2b8:	65642066 	0x65642066
  41a2bc:	726f6d20 	0x726f6d20
  41a2c0:	30782578 	andi	$t8,$v1,0x2578
  41a2c4:	00000000 	nop
  41a2c8:	7573756e 	jalx	5cdd5b8 <_gp+0x58b79d8>
  41a2cc:	7365746c 	0x7365746c
  41a2d0:	6f636b00 	0x6f636b00
  41a2d4:	496e7465 	0x496e7465
  41a2d8:	726e616c 	0x726e616c
  41a2dc:	20657272 	addi	$a1,$v1,29298
  41a2e0:	6f722069 	0x6f722069
  41a2e4:	6e207573 	0x6e207573
  41a2e8:	63736574 	0x63736574
  41a2ec:	6c6f636b 	0x6c6f636b
  41a2f0:	210a0000 	addi	$t2,$t0,0
	...
  41a300:	75737073 	jalx	5cdc1cc <_gp+0x58b65ec>
  41a304:	656d613a 	0x656d613a
  41a308:	4552524f 	0x4552524f
  41a30c:	523a7370 	0x523a7370
  41a310:	20307825 	addi	$s0,$at,30757
  41a314:	78207175 	0x78207175
  41a318:	65756520 	0x65756520
  41a31c:	6f766572 	0x6f766572
  41a320:	666c6f77 	0x666c6f77
  41a324:	20706964 	addi	$s0,$v1,26980
  41a328:	2025640a 	addi	$a1,$at,25610
  41a32c:	00000000 	nop
  41a330:	75736672 	jalx	5cd99c8 <_gp+0x58b3de8>
  41a334:	65657365 	0x65657365
  41a338:	6d613a45 	0x6d613a45
  41a33c:	52524f52 	0x52524f52
  41a340:	3a737020 	xori	$s3,$s3,0x7020
  41a344:	30782578 	andi	$t8,$v1,0x2578
  41a348:	20626164 	addi	$v0,$v1,24932
  41a34c:	20757370 	addi	$s5,$v1,29552
  41a350:	74725f74 	jalx	1c97dd0 <_gp+0x18721f0>
  41a354:	20307825 	addi	$s0,$at,30757
  41a358:	78207069 	0x78207069
  41a35c:	64202564 	0x64202564
  41a360:	0a000000 	j	8000000 <_gp+0x7bda420>
  41a364:	25733a20 	addiu	$s3,$t3,14880
  41a368:	53454d41 	0x53454d41
  41a36c:	44554d50 	0x44554d50
  41a370:	206f6620 	addi	$t7,$v1,26144
  41a374:	25237820 	addiu	$v1,$t1,30752
  41a378:	636f756e 	0x636f756e
  41a37c:	74202564 	jalx	809590 <_gp+0x3e39b0>
  41a380:	00000000 	nop
  41a384:	706f6c6c 	0x706f6c6c
  41a388:	696e6720 	0x696e6720
  41a38c:	64657620 	0x64657620
  41a390:	2523780a 	addiu	$v1,$t1,30730
  41a394:	00000000 	nop
  41a398:	20207365 	addi	$zero,$at,29541
  41a39c:	6d617068 	0x6d617068
  41a3a0:	6f726520 	0x6f726520
  41a3a4:	6d657465 	0x6d657465
  41a3a8:	723a2076 	0x723a2076
  41a3ac:	616c7565 	0x616c7565
  41a3b0:	20256420 	addi	$a1,$at,25632
  41a3b4:	6e776169 	0x6e776169
  41a3b8:	74202564 	jalx	809590 <_gp+0x3e39b0>
  41a3bc:	206d6178 	addi	$t5,$v1,24952
  41a3c0:	6e776169 	0x6e776169
  41a3c4:	74202564 	jalx	809590 <_gp+0x3e39b0>
  41a3c8:	0a000000 	j	8000000 <_gp+0x7bda420>
  41a3cc:	20202020 	addi	$zero,$at,8224
  41a3d0:	20202020 	addi	$zero,$at,8224
  41a3d4:	20202020 	addi	$zero,$at,8224
  41a3d8:	20202020 	addi	$zero,$at,8224
  41a3dc:	20202070 	addi	$zero,$at,8304
  41a3e0:	73656d61 	0x73656d61
  41a3e4:	73202564 	0x73202564
  41a3e8:	20706869 	addi	$s0,$v1,26729
  41a3ec:	74732025 	jalx	1cc8094 <_gp+0x18a24b4>
  41a3f0:	64207673 	0x64207673
  41a3f4:	656d6173 	0x656d6173
  41a3f8:	20256420 	addi	$a1,$at,25632
  41a3fc:	766e6f77 	jalx	9b9bddc <_gp+0x97761fc>
  41a400:	61697420 	0x61697420
  41a404:	25640a00 	addiu	$a0,$t3,2560
  41a408:	20207365 	addi	$zero,$at,29541
  41a40c:	6d617068 	0x6d617068
  41a410:	6f726520 	0x6f726520
  41a414:	64656275 	0x64656275
  41a418:	673a206f 	0x673a206f
  41a41c:	776e6572 	jalx	db995c8 <_gp+0xd7739e8>
  41a420:	20706964 	addi	$s0,$v1,26980
  41a424:	20256420 	addi	$a1,$at,25632
  41a428:	63616c6c 	0x63616c6c
  41a42c:	65642066 	0x65642066
  41a430:	726f6d20 	0x726f6d20
  41a434:	30782578 	andi	$t8,$v1,0x2578
  41a438:	0a000000 	j	8000000 <_gp+0x7bda420>
  41a43c:	20202020 	addi	$zero,$at,8224
  41a440:	20202020 	addi	$zero,$at,8224
  41a444:	20202020 	addi	$zero,$at,8224
  41a448:	20202020 	addi	$zero,$at,8224
  41a44c:	2020206c 	addi	$zero,$at,8300
  41a450:	61737420 	0x61737420
  41a454:	70696420 	0x70696420
  41a458:	25642063 	addiu	$a0,$t3,8291
  41a45c:	616c6c65 	0x616c6c65
  41a460:	64206672 	0x64206672
  41a464:	6f6d2030 	0x6f6d2030
  41a468:	7825780a 	0x7825780a
  41a46c:	00000000 	nop
  41a470:	48697374 	0x48697374
  41a474:	6f727920 	0x6f727920
  41a478:	63757272 	0x63757272
  41a47c:	656e7420 	0x656e7420
  41a480:	30782578 	andi	$t8,$v1,0x2578
  41a484:	20656e74 	addi	$a1,$v1,28276
  41a488:	72696573 	0x72696573
  41a48c:	20256420 	addi	$a1,$at,25632
  41a490:	6572726f 	0x6572726f
  41a494:	72732025 	0x72732025
  41a498:	640a0000 	0x640a0000
  41a49c:	4261636b 	c0	0x61636b
  41a4a0:	77617264 	jalx	d85c990 <_gp+0xd436db0>
  41a4a4:	20696e20 	addi	$t1,$v1,28192
  41a4a8:	74696d65 	jalx	1a5b594 <_gp+0x16359b4>
  41a4ac:	0a000000 	j	8000000 <_gp+0x7bda420>
  41a4b0:	25732073 	addiu	$s3,$t3,8307
  41a4b4:	656d6120 	0x656d6120
  41a4b8:	40203078 	0x40203078
  41a4bc:	25782070 	addiu	$t8,$t3,8304
  41a4c0:	69642025 	0x69642025
  41a4c4:	64207770 	0x64207770
  41a4c8:	69642025 	0x69642025
  41a4cc:	64206370 	0x64206370
  41a4d0:	63203078 	0x63203078
  41a4d4:	25782073 	addiu	$t8,$t3,8307
  41a4d8:	636e7420 	0x636e7420
  41a4dc:	25640a00 	addiu	$a0,$t3,2560
  41a4e0:	466f7277 	c1	0x6f7277
  41a4e4:	61726420 	0x61726420
  41a4e8:	696e2074 	0x696e2074
  41a4ec:	696d650a 	0x696d650a
  41a4f0:	00000000 	nop
  41a4f4:	25732073 	addiu	$s3,$t3,8307
  41a4f8:	656d6120 	0x656d6120
  41a4fc:	40203078 	0x40203078
  41a500:	25782070 	addiu	$t8,$t3,8304
  41a504:	69642025 	0x69642025
  41a508:	64207770 	0x64207770
  41a50c:	69642025 	0x69642025
  41a510:	64206370 	0x64206370
  41a514:	63203078 	0x63203078
  41a518:	25782073 	addiu	$t8,$t3,8307
  41a51c:	636e7420 	0x636e7420
  41a520:	25640a00 	addiu	$a0,$t3,2560
  41a524:	2f646576 	sltiu	$a0,$k1,25974
  41a528:	2f757365 	sltiu	$s5,$k1,29541
  41a52c:	6d61636c 	0x6d61636c
  41a530:	6f6e6500 	0x6f6e6500
  41a534:	75736f70 	jalx	5cdbdc0 <_gp+0x58b61e0>
  41a538:	656e706f 	0x656e706f
  41a53c:	6c6c7365 	0x6c6c7365
  41a540:	6d613a45 	0x6d613a45
  41a544:	52524f52 	0x52524f52
  41a548:	3a706964 	xori	$s0,$s3,0x6964
  41a54c:	20256420 	addi	$a1,$at,25632
  41a550:	63616e6e 	0x63616e6e
  41a554:	6f742067 	0x6f742067
  41a558:	6574206e 	0x6574206e
  41a55c:	6577206d 	0x6577206d
  41a560:	696e6f72 	0x696e6f72
  41a564:	00000000 	nop
  41a568:	75736f70 	jalx	5cdbdc0 <_gp+0x58b61e0>
  41a56c:	656e706f 	0x656e706f
  41a570:	6c6c7365 	0x6c6c7365
  41a574:	6d613a45 	0x6d613a45
  41a578:	52524f52 	0x52524f52
  41a57c:	3a706964 	xori	$s0,$s3,0x6964
  41a580:	20256420 	addi	$a1,$at,25632
  41a584:	63616e6e 	0x63616e6e
  41a588:	6f742063 	0x6f742063
  41a58c:	6867206d 	0x6867206d
  41a590:	6f646520 	0x6f646520
  41a594:	6f6e206e 	0x6f6e206e
  41a598:	6577206d 	0x6577206d
  41a59c:	696e6f72 	0x696e6f72
  41a5a0:	00000000 	nop
  41a5a4:	54524143 	0x54524143
  41a5a8:	453a2075 	0x453a2075
  41a5ac:	736f7065 	0x736f7065
  41a5b0:	6e706f6c 	0x6e706f6c
  41a5b4:	6c73656d 	0x6c73656d
  41a5b8:	613a7469 	0x613a7469
  41a5bc:	64202564 	0x64202564
  41a5c0:	20706f6c 	addi	$s0,$v1,28524
  41a5c4:	6c73656d 	0x6c73656d
  41a5c8:	61204020 	0x61204020
  41a5cc:	30782578 	andi	$t8,$v1,0x2578
  41a5d0:	20637265 	addi	$v1,$v1,29285
  41a5d4:	61746573 	0x61746573
  41a5d8:	20646576 	addi	$a0,$v1,25974
  41a5dc:	69636520 	0x69636520
  41a5e0:	30782578 	andi	$t8,$v1,0x2578
  41a5e4:	20666420 	addi	$a2,$v1,25632
  41a5e8:	25640000 	addiu	$a0,$t3,0
  41a5ec:	2f646576 	sltiu	$a0,$k1,25974
  41a5f0:	2f757365 	sltiu	$s5,$k1,29541
  41a5f4:	6d610000 	0x6d610000
  41a5f8:	75736f70 	jalx	5cdbdc0 <_gp+0x58b61e0>
  41a5fc:	656e706f 	0x656e706f
  41a600:	6c6c7365 	0x6c6c7365
  41a604:	6d613a45 	0x6d613a45
  41a608:	52524f52 	0x52524f52
  41a60c:	3a63616e 	xori	$v1,$s3,0x616e
  41a610:	6e6f7420 	0x6e6f7420
  41a614:	61747461 	0x61747461
  41a618:	63682074 	0x63682074
  41a61c:	6f206578 	0x6f206578
  41a620:	69737469 	0x69737469
  41a624:	6e67206d 	0x6e67206d
  41a628:	696e6f72 	0x696e6f72
  41a62c:	20307825 	addi	$s0,$at,30757
  41a630:	78000000 	0x78000000
  41a634:	54524143 	0x54524143
  41a638:	453a2075 	0x453a2075
  41a63c:	736f7065 	0x736f7065
  41a640:	6e706f6c 	0x6e706f6c
  41a644:	6c73656d 	0x6c73656d
  41a648:	613a7469 	0x613a7469
  41a64c:	64202564 	0x64202564
  41a650:	20706f6c 	addi	$s0,$v1,28524
  41a654:	6c73656d 	0x6c73656d
  41a658:	61204020 	0x61204020
  41a65c:	30782578 	andi	$t8,$v1,0x2578
  41a660:	20617474 	addi	$at,$v1,29812
  41a664:	61636865 	0x61636865
  41a668:	73206465 	0x73206465
  41a66c:	76696365 	jalx	9a58d94 <_gp+0x96331b4>
  41a670:	20307825 	addi	$s0,$at,30757
  41a674:	78206664 	0x78206664
  41a678:	20256400 	addi	$a1,$at,25600
  41a67c:	75736669 	jalx	5cd99a4 <_gp+0x58b3dc4>
  41a680:	6e647370 	0x6e647370
  41a684:	66643a45 	0x66643a45
  41a688:	52524f52 	0x52524f52
  41a68c:	3a706964 	xori	$s0,$s3,0x6964
  41a690:	20256420 	addi	$a1,$at,25632
  41a694:	73686172 	0x73686172
  41a698:	696e6720 	0x696e6720
  41a69c:	66642077 	0x66642077
  41a6a0:	69746820 	0x69746820
  41a6a4:	70696420 	0x70696420
  41a6a8:	25642062 	addiu	$a0,$t3,8290
  41a6ac:	75742066 	jalx	5d08198 <_gp+0x58e25b8>
  41a6b0:	64202564 	0x64202564
  41a6b4:	20646f65 	addi	$a0,$v1,28517
  41a6b8:	736e2774 	0x736e2774
  41a6bc:	206d6174 	addi	$t5,$v1,24948
  41a6c0:	6368210a 	0x6368210a
  41a6c4:	00000000 	nop
  41a6c8:	54524143 	0x54524143
  41a6cc:	453a2067 	0x453a2067
  41a6d0:	6976696e 	0x6976696e
  41a6d4:	67206175 	0x67206175
  41a6d8:	746f2d6f 	jalx	1bcb5bc <_gp+0x17a59dc>
  41a6dc:	70656e20 	0x70656e20
  41a6e0:	746f2074 	jalx	1bc81d0 <_gp+0x17a25f0>
  41a6e4:	69642025 	0x69642025
  41a6e8:	6420706f 	0x6420706f
  41a6ec:	6c6c7365 	0x6c6c7365
  41a6f0:	6d612040 	0x6d612040
  41a6f4:	20307825 	addi	$s0,$at,30757
  41a6f8:	78206765 	0x78206765
  41a6fc:	74732066 	jalx	1cc8198 <_gp+0x18a25b8>
  41a700:	64202564 	0x64202564
  41a704:	00000000 	nop
  41a708:	25733a45 	addiu	$s3,$t3,14917
  41a70c:	52524f52 	0x52524f52
  41a710:	3a6e6f20 	xori	$t6,$s3,0x6f20
  41a714:	74696421 	jalx	1a59084 <_gp+0x16334a4>
  41a718:	666f7220 	0x666f7220
  41a71c:	70726f63 	0x70726f63
  41a720:	65737320 	0x65737320
  41a724:	25640000 	addiu	$a0,$t3,0
  41a728:	25733a45 	addiu	$s3,$t3,14917
  41a72c:	52524f52 	0x52524f52
  41a730:	3a626c6f 	xori	$v0,$s3,0x6c6f
  41a734:	636b3a70 	0x636b3a70
  41a738:	69642025 	0x69642025
  41a73c:	64207469 	0x64207469
  41a740:	64202564 	0x64202564
  41a744:	20666420 	addi	$a2,$v1,25632
  41a748:	25640000 	addiu	$a0,$t3,0
  41a74c:	25733a45 	addiu	$s3,$t3,14917
  41a750:	52524f52 	0x52524f52
  41a754:	3a6e6f20 	xori	$t6,$s3,0x6f20
  41a758:	74696421 	jalx	1a59084 <_gp+0x16334a4>
  41a75c:	666f7220 	0x666f7220
  41a760:	70726f63 	0x70726f63
  41a764:	65737320 	0x65737320
  41a768:	25640000 	addiu	$a0,$t3,0
  41a76c:	25733a45 	addiu	$s3,$t3,14917
  41a770:	52524f52 	0x52524f52
  41a774:	3a756e62 	xori	$s5,$s3,0x6e62
  41a778:	6c6f636b 	0x6c6f636b
  41a77c:	3a706964 	xori	$s0,$s3,0x6964
  41a780:	20256420 	addi	$a1,$at,25632
  41a784:	74696420 	jalx	1a59080 <_gp+0x16334a0>
  41a788:	25642066 	addiu	$a0,$t3,8294
  41a78c:	64202564 	0x64202564
  41a790:	00000000 	nop
  41a794:	004099bc 	0x4099bc
  41a798:	00409a50 	0x409a50
  41a79c:	00409a84 	0x409a84
  41a7a0:	00409b28 	0x409b28
  41a7a4:	00409b84 	0x409b84
  41a7a8:	00409c04 	0x409c04
  41a7ac:	00409c38 	0x409c38
  41a7b0:	00409cb4 	0x409cb4
  41a7b4:	00409cf8 	0x409cf8
  41a7b8:	00409d0c 	syscall	0x10274
  41a7bc:	00409d20 	0x409d20
  41a7c0:	00409d34 	0x409d34
	...
  41a7d0:	55535553 	0x55535553
  41a7d4:	455a4552 	0x455a4552
  41a7d8:	4f464f52 	c3	0x1464f52
  41a7dc:	4c494243 	0x4c494243
  41a7e0:	00000000 	nop
  41a7e4:	2f646576 	sltiu	$a0,$k1,25974
  41a7e8:	2f7a6572 	sltiu	$k0,$k1,25970
  41a7ec:	6f000000 	0x6f000000
  41a7f0:	4e657720 	c3	0x657720
  41a7f4:	70726f63 	0x70726f63
  41a7f8:	65737320 	0x65737320
  41a7fc:	70696420 	0x70696420
  41a800:	25642063 	addiu	$a0,$t3,8291
  41a804:	6f756c64 	0x6f756c64
  41a808:	206e6f74 	addi	$t6,$v1,28532
  41a80c:	206a6f69 	addi	$t2,$v1,28521
  41a810:	6e20492f 	0x6e20492f
  41a814:	4f206172 	c3	0x1206172
  41a818:	656e613a 	0x656e613a
  41a81c:	25730a00 	addiu	$s3,$t3,2560
  41a820:	4e656564 	c3	0x656564
  41a824:	20746f20 	addi	$s4,$v1,28448
  41a828:	72616973 	0x72616973
  41a82c:	6520434f 	0x6520434f
  41a830:	4e465f49 	c3	0x465f49
  41a834:	4e495455 	c3	0x495455
  41a838:	53455253 	0x53455253
  41a83c:	3f202875 	0x3f202875
  41a840:	73636f6e 	0x73636f6e
  41a844:	66696728 	0x66696728
  41a848:	33502929 	andi	$s0,$k0,0x2929
  41a84c:	0a000000 	j	8000000 <_gp+0x7bda420>
  41a850:	2f646576 	sltiu	$a0,$k1,25974
  41a854:	2f686c2f 	sltiu	$t0,$k1,27695
  41a858:	686c6f63 	0x686c6f63
  41a85c:	6b303030 	0x6b303030
  41a860:	00000000 	nop
  41a864:	7573696e 	jalx	5cda5b8 <_gp+0x58b49d8>
  41a868:	69743a45 	0x69743a45
  41a86c:	52524f52 	0x52524f52
  41a870:	3a666169 	xori	$a2,$s3,0x6169
  41a874:	6c656420 	0x6c656420
  41a878:	484c5f41 	0x484c5f41
  41a87c:	4d4e5200 	0x4d4e5200
  41a880:	54524143 	0x54524143
  41a884:	453a2050 	0x453a2050
  41a888:	726f6365 	0x726f6365
  41a88c:	73732025 	0x73732025
  41a890:	64206861 	0x64206861
  41a894:	72646c6f 	0x72646c6f
  41a898:	636b7320 	0x636b7320
  41a89c:	676f7420 	0x676f7420
  41a8a0:	6d696e6f 	0x6d696e6f
  41a8a4:	72206e75 	0x72206e75
  41a8a8:	6d626572 	0x6d626572
  41a8ac:	20256400 	addi	$a1,$at,25600
  41a8b0:	7573696e 	jalx	5cda5b8 <_gp+0x58b49d8>
  41a8b4:	69743a45 	0x69743a45
  41a8b8:	52524f52 	0x52524f52
  41a8bc:	3a666169 	xori	$a2,$s3,0x6169
  41a8c0:	6c656420 	0x6c656420
  41a8c4:	484c5f52 	0x484c5f52
  41a8c8:	47535a00 	c1	0x1535a00
  41a8cc:	7573696e 	jalx	5cda5b8 <_gp+0x58b49d8>
  41a8d0:	69743a45 	0x69743a45
  41a8d4:	52524f52 	0x52524f52
  41a8d8:	3a556e61 	xori	$s5,$s2,0x6e61
  41a8dc:	626c6520 	0x626c6520
  41a8e0:	746f206d 	jalx	1bc81b4 <_gp+0x17a25d4>
  41a8e4:	61702068 	0x61702068
  41a8e8:	6c6f636b 	0x6c6f636b
  41a8ec:	73204020 	0x73204020
  41a8f0:	30782578 	andi	$t8,$v1,0x2578
  41a8f4:	00000000 	nop
  41a8f8:	7573696e 	jalx	5cda5b8 <_gp+0x58b49d8>
  41a8fc:	69743a45 	0x69743a45
  41a900:	52524f52 	0x52524f52
  41a904:	3a566972 	xori	$s6,$s2,0x6972
  41a908:	7475616c 	jalx	1d585b0 <_gp+0x19329d0>
  41a90c:	20416464 	addi	$at,$v0,25700
  41a910:	72657373 	0x72657373
  41a914:	20307825 	addi	$s0,$at,30757
  41a918:	7820286e 	0x7820286e
  41a91c:	65656465 	0x65656465
  41a920:	6420666f 	0x6420666f
  41a924:	72206861 	0x72206861
  41a928:	72647761 	0x72647761
  41a92c:	7265206c 	0x7265206c
  41a930:	6f636b73 	0x6f636b73
  41a934:	2920616c 	slti	$zero,$t1,24940
  41a938:	72656164 	0x72656164
  41a93c:	7920696e 	0x7920696e
  41a940:	20757365 	addi	$s5,$v1,29541
  41a944:	20627920 	addi	$v0,$v1,31008
  41a948:	70726f63 	0x70726f63
  41a94c:	65737320 	0x65737320
  41a950:	25640000 	addiu	$a0,$t3,0
  41a954:	54524143 	0x54524143
  41a958:	453a2050 	0x453a2050
  41a95c:	726f6365 	0x726f6365
  41a960:	73732025 	0x73732025
  41a964:	64206174 	0x64206174
  41a968:	74616368 	jalx	1858da0 <_gp+0x14331c0>
  41a96c:	65642068 	0x65642068
  41a970:	6c6f636b 	0x6c6f636b
  41a974:	73206174 	0x73206174
  41a978:	20307825 	addi	$s0,$at,30757
  41a97c:	78000000 	0x78000000
  41a980:	7573696e 	jalx	5cda5b8 <_gp+0x58b49d8>
  41a984:	69743a45 	0x69743a45
  41a988:	52524f52 	0x52524f52
  41a98c:	3a756e61 	xori	$s5,$s3,0x6e61
  41a990:	626c6520 	0x626c6520
  41a994:	746f2061 	jalx	1bc8184 <_gp+0x17a25a4>
  41a998:	6c6c6f63 	0x6c6c6f63
  41a99c:	20686c6f 	addi	$t0,$v1,27759
  41a9a0:	636b7300 	0x636b7300
  41a9a4:	54524143 	0x54524143
  41a9a8:	453a2050 	0x453a2050
  41a9ac:	726f6365 	0x726f6365
  41a9b0:	73732025 	0x73732025
  41a9b4:	64206174 	0x64206174
  41a9b8:	74616368 	jalx	1858da0 <_gp+0x14331c0>
  41a9bc:	696e6720 	0x696e6720
  41a9c0:	746f2068 	jalx	1bc81a0 <_gp+0x17a25c0>
  41a9c4:	6172646c 	0x6172646c
  41a9c8:	6f636b20 	0x6f636b20
  41a9cc:	67726f75 	0x67726f75
  41a9d0:	70202573 	0x70202573
  41a9d4:	00000000 	nop
  41a9d8:	7573696e 	jalx	5cda5b8 <_gp+0x58b49d8>
  41a9dc:	69743a45 	0x69743a45
  41a9e0:	52524f52 	0x52524f52
  41a9e4:	3a756e61 	xori	$s5,$s3,0x6e61
  41a9e8:	626c6520 	0x626c6520
  41a9ec:	746f206f 	jalx	1bc81bc <_gp+0x17a25dc>
  41a9f0:	70656e20 	0x70656e20
  41a9f4:	6c6f636b 	0x6c6f636b
  41a9f8:	66696c65 	0x66696c65
  41a9fc:	20257300 	addi	$a1,$at,29440
  41aa00:	7573696e 	jalx	5cda5b8 <_gp+0x58b49d8>
  41aa04:	69743a45 	0x69743a45
  41aa08:	52524f52 	0x52524f52
  41aa0c:	3a666169 	xori	$a2,$s3,0x6169
  41aa10:	6c656420 	0x6c656420
  41aa14:	484c5f52 	0x484c5f52
  41aa18:	47535a00 	c1	0x1535a00
  41aa1c:	7573696e 	jalx	5cda5b8 <_gp+0x58b49d8>
  41aa20:	69743a45 	0x69743a45
  41aa24:	52524f52 	0x52524f52
  41aa28:	3a756e61 	xori	$s5,$s3,0x6e61
  41aa2c:	626c6520 	0x626c6520
  41aa30:	746f206d 	jalx	1bc81b4 <_gp+0x17a25d4>
  41aa34:	61702068 	0x61702068
  41aa38:	6c6f636b 	0x6c6f636b
  41aa3c:	73000000 	0x73000000
  41aa40:	7573696e 	jalx	5cda5b8 <_gp+0x58b49d8>
  41aa44:	69743a45 	0x69743a45
  41aa48:	52524f52 	0x52524f52
  41aa4c:	3a566972 	xori	$s6,$s2,0x6972
  41aa50:	7475616c 	jalx	1d585b0 <_gp+0x19329d0>
  41aa54:	20616464 	addi	$at,$v1,25700
  41aa58:	72657373 	0x72657373
  41aa5c:	20307825 	addi	$s0,$at,30757
  41aa60:	7820696e 	0x7820696e
  41aa64:	20757365 	addi	$s5,$v1,29541
  41aa68:	202d2063 	addi	$t5,$at,8291
  41aa6c:	616e2774 	0x616e2774
  41aa70:	206d6170 	addi	$t5,$v1,24944
  41aa74:	20686172 	addi	$t0,$v1,24946
  41aa78:	64776172 	0x64776172
  41aa7c:	65206c6f 	0x65206c6f
  41aa80:	636b7300 	0x636b7300
  41aa84:	54524143 	0x54524143
  41aa88:	453a2050 	0x453a2050
  41aa8c:	726f6365 	0x726f6365
  41aa90:	73732025 	0x73732025
  41aa94:	64206174 	0x64206174
  41aa98:	74616368 	jalx	1858da0 <_gp+0x14331c0>
  41aa9c:	20686c6f 	addi	$t0,$v1,27759
  41aaa0:	636b6164 	0x636b6164
  41aaa4:	64722069 	0x64722069
  41aaa8:	73203078 	0x73203078
  41aaac:	25780000 	addiu	$t8,$t3,0
  41aab0:	54524143 	0x54524143
  41aab4:	453a2050 	0x453a2050
  41aab8:	726f6365 	0x726f6365
  41aabc:	73732025 	0x73732025
  41aac0:	64206465 	0x64206465
  41aac4:	74616368 	jalx	1858da0 <_gp+0x14331c0>
  41aac8:	696e6720 	0x696e6720
  41aacc:	66726f6d 	0x66726f6d
  41aad0:	20686172 	addi	$t0,$v1,24946
  41aad4:	646c6f63 	0x646c6f63
  41aad8:	6b206772 	0x6b206772
  41aadc:	6f757020 	0x6f757020
  41aae0:	25730000 	addiu	$s3,$t3,0
  41aae4:	75736465 	jalx	5cd9194 <_gp+0x58b35b4>
  41aae8:	74616368 	jalx	1858da0 <_gp+0x14331c0>
  41aaec:	3a455252 	xori	$a1,$s2,0x5252
  41aaf0:	4f523a75 	c3	0x1523a75
  41aaf4:	6e61626c 	0x6e61626c
  41aaf8:	6520746f 	0x6520746f
  41aafc:	206f7065 	addi	$t7,$v1,28773
  41ab00:	6e206c6f 	0x6e206c6f
  41ab04:	636b6669 	0x636b6669
  41ab08:	6c650000 	0x6c650000
  41ab0c:	75736465 	jalx	5cd9194 <_gp+0x58b35b4>
  41ab10:	74616368 	jalx	1858da0 <_gp+0x14331c0>
  41ab14:	3a455252 	xori	$a1,$s2,0x5252
  41ab18:	4f523a66 	c3	0x1523a66
  41ab1c:	61696c65 	0x61696c65
  41ab20:	6420484c 	0x6420484c
  41ab24:	5f524753 	0x5f524753
  41ab28:	5a000000 	0x5a000000
  41ab2c:	75736465 	jalx	5cd9194 <_gp+0x58b35b4>
  41ab30:	74616368 	jalx	1858da0 <_gp+0x14331c0>
  41ab34:	3a455252 	xori	$a1,$s2,0x5252
  41ab38:	4f523a75 	c3	0x1523a75
  41ab3c:	6e61626c 	0x6e61626c
  41ab40:	6520746f 	0x6520746f
  41ab44:	20756e6d 	addi	$s5,$v1,28269
  41ab48:	61702068 	0x61702068
  41ab4c:	6c6f636b 	0x6c6f636b
  41ab50:	73000000 	0x73000000
  41ab54:	4552524f 	0x4552524f
  41ab58:	523a6861 	0x523a6861
  41ab5c:	72647761 	0x72647761
  41ab60:	7265206c 	0x7265206c
  41ab64:	6f636b73 	0x6f636b73
  41ab68:	3a204e4f 	xori	$zero,$s1,0x4e4f
  41ab6c:	204c4f43 	addi	$t4,$v0,20291
  41ab70:	4b53204c 	c2	0x153204c
  41ab74:	45465400 	0x45465400
  41ab78:	4552524f 	0x4552524f
  41ab7c:	523a756e 	0x523a756e
  41ab80:	61626c65 	0x61626c65
  41ab84:	20746f20 	addi	$s4,$v1,28448
  41ab88:	6f70656e 	0x6f70656e
  41ab8c:	20686c6f 	addi	$t0,$v1,27759
  41ab90:	636b6669 	0x636b6669
  41ab94:	6c65203c 	0x6c65203c
  41ab98:	25733e00 	addiu	$s3,$t3,15872
  41ab9c:	4552524f 	0x4552524f
  41aba0:	523a756e 	0x523a756e
  41aba4:	61626c65 	0x61626c65
  41aba8:	20746f20 	addi	$s4,$v1,28448
  41abac:	616c6c6f 	0x616c6c6f
  41abb0:	63617465 	0x63617465
  41abb4:	20686c6f 	addi	$t0,$v1,27759
  41abb8:	636b7300 	0x636b7300
  41abbc:	446f7562 	0x446f7562
  41abc0:	6c652074 	0x6c652074
  41abc4:	72697070 	0x72697070
  41abc8:	6564206f 	0x6564206f
  41abcc:	6e206c6f 	0x6e206c6f
  41abd0:	636b2040 	0x636b2040
  41abd4:	20307825 	addi	$s0,$at,30757
  41abd8:	78206279 	0x78206279
  41abdc:	20706964 	addi	$s0,$v1,26980
  41abe0:	20256420 	addi	$a1,$at,25632
  41abe4:	63616c6c 	0x63616c6c
  41abe8:	65642066 	0x65642066
  41abec:	726f6d20 	0x726f6d20
  41abf0:	30782578 	andi	$t8,$v1,0x2578
  41abf4:	00000000 	nop
  41abf8:	446f7562 	0x446f7562
  41abfc:	6c652074 	0x6c652074
  41ac00:	72697070 	0x72697070
  41ac04:	6564206f 	0x6564206f
  41ac08:	6e206c6f 	0x6e206c6f
  41ac0c:	636b2040 	0x636b2040
  41ac10:	20307825 	addi	$s0,$at,30757
  41ac14:	78206279 	0x78206279
  41ac18:	20706964 	addi	$s0,$v1,26980
  41ac1c:	20256420 	addi	$a1,$at,25632
  41ac20:	63616c6c 	0x63616c6c
  41ac24:	65642066 	0x65642066
  41ac28:	726f6d20 	0x726f6d20
  41ac2c:	30782578 	andi	$t8,$v1,0x2578
  41ac30:	00000000 	nop
  41ac34:	556e7365 	0x556e7365
  41ac38:	74206c6f 	jalx	81b1bc <_gp+0x3f55dc>
  41ac3c:	636b2c20 	0x636b2c20
  41ac40:	62757420 	0x62757420
  41ac44:	6c6f636b 	0x6c6f636b
  41ac48:	206e6f74 	addi	$t6,$v1,28532
  41ac4c:	206c6f63 	addi	$t4,$v1,28515
  41ac50:	6b65642e 	0x6b65642e
  41ac54:	206c6f63 	addi	$t4,$v1,28515
  41ac58:	6b204020 	0x6b204020
  41ac5c:	30782578 	andi	$t8,$v1,0x2578
  41ac60:	20706964 	addi	$s0,$v1,26980
  41ac64:	20256420 	addi	$a1,$at,25632
  41ac68:	63616c6c 	0x63616c6c
  41ac6c:	65642066 	0x65642066
  41ac70:	726f6d20 	0x726f6d20
  41ac74:	30782578 	andi	$t8,$v1,0x2578
  41ac78:	00000000 	nop
  41ac7c:	556e6c6f 	0x556e6c6f
  41ac80:	636b696e 	0x636b696e
  41ac84:	67206c6f 	0x67206c6f
  41ac88:	636b2074 	0x636b2074
  41ac8c:	68617420 	0x68617420
  41ac90:	6f746865 	0x6f746865
  41ac94:	72207072 	0x72207072
  41ac98:	6f636573 	0x6f636573
  41ac9c:	73206c6f 	0x73206c6f
  41aca0:	636b6564 	0x636b6564
  41aca4:	2e206c6f 	sltiu	$zero,$s1,27759
  41aca8:	636b2040 	0x636b2040
  41acac:	20307825 	addi	$s0,$at,30757
  41acb0:	78206279 	0x78206279
  41acb4:	20706964 	addi	$s0,$v1,26980
  41acb8:	20256420 	addi	$a1,$at,25632
  41acbc:	63616c6c 	0x63616c6c
  41acc0:	65642066 	0x65642066
  41acc4:	726f6d20 	0x726f6d20
  41acc8:	30782578 	andi	$t8,$v1,0x2578
	...
  41acd4:	0000000a 	0xa
  41acd8:	00000000 	nop
  41acdc:	00000064 	0x64
  41ace0:	00000000 	nop
  41ace4:	000003e8 	0x3e8
  41ace8:	00000000 	nop
  41acec:	00002710 	0x2710
  41acf0:	00000000 	nop
  41acf4:	000186a0 	0x186a0
  41acf8:	00000000 	nop
  41acfc:	000f4240 	sll	$t0,$t7,0x9
  41ad00:	00000000 	nop
  41ad04:	00989680 	0x989680
  41ad08:	00000000 	nop
  41ad0c:	05f5e100 	0x5f5e100
  41ad10:	00000000 	nop
  41ad14:	3b9aca00 	xori	$k0,$gp,0xca00
  41ad18:	00000002 	srl	$zero,$zero,0x0
  41ad1c:	540be400 	0x540be400
  41ad20:	00000017 	0x17
  41ad24:	4876e800 	0x4876e800
  41ad28:	000000e8 	0xe8
  41ad2c:	d4a51000 	0xd4a51000
  41ad30:	00000918 	0x918
  41ad34:	4e72a000 	c3	0x72a000
  41ad38:	00005af3 	0x5af3
  41ad3c:	107a4000 	beq	$v1,$k0,42ad40 <_gp+0x5160>
  41ad40:	00038d7e 	0x38d7e
  41ad44:	a4c68000 	sh	$a2,-32768($a2)
  41ad48:	002386f2 	0x2386f2
  41ad4c:	6fc10000 	0x6fc10000
  41ad50:	01634578 	0x1634578
  41ad54:	5d8a0000 	0x5d8a0000
  41ad58:	0de0b6b3 	jal	782dacc <_gp+0x7407eec>
  41ad5c:	a7640000 	sh	$a0,0($k1)
  41ad60:	0000000a 	0xa
  41ad64:	00000064 	0x64
  41ad68:	000003e8 	0x3e8
  41ad6c:	00002710 	0x2710
  41ad70:	000186a0 	0x186a0
  41ad74:	000f4240 	sll	$t0,$t7,0x9
  41ad78:	00989680 	0x989680
  41ad7c:	05f5e100 	0x5f5e100
  41ad80:	3b9aca00 	xori	$k0,$gp,0xca00
  41ad84:	20202020 	addi	$zero,$at,8224
  41ad88:	20202020 	addi	$zero,$at,8224
  41ad8c:	20202020 	addi	$zero,$at,8224
  41ad90:	20202020 	addi	$zero,$at,8224
  41ad94:	20202020 	addi	$zero,$at,8224
  41ad98:	00000000 	nop
  41ad9c:	30303030 	andi	$s0,$at,0x3030
  41ada0:	30303030 	andi	$s0,$at,0x3030
  41ada4:	30303030 	andi	$s0,$at,0x3030
  41ada8:	30303030 	andi	$s0,$at,0x3030
  41adac:	30303030 	andi	$s0,$at,0x3030
  41adb0:	00000000 	nop
  41adb4:	30313233 	andi	$s1,$at,0x3233
  41adb8:	34353637 	ori	$s5,$at,0x3637
  41adbc:	38394142 	xori	$t9,$at,0x4142
  41adc0:	43444546 	c0	0x1444546
  41adc4:	00000000 	nop
  41adc8:	30313233 	andi	$s1,$at,0x3233
  41adcc:	34353637 	ori	$s5,$at,0x3637
  41add0:	38396162 	xori	$t9,$at,0x6162
  41add4:	63646566 	0x63646566
  41add8:	00000000 	nop
  41addc:	30313233 	andi	$s1,$at,0x3233
  41ade0:	34353637 	ori	$s5,$at,0x3637
  41ade4:	38393000 	xori	$t9,$at,0x3000
  41ade8:	23202b2d 	addi	$zero,$t9,11053
  41adec:	2e303132 	sltiu	$s0,$s1,12594
  41adf0:	33343536 	andi	$s4,$t9,0x3536
  41adf4:	37383968 	ori	$t8,$t9,0x3968
  41adf8:	4c240000 	0x4c240000
  41adfc:	30313233 	andi	$s1,$at,0x3233
  41ae00:	34353637 	ori	$s5,$at,0x3637
  41ae04:	38390000 	xori	$t9,$at,0x0
  41ae08:	23202b2d 	addi	$zero,$t9,11053
  41ae0c:	2e303132 	sltiu	$s0,$s1,12594
  41ae10:	33343536 	andi	$s4,$t9,0x3536
  41ae14:	37383968 	ori	$t8,$t9,0x3968
  41ae18:	24000000 	li	$zero,0
  41ae1c:	0040cac4 	0x40cac4
  41ae20:	0040e3f4 	0x40e3f4
  41ae24:	0040e3f4 	0x40e3f4
  41ae28:	0040cad4 	0x40cad4
  41ae2c:	0040cbb4 	0x40cbb4
  41ae30:	0040df5c 	0x40df5c
  41ae34:	0040e3f4 	0x40e3f4
  41ae38:	0040e3f4 	0x40e3f4
  41ae3c:	0040e3f4 	0x40e3f4
  41ae40:	0040e3f4 	0x40e3f4
  41ae44:	0040caf8 	0x40caf8
  41ae48:	0040caa0 	0x40caa0
  41ae4c:	0040e3f4 	0x40e3f4
  41ae50:	0040cab0 	0x40cab0
  41ae54:	0040cae4 	0x40cae4
  41ae58:	0040e3f4 	0x40e3f4
  41ae5c:	0040cce8 	0x40cce8
  41ae60:	0040ccf8 	0x40ccf8
  41ae64:	0040ccf8 	0x40ccf8
  41ae68:	0040ccf8 	0x40ccf8
  41ae6c:	0040ccf8 	0x40ccf8
  41ae70:	0040ccf8 	0x40ccf8
  41ae74:	0040ccf8 	0x40ccf8
  41ae78:	0040ccf8 	0x40ccf8
  41ae7c:	0040ccf8 	0x40ccf8
  41ae80:	0040ccf8 	0x40ccf8
  41ae84:	0040e3f4 	0x40e3f4
  41ae88:	0040e3f4 	0x40e3f4
  41ae8c:	0040e3f4 	0x40e3f4
  41ae90:	0040e3f4 	0x40e3f4
  41ae94:	0040e3f4 	0x40e3f4
  41ae98:	0040e3f4 	0x40e3f4
  41ae9c:	0040e3f4 	0x40e3f4
  41aea0:	0040e3f4 	0x40e3f4
  41aea4:	0040e3f4 	0x40e3f4
  41aea8:	0040df94 	0x40df94
  41aeac:	0040e3f4 	0x40e3f4
  41aeb0:	0040d5f4 	0x40d5f4
  41aeb4:	0040e3f4 	0x40e3f4
  41aeb8:	0040dce8 	0x40dce8
  41aebc:	0040e3f4 	0x40e3f4
  41aec0:	0040e3f4 	0x40e3f4
  41aec4:	0040e3f4 	0x40e3f4
  41aec8:	0040e3f4 	0x40e3f4
  41aecc:	0040cda8 	0x40cda8
  41aed0:	0040e3f4 	0x40e3f4
  41aed4:	0040e3f4 	0x40e3f4
  41aed8:	0040e3f4 	0x40e3f4
  41aedc:	0040e3f4 	0x40e3f4
  41aee0:	0040e3f4 	0x40e3f4
  41aee4:	0040e3f4 	0x40e3f4
  41aee8:	0040e070 	0x40e070
  41aeec:	0040e3f4 	0x40e3f4
  41aef0:	0040e3f4 	0x40e3f4
  41aef4:	0040e3f4 	0x40e3f4
  41aef8:	0040e3f4 	0x40e3f4
  41aefc:	0040d350 	0x40d350
  41af00:	0040e3f4 	0x40e3f4
  41af04:	0040e3f4 	0x40e3f4
  41af08:	0040e3f4 	0x40e3f4
  41af0c:	0040e3f4 	0x40e3f4
  41af10:	0040e3f4 	0x40e3f4
  41af14:	0040e3f4 	0x40e3f4
  41af18:	0040e3f4 	0x40e3f4
  41af1c:	0040e3f4 	0x40e3f4
  41af20:	0040e3f4 	0x40e3f4
  41af24:	0040e3f4 	0x40e3f4
  41af28:	0040df6c 	0x40df6c
  41af2c:	0040cdb4 	0x40cdb4
  41af30:	0040d5f4 	0x40d5f4
  41af34:	0040d9e4 	0x40d9e4
  41af38:	0040dce8 	0x40dce8
  41af3c:	0040cd98 	0x40cd98
  41af40:	0040cdb4 	0x40cdb4
  41af44:	0040e3f4 	0x40e3f4
  41af48:	0040e3f4 	0x40e3f4
  41af4c:	0040cd6c 	0x40cd6c
  41af50:	0040e3f4 	0x40e3f4
  41af54:	0040e338 	0x40e338
  41af58:	0040d338 	0x40d338
  41af5c:	0040d350 	0x40d350
  41af60:	0040e3f4 	0x40e3f4
  41af64:	0040e3f4 	0x40e3f4
  41af68:	0040dfd4 	0x40dfd4
  41af6c:	0040e3f4 	0x40e3f4
  41af70:	0040d214 	0x40d214
  41af74:	0040e3f4 	0x40e3f4
  41af78:	0040e3f4 	0x40e3f4
  41af7c:	0040d350 	0x40d350
  41af80:	0040ebdc 	0x40ebdc
  41af84:	0040eb7c 	0x40eb7c
  41af88:	0040eb7c 	0x40eb7c
  41af8c:	0040eb7c 	0x40eb7c
  41af90:	0040eb7c 	0x40eb7c
  41af94:	0040eaa4 	0x40eaa4
  41af98:	0040eb7c 	0x40eb7c
  41af9c:	0040eb7c 	0x40eb7c
  41afa0:	0040eb7c 	0x40eb7c
  41afa4:	0040eb7c 	0x40eb7c
  41afa8:	0040eb7c 	0x40eb7c
  41afac:	0040eb7c 	0x40eb7c
  41afb0:	0040eb7c 	0x40eb7c
  41afb4:	0040eb7c 	0x40eb7c
  41afb8:	0040eb7c 	0x40eb7c
  41afbc:	0040eb7c 	0x40eb7c
  41afc0:	0040eb7c 	0x40eb7c
  41afc4:	0040eb7c 	0x40eb7c
  41afc8:	0040eb7c 	0x40eb7c
  41afcc:	0040eb7c 	0x40eb7c
  41afd0:	0040eb7c 	0x40eb7c
  41afd4:	0040eb7c 	0x40eb7c
  41afd8:	0040eb7c 	0x40eb7c
  41afdc:	0040eb7c 	0x40eb7c
  41afe0:	0040eb7c 	0x40eb7c
  41afe4:	0040eb7c 	0x40eb7c
  41afe8:	0040eb7c 	0x40eb7c
  41afec:	0040eb7c 	0x40eb7c
  41aff0:	0040eb7c 	0x40eb7c
  41aff4:	0040eb7c 	0x40eb7c
  41aff8:	0040eb6c 	0x40eb6c
  41affc:	0040eb7c 	0x40eb7c
  41b000:	0040eb28 	0x40eb28
  41b004:	0040eb7c 	0x40eb7c
  41b008:	0040eb28 	0x40eb28
  41b00c:	0040eb7c 	0x40eb7c
  41b010:	0040eb7c 	0x40eb7c
  41b014:	0040eb7c 	0x40eb7c
  41b018:	0040eb7c 	0x40eb7c
  41b01c:	0040eb7c 	0x40eb7c
  41b020:	0040eb7c 	0x40eb7c
  41b024:	0040eb7c 	0x40eb7c
  41b028:	0040eb7c 	0x40eb7c
  41b02c:	0040eb7c 	0x40eb7c
  41b030:	0040eb7c 	0x40eb7c
  41b034:	0040eb7c 	0x40eb7c
  41b038:	0040eb74 	0x40eb74
  41b03c:	0040eb7c 	0x40eb7c
  41b040:	0040eb7c 	0x40eb7c
  41b044:	0040eb7c 	0x40eb7c
  41b048:	0040eb7c 	0x40eb7c
  41b04c:	0040eb7c 	0x40eb7c
  41b050:	0040eb7c 	0x40eb7c
  41b054:	0040eb7c 	0x40eb7c
  41b058:	0040eb7c 	0x40eb7c
  41b05c:	0040eb7c 	0x40eb7c
  41b060:	0040eb7c 	0x40eb7c
  41b064:	0040eb7c 	0x40eb7c
  41b068:	0040eb7c 	0x40eb7c
  41b06c:	0040eb7c 	0x40eb7c
  41b070:	0040eb7c 	0x40eb7c
  41b074:	0040eb7c 	0x40eb7c
  41b078:	0040eb7c 	0x40eb7c
  41b07c:	0040eb7c 	0x40eb7c
  41b080:	0040eb28 	0x40eb28
  41b084:	0040eb28 	0x40eb28
  41b088:	0040eb28 	0x40eb28
  41b08c:	0040eb7c 	0x40eb7c
  41b090:	0040eb7c 	0x40eb7c
  41b094:	0040eb7c 	0x40eb7c
  41b098:	0040eb7c 	0x40eb7c
  41b09c:	0040ea84 	0x40ea84
  41b0a0:	0040eb7c 	0x40eb7c
  41b0a4:	0040eb40 	0x40eb40
  41b0a8:	0040eb7c 	0x40eb7c
  41b0ac:	0040eb38 	0x40eb38
  41b0b0:	0040eb7c 	0x40eb7c
  41b0b4:	0040eb7c 	0x40eb7c
  41b0b8:	0040eb30 	0x40eb30
  41b0bc:	0040ec68 	0x40ec68
  41b0c0:	0040ec98 	0x40ec98
  41b0c4:	0040eca8 	0x40eca8
  41b0c8:	0040ecb8 	0x40ecb8
  41b0cc:	0040ece8 	0x40ece8
  41b0d0:	0040ed18 	0x40ed18
  41b0d4:	0040ed28 	0x40ed28
  41b0d8:	0040ed38 	0x40ed38
  41b0dc:	0040ed58 	0x40ed58
  41b0e0:	0040ed48 	0x40ed48
  41b0e4:	0040ec78 	0x40ec78
  41b0e8:	0040ec88 	0x40ec88
  41b0ec:	0040f128 	0x40f128
  41b0f0:	0040f0a8 	0x40f0a8
  41b0f4:	0040f0a8 	0x40f0a8
  41b0f8:	0040f0a8 	0x40f0a8
  41b0fc:	0040f0a8 	0x40f0a8
  41b100:	0040eed4 	0x40eed4
  41b104:	0040f0a8 	0x40f0a8
  41b108:	0040f0a8 	0x40f0a8
  41b10c:	0040f0a8 	0x40f0a8
  41b110:	0040f0a8 	0x40f0a8
  41b114:	0040f0a8 	0x40f0a8
  41b118:	0040f0a8 	0x40f0a8
  41b11c:	0040f0a8 	0x40f0a8
  41b120:	0040f0a8 	0x40f0a8
  41b124:	0040f0a8 	0x40f0a8
  41b128:	0040f0a8 	0x40f0a8
  41b12c:	0040f0a8 	0x40f0a8
  41b130:	0040f0a8 	0x40f0a8
  41b134:	0040f0a8 	0x40f0a8
  41b138:	0040f0a8 	0x40f0a8
  41b13c:	0040f0a8 	0x40f0a8
  41b140:	0040f0a8 	0x40f0a8
  41b144:	0040f0a8 	0x40f0a8
  41b148:	0040f0a8 	0x40f0a8
  41b14c:	0040f0a8 	0x40f0a8
  41b150:	0040f0a8 	0x40f0a8
  41b154:	0040f0a8 	0x40f0a8
  41b158:	0040f0a8 	0x40f0a8
  41b15c:	0040f0a8 	0x40f0a8
  41b160:	0040f0a8 	0x40f0a8
  41b164:	0040f070 	0x40f070
  41b168:	0040f0a8 	0x40f0a8
  41b16c:	0040ef34 	0x40ef34
  41b170:	0040f0a8 	0x40f0a8
  41b174:	0040ef34 	0x40ef34
  41b178:	0040f0a8 	0x40f0a8
  41b17c:	0040f0a8 	0x40f0a8
  41b180:	0040f0a8 	0x40f0a8
  41b184:	0040f0a8 	0x40f0a8
  41b188:	0040f0a8 	0x40f0a8
  41b18c:	0040f0a8 	0x40f0a8
  41b190:	0040f0a8 	0x40f0a8
  41b194:	0040f0a8 	0x40f0a8
  41b198:	0040f0a8 	0x40f0a8
  41b19c:	0040f0a8 	0x40f0a8
  41b1a0:	0040f0a8 	0x40f0a8
  41b1a4:	0040f08c 	syscall	0x103c2
  41b1a8:	0040f0a8 	0x40f0a8
  41b1ac:	0040f0a8 	0x40f0a8
  41b1b0:	0040f0a8 	0x40f0a8
  41b1b4:	0040f0a8 	0x40f0a8
  41b1b8:	0040f0a8 	0x40f0a8
  41b1bc:	0040f0a8 	0x40f0a8
  41b1c0:	0040f0a8 	0x40f0a8
  41b1c4:	0040f0a8 	0x40f0a8
  41b1c8:	0040f0a8 	0x40f0a8
  41b1cc:	0040f0a8 	0x40f0a8
  41b1d0:	0040f0a8 	0x40f0a8
  41b1d4:	0040f0a8 	0x40f0a8
  41b1d8:	0040f0a8 	0x40f0a8
  41b1dc:	0040f0a8 	0x40f0a8
  41b1e0:	0040f0a8 	0x40f0a8
  41b1e4:	0040f0a8 	0x40f0a8
  41b1e8:	0040f0a8 	0x40f0a8
  41b1ec:	0040ef34 	0x40ef34
  41b1f0:	0040ef34 	0x40ef34
  41b1f4:	0040ef34 	0x40ef34
  41b1f8:	0040f0a8 	0x40f0a8
  41b1fc:	0040f0a8 	0x40f0a8
  41b200:	0040f0a8 	0x40f0a8
  41b204:	0040f0a8 	0x40f0a8
  41b208:	0040eeb4 	0x40eeb4
  41b20c:	0040f0a8 	0x40f0a8
  41b210:	0040f008 	0x40f008
  41b214:	0040f0a8 	0x40f0a8
  41b218:	0040efec 	0x40efec
  41b21c:	0040f0a8 	0x40f0a8
  41b220:	0040f0a8 	0x40f0a8
  41b224:	0040efd0 	0x40efd0
	...
  41b230:	4e6f7420 	c3	0x6f7420
  41b234:	70726976 	0x70726976
  41b238:	696c6567 	0x696c6567
  41b23c:	65640000 	0x65640000
  41b240:	4e6f2073 	c3	0x6f2073
  41b244:	75636820 	jalx	58da080 <_gp+0x54b44a0>
  41b248:	66696c65 	0x66696c65
  41b24c:	206f7220 	addi	$t7,$v1,29216
  41b250:	64697265 	0x64697265
  41b254:	63746f72 	0x63746f72
  41b258:	79000000 	0x79000000
  41b25c:	4e6f2073 	c3	0x6f2073
  41b260:	75636820 	jalx	58da080 <_gp+0x54b44a0>
  41b264:	70726f63 	0x70726f63
  41b268:	65737300 	0x65737300
  41b26c:	496e7465 	0x496e7465
  41b270:	72727570 	0x72727570
  41b274:	74656420 	jalx	1959080 <_gp+0x15334a0>
  41b278:	73797374 	0x73797374
  41b27c:	656d2063 	0x656d2063
  41b280:	616c6c00 	0x616c6c00
  41b284:	492f4f20 	0x492f4f20
  41b288:	6572726f 	0x6572726f
  41b28c:	72000000 	0x72000000
  41b290:	4e6f2073 	c3	0x6f2073
  41b294:	75636820 	jalx	58da080 <_gp+0x54b44a0>
  41b298:	64657669 	0x64657669
  41b29c:	6365206f 	0x6365206f
  41b2a0:	72206164 	0x72206164
  41b2a4:	64726573 	0x64726573
  41b2a8:	73000000 	0x73000000
  41b2ac:	41726720 	0x41726720
  41b2b0:	6c697374 	0x6c697374
  41b2b4:	20746f6f 	addi	$s4,$v1,28527
  41b2b8:	206c6f6e 	addi	$t4,$v1,28526
  41b2bc:	67000000 	0x67000000
  41b2c0:	45786563 	0x45786563
  41b2c4:	20666f72 	addi	$a2,$v1,28530
  41b2c8:	6d617420 	0x6d617420
  41b2cc:	6572726f 	0x6572726f
  41b2d0:	72000000 	0x72000000
  41b2d4:	42616420 	c0	0x616420
  41b2d8:	66696c65 	0x66696c65
  41b2dc:	206e756d 	addi	$t6,$v1,30061
  41b2e0:	62657200 	0x62657200
  41b2e4:	4e6f2063 	c3	0x6f2063
  41b2e8:	68696c64 	0x68696c64
  41b2ec:	2070726f 	addi	$s0,$v1,29295
  41b2f0:	63657373 	0x63657373
  41b2f4:	65730000 	0x65730000
  41b2f8:	5265736f 	0x5265736f
  41b2fc:	75726365 	jalx	5c98d94 <_gp+0x58731b4>
  41b300:	2074656d 	addi	$s4,$v1,25965
  41b304:	706f7261 	0x706f7261
  41b308:	72696c79 	0x72696c79
  41b30c:	20756e61 	addi	$s5,$v1,28257
  41b310:	7661696c 	jalx	985a5b0 <_gp+0x94349d0>
  41b314:	61626c65 	0x61626c65
  41b318:	00000000 	nop
  41b31c:	4e6f7420 	c3	0x6f7420
  41b320:	656e6f75 	0x656e6f75
  41b324:	67682073 	0x67682073
  41b328:	70616365 	0x70616365
  41b32c:	00000000 	nop
  41b330:	5065726d 	0x5065726d
  41b334:	69737369 	0x69737369
  41b338:	6f6e2064 	0x6f6e2064
  41b33c:	656e6965 	0x656e6965
  41b340:	64000000 	0x64000000
  41b344:	42616420 	c0	0x616420
  41b348:	61646472 	0x61646472
  41b34c:	65737300 	0x65737300
  41b350:	426c6f63 	c0	0x6c6f63
  41b354:	6b206465 	0x6b206465
  41b358:	76696365 	jalx	9a58d94 <_gp+0x96331b4>
  41b35c:	20726571 	addi	$s2,$v1,25969
  41b360:	75697265 	jalx	5a5c994 <_gp+0x5636db4>
  41b364:	64000000 	0x64000000
  41b368:	44657669 	0x44657669
  41b36c:	63652062 	0x63652062
  41b370:	75737900 	jalx	5cde400 <_gp+0x58b8820>
  41b374:	46696c65 	c1	0x696c65
  41b378:	20657869 	addi	$a1,$v1,30825
  41b37c:	73747300 	0x73747300
  41b380:	43726f73 	c0	0x1726f73
  41b384:	732d6465 	0x732d6465
  41b388:	76696365 	jalx	9a58d94 <_gp+0x96331b4>
  41b38c:	206c696e 	addi	$t4,$v1,26990
  41b390:	6b000000 	0x6b000000
  41b394:	4e6f2073 	c3	0x6f2073
  41b398:	75636820 	jalx	58da080 <_gp+0x54b44a0>
  41b39c:	64657669 	0x64657669
  41b3a0:	63650000 	0x63650000
  41b3a4:	4e6f7420 	c3	0x6f7420
  41b3a8:	61206469 	0x61206469
  41b3ac:	72656374 	0x72656374
  41b3b0:	6f727900 	0x6f727900
  41b3b4:	49732061 	0x49732061
  41b3b8:	20646972 	addi	$a0,$v1,26994
  41b3bc:	6563746f 	0x6563746f
  41b3c0:	72790000 	0x72790000
  41b3c4:	496e7661 	0x496e7661
  41b3c8:	6c696420 	0x6c696420
  41b3cc:	61726775 	0x61726775
  41b3d0:	6d656e74 	0x6d656e74
  41b3d4:	00000000 	nop
  41b3d8:	46696c65 	c1	0x696c65
  41b3dc:	20746162 	addi	$s4,$v1,24930
  41b3e0:	6c65206f 	0x6c65206f
  41b3e4:	76657266 	jalx	995c998 <_gp+0x9536db8>
  41b3e8:	6c6f7700 	0x6c6f7700
  41b3ec:	546f6f20 	0x546f6f20
  41b3f0:	6d616e79 	0x6d616e79
  41b3f4:	206f7065 	addi	$t7,$v1,28773
  41b3f8:	6e206669 	0x6e206669
  41b3fc:	6c657300 	0x6c657300
  41b400:	4e6f7420 	c3	0x6f7420
  41b404:	61207479 	0x61207479
  41b408:	70657772 	0x70657772
  41b40c:	69746572 	0x69746572
  41b410:	00000000 	nop
  41b414:	54657874 	0x54657874
  41b418:	2066696c 	addi	$a2,$v1,26988
  41b41c:	65206275 	0x65206275
  41b420:	73790000 	0x73790000
  41b424:	46696c65 	c1	0x696c65
  41b428:	20746f6f 	addi	$s4,$v1,28527
  41b42c:	206c6172 	addi	$t4,$v1,24946
  41b430:	67650000 	0x67650000
  41b434:	4e6f2073 	c3	0x6f2073
  41b438:	70616365 	0x70616365
  41b43c:	206c6566 	addi	$t4,$v1,25958
  41b440:	74206f6e 	jalx	81bdb8 <_gp+0x3f61d8>
  41b444:	20646576 	addi	$a0,$v1,25974
  41b448:	69636500 	0x69636500
  41b44c:	496c6c65 	0x496c6c65
  41b450:	67616c20 	0x67616c20
  41b454:	7365656b 	0x7365656b
  41b458:	00000000 	nop
  41b45c:	52656164 	0x52656164
  41b460:	2d6f6e6c 	sltiu	$t7,$t3,28268
  41b464:	79206669 	0x79206669
  41b468:	6c652073 	0x6c652073
  41b46c:	79737465 	0x79737465
  41b470:	6d000000 	0x6d000000
  41b474:	546f6f20 	0x546f6f20
  41b478:	6d616e79 	0x6d616e79
  41b47c:	206c696e 	addi	$t4,$v1,26990
  41b480:	6b730000 	0x6b730000
  41b484:	42726f6b 	c0	0x726f6b
  41b488:	656e2070 	0x656e2070
  41b48c:	69706500 	0x69706500
  41b490:	41726775 	0x41726775
  41b494:	6d656e74 	0x6d656e74
  41b498:	206f7574 	addi	$t7,$v1,30068
  41b49c:	206f6620 	addi	$t7,$v1,26144
  41b4a0:	646f6d61 	0x646f6d61
  41b4a4:	696e0000 	0x696e0000
  41b4a8:	52657375 	0x52657375
  41b4ac:	6c742074 	0x6c742074
  41b4b0:	6f6f206c 	0x6f6f206c
  41b4b4:	61726765 	0x61726765
  41b4b8:	00000000 	nop
  41b4bc:	4e6f206d 	c3	0x6f206d
  41b4c0:	65737361 	0x65737361
  41b4c4:	6765206f 	0x6765206f
  41b4c8:	66206465 	0x66206465
  41b4cc:	73697265 	0x73697265
  41b4d0:	64207479 	0x64207479
  41b4d4:	70650000 	0x70650000
  41b4d8:	4964656e 	0x4964656e
  41b4dc:	74696669 	jalx	1a599a4 <_gp+0x1633dc4>
  41b4e0:	65722072 	0x65722072
  41b4e4:	656d6f76 	0x656d6f76
  41b4e8:	65640000 	0x65640000
  41b4ec:	4368616e 	c0	0x168616e
  41b4f0:	6e656c20 	0x6e656c20
  41b4f4:	6e756d62 	0x6e756d62
  41b4f8:	6572206f 	0x6572206f
  41b4fc:	7574206f 	jalx	5d081bc <_gp+0x58e25dc>
  41b500:	66207261 	0x66207261
  41b504:	6e676500 	0x6e676500
  41b508:	4c657665 	0x4c657665
  41b50c:	6c203220 	0x6c203220
  41b510:	6e6f7420 	0x6e6f7420
  41b514:	73796e63 	0x73796e63
  41b518:	68726f6e 	0x68726f6e
  41b51c:	697a6564 	0x697a6564
  41b520:	00000000 	nop
  41b524:	4c657665 	0x4c657665
  41b528:	6c203320 	0x6c203320
  41b52c:	68616c74 	0x68616c74
  41b530:	65640000 	0x65640000
  41b534:	4c657665 	0x4c657665
  41b538:	6c203320 	0x6c203320
  41b53c:	72657365 	0x72657365
  41b540:	74000000 	jalx	0 <__istart-0x400fcc>
  41b544:	4c696e6b 	0x4c696e6b
  41b548:	206e756d 	addi	$t6,$v1,30061
  41b54c:	62657220 	0x62657220
  41b550:	6f757420 	0x6f757420
  41b554:	6f662072 	0x6f662072
  41b558:	616e6765 	0x616e6765
  41b55c:	00000000 	nop
  41b560:	50726f74 	0x50726f74
  41b564:	6f636f6c 	0x6f636f6c
  41b568:	20647269 	addi	$a0,$v1,29289
  41b56c:	76657220 	jalx	995c880 <_gp+0x9536ca0>
  41b570:	6e6f7420 	0x6e6f7420
  41b574:	61747461 	0x61747461
  41b578:	63686564 	0x63686564
  41b57c:	00000000 	nop
  41b580:	4e6f2043 	c3	0x6f2043
  41b584:	53492073 	0x53492073
  41b588:	74727563 	jalx	1c9d58c <_gp+0x18779ac>
  41b58c:	74757265 	jalx	1d5c994 <_gp+0x1936db4>
  41b590:	20617661 	addi	$at,$v1,30305
  41b594:	696c6162 	0x696c6162
  41b598:	6c650000 	0x6c650000
  41b59c:	4c657665 	0x4c657665
  41b5a0:	6c203220 	0x6c203220
  41b5a4:	68616c74 	0x68616c74
  41b5a8:	65640000 	0x65640000
  41b5ac:	44656164 	0x44656164
  41b5b0:	6c6f636b 	0x6c6f636b
  41b5b4:	20736974 	addi	$s3,$v1,26996
  41b5b8:	75617469 	jalx	585d1a4 <_gp+0x54375c4>
  41b5bc:	6f6e2064 	0x6f6e2064
  41b5c0:	65746563 	0x65746563
  41b5c4:	7465642f 	jalx	19590bc <_gp+0x15334dc>
  41b5c8:	61766f69 	0x61766f69
  41b5cc:	64656400 	0x64656400
  41b5d0:	4e6f2072 	c3	0x6f2072
  41b5d4:	65636f72 	0x65636f72
  41b5d8:	64206c6f 	0x64206c6f
  41b5dc:	636b7320 	0x636b7320
  41b5e0:	61766169 	0x61766169
  41b5e4:	6c61626c 	0x6c61626c
  41b5e8:	65000000 	0x65000000
  41b5ec:	4572726f 	0x4572726f
  41b5f0:	72203437 	0x72203437
  41b5f4:	00000000 	nop
  41b5f8:	4572726f 	0x4572726f
  41b5fc:	72203438 	0x72203438
  41b600:	00000000 	nop
  41b604:	4572726f 	0x4572726f
  41b608:	72203439 	0x72203439
  41b60c:	00000000 	nop
  41b610:	42616420 	c0	0x616420
  41b614:	65786368 	0x65786368
  41b618:	616e6765 	0x616e6765
  41b61c:	20646573 	addi	$a0,$v1,25971
  41b620:	63726970 	0x63726970
  41b624:	746f7200 	jalx	1bdc800 <_gp+0x17b6c20>
  41b628:	42616420 	c0	0x616420
  41b62c:	72657175 	0x72657175
  41b630:	65737420 	0x65737420
  41b634:	64657363 	0x64657363
  41b638:	72697074 	0x72697074
  41b63c:	6f720000 	0x6f720000
  41b640:	4d657373 	0x4d657373
  41b644:	61676520 	0x61676520
  41b648:	7461626c 	jalx	18589b0 <_gp+0x1432dd0>
  41b64c:	65732066 	0x65732066
  41b650:	756c6c00 	jalx	5b1b000 <_gp+0x56f5420>
  41b654:	416e6f64 	0x416e6f64
  41b658:	65207461 	0x65207461
  41b65c:	626c6520 	0x626c6520
  41b660:	6f766572 	0x6f766572
  41b664:	666c6f77 	0x666c6f77
  41b668:	00000000 	nop
  41b66c:	42616420 	c0	0x616420
  41b670:	72657175 	0x72657175
  41b674:	65737420 	0x65737420
  41b678:	636f6465 	0x636f6465
  41b67c:	00000000 	nop
  41b680:	496e7661 	0x496e7661
  41b684:	6c696420 	0x6c696420
  41b688:	736c6f74 	0x736c6f74
  41b68c:	00000000 	nop
  41b690:	46696c65 	c1	0x696c65
  41b694:	206c6f63 	addi	$t4,$v1,28515
  41b698:	6b696e67 	0x6b696e67
  41b69c:	20646561 	addi	$a0,$v1,25953
  41b6a0:	646c6f63 	0x646c6f63
  41b6a4:	6b000000 	0x6b000000
  41b6a8:	42616420 	c0	0x616420
  41b6ac:	666f6e74 	0x666f6e74
  41b6b0:	2066696c 	addi	$a2,$v1,26988
  41b6b4:	6520666f 	0x6520666f
  41b6b8:	726d6174 	0x726d6174
  41b6bc:	00000000 	nop
  41b6c0:	4572726f 	0x4572726f
  41b6c4:	72203538 	0x72203538
  41b6c8:	00000000 	nop
  41b6cc:	4572726f 	0x4572726f
  41b6d0:	72203539 	0x72203539
  41b6d4:	00000000 	nop
  41b6d8:	4e6f7420 	c3	0x6f7420
  41b6dc:	61207374 	0x61207374
  41b6e0:	7265616d 	0x7265616d
  41b6e4:	20646576 	addi	$a0,$v1,25974
  41b6e8:	69636500 	0x69636500
  41b6ec:	4e6f2064 	c3	0x6f2064
  41b6f0:	61746120 	0x61746120
  41b6f4:	61766169 	0x61766169
  41b6f8:	6c61626c 	0x6c61626c
  41b6fc:	65000000 	0x65000000
  41b700:	54696d65 	0x54696d65
  41b704:	72206578 	0x72206578
  41b708:	70697265 	0x70697265
  41b70c:	64000000 	0x64000000
  41b710:	4f757420 	c3	0x1757420
  41b714:	6f662073 	0x6f662073
  41b718:	74726561 	jalx	1c99584 <_gp+0x18739a4>
  41b71c:	6d207265 	0x6d207265
  41b720:	736f7572 	0x736f7572
  41b724:	63657300 	0x63657300
  41b728:	4d616368 	0x4d616368
  41b72c:	696e6520 	0x696e6520
  41b730:	6973206e 	0x6973206e
  41b734:	6f74206f 	0x6f74206f
  41b738:	6e207468 	0x6e207468
  41b73c:	65206e65 	0x65206e65
  41b740:	74776f72 	jalx	1ddbdc8 <_gp+0x19b61e8>
  41b744:	6b000000 	0x6b000000
  41b748:	5061636b 	0x5061636b
  41b74c:	61676520 	0x61676520
  41b750:	6e6f7420 	0x6e6f7420
  41b754:	696e7374 	0x696e7374
  41b758:	616c6c65 	0x616c6c65
  41b75c:	64000000 	0x64000000
  41b760:	4f626a65 	c3	0x1626a65
  41b764:	63742069 	0x63742069
  41b768:	73207265 	0x73207265
  41b76c:	6d6f7465 	0x6d6f7465
  41b770:	00000000 	nop
  41b774:	4c696e6b 	0x4c696e6b
  41b778:	20686173 	addi	$t0,$v1,24947
  41b77c:	20626565 	addi	$v0,$v1,25957
  41b780:	6e207365 	0x6e207365
  41b784:	76657265 	jalx	995c994 <_gp+0x9536db4>
  41b788:	64000000 	0x64000000
  41b78c:	41647665 	0x41647665
  41b790:	72746973 	0x72746973
  41b794:	65206572 	0x65206572
  41b798:	726f7200 	0x726f7200
  41b79c:	53726d6f 	0x53726d6f
  41b7a0:	756e7420 	jalx	5b9d080 <_gp+0x57774a0>
  41b7a4:	6572726f 	0x6572726f
  41b7a8:	72000000 	0x72000000
  41b7ac:	436f6d6d 	c0	0x16f6d6d
  41b7b0:	756e6963 	jalx	5b9a58c <_gp+0x57749ac>
  41b7b4:	6174696f 	0x6174696f
  41b7b8:	6e206572 	0x6e206572
  41b7bc:	726f7220 	0x726f7220
  41b7c0:	6f6e2073 	0x6f6e2073
  41b7c4:	656e6400 	0x656e6400
  41b7c8:	50726f74 	0x50726f74
  41b7cc:	6f636f6c 	0x6f636f6c
  41b7d0:	20657272 	addi	$a1,$v1,29298
  41b7d4:	6f720000 	0x6f720000
  41b7d8:	4572726f 	0x4572726f
  41b7dc:	72203732 	0x72203732
  41b7e0:	00000000 	nop
  41b7e4:	4572726f 	0x4572726f
  41b7e8:	72203733 	0x72203733
  41b7ec:	00000000 	nop
  41b7f0:	4d756c74 	0x4d756c74
  41b7f4:	69686f70 	0x69686f70
  41b7f8:	20617474 	addi	$at,$v1,29812
  41b7fc:	656d7074 	0x656d7074
  41b800:	65640000 	0x65640000
  41b804:	4572726f 	0x4572726f
  41b808:	72203735 	0x72203735
  41b80c:	00000000 	nop
  41b810:	4572726f 	0x4572726f
  41b814:	72203736 	0x72203736
  41b818:	00000000 	nop
  41b81c:	4e6f7420 	c3	0x6f7420
  41b820:	61206461 	0x61206461
  41b824:	7461206d 	jalx	18481b4 <_gp+0x14225d4>
  41b828:	65737361 	0x65737361
  41b82c:	67650000 	0x67650000
  41b830:	46696c65 	c1	0x696c65
  41b834:	206e616d 	addi	$t6,$v1,24941
  41b838:	6520746f 	0x6520746f
  41b83c:	6f206c6f 	0x6f206c6f
  41b840:	6e670000 	0x6e670000
  41b844:	56616c75 	0x56616c75
  41b848:	6520746f 	0x6520746f
  41b84c:	6f206c61 	0x6f206c61
  41b850:	72676520 	0x72676520
  41b854:	666f7220 	0x666f7220
  41b858:	64656669 	0x64656669
  41b85c:	6e656420 	0x6e656420
  41b860:	64617461 	0x64617461
  41b864:	20747970 	addi	$s4,$v1,31088
  41b868:	65000000 	0x65000000
  41b86c:	4e616d65 	c3	0x616d65
  41b870:	206e6f74 	addi	$t6,$v1,28532
  41b874:	20756e69 	addi	$s5,$v1,28265
  41b878:	71756520 	0x71756520
  41b87c:	6f6e206e 	0x6f6e206e
  41b880:	6574776f 	0x6574776f
  41b884:	726b0000 	0x726b0000
  41b888:	46696c65 	c1	0x696c65
  41b88c:	20646573 	addi	$a0,$v1,25971
  41b890:	63726970 	0x63726970
  41b894:	746f7220 	jalx	1bdc880 <_gp+0x17b6ca0>
  41b898:	696e2062 	0x696e2062
  41b89c:	61642073 	0x61642073
  41b8a0:	74617465 	jalx	185d194 <_gp+0x14375b4>
  41b8a4:	00000000 	nop
  41b8a8:	52656d6f 	0x52656d6f
  41b8ac:	74652061 	jalx	1948184 <_gp+0x15225a4>
  41b8b0:	64647265 	0x64647265
  41b8b4:	73732063 	0x73732063
  41b8b8:	68616e67 	0x68616e67
  41b8bc:	65640000 	0x65640000
  41b8c0:	43616e6e 	c0	0x1616e6e
  41b8c4:	6f742061 	0x6f742061
  41b8c8:	63636573 	0x63636573
  41b8cc:	73206120 	0x73206120
  41b8d0:	6e656564 	0x6e656564
  41b8d4:	65642073 	0x65642073
  41b8d8:	68617265 	0x68617265
  41b8dc:	64206c69 	0x64206c69
  41b8e0:	62726172 	0x62726172
  41b8e4:	79000000 	0x79000000
  41b8e8:	41636365 	0x41636365
  41b8ec:	7373696e 	0x7373696e
  41b8f0:	67206120 	0x67206120
  41b8f4:	636f7272 	0x636f7272
  41b8f8:	75707465 	jalx	5c1d194 <_gp+0x57f75b4>
  41b8fc:	64207368 	0x64207368
  41b900:	61726564 	0x61726564
  41b904:	206c6962 	addi	$t4,$v1,26978
  41b908:	72617279 	0x72617279
  41b90c:	00000000 	nop
  41b910:	2e6c6962 	sltiu	$t4,$s3,26978
  41b914:	20736563 	addi	$s3,$v1,25955
  41b918:	74696f6e 	jalx	1a5bdb8 <_gp+0x16361d8>
  41b91c:	20696e20 	addi	$t1,$v1,28192
  41b920:	612e6f75 	0x612e6f75
  41b924:	7420636f 	jalx	818dbc <_gp+0x3f31dc>
  41b928:	72727570 	0x72727570
  41b92c:	74656400 	jalx	1959000 <_gp+0x1533420>
  41b930:	41747465 	0x41747465
  41b934:	6d707469 	0x6d707469
  41b938:	6e672074 	0x6e672074
  41b93c:	6f206c69 	0x6f206c69
  41b940:	6e6b2069 	0x6e6b2069
  41b944:	6e206d6f 	0x6e206d6f
  41b948:	72652073 	0x72652073
  41b94c:	68617265 	0x68617265
  41b950:	64206c69 	0x64206c69
  41b954:	62726172 	0x62726172
  41b958:	69657320 	0x69657320
  41b95c:	7468616e 	jalx	1a185b8 <_gp+0x15f29d8>
  41b960:	20737973 	addi	$s3,$v1,31091
  41b964:	74656d20 	jalx	195b480 <_gp+0x15358a0>
  41b968:	6c696d69 	0x6c696d69
  41b96c:	74000000 	jalx	0 <__istart-0x400fcc>
  41b970:	43616e6e 	c0	0x1616e6e
  41b974:	6f742065 	0x6f742065
  41b978:	78656320 	0x78656320
  41b97c:	61207368 	0x61207368
  41b980:	61726564 	0x61726564
  41b984:	206c6962 	addi	$t4,$v1,26978
  41b988:	72617279 	0x72617279
  41b98c:	20646972 	addi	$a0,$v1,26994
  41b990:	6563746c 	0x6563746c
  41b994:	79000000 	0x79000000
  41b998:	496c6c65 	0x496c6c65
  41b99c:	67616c20 	0x67616c20
  41b9a0:	62797465 	0x62797465
  41b9a4:	20736571 	addi	$s3,$v1,25969
  41b9a8:	75656e63 	jalx	595b98c <_gp+0x5535dac>
  41b9ac:	65000000 	0x65000000
  41b9b0:	4f706572 	c3	0x1706572
  41b9b4:	6174696f 	0x6174696f
  41b9b8:	6e206e6f 	0x6e206e6f
  41b9bc:	74206170 	jalx	8185c0 <_gp+0x3f29e0>
  41b9c0:	706c6963 	0x706c6963
  41b9c4:	61626c65 	0x61626c65
  41b9c8:	00000000 	nop
  41b9cc:	546f6f20 	0x546f6f20
  41b9d0:	6d616e79 	0x6d616e79
  41b9d4:	2073796d 	addi	$s3,$v1,31085
  41b9d8:	626f6c69 	0x626f6c69
  41b9dc:	63206c69 	0x63206c69
  41b9e0:	6e6b7320 	0x6e6b7320
  41b9e4:	696e2070 	0x696e2070
  41b9e8:	61746820 	0x61746820
  41b9ec:	6e616d65 	0x6e616d65
  41b9f0:	20747261 	addi	$s4,$v1,29281
  41b9f4:	76657273 	jalx	995c9cc <_gp+0x9536dec>
  41b9f8:	616c0000 	0x616c0000
  41b9fc:	52657374 	0x52657374
  41ba00:	61727461 	0x61727461
  41ba04:	626c6520 	0x626c6520
  41ba08:	73797374 	0x73797374
  41ba0c:	656d2063 	0x656d2063
  41ba10:	616c6c00 	0x616c6c00
  41ba14:	49662070 	0x49662070
  41ba18:	6970652f 	0x6970652f
  41ba1c:	4649464f 	c1	0x49464f
  41ba20:	2c20646f 	sltiu	$zero,$at,25711
  41ba24:	6e277420 	0x6e277420
  41ba28:	736c6565 	0x736c6565
  41ba2c:	7020696e 	0x7020696e
  41ba30:	20737472 	addi	$s3,$v1,29810
  41ba34:	65616d20 	0x65616d20
  41ba38:	68656164 	0x68656164
  41ba3c:	00000000 	nop
  41ba40:	44697265 	0x44697265
  41ba44:	63746f72 	0x63746f72
  41ba48:	79206e6f 	0x79206e6f
  41ba4c:	7420656d 	jalx	8195b4 <_gp+0x3f39d4>
  41ba50:	70747900 	0x70747900
  41ba54:	546f6f20 	0x546f6f20
  41ba58:	6d616e79 	0x6d616e79
  41ba5c:	20757365 	addi	$s5,$v1,29541
  41ba60:	72730000 	0x72730000
  41ba64:	536f636b 	0x536f636b
  41ba68:	6574206f 	0x6574206f
  41ba6c:	70657261 	0x70657261
  41ba70:	74696f6e 	jalx	1a5bdb8 <_gp+0x16361d8>
  41ba74:	206f6e20 	addi	$t7,$v1,28192
  41ba78:	6e6f6e2d 	0x6e6f6e2d
  41ba7c:	736f636b 	0x736f636b
  41ba80:	65740000 	0x65740000
  41ba84:	44657374 	0x44657374
  41ba88:	696e6174 	0x696e6174
  41ba8c:	696f6e20 	0x696f6e20
  41ba90:	61646472 	0x61646472
  41ba94:	65737320 	0x65737320
  41ba98:	72657175 	0x72657175
  41ba9c:	69726564 	0x69726564
  41baa0:	00000000 	nop
  41baa4:	4d657373 	0x4d657373
  41baa8:	61676520 	0x61676520
  41baac:	746f6f20 	jalx	1bdbc80 <_gp+0x17b60a0>
  41bab0:	6c6f6e67 	0x6c6f6e67
  41bab4:	00000000 	nop
  41bab8:	50726f74 	0x50726f74
  41babc:	6f636f6c 	0x6f636f6c
  41bac0:	2077726f 	addi	$s7,$v1,29295
  41bac4:	6e672074 	0x6e672074
  41bac8:	79706520 	0x79706520
  41bacc:	666f7220 	0x666f7220
  41bad0:	736f636b 	0x736f636b
  41bad4:	65740000 	0x65740000
  41bad8:	4f707469 	c3	0x1707469
  41badc:	6f6e206e 	0x6f6e206e
  41bae0:	6f742073 	0x6f742073
  41bae4:	7570706f 	jalx	5c1c1bc <_gp+0x57f65dc>
  41bae8:	72746564 	0x72746564
  41baec:	20627920 	addi	$v0,$v1,31008
  41baf0:	70726f74 	0x70726f74
  41baf4:	6f636f6c 	0x6f636f6c
  41baf8:	00000000 	nop
  41bafc:	4572726f 	0x4572726f
  41bb00:	72203130 	0x72203130
  41bb04:	30000000 	andi	$zero,$zero,0x0
  41bb08:	4572726f 	0x4572726f
  41bb0c:	72203130 	0x72203130
  41bb10:	31000000 	andi	$zero,$t0,0x0
  41bb14:	4572726f 	0x4572726f
  41bb18:	72203130 	0x72203130
  41bb1c:	32000000 	andi	$zero,$s0,0x0
  41bb20:	4572726f 	0x4572726f
  41bb24:	72203130 	0x72203130
  41bb28:	33000000 	andi	$zero,$t8,0x0
  41bb2c:	4572726f 	0x4572726f
  41bb30:	72203130 	0x72203130
  41bb34:	34000000 	li	$zero,0x0
  41bb38:	4572726f 	0x4572726f
  41bb3c:	72203130 	0x72203130
  41bb40:	35000000 	ori	$zero,$t0,0x0
  41bb44:	4572726f 	0x4572726f
  41bb48:	72203130 	0x72203130
  41bb4c:	36000000 	ori	$zero,$s0,0x0
  41bb50:	4572726f 	0x4572726f
  41bb54:	72203130 	0x72203130
  41bb58:	37000000 	ori	$zero,$t8,0x0
  41bb5c:	4572726f 	0x4572726f
  41bb60:	72203130 	0x72203130
  41bb64:	38000000 	xori	$zero,$zero,0x0
  41bb68:	4572726f 	0x4572726f
  41bb6c:	72203130 	0x72203130
  41bb70:	39000000 	xori	$zero,$t0,0x0
  41bb74:	4572726f 	0x4572726f
  41bb78:	72203131 	0x72203131
  41bb7c:	30000000 	andi	$zero,$zero,0x0
  41bb80:	4572726f 	0x4572726f
  41bb84:	72203131 	0x72203131
  41bb88:	31000000 	andi	$zero,$t0,0x0
  41bb8c:	4572726f 	0x4572726f
  41bb90:	72203131 	0x72203131
  41bb94:	32000000 	andi	$zero,$s0,0x0
  41bb98:	4572726f 	0x4572726f
  41bb9c:	72203131 	0x72203131
  41bba0:	33000000 	andi	$zero,$t8,0x0
  41bba4:	4572726f 	0x4572726f
  41bba8:	72203131 	0x72203131
  41bbac:	34000000 	li	$zero,0x0
  41bbb0:	4572726f 	0x4572726f
  41bbb4:	72203131 	0x72203131
  41bbb8:	35000000 	ori	$zero,$t0,0x0
  41bbbc:	4572726f 	0x4572726f
  41bbc0:	72203131 	0x72203131
  41bbc4:	36000000 	ori	$zero,$s0,0x0
  41bbc8:	4572726f 	0x4572726f
  41bbcc:	72203131 	0x72203131
  41bbd0:	37000000 	ori	$zero,$t8,0x0
  41bbd4:	4572726f 	0x4572726f
  41bbd8:	72203131 	0x72203131
  41bbdc:	38000000 	xori	$zero,$zero,0x0
  41bbe0:	4572726f 	0x4572726f
  41bbe4:	72203131 	0x72203131
  41bbe8:	39000000 	xori	$zero,$t0,0x0
  41bbec:	50726f74 	0x50726f74
  41bbf0:	6f636f6c 	0x6f636f6c
  41bbf4:	206e6f74 	addi	$t6,$v1,28532
  41bbf8:	20737570 	addi	$s3,$v1,30064
  41bbfc:	706f7274 	0x706f7274
  41bc00:	65640000 	0x65640000
  41bc04:	536f636b 	0x536f636b
  41bc08:	65742074 	0x65742074
  41bc0c:	79706520 	0x79706520
  41bc10:	6e6f7420 	0x6e6f7420
  41bc14:	73757070 	0x73757070
  41bc18:	6f727465 	0x6f727465
  41bc1c:	64000000 	0x64000000
  41bc20:	4f706572 	c3	0x1706572
  41bc24:	6174696f 	0x6174696f
  41bc28:	6e206e6f 	0x6e206e6f
  41bc2c:	74207375 	jalx	81cdd4 <_gp+0x3f71f4>
  41bc30:	70706f72 	0x70706f72
  41bc34:	74656420 	jalx	1959080 <_gp+0x15334a0>
  41bc38:	6f6e2074 	0x6f6e2074
  41bc3c:	72616e73 	0x72616e73
  41bc40:	706f7274 	0x706f7274
  41bc44:	20656e64 	addi	$a1,$v1,28260
  41bc48:	706f696e 	0x706f696e
  41bc4c:	74000000 	jalx	0 <__istart-0x400fcc>
  41bc50:	50726f74 	0x50726f74
  41bc54:	6f636f6c 	0x6f636f6c
  41bc58:	2066616d 	addi	$a2,$v1,24941
  41bc5c:	696c7920 	0x696c7920
  41bc60:	6e6f7420 	0x6e6f7420
  41bc64:	73757070 	0x73757070
  41bc68:	6f727465 	0x6f727465
  41bc6c:	64000000 	0x64000000
  41bc70:	41646472 	0x41646472
  41bc74:	65737320 	0x65737320
  41bc78:	66616d69 	0x66616d69
  41bc7c:	6c79206e 	0x6c79206e
  41bc80:	6f742073 	0x6f742073
  41bc84:	7570706f 	jalx	5c1c1bc <_gp+0x57f65dc>
  41bc88:	72746564 	0x72746564
  41bc8c:	20627920 	addi	$v0,$v1,31008
  41bc90:	70726f74 	0x70726f74
  41bc94:	6f636f6c 	0x6f636f6c
  41bc98:	2066616d 	addi	$a2,$v1,24941
  41bc9c:	696c7900 	0x696c7900
  41bca0:	41646472 	0x41646472
  41bca4:	65737320 	0x65737320
  41bca8:	616c7265 	0x616c7265
  41bcac:	61647920 	0x61647920
  41bcb0:	696e2075 	0x696e2075
  41bcb4:	73650000 	0x73650000
  41bcb8:	43616e6e 	c0	0x1616e6e
  41bcbc:	6f742061 	0x6f742061
  41bcc0:	73736967 	0x73736967
  41bcc4:	6e207265 	0x6e207265
  41bcc8:	71756573 	0x71756573
  41bccc:	74656420 	jalx	1959080 <_gp+0x15334a0>
  41bcd0:	61646472 	0x61646472
  41bcd4:	65737300 	0x65737300
  41bcd8:	4e657477 	c3	0x657477
  41bcdc:	6f726b20 	0x6f726b20
  41bce0:	69732064 	0x69732064
  41bce4:	6f776e00 	0x6f776e00
  41bce8:	4e657477 	c3	0x657477
  41bcec:	6f726b20 	0x6f726b20
  41bcf0:	69732075 	0x69732075
  41bcf4:	6e726561 	0x6e726561
  41bcf8:	63686162 	0x63686162
  41bcfc:	6c650000 	0x6c650000
  41bd00:	4e657477 	c3	0x657477
  41bd04:	6f726b20 	0x6f726b20
  41bd08:	64726f70 	0x64726f70
  41bd0c:	70656420 	0x70656420
  41bd10:	636f6e6e 	0x636f6e6e
  41bd14:	65637469 	0x65637469
  41bd18:	6f6e2062 	0x6f6e2062
  41bd1c:	65636175 	0x65636175
  41bd20:	7365206f 	0x7365206f
  41bd24:	66207265 	0x66207265
  41bd28:	73657400 	0x73657400
  41bd2c:	536f6674 	0x536f6674
  41bd30:	77617265 	jalx	d85c994 <_gp+0xd436db4>
  41bd34:	20636175 	addi	$v1,$v1,24949
  41bd38:	73656420 	0x73656420
  41bd3c:	636f6e6e 	0x636f6e6e
  41bd40:	65637469 	0x65637469
  41bd44:	6f6e2061 	0x6f6e2061
  41bd48:	626f7274 	0x626f7274
  41bd4c:	00000000 	nop
  41bd50:	436f6e6e 	c0	0x16f6e6e
  41bd54:	65637469 	0x65637469
  41bd58:	6f6e2072 	0x6f6e2072
  41bd5c:	65736574 	0x65736574
  41bd60:	20627920 	addi	$v0,$v1,31008
  41bd64:	70656572 	0x70656572
  41bd68:	00000000 	nop
  41bd6c:	4e6f2062 	c3	0x6f2062
  41bd70:	75666665 	jalx	5999994 <_gp+0x5573db4>
  41bd74:	72207370 	0x72207370
  41bd78:	61636520 	0x61636520
  41bd7c:	61766169 	0x61766169
  41bd80:	6c61626c 	0x6c61626c
  41bd84:	65000000 	0x65000000
  41bd88:	5472616e 	0x5472616e
  41bd8c:	73706f72 	0x73706f72
  41bd90:	7420656e 	jalx	8195b8 <_gp+0x3f39d8>
  41bd94:	64706f69 	0x64706f69
  41bd98:	6e742069 	0x6e742069
  41bd9c:	7320616c 	0x7320616c
  41bda0:	72656164 	0x72656164
  41bda4:	7920636f 	0x7920636f
  41bda8:	6e6e6563 	0x6e6e6563
  41bdac:	74656400 	jalx	1959000 <_gp+0x1533420>
  41bdb0:	5472616e 	0x5472616e
  41bdb4:	73706f72 	0x73706f72
  41bdb8:	7420656e 	jalx	8195b8 <_gp+0x3f39d8>
  41bdbc:	64706f69 	0x64706f69
  41bdc0:	6e742069 	0x6e742069
  41bdc4:	73206e6f 	0x73206e6f
  41bdc8:	7420636f 	jalx	818dbc <_gp+0x3f31dc>
  41bdcc:	6e6e6563 	0x6e6e6563
  41bdd0:	74656400 	jalx	1959000 <_gp+0x1533420>
  41bdd4:	53747275 	0x53747275
  41bdd8:	63747572 	0x63747572
  41bddc:	65206e65 	0x65206e65
  41bde0:	65647320 	0x65647320
  41bde4:	636c6561 	0x636c6561
  41bde8:	6e696e67 	0x6e696e67
  41bdec:	00000000 	nop
  41bdf0:	4572726f 	0x4572726f
  41bdf4:	72203133 	0x72203133
  41bdf8:	36000000 	ori	$zero,$s0,0x0
  41bdfc:	4e6f7420 	c3	0x6f7420
  41be00:	61206e61 	0x61206e61
  41be04:	6d652066 	0x6d652066
  41be08:	696c6500 	0x696c6500
  41be0c:	4e6f7420 	c3	0x6f7420
  41be10:	61766169 	0x61766169
  41be14:	6c61626c 	0x6c61626c
  41be18:	65000000 	0x65000000
  41be1c:	49732061 	0x49732061
  41be20:	206e616d 	addi	$t6,$v1,24941
  41be24:	65206669 	0x65206669
  41be28:	6c650000 	0x6c650000
  41be2c:	52656d6f 	0x52656d6f
  41be30:	74652049 	jalx	1948124 <_gp+0x1522544>
  41be34:	2f4f2065 	sltiu	$t7,$k0,8293
  41be38:	72726f72 	0x72726f72
  41be3c:	00000000 	nop
  41be40:	52657365 	0x52657365
  41be44:	72766564 	0x72766564
  41be48:	20666f72 	addi	$a2,$v1,28530
  41be4c:	20667574 	addi	$a2,$v1,30068
  41be50:	75726520 	jalx	5c99480 <_gp+0x58738a0>
  41be54:	75736500 	jalx	5cd9400 <_gp+0x58b3820>
  41be58:	4572726f 	0x4572726f
  41be5c:	72203134 	0x72203134
  41be60:	32000000 	andi	$zero,$s0,0x0
  41be64:	43616e6e 	c0	0x1616e6e
  41be68:	6f742073 	0x6f742073
  41be6c:	656e6420 	0x656e6420
  41be70:	61667465 	0x61667465
  41be74:	7220736f 	0x7220736f
  41be78:	636b6574 	0x636b6574
  41be7c:	20736875 	addi	$s3,$v1,26741
  41be80:	74646f77 	jalx	191bddc <_gp+0x14f61fc>
  41be84:	6e000000 	0x6e000000
  41be88:	546f6f20 	0x546f6f20
  41be8c:	6d616e79 	0x6d616e79
  41be90:	20726566 	addi	$s2,$v1,25958
  41be94:	6572656e 	0x6572656e
  41be98:	6365733a 	0x6365733a
  41be9c:	2063616e 	addi	$v1,$v1,24942
  41bea0:	6e6f7420 	0x6e6f7420
  41bea4:	73706c69 	0x73706c69
  41bea8:	63650000 	0x63650000
  41beac:	436f6e6e 	c0	0x16f6e6e
  41beb0:	65637469 	0x65637469
  41beb4:	6f6e2074 	0x6f6e2074
  41beb8:	696d6564 	0x696d6564
  41bebc:	206f7574 	addi	$t7,$v1,30068
  41bec0:	00000000 	nop
  41bec4:	436f6e6e 	c0	0x16f6e6e
  41bec8:	65637469 	0x65637469
  41becc:	6f6e2072 	0x6f6e2072
  41bed0:	65667573 	0x65667573
  41bed4:	65640000 	0x65640000
  41bed8:	486f7374 	0x486f7374
  41bedc:	20697320 	addi	$t1,$v1,29472
  41bee0:	646f776e 	0x646f776e
  41bee4:	00000000 	nop
  41bee8:	4e6f2072 	c3	0x6f2072
  41beec:	6f757465 	0x6f757465
  41bef0:	20746f20 	addi	$s4,$v1,28448
  41bef4:	686f7374 	0x686f7374
  41bef8:	00000000 	nop
  41befc:	4f706572 	c3	0x1706572
  41bf00:	6174696f 	0x6174696f
  41bf04:	6e20616c 	0x6e20616c
  41bf08:	72656164 	0x72656164
  41bf0c:	7920696e 	0x7920696e
  41bf10:	2070726f 	addi	$s0,$v1,29295
  41bf14:	67726573 	0x67726573
  41bf18:	73000000 	0x73000000
  41bf1c:	4f706572 	c3	0x1706572
  41bf20:	6174696f 	0x6174696f
  41bf24:	6e206e6f 	0x6e206e6f
  41bf28:	7720696e 	jalx	c81a5b8 <_gp+0xc3f49d8>
  41bf2c:	2070726f 	addi	$s0,$v1,29295
  41bf30:	67726573 	0x67726573
  41bf34:	73000000 	0x73000000
  41bf38:	5374616c 	0x5374616c
  41bf3c:	65204e46 	0x65204e46
  41bf40:	53206669 	0x53206669
  41bf44:	6c652068 	0x6c652068
  41bf48:	616e646c 	0x616e646c
  41bf4c:	65000000 	0x65000000
  41bf50:	75787367 	jalx	5e1cd9c <_gp+0x59f71bc>
  41bf54:	69657272 	0x69657272
  41bf58:	00000000 	nop
  41bf5c:	75787379 	jalx	5e1cde4 <_gp+0x59f7204>
  41bf60:	73657272 	0x73657272
	...

0041bf70 <_sys_index>:
  41bf70:	00000003 	sra	$zero,$zero,0x0
  41bf74:	00000004 	sllv	$zero,$zero,$zero
  41bf78:	00000005 	0x5
  41bf7c:	00000006 	srlv	$zero,$zero,$zero
  41bf80:	00000007 	srav	$zero,$zero,$zero
  41bf84:	00000008 	jr	$zero
  41bf88:	00000009 	jalr	$zero,$zero
  41bf8c:	0000000a 	0xa
  41bf90:	0000000b 	0xb
  41bf94:	0000000c 	syscall
  41bf98:	0000000d 	break
  41bf9c:	00010005 	0x10005
  41bfa0:	0000000f 	0xf
  41bfa4:	00000010 	mfhi	$zero
  41bfa8:	00000011 	mthi	$zero
  41bfac:	00000012 	mflo	$zero
  41bfb0:	00000013 	mtlo	$zero
  41bfb4:	00000014 	0x14
  41bfb8:	00000015 	0x15
  41bfbc:	00000016 	0x16
  41bfc0:	00000017 	0x17
  41bfc4:	00000018 	mult	$zero,$zero
  41bfc8:	00000019 	multu	$zero,$zero
  41bfcc:	0000001a 	div	$zero,$zero,$zero
  41bfd0:	0000001b 	divu	$zero,$zero,$zero
  41bfd4:	0000001c 	0x1c
  41bfd8:	0000001d 	0x1d
  41bfdc:	0000001e 	0x1e
  41bfe0:	0000001f 	0x1f
  41bfe4:	00000020 	add	$zero,$zero,$zero
  41bfe8:	00000021 	move	$zero,$zero
  41bfec:	00000022 	neg	$zero,$zero
  41bff0:	00000023 	negu	$zero,$zero
  41bff4:	00000024 	and	$zero,$zero,$zero
  41bff8:	00000025 	move	$zero,$zero
  41bffc:	00000026 	xor	$zero,$zero,$zero
  41c000:	00000027 	nor	$zero,$zero,$zero
  41c004:	00000028 	0x28
  41c008:	00000029 	0x29
  41c00c:	0000002a 	slt	$zero,$zero,$zero
  41c010:	0000002b 	sltu	$zero,$zero,$zero
  41c014:	0000002c 	0x2c
  41c018:	0000002d 	0x2d
  41c01c:	0000002e 	0x2e
  41c020:	0000002f 	0x2f
  41c024:	00000030 	0x30
  41c028:	00000031 	0x31
  41c02c:	00000001 	0x1
  41c030:	00000001 	0x1
  41c034:	00000001 	0x1
  41c038:	00000032 	0x32
  41c03c:	00000033 	0x33
  41c040:	00000034 	0x34
  41c044:	00000035 	0x35
  41c048:	00000036 	0x36
  41c04c:	00000037 	0x37
  41c050:	00000038 	0x38
  41c054:	00000039 	0x39
  41c058:	00000001 	0x1
  41c05c:	00000001 	0x1
  41c060:	0000003a 	0x3a
  41c064:	0000003b 	0x3b
  41c068:	0000003c 	0x3c
  41c06c:	0000003d 	0x3d
  41c070:	0000003e 	0x3e
  41c074:	0000003f 	0x3f
  41c078:	00000040 	sll	$zero,$zero,0x1
  41c07c:	00000041 	0x41
  41c080:	00000042 	srl	$zero,$zero,0x1
  41c084:	00000043 	sra	$zero,$zero,0x1
  41c088:	00000044 	0x44
  41c08c:	00000045 	0x45
  41c090:	00000001 	0x1
  41c094:	00000001 	0x1
  41c098:	00000046 	0x46
  41c09c:	00000001 	0x1
  41c0a0:	00000001 	0x1
  41c0a4:	00000047 	0x47
  41c0a8:	00000048 	0x48
  41c0ac:	00000049 	0x49
  41c0b0:	0000004a 	0x4a
  41c0b4:	0000004b 	0x4b
  41c0b8:	0000004c 	syscall	0x1
  41c0bc:	0000004d 	break	0x0
  41c0c0:	0000004e 	0x4e
  41c0c4:	0000004f 	0x4f
  41c0c8:	00000050 	0x50
  41c0cc:	00000051 	0x51
  41c0d0:	00000052 	0x52
  41c0d4:	00000053 	0x53
  41c0d8:	00000054 	0x54
  41c0dc:	00000055 	0x55
  41c0e0:	00000056 	0x56
  41c0e4:	00000057 	0x57
  41c0e8:	00000058 	0x58
  41c0ec:	00000059 	0x59
  41c0f0:	0000005a 	0x5a
  41c0f4:	0000005b 	0x5b
  41c0f8:	0000005c 	0x5c
  41c0fc:	0000005d 	0x5d
  41c100:	00000001 	0x1
  41c104:	00000001 	0x1
  41c108:	00000001 	0x1
  41c10c:	00000001 	0x1
  41c110:	00000001 	0x1
  41c114:	00000001 	0x1
  41c118:	00000001 	0x1
  41c11c:	00000001 	0x1
  41c120:	00000001 	0x1
  41c124:	00000001 	0x1
  41c128:	00000001 	0x1
  41c12c:	00000001 	0x1
  41c130:	00000001 	0x1
  41c134:	00000001 	0x1
  41c138:	00000001 	0x1
  41c13c:	00000001 	0x1
  41c140:	00000001 	0x1
  41c144:	00000001 	0x1
  41c148:	00000001 	0x1
  41c14c:	00000001 	0x1
  41c150:	0000005e 	0x5e
  41c154:	0000005f 	0x5f
  41c158:	00000060 	0x60
  41c15c:	00000061 	0x61
  41c160:	00000062 	0x62
  41c164:	00000063 	0x63
  41c168:	00000064 	0x64
  41c16c:	00000065 	0x65
  41c170:	00000066 	0x66
  41c174:	00000067 	0x67
  41c178:	00000068 	0x68
  41c17c:	00000069 	0x69
  41c180:	0000006a 	0x6a
  41c184:	0000006b 	0x6b
  41c188:	0000006c 	0x6c
  41c18c:	0000006d 	0x6d
  41c190:	00000001 	0x1
  41c194:	0000006e 	0x6e
  41c198:	0000006f 	0x6f
  41c19c:	00000070 	0x70
  41c1a0:	00000071 	0x71
  41c1a4:	00000072 	0x72
  41c1a8:	00000001 	0x1
  41c1ac:	00000073 	0x73
  41c1b0:	00000074 	0x74
  41c1b4:	00000075 	0x75
  41c1b8:	00000076 	0x76
  41c1bc:	00000077 	0x77
  41c1c0:	00000078 	0x78
  41c1c4:	00000079 	0x79
  41c1c8:	0000007a 	0x7a
  41c1cc:	0000007b 	0x7b
  41c1d0:	00000001 	0x1
  41c1d4:	43616e63 	c0	0x1616e63
  41c1d8:	656c6c65 	0x656c6c65
  41c1dc:	64000000 	0x64000000
  41c1e0:	426c6f63 	c0	0x6c6f63
  41c1e4:	6b206e6f 	0x6b206e6f
  41c1e8:	74206675 	jalx	8199d4 <_gp+0x3f3df4>
  41c1ec:	6c6c7920 	0x6c6c7920
  41c1f0:	7472616e 	jalx	1c985b8 <_gp+0x18729d8>
  41c1f4:	73666572 	0x73666572
  41c1f8:	72656400 	0x72656400
  41c1fc:	43616e63 	c0	0x1616e63
  41c200:	656c6c65 	0x656c6c65
  41c204:	64000000 	0x64000000
  41c208:	44697363 	0x44697363
  41c20c:	2071756f 	addi	$s1,$v1,30063
  41c210:	74612065 	jalx	1848194 <_gp+0x14225b4>
  41c214:	78636565 	0x78636565
  41c218:	64656400 	0x64656400
  41c21c:	546f6f20 	0x546f6f20
  41c220:	6d616e79 	0x6d616e79
  41c224:	206c6576 	addi	$t4,$v1,25974
  41c228:	656c7320 	0x656c7320
  41c22c:	6f662072 	0x6f662072
  41c230:	656d6f74 	0x656d6f74
  41c234:	6520696e 	0x6520696e
  41c238:	20706174 	addi	$s0,$v1,24948
  41c23c:	68000000 	0x68000000
  41c240:	4d657373 	0x4d657373
  41c244:	61676520 	0x61676520
  41c248:	6e6f7420 	0x6e6f7420
  41c24c:	666f756e 	0x666f756e
  41c250:	6421210a 	0x6421210a
  41c254:	00000000 	nop
  41c258:	2f757372 	sltiu	$s5,$k1,29554
  41c25c:	2f6c6962 	sltiu	$t4,$k1,26978
  41c260:	2f6c6f63 	sltiu	$t4,$k1,28515
  41c264:	616c652f 	0x616c652f
  41c268:	00000000 	nop
  41c26c:	2f4c435f 	sltiu	$t4,$k0,17247
  41c270:	4d455353 	0x4d455353
  41c274:	41474553 	0x41474553
  41c278:	2f000000 	sltiu	$zero,$t8,0
  41c27c:	00000000 	nop
  41c280:	54524143 	0x54524143
  41c284:	453a2050 	0x453a2050
  41c288:	726f6365 	0x726f6365
  41c28c:	73732025 	0x73732025
  41c290:	64206465 	0x64206465
  41c294:	6c657465 	0x6c657465
  41c298:	64206173 	0x64206173
  41c29c:	20746964 	addi	$s4,$v1,26980
  41c2a0:	20256420 	addi	$a1,$at,25632
  41c2a4:	66726f6d 	0x66726f6d
  41c2a8:	20617265 	addi	$at,$v1,29285
  41c2ac:	6e612025 	0x6e612025
  41c2b0:	73202866 	0x73202866
  41c2b4:	696c6520 	0x696c6520
  41c2b8:	6c6f636b 	0x6c6f636b
  41c2bc:	20676f6e 	addi	$a3,$v1,28526
  41c2c0:	65292062 	0x65292062
  41c2c4:	79207072 	0x79207072
  41c2c8:	6f636573 	0x6f636573
  41c2cc:	73202564 	0x73202564
  41c2d0:	00000000 	nop
  41c2d4:	4552524f 	0x4552524f
  41c2d8:	523a4174 	0x523a4174
  41c2dc:	74656d70 	jalx	195b5c0 <_gp+0x15359e0>
  41c2e0:	74206279 	jalx	8189e4 <_gp+0x3f2e04>
  41c2e4:	20256420 	addi	$a1,$at,25632
  41c2e8:	746f2063 	jalx	1bc818c <_gp+0x17a25ac>
  41c2ec:	6c65616e 	0x6c65616e
  41c2f0:	20746964 	addi	$s4,$v1,26980
  41c2f4:	7320696e 	0x7320696e
  41c2f8:	20617265 	addi	$at,$v1,29285
  41c2fc:	6e612025 	0x6e612025
  41c300:	73206661 	0x73206661
  41c304:	696c6564 	0x696c6564
  41c308:	00000000 	nop
  41c30c:	4552524f 	0x4552524f
  41c310:	523a5072 	0x523a5072
  41c314:	6f636573 	0x6f636573
  41c318:	73202564 	0x73202564
  41c31c:	20696e20 	addi	$t1,$v1,28192
  41c320:	736c6f74 	0x736c6f74
  41c324:	20256420 	addi	$a1,$at,25632
  41c328:	62757420 	0x62757420
  41c32c:	70696420 	0x70696420
  41c330:	2564206f 	addiu	$a0,$t3,8303
  41c334:	776e7320 	jalx	db9cc80 <_gp+0xd7770a0>
  41c338:	6c6f636b 	0x6c6f636b
  41c33c:	2120696e 	addi	$zero,$t1,26990
  41c340:	20617265 	addi	$at,$v1,29285
  41c344:	6e612025 	0x6e612025
  41c348:	73000000 	0x73000000
  41c34c:	4552524f 	0x4552524f
  41c350:	523a5072 	0x523a5072
  41c354:	6f636573 	0x6f636573
  41c358:	73202564 	0x73202564
  41c35c:	20617265 	addi	$at,$v1,29285
  41c360:	6e612030 	0x6e612030
  41c364:	78257820 	0x78257820
  41c368:	6e657665 	0x6e657665
  41c36c:	7220696e 	0x7220696e
  41c370:	69746961 	0x69746961
  41c374:	6c697a65 	0x6c697a65
  41c378:	6420285f 	0x6420285f
  41c37c:	75736765 	jalx	5cd9d94 <_gp+0x58b41b4>
  41c380:	74746964 	jalx	1d1a590 <_gp+0x18f49b0>
  41c384:	29000000 	slti	$zero,$t0,0
  41c388:	4552524f 	0x4552524f
  41c38c:	523a5072 	0x523a5072
  41c390:	6f636573 	0x6f636573
  41c394:	73202564 	0x73202564
  41c398:	20617474 	addi	$at,$v1,29812
  41c39c:	656d7074 	0x656d7074
  41c3a0:	20746f20 	addi	$s4,$v1,28448
  41c3a4:	67726162 	0x67726162
  41c3a8:	20686561 	addi	$t0,$v1,25953
  41c3ac:	64657220 	0x64657220
  41c3b0:	66696c65 	0x66696c65
  41c3b4:	206c6f63 	addi	$t4,$v1,28515
  41c3b8:	6b20666f 	0x6b20666f
  41c3bc:	72206172 	0x72206172
  41c3c0:	656e6120 	0x656e6120
  41c3c4:	25732066 	addiu	$s3,$t3,8294
  41c3c8:	61696c65 	0x61696c65
  41c3cc:	64000000 	0x64000000
  41c3d0:	4552524f 	0x4552524f
  41c3d4:	523a5072 	0x523a5072
  41c3d8:	6f636573 	0x6f636573
  41c3dc:	73202564 	0x73202564
  41c3e0:	20617265 	addi	$at,$v1,29285
  41c3e4:	6e612040 	0x6e612040
  41c3e8:	30782578 	andi	$t8,$v1,0x2578
  41c3ec:	206e6576 	addi	$t6,$v1,25974
  41c3f0:	65722069 	0x65722069
  41c3f4:	6e697469 	0x6e697469
  41c3f8:	616c697a 	0x616c697a
  41c3fc:	65642028 	0x65642028
  41c400:	5f757363 	0x5f757363
  41c404:	6c65616e 	0x6c65616e
  41c408:	5f746964 	0x5f746964
  41c40c:	6d617029 	0x6d617029
  41c410:	00000000 	nop
  41c414:	4552524f 	0x4552524f
  41c418:	523a5072 	0x523a5072
  41c41c:	6f636573 	0x6f636573
  41c420:	73202564 	0x73202564
  41c424:	20617474 	addi	$at,$v1,29812
  41c428:	656d7074 	0x656d7074
  41c42c:	20746f20 	addi	$s4,$v1,28448
  41c430:	63686563 	0x63686563
  41c434:	6b20666f 	0x6b20666f
  41c438:	72207469 	0x72207469
  41c43c:	64732069 	0x64732069
  41c440:	6e206172 	0x6e206172
  41c444:	656e6120 	0x656e6120
  41c448:	25732066 	addiu	$s3,$t3,8294
  41c44c:	61696c65 	0x61696c65
  41c450:	64000000 	0x64000000
  41c454:	4552524f 	0x4552524f
  41c458:	523a5072 	0x523a5072
  41c45c:	6f636573 	0x6f636573
  41c460:	73202564 	0x73202564
  41c464:	206e6f20 	addi	$t6,$v1,28448
  41c468:	74696473 	jalx	1a591cc <_gp+0x16335ec>
  41c46c:	206c6566 	addi	$t4,$v1,25958
  41c470:	7420696e 	jalx	81a5b8 <_gp+0x3f49d8>
  41c474:	20617265 	addi	$at,$v1,29285
  41c478:	6e612025 	0x6e612025
  41c47c:	73204030 	0x73204030
  41c480:	7825782e 	0x7825782e
  41c484:	20546f6f 	addi	$s4,$v0,28527
  41c488:	206d616e 	addi	$t5,$v1,24942
  41c48c:	79207573 	0x79207573
  41c490:	6572733f 	0x6572733f
  41c494:	20286d61 	addi	$t0,$at,28001
  41c498:	78203d20 	0x78203d20
  41c49c:	25642900 	addiu	$a0,$t3,10496
  41c4a0:	4552524f 	0x4552524f
  41c4a4:	523a5072 	0x523a5072
  41c4a8:	6f636573 	0x6f636573
  41c4ac:	73202564 	0x73202564
  41c4b0:	20636f75 	addi	$v1,$v1,28533
  41c4b4:	6c64206e 	0x6c64206e
  41c4b8:	6f742067 	0x6f742067
  41c4bc:	65742072 	0x65742072
  41c4c0:	6567756c 	0x6567756c
  41c4c4:	61722073 	0x61722073
  41c4c8:	656d6170 	0x656d6170
  41c4cc:	686f7265 	0x686f7265
  41c4d0:	20646576 	addi	$a0,$v1,25974
  41c4d4:	69636500 	0x69636500
  41c4d8:	54524143 	0x54524143
  41c4dc:	453a2050 	0x453a2050
  41c4e0:	726f6365 	0x726f6365
  41c4e4:	73732025 	0x73732025
  41c4e8:	64206164 	0x64206164
  41c4ec:	64656420 	0x64656420
  41c4f0:	61732074 	0x61732074
  41c4f4:	69642025 	0x69642025
  41c4f8:	64207366 	0x64207366
  41c4fc:	64202564 	0x64202564
  41c500:	20617265 	addi	$at,$v1,29285
  41c504:	6e612025 	0x6e612025
  41c508:	73206174 	0x73206174
  41c50c:	20307825 	addi	$s0,$at,30757
  41c510:	78000000 	0x78000000
  41c514:	4552524f 	0x4552524f
  41c518:	523a5072 	0x523a5072
  41c51c:	6f636573 	0x6f636573
  41c520:	73202564 	0x73202564
  41c524:	206e6f20 	addi	$t6,$v1,28448
  41c528:	74696473 	jalx	1a591cc <_gp+0x16335ec>
  41c52c:	206c6566 	addi	$t4,$v1,25958
  41c530:	7420696e 	jalx	81a5b8 <_gp+0x3f49d8>
  41c534:	20617265 	addi	$at,$v1,29285
  41c538:	6e612025 	0x6e612025
  41c53c:	732e2054 	0x732e2054
  41c540:	6f6f206d 	0x6f6f206d
  41c544:	616e7920 	0x616e7920
  41c548:	75736572 	jalx	5cd95c8 <_gp+0x58b39e8>
  41c54c:	733f2028 	0x733f2028
  41c550:	6d617820 	0x6d617820
  41c554:	3d202564 	0x3d202564
  41c558:	29000000 	slti	$zero,$t0,0
  41c55c:	4552524f 	0x4552524f
  41c560:	523a5072 	0x523a5072
  41c564:	6f636573 	0x6f636573
  41c568:	73202564 	0x73202564
  41c56c:	20617474 	addi	$at,$v1,29812
  41c570:	656d7074 	0x656d7074
  41c574:	20746f20 	addi	$s4,$v1,28448
  41c578:	61646420 	0x61646420
  41c57c:	746f2061 	jalx	1bc8184 <_gp+0x17a25a4>
  41c580:	72656e61 	0x72656e61
  41c584:	20257320 	addi	$a1,$at,29472
  41c588:	40307825 	0x40307825
  41c58c:	78206661 	0x78206661
  41c590:	696c6564 	0x696c6564
  41c594:	00000000 	nop
  41c598:	7573696e 	jalx	5cda5b8 <_gp+0x58b49d8>
  41c59c:	69743a45 	0x69743a45
  41c5a0:	52524f52 	0x52524f52
  41c5a4:	3a756e61 	xori	$s5,$s3,0x6e61
  41c5a8:	626c6520 	0x626c6520
  41c5ac:	746f207a 	jalx	1bc81e8 <_gp+0x17a2608>
  41c5b0:	65726f20 	0x65726f20
  41c5b4:	6172656e 	0x6172656e
  41c5b8:	61206669 	0x61206669
  41c5bc:	6c650000 	0x6c650000
  41c5c0:	7573696e 	jalx	5cda5b8 <_gp+0x58b49d8>
  41c5c4:	69743a45 	0x69743a45
  41c5c8:	52524f52 	0x52524f52
  41c5cc:	3a756e61 	xori	$s5,$s3,0x6e61
  41c5d0:	626c6520 	0x626c6520
  41c5d4:	746f2067 	jalx	1bc819c <_gp+0x17a25bc>
  41c5d8:	726f7720 	0x726f7720
  41c5dc:	6172656e 	0x6172656e
  41c5e0:	61206669 	0x61206669
  41c5e4:	6c652074 	0x6c652074
  41c5e8:	6f202564 	0x6f202564
  41c5ec:	20627974 	addi	$v0,$v1,31092
  41c5f0:	65730000 	0x65730000
  41c5f4:	7573696e 	jalx	5cda5b8 <_gp+0x58b49d8>
  41c5f8:	69743a45 	0x69743a45
  41c5fc:	52524f52 	0x52524f52
  41c600:	3a50726f 	xori	$s0,$s2,0x726f
  41c604:	63657373 	0x63657373
  41c608:	20256420 	addi	$a1,$at,25632
  41c60c:	6d6d6170 	0x6d6d6170
  41c610:	20666169 	addi	$a2,$v1,24937
  41c614:	6c656420 	0x6c656420
  41c618:	40307825 	0x40307825
  41c61c:	78000000 	0x78000000
  41c620:	7573696e 	jalx	5cda5b8 <_gp+0x58b49d8>
  41c624:	69743a45 	0x69743a45
  41c628:	52524f52 	0x52524f52
  41c62c:	3a50726f 	xori	$s0,$s2,0x726f
  41c630:	63657373 	0x63657373
  41c634:	20256420 	addi	$a1,$at,25632
  41c638:	76697274 	jalx	9a5c9d0 <_gp+0x9636df0>
  41c63c:	75616c20 	jalx	585b080 <_gp+0x54354a0>
  41c640:	61646472 	0x61646472
  41c644:	65737320 	0x65737320
  41c648:	30782578 	andi	$t8,$v1,0x2578
  41c64c:	20616c72 	addi	$at,$v1,27762
  41c650:	65616479 	0x65616479
  41c654:	20696e20 	addi	$t1,$v1,28192
  41c658:	75736500 	jalx	5cd9400 <_gp+0x58b3820>
  41c65c:	7573696e 	jalx	5cda5b8 <_gp+0x58b49d8>
  41c660:	69743a45 	0x69743a45
  41c664:	52524f52 	0x52524f52
  41c668:	3a666169 	xori	$a2,$s3,0x6169
  41c66c:	6c656420 	0x6c656420
  41c670:	746f2069 	jalx	1bc81a4 <_gp+0x17a25c4>
  41c674:	6e697469 	0x6e697469
  41c678:	616c697a 	0x616c697a
  41c67c:	65206865 	0x65206865
  41c680:	61646572 	0x61646572
  41c684:	00000000 	nop
  41c688:	55535452 	0x55535452
  41c68c:	41434546 	0x41434546
  41c690:	494c4500 	0x494c4500
  41c694:	2f646576 	sltiu	$a0,$k1,25974
  41c698:	2f7a6572 	sltiu	$k0,$k1,25970
  41c69c:	6f000000 	0x6f000000
  41c6a0:	54524143 	0x54524143
  41c6a4:	453a2050 	0x453a2050
  41c6a8:	726f6365 	0x726f6365
  41c6ac:	73732025 	0x73732025
  41c6b0:	6420616c 	0x6420616c
  41c6b4:	72656164 	0x72656164
  41c6b8:	79206d61 	0x79206d61
  41c6bc:	70706564 	0x70706564
  41c6c0:	20746f20 	addi	$s4,$v1,28448
  41c6c4:	6172656e 	0x6172656e
  41c6c8:	61202573 	0x61202573
  41c6cc:	00000000 	nop
  41c6d0:	2f646576 	sltiu	$a0,$k1,25974
  41c6d4:	2f7a6572 	sltiu	$k0,$k1,25970
  41c6d8:	6f000000 	0x6f000000
  41c6dc:	7573696e 	jalx	5cda5b8 <_gp+0x58b49d8>
  41c6e0:	69743a45 	0x69743a45
  41c6e4:	52524f52 	0x52524f52
  41c6e8:	3a50726f 	xori	$s0,$s2,0x726f
  41c6ec:	63657373 	0x63657373
  41c6f0:	20256420 	addi	$a1,$at,25632
  41c6f4:	6f70656e 	0x6f70656e
  41c6f8:	206f6e20 	addi	$t7,$v1,28192
  41c6fc:	25732066 	addiu	$s3,$t3,8294
  41c700:	61696c65 	0x61696c65
  41c704:	64000000 	0x64000000
  41c708:	7573696e 	jalx	5cda5b8 <_gp+0x58b49d8>
  41c70c:	69743a45 	0x69743a45
  41c710:	52524f52 	0x52524f52
  41c714:	3a50726f 	xori	$s0,$s2,0x726f
  41c718:	63657373 	0x63657373
  41c71c:	20256420 	addi	$a1,$at,25632
  41c720:	6f70656e 	0x6f70656e
  41c724:	206f6e20 	addi	$t7,$v1,28192
  41c728:	25732066 	addiu	$s3,$t3,8294
  41c72c:	61696c65 	0x61696c65
  41c730:	64000000 	0x64000000
  41c734:	7573696e 	jalx	5cda5b8 <_gp+0x58b49d8>
  41c738:	69743a45 	0x69743a45
  41c73c:	52524f52 	0x52524f52
  41c740:	3a50726f 	xori	$s0,$s2,0x726f
  41c744:	63657373 	0x63657373
  41c748:	20256420 	addi	$a1,$at,25632
  41c74c:	66696c65 	0x66696c65
  41c750:	206c6f63 	addi	$t4,$v1,28515
  41c754:	6b206f6e 	0x6b206f6e
  41c758:	20257320 	addi	$a1,$at,29472
  41c75c:	6661696c 	0x6661696c
  41c760:	65640000 	0x65640000
  41c764:	54524143 	0x54524143
  41c768:	453a2050 	0x453a2050
  41c76c:	726f6365 	0x726f6365
  41c770:	73732025 	0x73732025
  41c774:	64206a6f 	0x64206a6f
  41c778:	696e696e 	0x696e696e
  41c77c:	67206578 	0x67206578
  41c780:	69737469 	0x69737469
  41c784:	6e672061 	0x6e672061
  41c788:	72656e61 	0x72656e61
  41c78c:	20257320 	addi	$a1,$at,29472
  41c790:	40203078 	0x40203078
  41c794:	25780000 	addiu	$t8,$t3,0
  41c798:	7573696e 	jalx	5cda5b8 <_gp+0x58b49d8>
  41c79c:	69743a45 	0x69743a45
  41c7a0:	52524f52 	0x52524f52
  41c7a4:	3a566572 	xori	$s6,$s2,0x6572
  41c7a8:	73696f6e 	0x73696f6e
  41c7ac:	204d6973 	addi	$t5,$v0,26995
  41c7b0:	6d617463 	0x6d617463
  41c7b4:	68000000 	0x68000000
  41c7b8:	7573696e 	jalx	5cda5b8 <_gp+0x58b49d8>
  41c7bc:	69743a45 	0x69743a45
  41c7c0:	52524f52 	0x52524f52
  41c7c4:	3a6d6d61 	xori	$t5,$s3,0x6d61
  41c7c8:	70206661 	0x70206661
  41c7cc:	696c6564 	0x696c6564
  41c7d0:	20402030 	addi	$zero,$v0,8240
  41c7d4:	78257800 	0x78257800
  41c7d8:	7573696e 	jalx	5cda5b8 <_gp+0x58b49d8>
  41c7dc:	69743a45 	0x69743a45
  41c7e0:	52524f52 	0x52524f52
  41c7e4:	3a50726f 	xori	$s0,$s2,0x726f
  41c7e8:	63657373 	0x63657373
  41c7ec:	20256420 	addi	$a1,$at,25632
  41c7f0:	76697274 	jalx	9a5c9d0 <_gp+0x9636df0>
  41c7f4:	75616c20 	jalx	585b080 <_gp+0x54354a0>
  41c7f8:	61646472 	0x61646472
  41c7fc:	65737320 	0x65737320
  41c800:	30782578 	andi	$t8,$v1,0x2578
  41c804:	20616c72 	addi	$at,$v1,27762
  41c808:	65616479 	0x65616479
  41c80c:	20696e20 	addi	$t1,$v1,28192
  41c810:	75736500 	jalx	5cd9400 <_gp+0x58b3820>
  41c814:	7573696e 	jalx	5cda5b8 <_gp+0x58b49d8>
  41c818:	69743a45 	0x69743a45
  41c81c:	52524f52 	0x52524f52
  41c820:	3a617265 	xori	$at,$s3,0x7265
  41c824:	6e61206e 	0x6e61206e
  41c828:	6f742073 	0x6f742073
  41c82c:	65742063 	0x65742063
  41c830:	6f727265 	0x6f727265
  41c834:	63746c79 	0x63746c79
  41c838:	20666f72 	addi	$a2,$v1,28530
  41c83c:	2072756e 	addi	$s2,$v1,30062
  41c840:	6e696e67 	0x6e696e67
  41c844:	206f6e20 	addi	$t7,$v1,28192
  41c848:	616e2052 	0x616e2052
  41c84c:	33303030 	andi	$s0,$t9,0x3030
  41c850:	204d5000 	addi	$t5,$v0,20480
  41c854:	7573696e 	jalx	5cda5b8 <_gp+0x58b49d8>
  41c858:	69743a45 	0x69743a45
  41c85c:	52524f52 	0x52524f52
  41c860:	3a6e6f6e 	xori	$t6,$s3,0x6f6e
  41c864:	2d646562 	sltiu	$a0,$t3,25954
  41c868:	75672061 	jalx	59c8184 <_gp+0x55a25a4>
  41c86c:	6e642064 	0x6e642064
  41c870:	65627567 	0x65627567
  41c874:	206c6f63 	addi	$t4,$v1,28515
  41c878:	6b732063 	0x6b732063
  41c87c:	616e6e6f 	0x616e6e6f
  41c880:	74206265 	jalx	818994 <_gp+0x3f2db4>
  41c884:	206d6978 	addi	$t5,$v1,27000
  41c888:	6564206f 	0x6564206f
  41c88c:	6e20616e 	0x6e20616e
  41c890:	20523330 	addi	$s2,$v0,13104
  41c894:	3030204d 	andi	$s0,$at,0x204d
  41c898:	50000000 	0x50000000
  41c89c:	54524143 	0x54524143
  41c8a0:	453a2050 	0x453a2050
  41c8a4:	726f6365 	0x726f6365
  41c8a8:	73732025 	0x73732025
  41c8ac:	64206172 	0x64206172
  41c8b0:	656e6120 	0x656e6120
  41c8b4:	77656e74 	jalx	d95b9d0 <_gp+0xd535df0>
  41c8b8:	20656d70 	addi	$a1,$v1,28016
  41c8bc:	74792064 	jalx	1e48190 <_gp+0x1a225b0>
  41c8c0:	7572696e 	jalx	5c9a5b8 <_gp+0x58749d8>
  41c8c4:	67206861 	0x67206861
  41c8c8:	72646c6f 	0x72646c6f
  41c8cc:	636b2061 	0x636b2061
  41c8d0:	74746163 	jalx	1d1858c <_gp+0x18f29ac>
  41c8d4:	68000000 	0x68000000
  41c8d8:	54524143 	0x54524143
  41c8dc:	453a2050 	0x453a2050
  41c8e0:	726f6365 	0x726f6365
  41c8e4:	73732025 	0x73732025
  41c8e8:	64206372 	0x64206372
  41c8ec:	65617469 	0x65617469
  41c8f0:	6e67206e 	0x6e67206e
  41c8f4:	65772061 	0x65772061
  41c8f8:	72656e61 	0x72656e61
  41c8fc:	2025733a 	addi	$a1,$at,29498
  41c900:	6c6f636b 	0x6c6f636b
  41c904:	74797065 	jalx	1e5c194 <_gp+0x1a365b4>
  41c908:	20256420 	addi	$a1,$at,25632
  41c90c:	6d617875 	0x6d617875
  41c910:	73657273 	0x73657273
  41c914:	20256400 	addi	$a1,$at,25600
  41c918:	54524143 	0x54524143
  41c91c:	453a2050 	0x453a2050
  41c920:	726f6365 	0x726f6365
  41c924:	73732025 	0x73732025
  41c928:	64206172 	0x64206172
  41c92c:	656e6120 	0x656e6120
  41c930:	6e6f7420 	0x6e6f7420
  41c934:	6f776e65 	0x6f776e65
  41c938:	64206279 	0x64206279
  41c93c:	20796f75 	addi	$t9,$v1,28533
  41c940:	2e205265 	sltiu	$zero,$s1,21093
  41c944:	6d6f7669 	0x6d6f7669
  41c948:	6e672025 	0x6e672025
  41c94c:	7320616e 	0x7320616e
  41c950:	64207374 	0x64207374
  41c954:	61727469 	0x61727469
  41c958:	6e67206f 	0x6e67206f
  41c95c:	7665722e 	jalx	995c8b8 <_gp+0x9536cd8>
  41c960:	00000000 	nop
  41c964:	4552524f 	0x4552524f
  41c968:	523a7573 	0x523a7573
  41c96c:	696e6974 	0x696e6974
  41c970:	3a6e6f74 	xori	$t6,$s3,0x6f74
  41c974:	206f776e 	addi	$t7,$v1,30574
  41c978:	65722061 	0x65722061
  41c97c:	6e642063 	0x6e642063
  41c980:	616e6e6f 	0x616e6e6f
  41c984:	7420756e 	jalx	81d5b8 <_gp+0x3f79d8>
  41c988:	6c696e6b 	0x6c696e6b
  41c98c:	20257300 	addi	$a1,$at,29440
  41c990:	2f646576 	sltiu	$a0,$k1,25974
  41c994:	2f686c2f 	sltiu	$t0,$k1,27695
  41c998:	686c6f63 	0x686c6f63
  41c99c:	6b303030 	0x6b303030
  41c9a0:	00000000 	nop
  41c9a4:	4552524f 	0x4552524f
  41c9a8:	523a7573 	0x523a7573
  41c9ac:	696e6974 	0x696e6974
  41c9b0:	3a63616e 	xori	$v1,$s3,0x616e
  41c9b4:	6e6f7420 	0x6e6f7420
  41c9b8:	6f70656e 	0x6f70656e
  41c9bc:	202f6465 	addi	$t7,$at,25701
  41c9c0:	762f686c 	jalx	8bda1b0 <_gp+0x87b45d0>
  41c9c4:	2f686c6f 	sltiu	$t0,$k1,27759
  41c9c8:	636b3030 	0x636b3030
  41c9cc:	30000000 	andi	$zero,$zero,0x0
  41c9d0:	7573696e 	jalx	5cda5b8 <_gp+0x58b49d8>
  41c9d4:	69743a45 	0x69743a45
  41c9d8:	52524f52 	0x52524f52
  41c9dc:	3a6e6f6e 	xori	$t6,$s3,0x6f6e
  41c9e0:	2d646562 	sltiu	$a0,$t3,25954
  41c9e4:	75672061 	jalx	59c8184 <_gp+0x55a25a4>
  41c9e8:	6e642064 	0x6e642064
  41c9ec:	65627567 	0x65627567
  41c9f0:	206c6f63 	addi	$t4,$v1,28515
  41c9f4:	6b732063 	0x6b732063
  41c9f8:	616e6e6f 	0x616e6e6f
  41c9fc:	74206265 	jalx	818994 <_gp+0x3f2db4>
  41ca00:	206d6978 	addi	$t5,$v1,27000
  41ca04:	6564206f 	0x6564206f
  41ca08:	6e20616e 	0x6e20616e
  41ca0c:	20523330 	addi	$s2,$v0,13104
  41ca10:	3030204d 	andi	$s0,$at,0x204d
  41ca14:	50000000 	0x50000000
  41ca18:	54524143 	0x54524143
  41ca1c:	453a2050 	0x453a2050
  41ca20:	726f6365 	0x726f6365
  41ca24:	73732025 	0x73732025
  41ca28:	6420496e 	0x6420496e
  41ca2c:	69746961 	0x69746961
  41ca30:	6c697a69 	0x6c697a69
  41ca34:	6e672048 	0x6e672048
  41ca38:	41524457 	0x41524457
  41ca3c:	41524520 	0x41524520
  41ca40:	4c4f434b 	0x4c4f434b
  41ca44:	53000000 	0x53000000
  41ca48:	54524143 	0x54524143
  41ca4c:	453a2050 	0x453a2050
  41ca50:	726f6365 	0x726f6365
  41ca54:	73732025 	0x73732025
  41ca58:	6420496e 	0x6420496e
  41ca5c:	69746961 	0x69746961
  41ca60:	6c697a69 	0x6c697a69
  41ca64:	6e672053 	0x6e672053
  41ca68:	4f465457 	c3	0x1465457
  41ca6c:	41524520 	0x41524520
  41ca70:	4c4f434b 	0x4c4f434b
  41ca74:	53000000 	0x53000000
  41ca78:	54524143 	0x54524143
  41ca7c:	453a2050 	0x453a2050
  41ca80:	726f6365 	0x726f6365
  41ca84:	73732025 	0x73732025
  41ca88:	6420496e 	0x6420496e
  41ca8c:	69746961 	0x69746961
  41ca90:	6c697a69 	0x6c697a69
  41ca94:	6e672052 	0x6e672052
  41ca98:	34303030 	ori	$s0,$at,0x3030
  41ca9c:	20257320 	addi	$a1,$at,29472
  41caa0:	4c4f434b 	0x4c4f434b
  41caa4:	53000000 	0x53000000
  41caa8:	54524143 	0x54524143
  41caac:	453a2050 	0x453a2050
  41cab0:	726f6365 	0x726f6365
  41cab4:	73732025 	0x73732025
  41cab8:	6420496e 	0x6420496e
  41cabc:	69746961 	0x69746961
  41cac0:	6c697a69 	0x6c697a69
  41cac4:	6e672052 	0x6e672052
  41cac8:	34303030 	ori	$s0,$at,0x3030
  41cacc:	204d502d 	addi	$t5,$v0,20525
  41cad0:	4c4c5741 	0x4c4c5741
  41cad4:	52204c4f 	0x52204c4f
  41cad8:	434b5300 	c0	0x14b5300
  41cadc:	54524143 	0x54524143
  41cae0:	453a2050 	0x453a2050
  41cae4:	726f6365 	0x726f6365
  41cae8:	73732025 	0x73732025
  41caec:	64207573 	0x64207573
  41caf0:	696e6974 	0x696e6974
  41caf4:	20737563 	addi	$s3,$v1,30051
  41caf8:	63656465 	0x63656465
  41cafc:	6420666f 	0x6420666f
  41cb00:	72206172 	0x72206172
  41cb04:	656e6120 	0x656e6120
  41cb08:	25732040 	addiu	$s3,$t3,8256
  41cb0c:	20307825 	addi	$s0,$at,30757
  41cb10:	78000000 	0x78000000
  41cb14:	75736164 	jalx	5cd8590 <_gp+0x58b29b0>
  41cb18:	643a4552 	0x643a4552
  41cb1c:	524f523a 	0x524f523a
  41cb20:	50726f63 	0x50726f63
  41cb24:	65737320 	0x65737320
  41cb28:	25642066 	addiu	$a0,$t3,8294
  41cb2c:	61696c65 	0x61696c65
  41cb30:	6420746f 	0x6420746f
  41cb34:	20616464 	addi	$at,$v1,25700
  41cb38:	20746f20 	addi	$s4,$v1,28448
  41cb3c:	6172656e 	0x6172656e
  41cb40:	61204030 	0x61204030
  41cb44:	78257800 	0x78257800
  41cb48:	75736164 	jalx	5cd8590 <_gp+0x58b29b0>
  41cb4c:	643a4552 	0x643a4552
  41cb50:	524f523a 	0x524f523a
  41cb54:	50726f63 	0x50726f63
  41cb58:	65737320 	0x65737320
  41cb5c:	25642066 	addiu	$a0,$t3,8294
  41cb60:	61696c65 	0x61696c65
  41cb64:	6420746f 	0x6420746f
  41cb68:	20616464 	addi	$at,$v1,25700
  41cb6c:	20746f20 	addi	$s4,$v1,28448
  41cb70:	6172656e 	0x6172656e
  41cb74:	61204030 	0x61204030
  41cb78:	78257800 	0x78257800
  41cb7c:	2f646576 	sltiu	$a0,$k1,25974
  41cb80:	2f757365 	sltiu	$s5,$k1,29541
  41cb84:	6d61636c 	0x6d61636c
  41cb88:	6f6e6500 	0x6f6e6500
  41cb8c:	7573696e 	jalx	5cda5b8 <_gp+0x58b49d8>
  41cb90:	69743a45 	0x69743a45
  41cb94:	52524f52 	0x52524f52
  41cb98:	3a43616e 	xori	$v1,$s2,0x616e
  41cb9c:	6e6f7420 	0x6e6f7420
  41cba0:	6f70656e 	0x6f70656e
  41cba4:	20257300 	addi	$a1,$at,29440
  41cba8:	2f646576 	sltiu	$a0,$k1,25974
  41cbac:	2f757365 	sltiu	$s5,$k1,29541
  41cbb0:	6d61636c 	0x6d61636c
  41cbb4:	6f6e6500 	0x6f6e6500
  41cbb8:	7573696e 	jalx	5cda5b8 <_gp+0x58b49d8>
  41cbbc:	69743a45 	0x69743a45
  41cbc0:	52524f52 	0x52524f52
  41cbc4:	3a43616e 	xori	$v1,$s2,0x616e
  41cbc8:	6e6f7420 	0x6e6f7420
  41cbcc:	616c6c6f 	0x616c6c6f
  41cbd0:	63617465 	0x63617465
  41cbd4:	20646576 	addi	$a0,$v1,25974
  41cbd8:	69636520 	0x69636520
  41cbdc:	73656d61 	0x73656d61
  41cbe0:	70686f72 	0x70686f72
  41cbe4:	65000000 	0x65000000
  41cbe8:	54524143 	0x54524143
  41cbec:	453a2061 	0x453a2061
  41cbf0:	72656e61 	0x72656e61
  41cbf4:	20402030 	addi	$zero,$v0,8240
  41cbf8:	78257820 	0x78257820
  41cbfc:	67657473 	0x67657473
  41cc00:	2073656d 	addi	$s3,$v1,25965
  41cc04:	6170686f 	0x6170686f
  41cc08:	72652064 	0x72652064
  41cc0c:	65766963 	0x65766963
  41cc10:	65203078 	0x65203078
  41cc14:	25782073 	addiu	$t8,$t3,8307
  41cc18:	66642025 	0x66642025
  41cc1c:	64000000 	0x64000000
  41cc20:	2f646576 	sltiu	$a0,$k1,25974
  41cc24:	2f757365 	sltiu	$s5,$k1,29541
  41cc28:	6d610000 	0x6d610000
  41cc2c:	7573696e 	jalx	5cda5b8 <_gp+0x58b49d8>
  41cc30:	69743a45 	0x69743a45
  41cc34:	52524f52 	0x52524f52
  41cc38:	3a43616e 	xori	$v1,$s2,0x616e
  41cc3c:	6e6f7420 	0x6e6f7420
  41cc40:	6f70656e 	0x6f70656e
  41cc44:	20257300 	addi	$a1,$at,29440
  41cc48:	2f646576 	sltiu	$a0,$k1,25974
  41cc4c:	2f757365 	sltiu	$s5,$k1,29541
  41cc50:	6d610000 	0x6d610000
  41cc54:	54524143 	0x54524143
  41cc58:	453a2050 	0x453a2050
  41cc5c:	726f6365 	0x726f6365
  41cc60:	73732025 	0x73732025
  41cc64:	64206172 	0x64206172
  41cc68:	656e6120 	0x656e6120
  41cc6c:	77656e74 	jalx	d95b9d0 <_gp+0xd535df0>
  41cc70:	20656d70 	addi	$a1,$v1,28016
  41cc74:	74792077 	jalx	1e481dc <_gp+0x1a225fc>
  41cc78:	68696c65 	0x68696c65
  41cc7c:	20616464 	addi	$at,$v1,25700
  41cc80:	696e6720 	0x696e6720
  41cc84:	74696400 	jalx	1a59000 <_gp+0x1633420>
  41cc88:	7573696e 	jalx	5cda5b8 <_gp+0x58b49d8>
  41cc8c:	69743a45 	0x69743a45
  41cc90:	52524f52 	0x52524f52
  41cc94:	3a43616e 	xori	$v1,$s2,0x616e
  41cc98:	6e6f7420 	0x6e6f7420
  41cc9c:	61747461 	0x61747461
  41cca0:	63682074 	0x63682074
  41cca4:	6f207365 	0x6f207365
  41cca8:	6d612030 	0x6d612030
  41ccac:	78257820 	0x78257820
  41ccb0:	63757272 	0x63757272
  41ccb4:	656e7420 	0x656e7420
  41ccb8:	76616c69 	jalx	985b1a4 <_gp+0x94355c4>
  41ccbc:	64207469 	0x64207469
  41ccc0:	64202564 	0x64202564
  41ccc4:	00000000 	nop
  41ccc8:	54524143 	0x54524143
  41cccc:	453a2050 	0x453a2050
  41ccd0:	726f6365 	0x726f6365
  41ccd4:	73732025 	0x73732025
  41ccd8:	64206865 	0x64206865
  41ccdc:	61646572 	0x61646572
  41cce0:	2073697a 	addi	$s3,$v1,27002
  41cce4:	65202564 	0x65202564
  41cce8:	206d616c 	addi	$t5,$v1,24940
  41ccec:	6c6f6320 	0x6c6f6320
  41ccf0:	6172656e 	0x6172656e
  41ccf4:	61207369 	0x61207369
  41ccf8:	7a652025 	0x7a652025
  41ccfc:	64000000 	0x64000000
  41cd00:	7573696e 	jalx	5cda5b8 <_gp+0x58b49d8>
  41cd04:	69743a45 	0x69743a45
  41cd08:	52524f52 	0x52524f52
  41cd0c:	3a756e61 	xori	$s5,$s3,0x6e61
  41cd10:	626c6520 	0x626c6520
  41cd14:	746f2063 	jalx	1bc818c <_gp+0x17a25ac>
  41cd18:	72656174 	0x72656174
  41cd1c:	65207573 	0x65207573
  41cd20:	6d616c6c 	0x6d616c6c
  41cd24:	6f632061 	0x6f632061
  41cd28:	72656e61 	0x72656e61
  41cd2c:	00000000 	nop
  41cd30:	7573696e 	jalx	5cda5b8 <_gp+0x58b49d8>
  41cd34:	69743a45 	0x69743a45
  41cd38:	52524f52 	0x52524f52
  41cd3c:	3a756e61 	xori	$s5,$s3,0x6e61
  41cd40:	626c6520 	0x626c6520
  41cd44:	746f2073 	jalx	1bc81cc <_gp+0x17a25ec>
  41cd48:	6574206f 	0x6574206f
  41cd4c:	7074696f 	0x7074696f
  41cd50:	6e73206f 	0x6e73206f
  41cd54:	6e207573 	0x6e207573
  41cd58:	6d616c6c 	0x6d616c6c
  41cd5c:	6f632061 	0x6f632061
  41cd60:	72656e61 	0x72656e61
  41cd64:	00000000 	nop
  41cd68:	7573696e 	jalx	5cda5b8 <_gp+0x58b49d8>
  41cd6c:	69743a45 	0x69743a45
  41cd70:	52524f52 	0x52524f52
  41cd74:	3a756e61 	xori	$s5,$s3,0x6e61
  41cd78:	626c6520 	0x626c6520
  41cd7c:	746f2061 	jalx	1bc8184 <_gp+0x17a25a4>
  41cd80:	6c6c6f63 	0x6c6c6f63
  41cd84:	61746520 	0x61746520
  41cd88:	75736d61 	jalx	5cdb584 <_gp+0x58b59a4>
  41cd8c:	6c6c6f63 	0x6c6c6f63
  41cd90:	206c6f63 	addi	$t4,$v1,28515
  41cd94:	6b000000 	0x6b000000
  41cd98:	75736465 	jalx	5cd9194 <_gp+0x58b35b4>
  41cd9c:	74616368 	jalx	1858da0 <_gp+0x14331c0>
  41cda0:	3a455252 	xori	$a1,$s2,0x5252
  41cda4:	4f523a75 	c3	0x1523a75
  41cda8:	6e61626c 	0x6e61626c
  41cdac:	6520746f 	0x6520746f
  41cdb0:	20756e6d 	addi	$s5,$v1,28269
  41cdb4:	61702061 	0x61702061
  41cdb8:	72656e61 	0x72656e61
  41cdbc:	00000000 	nop
  41cdc0:	004147b8 	0x4147b8
  41cdc4:	004147f8 	0x4147f8
  41cdc8:	00414838 	0x414838
  41cdcc:	00414858 	0x414858
  41cdd0:	00414878 	0x414878
  41cdd4:	004148a0 	0x4148a0
  41cdd8:	004148f4 	0x4148f4
  41cddc:	00414954 	0x414954
  41cde0:	00414780 	0x414780
  41cde4:	004149ac 	0x4149ac
  41cde8:	004149cc 	syscall	0x10527
  41cdec:	004149e4 	0x4149e4
  41cdf0:	00414a04 	0x414a04
  41cdf4:	00414a1c 	0x414a1c
  41cdf8:	00414a3c 	0x414a3c
  41cdfc:	00414a54 	0x414a54
  41ce00:	00414a94 	0x414a94
  41ce04:	004148c8 	0x4148c8
  41ce08:	00414b54 	0x414b54
  41ce0c:	00414b74 	0x414b74
  41ce10:	00414b94 	0x414b94
	...
  41ce20:	54524143 	0x54524143
  41ce24:	453a206c 	0x453a206c
  41ce28:	6c776172 	0x6c776172
  41ce2c:	6c6f6373 	0x6c6f6373
  41ce30:	20402030 	addi	$zero,$v0,8240
  41ce34:	78257820 	0x78257820
  41ce38:	30782578 	andi	$t8,$v1,0x2578
  41ce3c:	20307825 	addi	$s0,$at,30757
  41ce40:	78203078 	0x78203078
  41ce44:	25780000 	addiu	$t8,$t3,0
	...
  41ce50:	4552524f 	0x4552524f
  41ce54:	523a2075 	0x523a2075
  41ce58:	6e6c6f63 	0x6e6c6f63
  41ce5c:	6b206664 	0x6b206664
  41ce60:	20256420 	addi	$a1,$at,25632
  41ce64:	6f666673 	0x6f666673
  41ce68:	65742025 	0x65742025
  41ce6c:	64207069 	0x64207069
  41ce70:	64202564 	0x64202564
  41ce74:	00000000 	nop
  41ce78:	4552524f 	0x4552524f
  41ce7c:	523a2067 	0x523a2067
  41ce80:	65746c6f 	0x65746c6f
  41ce84:	636b2066 	0x636b2066
  41ce88:	64202564 	0x64202564
  41ce8c:	206f6666 	addi	$t7,$v1,26214
  41ce90:	73657420 	0x73657420
  41ce94:	25642070 	addiu	$a0,$t3,8304
  41ce98:	69642025 	0x69642025
  41ce9c:	64000000 	0x64000000
  41cea0:	7573696e 	jalx	5cda5b8 <_gp+0x58b49d8>
  41cea4:	69743a45 	0x69743a45
  41cea8:	52524f52 	0x52524f52
  41ceac:	3a556e6b 	xori	$s5,$s2,0x6e6b
  41ceb0:	6e6f776e 	0x6e6f776e
  41ceb4:	2070726f 	addi	$s0,$v1,29295
  41ceb8:	63657373 	0x63657373
  41cebc:	6f722074 	0x6f722074
  41cec0:	79706521 	0x79706521
  41cec4:	00000000 	nop
  41cec8:	00417374 	0x417374
  41cecc:	00417374 	0x417374
  41ced0:	00417374 	0x417374
  41ced4:	004173f8 	0x4173f8
  41ced8:	00417398 	0x417398
  41cedc:	004173f8 	0x4173f8
  41cee0:	004173f8 	0x4173f8
  41cee4:	004173f8 	0x4173f8
  41cee8:	004173f8 	0x4173f8
  41ceec:	004173f8 	0x4173f8
  41cef0:	004173f8 	0x4173f8
  41cef4:	004173f8 	0x4173f8
  41cef8:	004173f8 	0x4173f8
  41cefc:	004173f8 	0x4173f8
  41cf00:	004173f8 	0x4173f8
  41cf04:	004173f8 	0x4173f8
  41cf08:	004173d4 	0x4173d4
  41cf0c:	004173f8 	0x4173f8
  41cf10:	004173f8 	0x4173f8
  41cf14:	004173f8 	0x4173f8
  41cf18:	004173f8 	0x4173f8
  41cf1c:	004173f8 	0x4173f8
  41cf20:	004173f8 	0x4173f8
  41cf24:	004173f8 	0x4173f8
  41cf28:	004173f8 	0x4173f8
  41cf2c:	004173f8 	0x4173f8
  41cf30:	004173f8 	0x4173f8
  41cf34:	004173f8 	0x4173f8
  41cf38:	004173f8 	0x4173f8
  41cf3c:	004173f8 	0x4173f8
  41cf40:	004173f8 	0x4173f8
  41cf44:	004173f8 	0x4173f8
  41cf48:	004173cc 	syscall	0x105cf
  41cf4c:	00000000 	nop
  41cf50:	54524143 	0x54524143
  41cf54:	453a2050 	0x453a2050
  41cf58:	726f6365 	0x726f6365
  41cf5c:	73732025 	0x73732025
  41cf60:	64206861 	0x64206861
  41cf64:	64206361 	0x64206361
  41cf68:	73206172 	0x73206172
  41cf6c:	656e6120 	0x656e6120
  41cf70:	64697361 	0x64697361
  41cf74:	70706561 	0x70706561
  41cf78:	72210000 	0x72210000
  41cf7c:	54524143 	0x54524143
  41cf80:	453a2050 	0x453a2050
  41cf84:	726f6365 	0x726f6365
  41cf88:	73732025 	0x73732025
  41cf8c:	64206164 	0x64206164
  41cf90:	64656420 	0x64656420
  41cf94:	746f2063 	jalx	1bc818c <_gp+0x17a25ac>
  41cf98:	61732061 	0x61732061
  41cf9c:	72656e61 	0x72656e61
  41cfa0:	20257300 	addi	$a1,$at,29440
  41cfa4:	4552524f 	0x4552524f
  41cfa8:	523a4361 	0x523a4361
  41cfac:	6e6e6f74 	0x6e6e6f74
  41cfb0:	20616464 	addi	$at,$v1,25700
  41cfb4:	20706964 	addi	$s0,$v1,26980
  41cfb8:	20256420 	addi	$a1,$at,25632
  41cfbc:	746f2063 	jalx	1bc818c <_gp+0x17a25ac>
  41cfc0:	61732061 	0x61732061
  41cfc4:	72656e61 	0x72656e61
  41cfc8:	20257300 	addi	$a1,$at,29440
  41cfcc:	4d555445 	0x4d555445
  41cfd0:	585f4944 	0x585f4944
  41cfd4:	00000000 	nop
  41cfd8:	2f757372 	sltiu	$s5,$k1,29554
  41cfdc:	2f746d70 	sltiu	$s4,$k1,28016
  41cfe0:	2f757363 	sltiu	$s5,$k1,29539
  41cfe4:	61730000 	0x61730000
  41cfe8:	25732573 	addiu	$s3,$t3,9587
  41cfec:	252e3973 	addiu	$t6,$t1,14707
  41cff0:	00000000 	nop
  41cff4:	4d555445 	0x4d555445
  41cff8:	585f5045 	0x585f5045
  41cffc:	524d4953 	0x524d4953
  41d000:	53494f4e 	0x53494f4e
  41d004:	00000000 	nop
  41d008:	2f746d70 	sltiu	$s4,$k1,28016
  41d00c:	2f757363 	sltiu	$s5,$k1,29539
  41d010:	61730000 	0x61730000
  41d014:	75736361 	jalx	5cd8d84 <_gp+0x58b31a4>
  41d018:	73617265 	0x73617265
  41d01c:	6e61696e 	0x6e61696e
  41d020:	69743a45 	0x69743a45
  41d024:	52524f52 	0x52524f52
  41d028:	3a6f7065 	xori	$t7,$s3,0x7065
  41d02c:	6e206f6e 	0x6e206f6e
  41d030:	20257320 	addi	$a1,$at,29472
  41d034:	6661696c 	0x6661696c
  41d038:	65640000 	0x65640000
  41d03c:	75736361 	jalx	5cd8d84 <_gp+0x58b31a4>
  41d040:	73617265 	0x73617265
  41d044:	6e61696e 	0x6e61696e
  41d048:	69743a45 	0x69743a45
  41d04c:	52524f52 	0x52524f52
  41d050:	3a66696c 	xori	$a2,$s3,0x696c
  41d054:	65206c6f 	0x65206c6f
  41d058:	636b206f 	0x636b206f
  41d05c:	6e202573 	0x6e202573
  41d060:	20666169 	addi	$a2,$v1,24937
  41d064:	6c656400 	0x6c656400
  41d068:	54524143 	0x54524143
  41d06c:	453a2050 	0x453a2050
  41d070:	726f6365 	0x726f6365
  41d074:	73732025 	0x73732025
  41d078:	64206a6f 	0x64206a6f
  41d07c:	696e696e 	0x696e696e
  41d080:	67206578 	0x67206578
  41d084:	69737469 	0x69737469
  41d088:	6e672061 	0x6e672061
  41d08c:	72656e61 	0x72656e61
  41d090:	20257300 	addi	$a1,$at,29440
  41d094:	75736361 	jalx	5cd8d84 <_gp+0x58b31a4>
  41d098:	73617265 	0x73617265
  41d09c:	6e61696e 	0x6e61696e
  41d0a0:	69743a45 	0x69743a45
  41d0a4:	52524f52 	0x52524f52
  41d0a8:	3a566572 	xori	$s6,$s2,0x6572
  41d0ac:	73696f6e 	0x73696f6e
  41d0b0:	204d6973 	addi	$t5,$v0,26995
  41d0b4:	6d617463 	0x6d617463
  41d0b8:	68000000 	0x68000000
  41d0bc:	75736361 	jalx	5cd8d84 <_gp+0x58b31a4>
  41d0c0:	73617265 	0x73617265
  41d0c4:	6e61696e 	0x6e61696e
  41d0c8:	69743a45 	0x69743a45
  41d0cc:	52524f52 	0x52524f52
  41d0d0:	3a536f6d 	xori	$s3,$s2,0x6f6d
  41d0d4:	656f6e65 	0x656f6e65
  41d0d8:	20757369 	addi	$s5,$v1,29545
  41d0dc:	6e672025 	0x6e672025
  41d0e0:	73000000 	0x73000000
  41d0e4:	75736361 	jalx	5cd8d84 <_gp+0x58b31a4>
  41d0e8:	73617265 	0x73617265
  41d0ec:	6e61696e 	0x6e61696e
  41d0f0:	69743a45 	0x69743a45
  41d0f4:	52524f52 	0x52524f52
  41d0f8:	3a6d6d61 	xori	$t5,$s3,0x6d61
  41d0fc:	70206661 	0x70206661
  41d100:	696c6564 	0x696c6564
  41d104:	00000000 	nop
  41d108:	54524143 	0x54524143
  41d10c:	453a2050 	0x453a2050
  41d110:	726f6365 	0x726f6365
  41d114:	73732025 	0x73732025
  41d118:	64206172 	0x64206172
  41d11c:	656e6120 	0x656e6120
  41d120:	77656e74 	jalx	d95b9d0 <_gp+0xd535df0>
  41d124:	20656d70 	addi	$a1,$v1,28016
  41d128:	74792064 	jalx	1e48190 <_gp+0x1a225b0>
  41d12c:	7572696e 	jalx	5c9a5b8 <_gp+0x58749d8>
  41d130:	67206861 	0x67206861
  41d134:	72646c6f 	0x72646c6f
  41d138:	636b2061 	0x636b2061
  41d13c:	74746163 	jalx	1d1858c <_gp+0x18f29ac>
  41d140:	68000000 	0x68000000
  41d144:	54524143 	0x54524143
  41d148:	453a2050 	0x453a2050
  41d14c:	726f6365 	0x726f6365
  41d150:	73732025 	0x73732025
  41d154:	64206372 	0x64206372
  41d158:	65617469 	0x65617469
  41d15c:	6e67206e 	0x6e67206e
  41d160:	65772061 	0x65772061
  41d164:	72656e61 	0x72656e61
  41d168:	20257300 	addi	$a1,$at,29440
  41d16c:	54524143 	0x54524143
  41d170:	453a2050 	0x453a2050
  41d174:	726f6365 	0x726f6365
  41d178:	73732025 	0x73732025
  41d17c:	64206172 	0x64206172
  41d180:	656e6120 	0x656e6120
  41d184:	6e6f7420 	0x6e6f7420
  41d188:	6f776e65 	0x6f776e65
  41d18c:	64206279 	0x64206279
  41d190:	20796f75 	addi	$t9,$v1,28533
  41d194:	2e205265 	sltiu	$zero,$s1,21093
  41d198:	6d6f7669 	0x6d6f7669
  41d19c:	6e672025 	0x6e672025
  41d1a0:	7320616e 	0x7320616e
  41d1a4:	64207374 	0x64207374
  41d1a8:	61727469 	0x61727469
  41d1ac:	6e67206f 	0x6e67206f
  41d1b0:	7665722e 	jalx	995c8b8 <_gp+0x9536cd8>
  41d1b4:	00000000 	nop
  41d1b8:	4552524f 	0x4552524f
  41d1bc:	523a7573 	0x523a7573
  41d1c0:	63617361 	0x63617361
  41d1c4:	72656e61 	0x72656e61
  41d1c8:	696e6974 	0x696e6974
  41d1cc:	3a6e6f74 	xori	$t6,$s3,0x6f74
  41d1d0:	206f776e 	addi	$t7,$v1,30574
  41d1d4:	65722061 	0x65722061
  41d1d8:	6e642063 	0x6e642063
  41d1dc:	616e6e6f 	0x616e6e6f
  41d1e0:	7420756e 	jalx	81d5b8 <_gp+0x3f79d8>
  41d1e4:	6c696e6b 	0x6c696e6b
  41d1e8:	20257300 	addi	$a1,$at,29440
  41d1ec:	2f646576 	sltiu	$a0,$k1,25974
  41d1f0:	2f686c2f 	sltiu	$t0,$k1,27695
  41d1f4:	686c6f63 	0x686c6f63
  41d1f8:	6b303030 	0x6b303030
  41d1fc:	00000000 	nop
  41d200:	4552524f 	0x4552524f
  41d204:	523a7573 	0x523a7573
  41d208:	63617361 	0x63617361
  41d20c:	72656e61 	0x72656e61
  41d210:	696e6974 	0x696e6974
  41d214:	3a63616e 	xori	$v1,$s3,0x616e
  41d218:	6e6f7420 	0x6e6f7420
  41d21c:	6f70656e 	0x6f70656e
  41d220:	202f6465 	addi	$t7,$at,25701
  41d224:	762f686c 	jalx	8bda1b0 <_gp+0x87b45d0>
  41d228:	2f686c6f 	sltiu	$t0,$k1,27759
  41d22c:	636b3030 	0x636b3030
  41d230:	30000000 	andi	$zero,$zero,0x0
  41d234:	54524143 	0x54524143
  41d238:	453a2050 	0x453a2050
  41d23c:	726f6365 	0x726f6365
  41d240:	73732025 	0x73732025
  41d244:	6420496e 	0x6420496e
  41d248:	69746961 	0x69746961
  41d24c:	6c697a69 	0x6c697a69
  41d250:	6e672048 	0x6e672048
  41d254:	41524457 	0x41524457
  41d258:	41524520 	0x41524520
  41d25c:	4c4f434b 	0x4c4f434b
  41d260:	53000000 	0x53000000
  41d264:	54524143 	0x54524143
  41d268:	453a2050 	0x453a2050
  41d26c:	726f6365 	0x726f6365
  41d270:	73732025 	0x73732025
  41d274:	6420496e 	0x6420496e
  41d278:	69746961 	0x69746961
  41d27c:	6c697a69 	0x6c697a69
  41d280:	6e672053 	0x6e672053
  41d284:	4f465457 	c3	0x1465457
  41d288:	41524520 	0x41524520
  41d28c:	4c4f434b 	0x4c4f434b
  41d290:	53000000 	0x53000000
  41d294:	54524143 	0x54524143
  41d298:	453a2050 	0x453a2050
  41d29c:	726f6365 	0x726f6365
  41d2a0:	73732025 	0x73732025
  41d2a4:	6420496e 	0x6420496e
  41d2a8:	69746961 	0x69746961
  41d2ac:	6c697a69 	0x6c697a69
  41d2b0:	6e672052 	0x6e672052
  41d2b4:	34303030 	ori	$s0,$at,0x3030
  41d2b8:	204d502d 	addi	$t5,$v0,20525
  41d2bc:	4c4c5741 	0x4c4c5741
  41d2c0:	52204c4f 	0x52204c4f
  41d2c4:	434b5300 	c0	0x14b5300
  41d2c8:	54524143 	0x54524143
  41d2cc:	453a2050 	0x453a2050
  41d2d0:	726f6365 	0x726f6365
  41d2d4:	73732025 	0x73732025
  41d2d8:	64207573 	0x64207573
  41d2dc:	63617361 	0x63617361
  41d2e0:	72656e61 	0x72656e61
  41d2e4:	696e6974 	0x696e6974
  41d2e8:	20737563 	addi	$s3,$v1,30051
  41d2ec:	63656465 	0x63656465
  41d2f0:	6420666f 	0x6420666f
  41d2f4:	72206172 	0x72206172
  41d2f8:	656e6120 	0x656e6120
  41d2fc:	25732040 	addiu	$s3,$t3,8256
  41d300:	20307825 	addi	$s0,$at,30757
  41d304:	78000000 	0x78000000
	...
  41d310:	00418a54 	0x418a54
  41d314:	00418a5c 	0x418a5c
  41d318:	00418ae0 	0x418ae0
  41d31c:	00418a8c 	syscall	0x1062a
  41d320:	00418ac4 	0x418ac4
  41d324:	00418ae0 	0x418ae0
  41d328:	00418ae0 	0x418ae0
  41d32c:	00418a9c 	0x418a9c
  41d330:	00418aa4 	0x418aa4
  41d334:	00418ab4 	0x418ab4
  41d338:	00418acc 	syscall	0x1062b
  41d33c:	00418a94 	0x418a94
  41d340:	00418a7c 	0x418a7c
  41d344:	00418a74 	0x418a74
  41d348:	00418a84 	0x418a84
  41d34c:	00418ae0 	0x418ae0
  41d350:	00418a64 	0x418a64
  41d354:	00418a6c 	0x418a6c
	...
  41d360:	696e6600 	0x696e6600
  41d364:	6e616e00 	0x6e616e00
	...
  41d370:	fbd14d6e 	0xfbd14d6e
  41d374:	e1afa13a 	swc0	$15,-24262($t5)
  41d378:	4d8d98b8 	0x4d8d98b8
  41d37c:	e3e27a44 	swc0	$2,31300($ra)
  41d380:	3d1a45df 	0x3d1a45df
  41d384:	e61acf03 	swc1	$f26,-12541($s0)
  41d388:	8f5c22ca 	lw	$gp,8906($k0)
  41d38c:	e858ad24 	swc2	$24,-21212($v0)
  41d390:	23ee8bcb 	addi	$t6,$ra,-29749
  41d394:	ea9c2277 	swc2	$28,8823($s4)
  41d398:	4a314ebe 	c2	0x314ebe
  41d39c:	ece53cec 	swc3	$5,15596($a3)
  41d3a0:	172aace5 	bne	$t9,$t2,408738 <_dssetlock+0xf8>
  41d3a4:	ef340a98 	swc3	$20,2712($t9)
  41d3a8:	bc3f8ca2 	0xbc3f8ca2
  41d3ac:	f18899b1 	0xf18899b1
  41d3b0:	dec3f126 	0xdec3f126
  41d3b4:	f3e2f893 	0xf3e2f893
  41d3b8:	f065d37d 	0xf065d37d
  41d3bc:	f64335bc 	0xf64335bc
  41d3c0:	88747d94 	lwl	$s4,32148($v1)
  41d3c4:	f8a95fcf 	0xf8a95fcf
  41d3c8:	be068d2f 	0xbe068d2f
  41d3cc:	fb158592 	0xfb158592
  41d3d0:	8300ca0e 	lb	$zero,-13810($t8)
  41d3d4:	fd87b5f2 	0xfd87b5f2
  41d3d8:	00000000 	nop
  41d3dc:	80000000 	lb	$zero,0($zero)
  41d3e0:	00000000 	nop
  41d3e4:	a0000000 	sb	$zero,0($zero)
  41d3e8:	00000000 	nop
  41d3ec:	c8000000 	lwc2	$0,0($zero)
  41d3f0:	00000000 	nop
  41d3f4:	fa000000 	0xfa000000
  41d3f8:	00000000 	nop
  41d3fc:	9c400000 	0x9c400000
  41d400:	00000000 	nop
  41d404:	c3500000 	lwc0	$16,0($k0)
  41d408:	00000000 	nop
  41d40c:	f4240000 	0xf4240000
  41d410:	00000000 	nop
  41d414:	98968000 	lwr	$s6,-32768($a0)
  41d418:	00000000 	nop
  41d41c:	bebc2000 	0xbebc2000
  41d420:	00000000 	nop
  41d424:	ee6b2800 	swc3	$11,10240($s3)
  41d428:	00000000 	nop
  41d42c:	9502f900 	lhu	$v0,-1792($t0)
  41d430:	00000000 	nop
  41d434:	ba43b740 	swr	$v1,-18624($s2)
  41d438:	00000000 	nop
  41d43c:	e8d4a510 	swc2	$20,-23280($a2)
  41d440:	00000000 	nop
  41d444:	9184e72a 	lbu	$a0,-6358($t4)
  41d448:	80000000 	lb	$zero,0($zero)
  41d44c:	b5e620f4 	0xb5e620f4
  41d450:	a0000000 	sb	$zero,0($zero)
  41d454:	e35fa931 	swc0	$31,-22223($k0)
  41d458:	04000000 	bltz	$zero,41d45c <_sys_index+0x14ec>
  41d45c:	8e1bc9bf 	lw	$k1,-13889($s0)
  41d460:	c5000000 	lwc1	$f0,0($t0)
  41d464:	b1a2bc2e 	0xb1a2bc2e
  41d468:	76400000 	jalx	9000000 <_gp+0x8bda420>
  41d46c:	de0b6b3a 	0xde0b6b3a
  41d470:	89e80000 	lwl	$t0,0($t7)
  41d474:	8ac72304 	lwl	$a3,8964($s6)
  41d478:	ac620000 	sw	$v0,0($v1)
  41d47c:	ad78ebc5 	sw	$t8,-5179($t3)
  41d480:	177a8000 	bne	$k1,$k0,3fd484 <__istart-0x3b48>
  41d484:	d8d726b7 	0xd8d726b7
  41d488:	6eac9000 	0x6eac9000
  41d48c:	87867832 	lh	$a2,30770($gp)
  41d490:	0a57b400 	j	95ed000 <_gp+0x91c7420>
  41d494:	a968163f 	swl	$t0,5695($t3)
  41d498:	cceda100 	lwc3	$13,-24320($a3)
  41d49c:	d3c21bce 	0xd3c21bce
  41d4a0:	401484a0 	0x401484a0
  41d4a4:	84595161 	lh	$t9,20833($v0)
  41d4a8:	9019a5c8 	lbu	$t9,-23096($zero)
  41d4ac:	a56fa5b9 	sh	$t7,-23111($t3)
  41d4b0:	f4200f3a 	0xf4200f3a
  41d4b4:	cecb8f27 	lwc3	$11,-28889($s6)
  41d4b8:	cfe20766 	lwc3	$2,1894($ra)
  41d4bc:	d0cf4b50 	0xd0cf4b50
  41d4c0:	2aabd62c 	slti	$t3,$s5,-10708
  41d4c4:	d2d80db0 	0xd2d80db0
  41d4c8:	c1d1ea96 	lwc0	$17,-5482($t6)
  41d4cc:	d4e5e2cd 	0xd4e5e2cd
  41d4d0:	9292d603 	lbu	$s2,-10749($s4)
  41d4d4:	d6f8d750 	0xd6f8d750
  41d4d8:	28069da4 	slti	$a2,$zero,-25180
  41d4dc:	d910f7ff 	0xd910f7ff
  41d4e0:	e9d0696a 	swc2	$16,26986($t6)
  41d4e4:	db2e51bf 	0xdb2e51bf
  41d4e8:	6b947519 	0x6b947519
  41d4ec:	dd50f199 	0xdd50f199
  41d4f0:	bd342cf7 	0xbd342cf7
  41d4f4:	df78e4b2 	0xdf78e4b2
  41d4f8:	bbd26451 	swr	$s2,25681($s8)
  41d4fc:	e1a63853 	swc0	$6,14419($t5)
  41d500:	63a198e5 	0x63a198e5
  41d504:	e3d8f9e5 	swc0	$24,-1563($s8)
  41d508:	000000cc 	syscall	0x3
  41d50c:	00000000 	nop
  41d510:	00000014 	0x14
  41d514:	45010004 	bc1t	41d528 <_sys_index+0x15b8>
  41d518:	01000000 	0x1000000
  41d51c:	030cc0cc 	syscall	0xc3303
  41d520:	30011010 	andi	$at,$zero,0x1010
  41d524:	00040444 	0x40444
  41d528:	030300c0 	0x30300c0
  41d52c:	3c3c0c03 	0x3c3c0c03
  41d530:	cf30cf0c 	lwc3	$16,-12532($t9)
  41d534:	00c00c00 	0xc00c00
  41d538:	00000000 	nop
  41d53c:	00005001 	0x5001
  41d540:	44000010 	0x44000010
  41d544:	00100400 	sll	$zero,$s0,0x10
  41d548:	00040100 	sll	$zero,$a0,0x4
  41d54c:	00140001 	0x140001
  41d550:	10000000 	b	41d554 <_sys_index+0x15e4>
  41d554:	00300300 	0x300300
  41d558:	00333c30 	0x333c30
  41d55c:	cf00303c 	lwc3	$0,12348($t8)
	...
  41d56c:	00003000 	sll	$a2,$zero,0x0
  41d570:	03000000 	0x3000000
  41d574:	00050010 	0x50010
  41d578:	11554000 	beq	$t2,$s5,42d57c <_gp+0x799c>
  41d57c:	04000401 	bltz	$zero,41e584 <_bufendadj+0x54>
  41d580:	44400100 	0x44400100
  41d584:	04001104 	bltz	$zero,421998 <_end+0xc18>
  41d588:	04100000 	bltzal	$zero,41d58c <_sys_index+0x161c>
  41d58c:	00000000 	nop
  41d590:	000cf000 	sll	$s8,$t4,0x0
  41d594:	00000003 	sra	$zero,$zero,0x0
  41d598:	00cc30c0 	0xcc30c0
  41d59c:	0030c004 	sllv	$t8,$s0,$at
  41d5a0:	44010141 	0x44010141
  41d5a4:	40000001 	0x40000001
  41d5a8:	40000000 	mfc0	$zero,$0
  41d5ac:	fb46fba3 	0xfb46fba3
  41d5b0:	fc00fc5d 	0xfc00fc5d
  41d5b4:	fcbafd17 	0xfcbafd17
  41d5b8:	fd74fdd1 	0xfd74fdd1
  41d5bc:	fe2efe8b 	0xfe2efe8b
  41d5c0:	fee8ff45 	0xfee8ff45
  41d5c4:	ffa20000 	0xffa20000
  41d5c8:	00030006 	srlv	$zero,$v1,$zero
  41d5cc:	0009000d 	break	0x9
  41d5d0:	00100013 	0x100013
  41d5d4:	0017001a 	div	$zero,$zero,$s7
  41d5d8:	001d0021 	addu	$zero,$zero,$sp
  41d5dc:	00240027 	nor	$zero,$at,$a0
  41d5e0:	002b002e 	0x2b002e
  41d5e4:	00310035 	0x310035
  41d5e8:	0038003b 	0x38003b
  41d5ec:	003f0042 	0x3f0042
  41d5f0:	00450049 	0x450049
  41d5f4:	004c004f 	0x4c004f
  41d5f8:	00530056 	0x530056
  41d5fc:	005900b6 	0x5900b6
  41d600:	01130170 	0x1130170
  41d604:	01cd022a 	0x1cd022a
  41d608:	028702e4 	0x28702e4
  41d60c:	0341039e 	0x341039e
  41d610:	03fb0000 	0x3fb0000
	...
Disassembly of section .data:

0041d620 <_fdata>:
  41d620:	0041e444 	0x41e444
  41d624:	0041e448 	0x41e448
  41d628:	0041e450 	0x41e450
  41d62c:	0041e458 	0x41e458
  41d630:	0041e460 	0x41e460
  41d634:	0041e468 	0x41e468
  41d638:	0041e470 	0x41e470
  41d63c:	0041e478 	0x41e478

0041d640 <_sys_errlist>:
  41d640:	0041e650 	0x41e650
  41d644:	0041b230 	0x41b230
  41d648:	0041b240 	0x41b240
  41d64c:	0041b25c 	0x41b25c
  41d650:	0041b26c 	0x41b26c
  41d654:	0041b284 	0x41b284
  41d658:	0041b290 	0x41b290
  41d65c:	0041b2ac 	0x41b2ac
  41d660:	0041b2c0 	0x41b2c0
  41d664:	0041b2d4 	0x41b2d4
  41d668:	0041b2e4 	0x41b2e4
  41d66c:	0041b2f8 	0x41b2f8
  41d670:	0041b31c 	0x41b31c
  41d674:	0041b330 	0x41b330
  41d678:	0041b344 	0x41b344
  41d67c:	0041b350 	0x41b350
  41d680:	0041b368 	0x41b368
  41d684:	0041b374 	0x41b374
  41d688:	0041b380 	0x41b380
  41d68c:	0041b394 	0x41b394
  41d690:	0041b3a4 	0x41b3a4
  41d694:	0041b3b4 	0x41b3b4
  41d698:	0041b3c4 	0x41b3c4
  41d69c:	0041b3d8 	0x41b3d8
  41d6a0:	0041b3ec 	0x41b3ec
  41d6a4:	0041b400 	0x41b400
  41d6a8:	0041b414 	0x41b414
  41d6ac:	0041b424 	0x41b424
  41d6b0:	0041b434 	0x41b434
  41d6b4:	0041b44c 	syscall	0x106d1
  41d6b8:	0041b45c 	0x41b45c
  41d6bc:	0041b474 	0x41b474
  41d6c0:	0041b484 	0x41b484
  41d6c4:	0041b490 	0x41b490
  41d6c8:	0041b4a8 	0x41b4a8
  41d6cc:	0041b4bc 	0x41b4bc
  41d6d0:	0041b4d8 	0x41b4d8
  41d6d4:	0041b4ec 	0x41b4ec
  41d6d8:	0041b508 	0x41b508
  41d6dc:	0041b524 	0x41b524
  41d6e0:	0041b534 	0x41b534
  41d6e4:	0041b544 	0x41b544
  41d6e8:	0041b560 	0x41b560
  41d6ec:	0041b580 	0x41b580
  41d6f0:	0041b59c 	0x41b59c
  41d6f4:	0041b5ac 	0x41b5ac
  41d6f8:	0041b5d0 	0x41b5d0
  41d6fc:	0041b5ec 	0x41b5ec
  41d700:	0041b5f8 	0x41b5f8
  41d704:	0041b604 	0x41b604
  41d708:	0041b610 	0x41b610
  41d70c:	0041b628 	0x41b628
  41d710:	0041b640 	0x41b640
  41d714:	0041b654 	0x41b654
  41d718:	0041b66c 	0x41b66c
  41d71c:	0041b680 	0x41b680
  41d720:	0041b690 	0x41b690
  41d724:	0041b6a8 	0x41b6a8
  41d728:	0041b6c0 	0x41b6c0
  41d72c:	0041b6cc 	syscall	0x106db
  41d730:	0041b6d8 	0x41b6d8
  41d734:	0041b6ec 	0x41b6ec
  41d738:	0041b700 	0x41b700
  41d73c:	0041b710 	0x41b710
  41d740:	0041b728 	0x41b728
  41d744:	0041b748 	0x41b748
  41d748:	0041b760 	0x41b760
  41d74c:	0041b774 	0x41b774
  41d750:	0041b78c 	syscall	0x106de
  41d754:	0041b79c 	0x41b79c
  41d758:	0041b7ac 	0x41b7ac
  41d75c:	0041b7c8 	0x41b7c8
  41d760:	0041b7d8 	0x41b7d8
  41d764:	0041b7e4 	0x41b7e4
  41d768:	0041b7f0 	0x41b7f0
  41d76c:	0041b804 	sllv	$s7,$at,$v0
  41d770:	0041b810 	0x41b810
  41d774:	0041b81c 	0x41b81c
  41d778:	0041b830 	0x41b830
  41d77c:	0041b844 	0x41b844
  41d780:	0041b86c 	0x41b86c
  41d784:	0041b888 	0x41b888
  41d788:	0041b8a8 	0x41b8a8
  41d78c:	0041b8c0 	0x41b8c0
  41d790:	0041b8e8 	0x41b8e8
  41d794:	0041b910 	0x41b910
  41d798:	0041b930 	0x41b930
  41d79c:	0041b970 	0x41b970
  41d7a0:	0041b998 	0x41b998
  41d7a4:	0041b9b0 	0x41b9b0
  41d7a8:	0041b9cc 	syscall	0x106e7
  41d7ac:	0041b9fc 	0x41b9fc
  41d7b0:	0041ba14 	0x41ba14
  41d7b4:	0041ba40 	0x41ba40
  41d7b8:	0041ba54 	0x41ba54
  41d7bc:	0041ba64 	0x41ba64
  41d7c0:	0041ba84 	0x41ba84
  41d7c4:	0041baa4 	0x41baa4
  41d7c8:	0041bab8 	0x41bab8
  41d7cc:	0041bad8 	0x41bad8
  41d7d0:	0041bafc 	0x41bafc
  41d7d4:	0041bb08 	0x41bb08
  41d7d8:	0041bb14 	0x41bb14
  41d7dc:	0041bb20 	0x41bb20
  41d7e0:	0041bb2c 	0x41bb2c
  41d7e4:	0041bb38 	0x41bb38
  41d7e8:	0041bb44 	0x41bb44
  41d7ec:	0041bb50 	0x41bb50
  41d7f0:	0041bb5c 	0x41bb5c
  41d7f4:	0041bb68 	0x41bb68
  41d7f8:	0041bb74 	0x41bb74
  41d7fc:	0041bb80 	0x41bb80
  41d800:	0041bb8c 	syscall	0x106ee
  41d804:	0041bb98 	0x41bb98
  41d808:	0041bba4 	0x41bba4
  41d80c:	0041bbb0 	0x41bbb0
  41d810:	0041bbbc 	0x41bbbc
  41d814:	0041bbc8 	0x41bbc8
  41d818:	0041bbd4 	0x41bbd4
  41d81c:	0041bbe0 	0x41bbe0
  41d820:	0041bbec 	0x41bbec
  41d824:	0041bc04 	0x41bc04
  41d828:	0041bc20 	0x41bc20
  41d82c:	0041bc50 	0x41bc50
  41d830:	0041bc70 	0x41bc70
  41d834:	0041bca0 	0x41bca0
  41d838:	0041bcb8 	0x41bcb8
  41d83c:	0041bcd8 	0x41bcd8
  41d840:	0041bce8 	0x41bce8
  41d844:	0041bd00 	0x41bd00
  41d848:	0041bd2c 	0x41bd2c
  41d84c:	0041bd50 	0x41bd50
  41d850:	0041bd6c 	0x41bd6c
  41d854:	0041bd88 	0x41bd88
  41d858:	0041bdb0 	0x41bdb0
  41d85c:	0041bdd4 	0x41bdd4
  41d860:	0041bdf0 	0x41bdf0
  41d864:	0041bdfc 	0x41bdfc
  41d868:	0041be0c 	syscall	0x106f8
  41d86c:	0041be1c 	0x41be1c
  41d870:	0041be2c 	0x41be2c
  41d874:	0041be40 	0x41be40
  41d878:	0041be58 	0x41be58
  41d87c:	0041be64 	0x41be64
  41d880:	0041be88 	0x41be88
  41d884:	0041beac 	0x41beac
  41d888:	0041bec4 	0x41bec4
  41d88c:	0041bed8 	0x41bed8
  41d890:	0041bee8 	0x41bee8
  41d894:	0041befc 	0x41befc
  41d898:	0041bf1c 	0x41bf1c
  41d89c:	0041bf38 	0x41bf38

0041d8a0 <_sys_errtable>:
  41d8a0:	0000009e 	0x9e
  41d8a4:	00000006 	srlv	$zero,$zero,$zero
  41d8a8:	0041c1d4 	0x41c1d4
  41d8ac:	000001f4 	0x1f4
  41d8b0:	0000007c 	0x7c
  41d8b4:	0041c1e0 	0x41c1e0
	...

0041d8c4 <_sgi_errtable>:
  41d8c4:	000003e8 	0x3e8
  41d8c8:	00000002 	srl	$zero,$zero,0x0
  41d8cc:	0041c1fc 	0x41c1fc
  41d8d0:	0000046d 	0x46d
  41d8d4:	00000003 	sra	$zero,$zero,0x0
  41d8d8:	0041c208 	0x41c208
  41d8dc:	0000046f 	0x46f
  41d8e0:	00000004 	sllv	$zero,$zero,$zero
  41d8e4:	0041c21c 	0x41c21c
	...

0041d900 <__ctype>:
  41d900:	00202020 	add	$a0,$at,$zero
  41d904:	20202020 	addi	$zero,$at,8224
  41d908:	20202828 	addi	$zero,$at,10280
  41d90c:	28282820 	slti	$t0,$at,10272
  41d910:	20202020 	addi	$zero,$at,8224
  41d914:	20202020 	addi	$zero,$at,8224
  41d918:	20202020 	addi	$zero,$at,8224
  41d91c:	20202020 	addi	$zero,$at,8224
  41d920:	20481010 	addi	$t0,$v0,4112
  41d924:	10101010 	beq	$zero,$s0,421968 <_end+0xbe8>
  41d928:	10101010 	beq	$zero,$s0,42196c <_end+0xbec>
  41d92c:	10101010 	beq	$zero,$s0,421970 <_end+0xbf0>
  41d930:	10848484 	beq	$a0,$a0,3feb44 <__istart-0x2488>
  41d934:	84848484 	lh	$a0,-31612($a0)
  41d938:	84848410 	lh	$a0,-31728($a0)
  41d93c:	10101010 	beq	$zero,$s0,421980 <_end+0xc00>
  41d940:	10108181 	beq	$zero,$s0,3fdf48 <__istart-0x3084>
  41d944:	81818181 	lb	$at,-32383($t4)
  41d948:	01010101 	0x1010101
  41d94c:	01010101 	0x1010101
  41d950:	01010101 	0x1010101
  41d954:	01010101 	0x1010101
  41d958:	01010101 	0x1010101
  41d95c:	10101010 	beq	$zero,$s0,4219a0 <_end+0xc20>
  41d960:	10108282 	beq	$zero,$s0,3fe36c <__istart-0x2c60>
  41d964:	82828282 	lb	$v0,-32126($s4)
  41d968:	02020202 	0x2020202
  41d96c:	02020202 	0x2020202
  41d970:	02020202 	0x2020202
  41d974:	02020202 	0x2020202
  41d978:	02020202 	0x2020202
  41d97c:	10101010 	beq	$zero,$s0,4219c0 <_end+0xc40>
  41d980:	20000000 	addi	$zero,$zero,0
	...
  41da00:	00000001 	0x1
  41da04:	02030405 	0x2030405
  41da08:	06070809 	0x6070809
  41da0c:	0a0b0c0d 	j	82c3034 <_gp+0x7e9d454>
  41da10:	0e0f1011 	jal	83c4044 <_gp+0x7f9e464>
  41da14:	12131415 	beq	$s0,$s3,422a6c <_end+0x1cec>
  41da18:	16171819 	bne	$s0,$s7,423a80 <_end+0x2d00>
  41da1c:	1a1b1c1d 	0x1a1b1c1d
  41da20:	1e1f2021 	0x1e1f2021
  41da24:	22232425 	addi	$v1,$s1,9253
  41da28:	26272829 	addiu	$a3,$s1,10281
  41da2c:	2a2b2c2d 	slti	$t3,$s1,11309
  41da30:	2e2f3031 	sltiu	$t7,$s1,12337
  41da34:	32333435 	andi	$s3,$s1,0x3435
  41da38:	36373839 	ori	$s7,$s1,0x3839
  41da3c:	3a3b3c3d 	xori	$k1,$s1,0x3c3d
  41da40:	3e3f4061 	0x3e3f4061
  41da44:	62636465 	0x62636465
  41da48:	66676869 	0x66676869
  41da4c:	6a6b6c6d 	0x6a6b6c6d
  41da50:	6e6f7071 	0x6e6f7071
  41da54:	72737475 	0x72737475
  41da58:	76777879 	jalx	9dde1e4 <_gp+0x99b8604>
  41da5c:	7a5b5c5d 	0x7a5b5c5d
  41da60:	5e5f6041 	0x5e5f6041
  41da64:	42434445 	c0	0x434445
  41da68:	46474849 	c1	0x474849
  41da6c:	4a4b4c4d 	c2	0x4b4c4d
  41da70:	4e4f5051 	c3	0x4f5051
  41da74:	52535455 	0x52535455
  41da78:	56575859 	0x56575859
  41da7c:	5a7b7c7d 	0x5a7b7c7d
  41da80:	7e7f0000 	0x7e7f0000
	...
  41db00:	00000100 	sll	$zero,$zero,0x4
  41db04:	00010000 	sll	$zero,$at,0x0
  41db08:	01000000 	0x1000000
  41db0c:	00000000 	nop

0041db10 <_cur_locale>:
  41db10:	43000000 	c0	0x1000000
	...
  41db1c:	00000043 	sra	$zero,$zero,0x1
	...
  41db2c:	00004300 	sll	$t0,$zero,0xc
	...
  41db3c:	00430000 	0x430000
	...
  41db4c:	43000000 	c0	0x1000000
	...
  41db58:	00000043 	sra	$zero,$zero,0x1
	...
  41db70:	75737365 	jalx	5cdcd94 <_gp+0x58b71b4>
  41db74:	746c6f63 	jalx	1b1bd8c <_gp+0x16f61ac>
  41db78:	6b007573 	0x6b007573
  41db7c:	756e7365 	jalx	5b9cd94 <_gp+0x57771b4>
  41db80:	746c6f63 	jalx	1b1bd8c <_gp+0x16f61ac>
  41db84:	6b000000 	0x6b000000
	...

0041db90 <__uscasdata>:
  41db90:	00000000 	nop
  41db94:	ffffffff 	0xffffffff
  41db98:	ffffffff 	0xffffffff
  41db9c:	ffffffff 	0xffffffff
	...
  41dbc0:	00400100 	0x400100
	...
  41dbd0:	75737365 	jalx	5cdcd94 <_gp+0x58b71b4>
  41dbd4:	746c6f63 	jalx	1b1bd8c <_gp+0x16f61ac>
  41dbd8:	6b007573 	0x6b007573
  41dbdc:	756e7365 	jalx	5b9cd94 <_gp+0x57771b4>
  41dbe0:	746c6f63 	jalx	1b1bd8c <_gp+0x16f61ac>
  41dbe4:	6b000000 	0x6b000000
	...
Disassembly of section .sdata:

0041dbf0 <__trap_fpe_override>:
	...

0041dc00 <_environ>:
	...

0041dc10 <_bufendtab>:
  41dc10:	00420a70 	0x420a70
  41dc14:	0041fa60 	0x41fa60
  41dc18:	0041e748 	0x41e748
	...

0041dda4 <__iob>:
	...
  41ddb0:	01000000 	0x1000000
	...
  41ddc0:	02010000 	0x2010000
  41ddc4:	00000000 	nop
  41ddc8:	0041e740 	0x41e740
  41ddcc:	0041e740 	0x41e740
  41ddd0:	06020000 	0x6020000
	...

0041e3e4 <_lastbuf>:
  41e3e4:	0041e3e4 	0x41e3e4
	...

0041e3f0 <__first_link>:
  41e3f0:	0041dda4 	0x41dda4
  41e3f4:	0041dc10 	0x41dc10
  41e3f8:	0041e530 	0x41e530
  41e3fc:	0041e598 	0x41e598
  41e400:	00000064 	0x64
	...

0041e420 <__errnoaddr>:
  41e420:	00420b4c 	syscall	0x1082d
	...
  41e430:	75737073 	jalx	5cdc1cc <_gp+0x58b65ec>
  41e434:	656d6100 	0x656d6100
  41e438:	75737673 	jalx	5cdd9cc <_gp+0x58b7dec>
  41e43c:	656d6100 	0x656d6100
  41e440:	0a000000 	j	8000000 <_gp+0x7bda420>
  41e444:	554e4b00 	0x554e4b00
  41e448:	50484954 	0x50484954
  41e44c:	20200000 	addi	$zero,$at,0
  41e450:	50534c45 	0x50534c45
  41e454:	45500000 	0x45500000
  41e458:	50574f4b 	0x50574f4b
  41e45c:	45200000 	0x45200000
  41e460:	56484954 	0x56484954
  41e464:	20200000 	addi	$zero,$at,0
  41e468:	5657414b 	0x5657414b
  41e46c:	45200000 	0x45200000
  41e470:	50494e54 	0x50494e54
  41e474:	52200000 	0x52200000
  41e478:	504d4953 	0x504d4953
  41e47c:	53200000 	0x53200000
  41e480:	696f0000 	0x696f0000
	...

0041e490 <__us_sthread_stdio>:
  41e490:	00000001 	0x1

0041e494 <__us_rsthread_stdio>:
  41e494:	00000000 	nop

0041e498 <__us_sthread_misc>:
  41e498:	00000001 	0x1

0041e49c <__us_rsthread_misc>:
  41e49c:	00000000 	nop

0041e4a0 <__us_sthread_malloc>:
  41e4a0:	00000001 	0x1

0041e4a4 <__us_rsthread_malloc>:
	...

0041e4b0 <_ushlockdefspin>:
  41e4b0:	00000258 	0x258

0041e4b4 <_usyieldcnt>:
  41e4b4:	0000000a 	0xa
	...
  41e4c0:	6e616e30 	0x6e616e30
  41e4c4:	78000000 	0x78000000
  41e4c8:	4e414e30 	c3	0x414e30
  41e4cc:	58000000 	0x58000000
  41e4d0:	696e6600 	0x696e6600
  41e4d4:	494e4600 	0x494e4600
  41e4d8:	00000000 	nop
  41e4dc:	2d000000 	sltiu	$zero,$t0,0
  41e4e0:	2b000000 	slti	$zero,$t8,0
  41e4e4:	20000000 	addi	$zero,$zero,0
  41e4e8:	2d000000 	sltiu	$zero,$t0,0
  41e4ec:	2b000000 	slti	$zero,$t8,0
  41e4f0:	20000000 	addi	$zero,$zero,0
  41e4f4:	30780000 	andi	$t8,$v1,0x0
  41e4f8:	30580000 	andi	$t8,$v0,0x0
  41e4fc:	2d000000 	sltiu	$zero,$t0,0
  41e500:	2b000000 	slti	$zero,$t8,0
  41e504:	20000000 	addi	$zero,$zero,0
  41e508:	2d000000 	sltiu	$zero,$t0,0
  41e50c:	2b000000 	slti	$zero,$t8,0
  41e510:	20000000 	addi	$zero,$zero,0
  41e514:	286e756c 	slti	$t6,$v1,30060
  41e518:	6c290000 	0x6c290000
  41e51c:	2d000000 	sltiu	$zero,$t0,0
  41e520:	2b000000 	slti	$zero,$t8,0
  41e524:	20000000 	addi	$zero,$zero,0
	...

0041e530 <_bufendadj>:
	...

0041e598 <_bufdirtytab>:
	...
  41e600:	41414100 	0x41414100
  41e604:	544d5044 	0x544d5044
  41e608:	49520000 	0x49520000
  41e60c:	2f766172 	sltiu	$s6,$k1,24946
  41e610:	2f746d70 	sltiu	$s4,$k1,28016
  41e614:	2f000000 	sltiu	$zero,$t8,0
  41e618:	2f746d70 	sltiu	$s4,$k1,28016
  41e61c:	00000000 	nop
  41e620:	2f000000 	sltiu	$zero,$t8,0
  41e624:	58585858 	0x58585858
  41e628:	58580000 	0x58580000
  41e62c:	00000000 	nop

0041e630 <_minbrk>:
  41e630:	00420d80 	0x420d80

0041e634 <_curbrk>:
  41e634:	00420d80 	0x420d80
	...
  41e650:	4572726f 	0x4572726f
  41e654:	72203000 	0x72203000

0041e658 <_sys_nerr>:
  41e658:	00000098 	0x98
  41e65c:	00000000 	nop

0041e660 <_sys_num_err>:
  41e660:	000001f4 	0x1f4

0041e664 <_sgi_num_err>:
  41e664:	0000046f 	0x46f
	...

0041e670 <_numeric>:
  41e670:	2e000000 	sltiu	$zero,$s0,0
	...
  41e680:	0041c240 	0x41c240
  41e684:	43000000 	c0	0x1000000
  41e688:	43000000 	c0	0x1000000
  41e68c:	00000000 	nop

0041e690 <_uerror>:
  41e690:	00000000 	nop

0041e694 <_utracefd>:
  41e694:	00000002 	srl	$zero,$zero,0x0
  41e698:	00000000 	nop
  41e69c:	55535452 	0x55535452
  41e6a0:	41434500 	0x41434500
  41e6a4:	55534552 	0x55534552
  41e6a8:	524f5200 	0x524f5200
  41e6ac:	75736c6f 	jalx	5cdb1bc <_gp+0x58b55dc>
  41e6b0:	636b0000 	0x636b0000
  41e6b4:	55500000 	0x55500000
  41e6b8:	4d500000 	0x4d500000
  41e6bc:	00000001 	0x1
  41e6c0:	203a2000 	addi	$k0,$at,8192
  41e6c4:	0a000000 	j	8000000 <_gp+0x7bda420>
  41e6c8:	00000001 	0x1
  41e6cc:	00000000 	nop

0041e6d0 <_us_mapsize>:
  41e6d0:	00010000 	sll	$zero,$at,0x0

0041e6d4 <_us_maxusers>:
  41e6d4:	00000008 	jr	$zero

0041e6d8 <_us_locktype>:
  41e6d8:	00000000 	nop

0041e6dc <_us_arenatype>:
  41e6dc:	00000000 	nop

0041e6e0 <_us_attachaddr>:
  41e6e0:	ffffffff 	0xffffffff

0041e6e4 <_us_autogrow>:
  41e6e4:	00000001 	0x1

0041e6e8 <_us_autoresv>:
	...
  41e6f0:	55535452 	0x55535452
  41e6f4:	41434500 	0x41434500
  41e6f8:	55534552 	0x55534552
  41e6fc:	524f5200 	0x524f5200
  41e700:	4d000000 	bc3f	41e704 <_us_autoresv+0x1c>
  41e704:	25732564 	addiu	$s3,$t3,9572
	...
Disassembly of section .lit8:

0041e720 <.lit8>:
  41e720:	41f00000 	0x41f00000
  41e724:	00000000 	nop
  41e728:	43300000 	c0	0x1300000
  41e72c:	00000000 	nop
